Microchip MPLAB XC8 Compiler V2.32

Linker command line:

-W-3 --edf=C:\Program Files\Microchip\xc8\v2.32\pic\dat\en_msgs.txt -cn \
  -h+dist/default/production\CentralAlarme.X.production.sym \
  --cmf=dist/default/production\CentralAlarme.X.production.cmf -z -Q16F877A \
  -oC:\Users\joaog\AppData\Local\Temp\xcAs4qg.4 --defsym=__MPLAB_BUILD=1 \
  -Mdist/default/production/CentralAlarme.X.production.map -E1 \
  -ver=XC8 Compiler --acfsm=1493 -ASTACK=0141h-016Fh -pstack=STACK \
  -ACODE=00h-07FFhx4 -ASTRCODE=00h-01FFFh -ASTRING=00h-0FFhx32 \
  -ACONST=00h-0FFhx32 -AENTRY=00h-0FFhx32 -ACOMMON=070h-07Fh \
  -ABANK0=020h-06Fh -ABANK1=0A0h-0EFh -ABANK2=0110h-016Fh \
  -ABANK3=0190h-01EFh -ARAM=020h-06Fh,0A0h-0EFh,0110h-016Fh,0190h-01EFh \
  -AABS1=020h-07Fh,0A0h-0EFh,0110h-016Fh,0190h-01EFh -ASFR0=00h-01Fh \
  -ASFR1=080h-09Fh -ASFR2=0100h-010Fh -ASFR3=0180h-018Fh \
  -ACONFIG=02007h-02007h -DCONFIG=2 -AIDLOC=02000h-02003h -DIDLOC=2 \
  -AEEDATA=00h-0FFh/02100h -peeprom_data=EEDATA -DEEDATA=2 -DCODE=2 \
  -DSTRCODE=2 -DSTRING=2 -DCONST=2 -DENTRY=2 \
  -preset_vec=00h,intentry,init,end_init -ppowerup=CODE -pcinit=CODE \
  -pfunctab=ENTRY -k C:\Users\joaog\AppData\Local\Temp\xcAs4qg.o \
  dist/default/production\CentralAlarme.X.production.o 

Object code version is 3.11

Machine type is 16F877A



                Name                               Link     Load   Length Selector   Space Scale
C:\Users\joaog\AppData\Local\Temp\xcAs4qg.o
                end_init                              0        0        3        0       0
dist/default/production\CentralAlarme.X.production.o
                cinit                               7BC      7BC       44      F78       0
                text12                              4C6      4C6       16      98C       0
                text11                              464      464        E      8C8       0
                text10                              458      458        C      8B0       0
                text9                               565      565       33      ACA       0
                text8                               472      472       10      8E4       0
                text7                               482      482       10      904       0
                text6                               492      492       10      924       0
                text5                               4A2      4A2       11      944       0
                text4                               598      598       37      B30       0
                text3                               505      505       2F      A0A       0
                text2                               6A3      6A3       78      D46       0
                text1                               71B      71B       A1      E36       0
                maintext                            4DC      4DC       29      9B8       0
                cstackBANK0                          59       59        C       20       1
                cstackCOMMON                         70       70        D       70       1
                cstackBANK1                          E6       E6        2       A0       1
                inittext                            4B3      4B3       13      966       0
                dataBANK2                           110      110       31      110       1
                dataBANK3                           190      190       55      190       1
                dataBANK1                            A0       A0       46       A0       1
                dataBANK0                            20       20       39       20       1
                bssBANK0                             65       65        A       20       1
                idataBANK3                          64E      64E       55      C9C       0
                idataBANK2                          534      534       31      A68       0
                idataBANK1                          608      608       46      C10       0
                idataBANK0                          5CF      5CF       39      B9E       0

TOTAL           Name                               Link     Load   Length     Space
        CLASS   STACK          

        CLASS   CODE           
                end_init                              0        0        3         0
                cinit                               7BC      7BC       44         0
                text12                              4C6      4C6       16         0
                text11                              464      464        E         0
                text10                              458      458        C         0
                text9                               565      565       33         0
                text8                               472      472       10         0
                text7                               482      482       10         0
                text6                               492      492       10         0
                text5                               4A2      4A2       11         0
                text4                               598      598       37         0
                text3                               505      505       2F         0
                text2                               6A3      6A3       78         0
                text1                               71B      71B       A1         0
                maintext                            4DC      4DC       29         0
                inittext                            4B3      4B3       13         0
                idataBANK3                          64E      64E       55         0
                idataBANK2                          534      534       31         0
                idataBANK1                          608      608       46         0
                idataBANK0                          5CF      5CF       39         0

        CLASS   STRCODE        

        CLASS   STRING         

        CLASS   CONST          

        CLASS   ENTRY          

        CLASS   COMMON         
                cstackCOMMON                         70       70        D         1

        CLASS   BANK0          
                cstackBANK0                          59       59        C         1
                dataBANK0                            20       20       39         1
                bssBANK0                             65       65        A         1

        CLASS   BANK1          
                cstackBANK1                          E6       E6        2         1
                dataBANK1                            A0       A0       46         1

        CLASS   BANK2          
                dataBANK2                           110      110       31         1

        CLASS   BANK3          
                dataBANK3                           190      190       55         1

        CLASS   RAM            

        CLASS   ABS1           
                abs_s1                               7E       7E        2         1

        CLASS   SFR0           

        CLASS   SFR1           

        CLASS   SFR2           

        CLASS   SFR3           

        CLASS   CONFIG         

        CLASS   IDLOC          

        CLASS   EEDATA         



SEGMENTS        Name                           Load    Length   Top    Selector   Space  Class     Delta

                reset_vec                      000000  000003  000003         0       0  CODE        2
                dataBANK0                      000020  00004F  00006F        20       1  BANK0       1
                cstackCOMMON                   000070  00000D  00007D        70       1  COMMON      1
                dataBANK1                      0000A0  000048  0000E8        A0       1  BANK1       1
                dataBANK2                      000110  000031  000141       110       1  BANK2       1
                dataBANK3                      000190  000055  0001E5       190       1  BANK3       1
                text10                         000458  00000C  000464       8B0       0  CODE        2
                text11                         000464  00000E  000472       8C8       0  CODE        2
                text8                          000472  000010  000482       8E4       0  CODE        2
                text7                          000482  000010  000492       904       0  CODE        2
                text6                          000492  000010  0004A2       924       0  CODE        2
                text5                          0004A2  000011  0004B3       944       0  CODE        2
                inittext                       0004B3  000013  0004C6       966       0  CODE        2
                text12                         0004C6  000016  0004DC       98C       0  CODE        2
                maintext                       0004DC  000029  000505       9B8       0  CODE        2
                text3                          000505  00002F  000534       A0A       0  CODE        2
                idataBANK2                     000534  000031  000565       A68       0  CODE        2
                text9                          000565  000033  000598       ACA       0  CODE        2
                text4                          000598  000037  0005CF       B30       0  CODE        2
                idataBANK0                     0005CF  000039  000608       B9E       0  CODE        2
                idataBANK1                     000608  000046  00064E       C10       0  CODE        2
                idataBANK3                     00064E  000055  0006A3       C9C       0  CODE        2
                text2                          0006A3  000078  00071B       D46       0  CODE        2
                text1                          00071B  0000A1  0007BC       E36       0  CODE        2
                cinit                          0007BC  000044  000800       F78       0  CODE        2


UNUSED ADDRESS RANGES

        Name                Unused          Largest block    Delta
        BANK0            006F-006F              1           1
        BANK1            00E8-00EF              8           1
        BANK2            0141-016F             2F           1
        BANK3            01E5-01EF              B           1
        CODE             0003-0457            455           2
                         0800-1FFF            800
        COMMON           007D-007D              1           1
        CONFIG           2007-2007              1           2
        CONST            0003-0457            100           2
                         0800-1FFF            100
        EEDATA           2100-21FF            100           2
        ENTRY            0003-0457            100           2
                         0800-1FFF            100
        IDLOC            2000-2003              4           2
        RAM              006F-006F              1           1
                         00E8-00EF              8
                         0141-016F             2F
                         01E5-01EF              B
        SFR0             0000-001F             20           1
        SFR1             0080-009F             20           1
        SFR2             0100-010F             10           1
        SFR3             0180-018F             10           1
        STACK            0141-016F             2F           1
        STRCODE          0003-0457            455           2
                         0800-1FFF           1800
        STRING           0003-0457            100           2
                         0800-1FFF            100

                                  Symbol Table

LCD_escreve@x              cstackCOMMON 0072
_ADCON0                    (abs)        001F
_ADCON1                    (abs)        009F
_ADRESH                    (abs)        001E
_ADRESL                    (abs)        009E
_GO_nDONE                  (abs)        00FA
_LCD_enable                text11       0464
_LCD_escreve               text5        04A2
_LCD_init                  text9        0565
_LCD_limpa                 text8        0472
_LCD_linha1                text7        0482
_LCD_linha2                text6        0492
_PORTB                     (abs)        0006
_PORTD                     (abs)        0008
_PORTE                     (abs)        0009
_RA1                       (abs)        0029
_RA3                       (abs)        002B
_RA4                       (abs)        002C
_RA5                       (abs)        002D
_RB0                       (abs)        0030
_RB1                       (abs)        0031
_RB2                       (abs)        0032
_RB3                       (abs)        0033
_TRISA                     (abs)        0085
_TRISB                     (abs)        0086
_TRISD                     (abs)        0088
_TRISE                     (abs)        0089
__Habs1                    abs1         0000
__Hbank0                   bank0        0000
__Hbank1                   bank1        0000
__Hbank2                   bank2        0000
__Hbank3                   bank3        0000
__HbssBANK0                bssBANK0     0000
__Hcinit                   cinit        0800
__Hclrtext                 clrtext      0000
__Hcode                    code         0000
__Hcommon                  common       0000
__HcstackBANK0             cstackBANK0  0000
__HcstackBANK1             cstackBANK1  0000
__HcstackCOMMON            cstackCOMMON 0000
__HdataBANK0               dataBANK0    0000
__HdataBANK1               dataBANK1    0000
__HdataBANK2               dataBANK2    0000
__HdataBANK3               dataBANK3    0000
__Heeprom_data             eeprom_data  0000
__Hend_init                end_init     0003
__Hfunctab                 functab      0000
__HidataBANK0              idataBANK0   0000
__HidataBANK1              idataBANK1   0000
__HidataBANK2              idataBANK2   0000
__HidataBANK3              idataBANK3   0000
__Hinit                    init         0000
__Hinittext                inittext     0000
__Hintentry                intentry     0000
__Hmaintext                maintext     0000
__Hpowerup                 powerup      0000
__Hram                     ram          0000
__Hreset_vec               reset_vec    0000
__Hsfr0                    sfr0         0000
__Hsfr1                    sfr1         0000
__Hsfr2                    sfr2         0000
__Hsfr3                    sfr3         0000
__Hspace_0                 (abs)        0800
__Hspace_1                 (abs)        01E5
__Hspace_2                 (abs)        0000
__Hspace_3                 (abs)        0000
__Hstack                   stack        0000
__Hstrings                 strings      0000
__Htext                    text         0000
__Labs1                    abs1         0000
__Lbank0                   bank0        0000
__Lbank1                   bank1        0000
__Lbank2                   bank2        0000
__Lbank3                   bank3        0000
__LbssBANK0                bssBANK0     0000
__Lcinit                   cinit        07BC
__Lclrtext                 clrtext      0000
__Lcode                    code         0000
__Lcommon                  common       0000
__LcstackBANK0             cstackBANK0  0000
__LcstackBANK1             cstackBANK1  0000
__LcstackCOMMON            cstackCOMMON 0000
__LdataBANK0               dataBANK0    0000
__LdataBANK1               dataBANK1    0000
__LdataBANK2               dataBANK2    0000
__LdataBANK3               dataBANK3    0000
__Leeprom_data             eeprom_data  0000
__Lend_init                end_init     0000
__Lfunctab                 functab      0000
__LidataBANK0              idataBANK0   0000
__LidataBANK1              idataBANK1   0000
__LidataBANK2              idataBANK2   0000
__LidataBANK3              idataBANK3   0000
__Linit                    init         0000
__Linittext                inittext     0000
__Lintentry                intentry     0000
__Lmaintext                maintext     0000
__Lpowerup                 powerup      0000
__Lram                     ram          0000
__Lreset_vec               reset_vec    0000
__Lsfr0                    sfr0         0000
__Lsfr1                    sfr1         0000
__Lsfr2                    sfr2         0000
__Lsfr3                    sfr3         0000
__Lspace_0                 (abs)        0000
__Lspace_1                 (abs)        0000
__Lspace_2                 (abs)        0000
__Lspace_3                 (abs)        0000
__Lstack                   stack        0000
__Lstrings                 strings      0000
__Ltext                    text         0000
__S0                       (abs)        0800
__S1                       (abs)        01E5
__S2                       (abs)        0000
__S3                       (abs)        0000
___int_sp                  stack        0000
___latbits                 (abs)        0002
___sp                      stack        0000
___stackhi                 (abs)        0000
___stacklo                 (abs)        0000
__end_of_LCD_enable        text11       0472
__end_of_LCD_escreve       text5        04B3
__end_of_LCD_init          text9        0598
__end_of_LCD_limpa         text8        0482
__end_of_LCD_linha1        text7        0492
__end_of_LCD_linha2        text6        04A2
__end_of__initialization   cinit        07FC
__end_of_configZonas       text1        07BC
__end_of_delay             text12       04DC
__end_of_escreveMesagem    text4        05CF
__end_of_infoZonas         text3        0534
__end_of_init              text10       0464
__end_of_main              maintext     0505
__end_of_setaZona          text2        071B
__initialization           cinit        07BC
__pbssBANK0                bssBANK0     0065
__pcstackBANK0             cstackBANK0  0059
__pcstackBANK1             cstackBANK1  00E6
__pcstackCOMMON            cstackCOMMON 0070
__pdataBANK0               dataBANK0    0020
__pdataBANK1               dataBANK1    00A0
__pdataBANK2               dataBANK2    0110
__pdataBANK3               dataBANK3    0190
__pidataBANK0              idataBANK0   05CF
__pidataBANK1              idataBANK1   0608
__pidataBANK2              idataBANK2   0534
__pidataBANK3              idataBANK3   064E
__pmaintext                maintext     04DC
__ptext1                   text1        071B
__ptext10                  text10       0458
__ptext11                  text11       0464
__ptext12                  text12       04C6
__ptext2                   text2        06A3
__ptext3                   text3        0505
__ptext4                   text4        0598
__ptext5                   text5        04A2
__ptext6                   text6        0492
__ptext7                   text7        0482
__ptext8                   text8        0472
__ptext9                   text9        0565
__size_of_LCD_enable       (abs)        0000
__size_of_LCD_escreve      (abs)        0000
__size_of_LCD_init         (abs)        0000
__size_of_LCD_limpa        (abs)        0000
__size_of_LCD_linha1       (abs)        0000
__size_of_LCD_linha2       (abs)        0000
__size_of_configZonas      (abs)        0000
__size_of_delay            (abs)        0000
__size_of_escreveMesagem   (abs)        0000
__size_of_infoZonas        (abs)        0000
__size_of_init             (abs)        0000
__size_of_main             (abs)        0000
__size_of_setaZona         (abs)        0000
_aux                       bssBANK0     006B
_configZonas               text1        071B
_delay                     text12       04C6
_escreveMesagem            text4        0598
_infoZonas                 text3        0505
_init                      text10       0458
_input                     dataBANK0    002A
_main                      maintext     04DC
_menu                      dataBANK0    0024
_msgAceitoOuNego           dataBANK0    002E
_msgConfigDispara          dataBANK1    00AF
_msgDesativarZona          dataBANK3    019F
_msgDigiteNovaSenha        dataBANK3    01AE
_msgDigiteSenha            dataBANK3    0190
_msgMascara                dataBANK0    0040
_msgReativar               dataBANK0    0037
_msgSenhaAtualizada        dataBANK2    0110
_msgSenhaCancelada         dataBANK2    0131
_msgSenhaCoacao            dataBANK1    00CC
_msgSenhaConfig            dataBANK1    00D9
_msgSenhaCorreta           dataBANK3    01CA
_msgSenhaDisparo           dataBANK3    01BC
_msgSenhaErrada            dataBANK3    01D8
_msgSenhaUsuario           dataBANK1    00BE
_msgValidaSenha            dataBANK2    0121
_msgZonaDisparadas         dataBANK1    00A0
_opConfig                  bssBANK0     0069
_senhaCoa                  dataBANK0    004A
_senhaConfig               dataBANK0    0045
_senhaUser                 dataBANK0    0054
_senhaUserConfere          dataBANK0    004F
_setaZona                  text2        06A3
_userFalse                 dataBANK0    0026
_validaSenha               bssBANK0     006D
_zonaConfig                dataBANK0    002C
btemp                      (abs)        007E
delay@i                    cstackCOMMON 0070
end_of_initialization      cinit        07FC
escreveMesagem@i           cstackCOMMON 0078
escreveMesagem@texto       cstackCOMMON 0073
init_fetch0                inittext     04B3
init_ram0                  inittext     04B7
intlevel0                  functab      0000
intlevel1                  functab      0000
intlevel2                  functab      0000
intlevel3                  functab      0000
intlevel4                  functab      0000
intlevel5                  functab      0000
reset_vec                  reset_vec    0000
setaZona@i                 cstackBANK0  0060
setaZona@msgConfigDispara  cstackBANK0  0059
setaZona@msgZonaDisparadas cstackBANK0  005F
setaZona@pos               cstackBANK0  005A
start                      init         0000
start_initialization       cinit        07BC
wtemp0                     (abs)        007E


MODULE INFORMATION

Module		Function		Class		Link	Load	Size
./lcd.h
		_init          		CODE           	0458	0000	12
		_LCD_limpa     		CODE           	0472	0000	16
		_delay         		CODE           	04C6	0000	22
		_LCD_enable    		CODE           	0464	0000	14
		_LCD_escreve   		CODE           	04A2	0000	17
		_LCD_init      		CODE           	0565	0000	51
		_LCD_linha1    		CODE           	0482	0000	16
		_LCD_linha2    		CODE           	0492	0000	16

./lcd.h estimated size: 164

shared
		__initialization		CODE           	07BC	0000	64

shared estimated size: 64

main.c
		_setaZona      		CODE           	06A3	0000	120
		_main          		CODE           	04DC	0000	41
		_escreveMesagem		CODE           	0598	0000	55
		_configZonas   		CODE           	071B	0000	161
		_infoZonas     		CODE           	0505	0000	47

main.c estimated size: 424

