

Microchip MPLAB XC8 Assembler V2.32 build 20210201212658 
                                                                                               Wed Sep 29 23:27:09 2021

Microchip MPLAB XC8 C Compiler v2.32 (Free license) build 20210201212658 Og1 
     1                           	processor	16F877A
     2                           	pagewidth 120
     3                           	opt	flic
     4                           	psect	idataBANK0,global,class=CODE,delta=2,noexec
     5                           	psect	idataBANK1,global,class=CODE,delta=2,noexec
     6                           	psect	strings,global,class=STRING,delta=2,noexec
     7                           	psect	cinit,global,class=CODE,merge=1,delta=2
     8                           	psect	bssBANK0,global,class=BANK0,space=1,delta=1,noexec
     9                           	psect	dataBANK0,global,class=BANK0,space=1,delta=1,noexec
    10                           	psect	dataBANK1,global,class=BANK1,space=1,delta=1,noexec
    11                           	psect	inittext,global,class=CODE,delta=2
    12                           	psect	clrtext,global,class=CODE,delta=2
    13                           	psect	cstackCOMMON,global,class=COMMON,space=1,delta=1,noexec
    14                           	psect	cstackBANK0,global,class=BANK0,space=1,delta=1,noexec
    15                           	psect	maintext,global,class=CODE,split=1,delta=2
    16                           	psect	text1,local,class=CODE,merge=1,delta=2
    17                           	psect	text2,local,class=CODE,merge=1,delta=2
    18                           	psect	text3,local,class=CODE,merge=1,delta=2
    19                           	psect	text4,local,class=CODE,merge=1,delta=2,group=1
    20                           	psect	text5,local,class=CODE,merge=1,delta=2,group=1
    21                           	psect	text6,local,class=CODE,merge=1,delta=2,group=1
    22                           	psect	text7,local,class=CODE,merge=1,delta=2,group=1
    23                           	psect	text8,local,class=CODE,merge=1,delta=2,group=1
    24                           	psect	text9,local,class=CODE,merge=1,delta=2,group=2
    25                           	psect	text10,local,class=CODE,merge=1,delta=2,group=2
    26                           	psect	text11,local,class=CODE,merge=1,delta=2,group=2
    27                           	psect	text12,local,class=CODE,merge=1,delta=2
    28                           	psect	text13,local,class=CODE,merge=1,delta=2
    29                           	psect	text14,local,class=CODE,merge=1,delta=2
    30                           	psect	text15,local,class=CODE,merge=1,delta=2
    31                           	psect	text16,local,class=CODE,merge=1,delta=2
    32                           	psect	text17,local,class=CODE,merge=1,delta=2,group=2
    33                           	psect	text18,local,class=CODE,merge=1,delta=2
    34                           	psect	text19,local,class=CODE,merge=1,delta=2
    35                           	psect	text20,local,class=CODE,merge=1,delta=2
    36                           	psect	text21,local,class=CODE,merge=1,delta=2
    37                           	psect	text22,local,class=CODE,merge=1,delta=2
    38                           	psect	text23,local,class=CODE,merge=1,delta=2
    39                           	psect	text24,local,class=CODE,merge=1,delta=2
    40                           	dabs	1,0x7E,2
    41  0000                     
    42                           ; Version 2.20
    43                           ; Generated 12/02/2020 GMT
    44                           ; 
    45                           ; Copyright © 2020, Microchip Technology Inc. and its subsidiaries ("Microchip")
    46                           ; All rights reserved.
    47                           ; 
    48                           ; This software is developed by Microchip Technology Inc. and its subsidiaries ("Microch
      +                          ip").
    49                           ; 
    50                           ; Redistribution and use in source and binary forms, with or without modification, are
    51                           ; permitted provided that the following conditions are met:
    52                           ; 
    53                           ;     1. Redistributions of source code must retain the above copyright notice, this lis
      +                          t of
    54                           ;        conditions and the following disclaimer.
    55                           ; 
    56                           ;     2. Redistributions in binary form must reproduce the above copyright notice, this 
      +                          list
    57                           ;        of conditions and the following disclaimer in the documentation and/or other
    58                           ;        materials provided with the distribution.
    59                           ; 
    60                           ;     3. Microchip's name may not be used to endorse or promote products derived from th
      +                          is
    61                           ;        software without specific prior written permission.
    62                           ; 
    63                           ; THIS SOFTWARE IS PROVIDED BY MICROCHIP "AS IS" AND ANY EXPRESS OR IMPLIED WARRANTIES,
    64                           ; INCLUDING, BUT NOT LIMITED TO, THE IMPLIED WARRANTIES OF MERCHANTABILITY AND FITNESS F
      +                          OR
    65                           ; PURPOSE ARE DISCLAIMED.  IN NO EVENT SHALL MICROCHIP BE LIABLE FOR ANY DIRECT, INDIREC
      +                          T,
    66                           ; INCIDENTAL, SPECIAL, EXEMPLARY, OR CONSEQUENTIAL DAMAGES (INCLUDING BUT NOT LIMITED TO
    67                           ; PROCUREMENT OF SUBSTITUTE GOODS OR SERVICES; LOSS OF USE, DATA OR PROFITS; OR BUSINESS
    68                           ; INTERRUPTION) HOWSOEVER CAUSED AND ON ANY THEORY OF LIABILITY, WHETHER IN CONTRACT, ST
      +                          RICT
    69                           ; LIABILITY, OR TORT (INCLUDING NEGLIGENCE OR OTHERWISE) ARISING IN ANY WAY OUT OF THE U
      +                          SE OF
    70                           ; THIS SOFTWARE, EVEN IF ADVISED OF THE POSSIBILITY OF SUCH DAMAGE.
    71                           ; 
    72                           ; 
    73                           ; Code-generator required, PIC16F877A Definitions
    74                           ; 
    75                           ; SFR Addresses
    76  0000                     	;# 
    77  0001                     	;# 
    78  0002                     	;# 
    79  0003                     	;# 
    80  0004                     	;# 
    81  0005                     	;# 
    82  0006                     	;# 
    83  0007                     	;# 
    84  0008                     	;# 
    85  0009                     	;# 
    86  000A                     	;# 
    87  000B                     	;# 
    88  000C                     	;# 
    89  000D                     	;# 
    90  000E                     	;# 
    91  000E                     	;# 
    92  000F                     	;# 
    93  0010                     	;# 
    94  0011                     	;# 
    95  0012                     	;# 
    96  0013                     	;# 
    97  0014                     	;# 
    98  0015                     	;# 
    99  0015                     	;# 
   100  0016                     	;# 
   101  0017                     	;# 
   102  0018                     	;# 
   103  0019                     	;# 
   104  001A                     	;# 
   105  001B                     	;# 
   106  001B                     	;# 
   107  001C                     	;# 
   108  001D                     	;# 
   109  001E                     	;# 
   110  001F                     	;# 
   111  0081                     	;# 
   112  0085                     	;# 
   113  0086                     	;# 
   114  0087                     	;# 
   115  0088                     	;# 
   116  0089                     	;# 
   117  008C                     	;# 
   118  008D                     	;# 
   119  008E                     	;# 
   120  0091                     	;# 
   121  0092                     	;# 
   122  0093                     	;# 
   123  0094                     	;# 
   124  0098                     	;# 
   125  0099                     	;# 
   126  009C                     	;# 
   127  009D                     	;# 
   128  009E                     	;# 
   129  009F                     	;# 
   130  010C                     	;# 
   131  010D                     	;# 
   132  010E                     	;# 
   133  010F                     	;# 
   134  018C                     	;# 
   135  018D                     	;# 
   136  0000                     	;# 
   137  0001                     	;# 
   138  0002                     	;# 
   139  0003                     	;# 
   140  0004                     	;# 
   141  0005                     	;# 
   142  0006                     	;# 
   143  0007                     	;# 
   144  0008                     	;# 
   145  0009                     	;# 
   146  000A                     	;# 
   147  000B                     	;# 
   148  000C                     	;# 
   149  000D                     	;# 
   150  000E                     	;# 
   151  000E                     	;# 
   152  000F                     	;# 
   153  0010                     	;# 
   154  0011                     	;# 
   155  0012                     	;# 
   156  0013                     	;# 
   157  0014                     	;# 
   158  0015                     	;# 
   159  0015                     	;# 
   160  0016                     	;# 
   161  0017                     	;# 
   162  0018                     	;# 
   163  0019                     	;# 
   164  001A                     	;# 
   165  001B                     	;# 
   166  001B                     	;# 
   167  001C                     	;# 
   168  001D                     	;# 
   169  001E                     	;# 
   170  001F                     	;# 
   171  0081                     	;# 
   172  0085                     	;# 
   173  0086                     	;# 
   174  0087                     	;# 
   175  0088                     	;# 
   176  0089                     	;# 
   177  008C                     	;# 
   178  008D                     	;# 
   179  008E                     	;# 
   180  0091                     	;# 
   181  0092                     	;# 
   182  0093                     	;# 
   183  0094                     	;# 
   184  0098                     	;# 
   185  0099                     	;# 
   186  009C                     	;# 
   187  009D                     	;# 
   188  009E                     	;# 
   189  009F                     	;# 
   190  010C                     	;# 
   191  010D                     	;# 
   192  010E                     	;# 
   193  010F                     	;# 
   194  018C                     	;# 
   195  018D                     	;# 
   196                           
   197                           	psect	idataBANK0
   198  150E                     __pidataBANK0:
   199                           
   200                           ;initializer for _userFalse
   201  150E  3401               	retlw	1
   202  150F  3400               	retlw	0
   203                           
   204                           ;initializer for _painel
   205  1510  3401               	retlw	1
   206  1511  3400               	retlw	0
   207                           
   208                           ;initializer for _input
   209  1512  340A               	retlw	10
   210  1513  3400               	retlw	0
   211                           
   212                           ;initializer for _msg2
   213  1514  345F               	retlw	95
   214  1515  345F               	retlw	95
   215  1516  345F               	retlw	95
   216  1517  345F               	retlw	95
   217  1518  3400               	retlw	0
   218                           
   219                           ;initializer for _senhaUser
   220  1519  3431               	retlw	49
   221  151A  3432               	retlw	50
   222  151B  3431               	retlw	49
   223  151C  3432               	retlw	50
   224  151D  3400               	retlw	0
   225                           
   226                           	psect	idataBANK1
   227  14CF                     __pidataBANK1:
   228                           
   229                           ;initializer for _msg
   230  14CF  3444               	retlw	68
   231  14D0  3469               	retlw	105
   232  14D1  3467               	retlw	103
   233  14D2  3469               	retlw	105
   234  14D3  3474               	retlw	116
   235  14D4  3465               	retlw	101
   236  14D5  3420               	retlw	32
   237  14D6  3461               	retlw	97
   238  14D7  3420               	retlw	32
   239  14D8  3473               	retlw	115
   240  14D9  3465               	retlw	101
   241  14DA  346E               	retlw	110
   242  14DB  3468               	retlw	104
   243  14DC  3461               	retlw	97
   244  14DD  3400               	retlw	0
   245  0006                     _PORTB	set	6
   246  0009                     _PORTE	set	9
   247  0008                     _PORTD	set	8
   248  0033                     _RB3	set	51
   249  0032                     _RB2	set	50
   250  0031                     _RB1	set	49
   251  0030                     _RB0	set	48
   252  002B                     _RA3	set	43
   253  002C                     _RA4	set	44
   254  002D                     _RA5	set	45
   255  0029                     _RA1	set	41
   256  0086                     _TRISB	set	134
   257  0089                     _TRISE	set	137
   258  0088                     _TRISD	set	136
   259  0085                     _TRISA	set	133
   260  009F                     _ADCON1	set	159
   261                           
   262                           	psect	strings
   263  1000                     __pstrings:
   264  1000                     stringtab:
   265  1000                     __stringtab:
   266  1000                     stringcode:	
   267                           ;	String table - string pointers are 1 byte each
   268                           
   269  1000                     stringdir:
   270  1000  3010               	movlw	high stringdir
   271  1001  008A               	movwf	10
   272  1002  0804               	movf	4,w
   273  1003  0A84               	incf	4,f
   274  1004  0782               	addwf	2,f
   275  1005                     __stringbase:
   276  1005  3400               	retlw	0
   277  1006                     __end_of__stringtab:
   278  1006                     STR_10:
   279  1006  3430               	retlw	48	;'0'
   280  1007  3400               	retlw	0
   281  1008                     STR_1:
   282  1008  3431               	retlw	49	;'1'
   283  1009  3400               	retlw	0
   284  100A                     STR_2:
   285  100A  3432               	retlw	50	;'2'
   286  100B  3400               	retlw	0
   287  100C                     STR_3:
   288  100C  3433               	retlw	51	;'3'
   289  100D  3400               	retlw	0
   290  100E                     STR_4:
   291  100E  3434               	retlw	52	;'4'
   292  100F  3400               	retlw	0
   293  1010                     STR_5:
   294  1010  3435               	retlw	53	;'5'
   295  1011  3400               	retlw	0
   296  1012                     STR_6:
   297  1012  3436               	retlw	54	;'6'
   298  1013  3400               	retlw	0
   299  1014                     STR_7:
   300  1014  3437               	retlw	55	;'7'
   301  1015  3400               	retlw	0
   302  1016                     STR_8:
   303  1016  3438               	retlw	56	;'8'
   304  1017  3400               	retlw	0
   305  1018                     STR_9:
   306  1018  3439               	retlw	57	;'9'
   307  1019  3400               	retlw	0
   308                           
   309                           	psect	cinit
   310  07D9                     start_initialization:	
   311                           ; #config settings
   312                           
   313  07D9                     __initialization:
   314                           
   315                           ; Initialize objects allocated to BANK1
   316  07D9  1383               	bcf	3,7	;select IRP bank0
   317  07DA  30AF               	movlw	low (__pdataBANK1+15)
   318  07DB  00FD               	movwf	btemp+-1
   319  07DC  3014               	movlw	high __pidataBANK1
   320  07DD  00FE               	movwf	btemp
   321  07DE  30CF               	movlw	low __pidataBANK1
   322  07DF  00FF               	movwf	btemp+1
   323  07E0  30A0               	movlw	low __pdataBANK1
   324  07E1  0084               	movwf	4
   325  07E2  160A  118A  2533  120A  118A  	fcall	init_ram0
   326                           
   327                           ; Initialize objects allocated to BANK0
   328  07E7  306E               	movlw	low (__pdataBANK0+16)
   329  07E8  00FD               	movwf	btemp+-1
   330  07E9  3015               	movlw	high __pidataBANK0
   331  07EA  00FE               	movwf	btemp
   332  07EB  300E               	movlw	low __pidataBANK0
   333  07EC  00FF               	movwf	btemp+1
   334  07ED  305E               	movlw	low __pdataBANK0
   335  07EE  0084               	movwf	4
   336  07EF  160A  118A  2533  120A  118A  	fcall	init_ram0
   337                           
   338                           ; Clear objects allocated to BANK0
   339  07F4  304A               	movlw	low __pbssBANK0
   340  07F5  0084               	movwf	4
   341  07F6  305E               	movlw	low (__pbssBANK0+20)
   342  07F7  160A  118A  24AD  120A  118A  	fcall	clear_ram0
   343  07FC                     end_of_initialization:	
   344                           ;End of C runtime variable initialization code
   345                           
   346  07FC                     __end_of__initialization:
   347  07FC  0183               	clrf	3
   348  07FD  160A  118A  2E6C   	ljmp	_main	;jump to C main() function
   349                           
   350                           	psect	bssBANK0
   351  004A                     __pbssBANK0:
   352  004A                     _senhaConfig:
   353  004A                     	ds	5
   354  004F                     _senhaCoa:
   355  004F                     	ds	5
   356  0054                     _valorSensor:
   357  0054                     	ds	2
   358  0056                     _config:
   359  0056                     	ds	2
   360  0058                     _aux:
   361  0058                     	ds	1
   362  0059                     _senhaUserConfere:
   363  0059                     	ds	5
   364                           
   365                           	psect	dataBANK0
   366  005E                     __pdataBANK0:
   367  005E                     _userFalse:
   368  005E                     	ds	2
   369  0060                     _painel:
   370  0060                     	ds	2
   371  0062                     _input:
   372  0062                     	ds	2
   373  0064                     _msg2:
   374  0064                     	ds	5
   375  0069                     _senhaUser:
   376  0069                     	ds	5
   377                           
   378                           	psect	dataBANK1
   379  00A0                     __pdataBANK1:
   380  00A0                     _msg:
   381  00A0                     	ds	15
   382                           
   383                           	psect	inittext
   384  152F                     init_fetch0:	
   385                           ;	Called with low address in FSR and high address in W
   386                           
   387  152F  087E               	movf	btemp,w
   388  1530  008A               	movwf	10
   389  1531  087F               	movf	btemp+1,w
   390  1532  0082               	movwf	2
   391  1533                     init_ram0:	
   392                           ;Called with:
   393                           ;	high address of idata address in btemp 
   394                           ;	low address of idata address in btemp+1 
   395                           ;	low address of data in FSR
   396                           ;	high address + 1 of data in btemp-1
   397                           
   398  1533  160A  118A  252F  160A  118A  	fcall	init_fetch0
   399  1538  0080               	movwf	0
   400  1539  0A84               	incf	4,f
   401  153A  0804               	movf	4,w
   402  153B  067D               	xorwf	btemp+-1,w
   403  153C  1903               	btfsc	3,2
   404  153D  3400               	retlw	0
   405  153E  0AFF               	incf	btemp+1,f
   406  153F  1903               	btfsc	3,2
   407  1540  0AFE               	incf	btemp,f
   408  1541  2D33               	goto	init_ram0
   409                           
   410                           	psect	clrtext
   411  14AD                     clear_ram0:	
   412                           ;	Called with FSR containing the base address, and
   413                           ;	W with the last address+1
   414                           
   415  14AD  0064               	clrwdt	;clear the watchdog before getting into this loop
   416  14AE                     clrloop0:
   417  14AE  0180               	clrf	0	;clear RAM location pointed to by FSR
   418  14AF  0A84               	incf	4,f	;increment pointer
   419  14B0  0604               	xorwf	4,w	;XOR with final address
   420  14B1  1903               	btfsc	3,2	;have we reached the end yet?
   421  14B2  3400               	retlw	0	;all done for this memory range, return
   422  14B3  0604               	xorwf	4,w	;XOR again to restore value
   423  14B4  2CAE               	goto	clrloop0	;do the next byte
   424                           
   425                           	psect	cstackCOMMON
   426  0070                     __pcstackCOMMON:
   427  0070                     ?___flge:
   428  0070                     ?_LCD_enable:	
   429                           ; 1 bit 
   430                           
   431  0070                     ?_delay:	
   432                           ; 1 bytes @ 0x0
   433                           
   434  0070                     ??_delay:	
   435                           ; 1 bytes @ 0x0
   436                           
   437  0070                     ?_telaInicial:	
   438                           ; 1 bytes @ 0x0
   439                           
   440  0070                     ?_Linha2:	
   441                           ; 1 bytes @ 0x0
   442                           
   443  0070                     ?_validaUser:	
   444                           ; 1 bytes @ 0x0
   445                           
   446  0070                     ?_espacoLivre:	
   447                           ; 1 bytes @ 0x0
   448                           
   449  0070                     ?_strcpy:	
   450                           ; 1 bytes @ 0x0
   451                           
   452  0070                     ?_init:	
   453                           ; 1 bytes @ 0x0
   454                           
   455  0070                     ??_init:	
   456                           ; 1 bytes @ 0x0
   457                           
   458  0070                     ?_LCD_init:	
   459                           ; 1 bytes @ 0x0
   460                           
   461  0070                     ?_LCD_escreve:	
   462                           ; 1 bytes @ 0x0
   463                           
   464  0070                     ?_LCD_limpa:	
   465                           ; 1 bytes @ 0x0
   466                           
   467  0070                     ?_LCD_linha1:	
   468                           ; 1 bytes @ 0x0
   469                           
   470  0070                     ?_LCD_linha2:	
   471                           ; 1 bytes @ 0x0
   472                           
   473  0070                     ?_main:	
   474                           ; 1 bytes @ 0x0
   475                           
   476  0070                     ?_teclado:	
   477                           ; 1 bytes @ 0x0
   478                           
   479  0070                     ?_strlen:	
   480                           ; 1 bytes @ 0x0
   481                           
   482  0070                     ?_strcmp:	
   483                           ; 2 bytes @ 0x0
   484                           
   485  0070                     ?__Umul8_16:	
   486                           ; 2 bytes @ 0x0
   487                           
   488  0070                     ?___fladd:	
   489                           ; 2 bytes @ 0x0
   490                           
   491  0070                     __Umul8_16@multiplicand:	
   492                           ; 4 bytes @ 0x0
   493                           
   494  0070                     strcmp@s2:	
   495                           ; 1 bytes @ 0x0
   496                           
   497  0070                     strcpy@from:	
   498                           ; 1 bytes @ 0x0
   499                           
   500  0070                     delay@i:	
   501                           ; 1 bytes @ 0x0
   502                           
   503  0070                     ___flge@ff1:	
   504                           ; 2 bytes @ 0x0
   505                           
   506  0070                     ___fladd@b:	
   507                           ; 4 bytes @ 0x0
   508                           
   509                           
   510                           ; 4 bytes @ 0x0
   511  0070                     	ds	1
   512  0071                     ??_strcpy:
   513                           
   514                           ; 1 bytes @ 0x1
   515  0071                     	ds	1
   516  0072                     ??_LCD_enable:
   517  0072                     ??_strlen:	
   518                           ; 1 bytes @ 0x2
   519                           
   520  0072                     ??_strcmp:	
   521                           ; 1 bytes @ 0x2
   522                           
   523  0072                     ??__Umul8_16:	
   524                           ; 1 bytes @ 0x2
   525                           
   526  0072                     ??_LCD_init:	
   527                           ; 1 bytes @ 0x2
   528                           
   529  0072                     ??_LCD_escreve:	
   530                           ; 1 bytes @ 0x2
   531                           
   532  0072                     ??_LCD_limpa:	
   533                           ; 1 bytes @ 0x2
   534                           
   535  0072                     ??_LCD_linha1:	
   536                           ; 1 bytes @ 0x2
   537                           
   538  0072                     ??_LCD_linha2:	
   539                           ; 1 bytes @ 0x2
   540                           
   541  0072                     LCD_escreve@x:	
   542                           ; 1 bytes @ 0x2
   543                           
   544  0072                     strcpy@cp:	
   545                           ; 1 bytes @ 0x2
   546                           
   547                           
   548                           ; 1 bytes @ 0x2
   549  0072                     	ds	1
   550  0073                     ?_listaZonas:
   551  0073                     ??_espacoLivre:	
   552                           ; 1 bytes @ 0x3
   553                           
   554  0073                     strcpy@to:	
   555                           ; 1 bytes @ 0x3
   556                           
   557  0073                     strlen@cp:	
   558                           ; 1 bytes @ 0x3
   559                           
   560  0073                     listaZonas@valorSensor:	
   561                           ; 1 bytes @ 0x3
   562                           
   563                           
   564                           ; 2 bytes @ 0x3
   565  0073                     	ds	1
   566  0074                     ?_strcat:
   567  0074                     strcat@from:	
   568                           ; 1 bytes @ 0x4
   569                           
   570  0074                     strlen@s:	
   571                           ; 1 bytes @ 0x4
   572                           
   573  0074                     __Umul8_16@product:	
   574                           ; 1 bytes @ 0x4
   575                           
   576  0074                     ___flge@ff2:	
   577                           ; 2 bytes @ 0x4
   578                           
   579  0074                     ___fladd@a:	
   580                           ; 4 bytes @ 0x4
   581                           
   582                           
   583                           ; 4 bytes @ 0x4
   584  0074                     	ds	1
   585  0075                     ??_telaInicial:
   586  0075                     ??_Linha2:	
   587                           ; 1 bytes @ 0x5
   588                           
   589  0075                     ??_listaZonas:	
   590                           ; 1 bytes @ 0x5
   591                           
   592  0075                     ??_strcat:	
   593                           ; 1 bytes @ 0x5
   594                           
   595  0075                     strcmp@r:	
   596                           ; 1 bytes @ 0x5
   597                           
   598                           
   599                           ; 1 bytes @ 0x5
   600  0075                     	ds	1
   601  0076                     strcat@to:
   602  0076                     strcmp@s1:	
   603                           ; 1 bytes @ 0x6
   604                           
   605  0076                     __Umul8_16@word_mpld:	
   606                           ; 1 bytes @ 0x6
   607                           
   608                           
   609                           ; 2 bytes @ 0x6
   610  0076                     	ds	1
   611  0077                     strcat@cp:
   612  0077                     telaInicial@i:	
   613                           ; 1 bytes @ 0x7
   614                           
   615  0077                     Linha2@i:	
   616                           ; 2 bytes @ 0x7
   617                           
   618                           
   619                           ; 2 bytes @ 0x7
   620  0077                     	ds	1
   621  0078                     ??___flge:
   622  0078                     ___fladd@signs:	
   623                           ; 1 bytes @ 0x8
   624                           
   625  0078                     __Umul8_16@multiplier:	
   626                           ; 1 bytes @ 0x8
   627                           
   628                           
   629                           ; 1 bytes @ 0x8
   630  0078                     	ds	1
   631  0079                     ??___flmul:
   632  0079                     ___fladd@aexp:	
   633                           ; 1 bytes @ 0x9
   634                           
   635                           
   636                           ; 1 bytes @ 0x9
   637  0079                     	ds	1
   638  007A                     ___fladd@bexp:
   639                           
   640                           ; 1 bytes @ 0xA
   641  007A                     	ds	1
   642  007B                     ___fladd@grs:
   643                           
   644                           ; 1 bytes @ 0xB
   645  007B                     	ds	1
   646  007C                     ??___flsub:
   647                           
   648                           ; 1 bytes @ 0xC
   649  007C                     	ds	2
   650                           
   651                           	psect	cstackBANK0
   652  0020                     __pcstackBANK0:
   653  0020                     ??___fladd:
   654  0020                     ?___flmul:	
   655                           ; 1 bytes @ 0x0
   656                           
   657  0020                     ___flmul@b:	
   658                           ; 4 bytes @ 0x0
   659                           
   660                           
   661                           ; 4 bytes @ 0x0
   662  0020                     	ds	4
   663  0024                     ___flmul@a:
   664                           
   665                           ; 4 bytes @ 0x4
   666  0024                     	ds	4
   667  0028                     ?___flsub:
   668  0028                     ___flmul@sign:	
   669                           ; 4 bytes @ 0x8
   670                           
   671  0028                     ___flsub@a:	
   672                           ; 1 bytes @ 0x8
   673                           
   674                           
   675                           ; 4 bytes @ 0x8
   676  0028                     	ds	1
   677  0029                     ___flmul@grs:
   678                           
   679                           ; 4 bytes @ 0x9
   680  0029                     	ds	3
   681  002C                     ___flsub@b:
   682                           
   683                           ; 4 bytes @ 0xC
   684  002C                     	ds	1
   685  002D                     ___flmul@aexp:
   686                           
   687                           ; 1 bytes @ 0xD
   688  002D                     	ds	1
   689  002E                     ___flmul@bexp:
   690                           
   691                           ; 1 bytes @ 0xE
   692  002E                     	ds	1
   693  002F                     ___flmul@prod:
   694                           
   695                           ; 4 bytes @ 0xF
   696  002F                     	ds	4
   697  0033                     ___flmul@temp:
   698                           
   699                           ; 2 bytes @ 0x13
   700  0033                     	ds	2
   701  0035                     ?_liga_buzzer:
   702  0035                     liga_buzzer@tempoSegundos:	
   703                           ; 1 bytes @ 0x15
   704                           
   705                           
   706                           ; 4 bytes @ 0x15
   707  0035                     	ds	4
   708  0039                     ??_liga_buzzer:
   709                           
   710                           ; 1 bytes @ 0x19
   711  0039                     	ds	2
   712  003B                     ??_teclado:
   713                           
   714                           ; 1 bytes @ 0x1B
   715  003B                     	ds	3
   716  003E                     ??_validaUser:
   717                           
   718                           ; 1 bytes @ 0x1E
   719  003E                     	ds	3
   720  0041                     validaUser@i:
   721                           
   722                           ; 2 bytes @ 0x21
   723  0041                     	ds	2
   724  0043                     validaUser@n:
   725                           
   726                           ; 2 bytes @ 0x23
   727  0043                     	ds	2
   728  0045                     ??_main:
   729                           
   730                           ; 1 bytes @ 0x25
   731  0045                     	ds	3
   732  0048                     main@i:
   733                           
   734                           ; 2 bytes @ 0x28
   735  0048                     	ds	2
   736                           
   737                           	psect	maintext
   738  166C                     __pmaintext:	
   739 ;;
   740 ;;Main: autosize = 0, tempsize = 3, incstack = 0, save=0
   741 ;;
   742 ;; *************** function _main *****************
   743 ;; Defined at:
   744 ;;		line 40 in file "main.c"
   745 ;; Parameters:    Size  Location     Type
   746 ;;		None
   747 ;; Auto vars:     Size  Location     Type
   748 ;;  i               2   40[BANK0 ] int 
   749 ;; Return value:  Size  Location     Type
   750 ;;                  1    wreg      void 
   751 ;; Registers used:
   752 ;;		wreg, fsr0l, fsr0h, status,2, status,0, btemp+1, pclath, cstack
   753 ;; Tracked objects:
   754 ;;		On entry : B00/0
   755 ;;		On exit  : 0/0
   756 ;;		Unchanged: 0/0
   757 ;; Data sizes:     COMMON   BANK0   BANK1   BANK3   BANK2
   758 ;;      Params:         0       0       0       0       0
   759 ;;      Locals:         0       2       0       0       0
   760 ;;      Temps:          0       3       0       0       0
   761 ;;      Totals:         0       5       0       0       0
   762 ;;Total ram usage:        5 bytes
   763 ;; Hardware stack levels required when called: 5
   764 ;; This function calls:
   765 ;;		_LCD_init
   766 ;;		_LCD_limpa
   767 ;;		_Linha2
   768 ;;		_listaZonas
   769 ;;		_telaInicial
   770 ;;		_validaUser
   771 ;; This function is called by:
   772 ;;		Startup code after reset
   773 ;; This function uses a non-reentrant model
   774 ;;
   775                           
   776                           
   777                           ;psect for function _main
   778  166C                     _main:
   779  166C                     l2692:	
   780                           ;incstack = 0
   781                           ; Regs used in _main: [wreg-fsr0h+status,2+status,0+btemp+1+pclath+cstack]
   782                           
   783                           
   784                           ;main.c: 41:     TRISE = 0;
   785  166C  1683               	bsf	3,5	;RP0=1, select bank1
   786  166D  1303               	bcf	3,6	;RP1=0, select bank1
   787  166E  0189               	clrf	9	;volatile
   788                           
   789                           ;main.c: 42:     TRISD = 0;
   790  166F  0188               	clrf	8	;volatile
   791  1670                     l2694:
   792                           
   793                           ;main.c: 43:     TRISB = 0x0F;
   794  1670  300F               	movlw	15
   795  1671  0086               	movwf	6	;volatile
   796  1672                     l2696:
   797                           
   798                           ;main.c: 45:     PORTE = 0x01;
   799  1672  3001               	movlw	1
   800  1673  1283               	bcf	3,5	;RP0=0, select bank0
   801  1674  1303               	bcf	3,6	;RP1=0, select bank0
   802  1675  0089               	movwf	9	;volatile
   803  1676                     l2698:
   804                           
   805                           ;main.c: 48:     LCD_init();
   806  1676  120A  158A  2002  160A  118A  	fcall	_LCD_init
   807  167B                     l2700:
   808                           
   809                           ;main.c: 49:     LCD_limpa();
   810  167B  160A  118A  24EE  160A  118A  	fcall	_LCD_limpa
   811  1680                     l2702:
   812                           
   813                           ;main.c: 54:         if (painel){
   814  1680  1283               	bcf	3,5	;RP0=0, select bank0
   815  1681  1303               	bcf	3,6	;RP1=0, select bank0
   816  1682  0860               	movf	_painel,w
   817  1683  0461               	iorwf	_painel+1,w
   818  1684  1903               	btfsc	3,2
   819  1685  2E87               	goto	u2931
   820  1686  2E88               	goto	u2930
   821  1687                     u2931:
   822  1687  2E9C               	goto	l2710
   823  1688                     u2930:
   824  1688                     l2704:
   825                           
   826                           ;main.c: 55:             telaInicial();
   827  1688  120A  118A  202D  160A  118A  	fcall	_telaInicial
   828                           
   829                           ;main.c: 56:             Linha2();
   830  168D  160A  118A  2631  160A  118A  	fcall	_Linha2
   831  1692                     l2706:
   832                           
   833                           ;main.c: 57:             painel = 0;
   834  1692  1283               	bcf	3,5	;RP0=0, select bank0
   835  1693  1303               	bcf	3,6	;RP1=0, select bank0
   836  1694  01E0               	clrf	_painel
   837  1695  01E1               	clrf	_painel+1
   838  1696  2E9C               	goto	l2710
   839  1697                     l2708:
   840                           
   841                           ;main.c: 62:            validaUser();
   842  1697  120A  158A  2035  160A  118A  	fcall	_validaUser
   843  169C                     l2710:
   844                           
   845                           ;main.c: 61:         while (userFalse){
   846  169C  1283               	bcf	3,5	;RP0=0, select bank0
   847  169D  1303               	bcf	3,6	;RP1=0, select bank0
   848  169E  085E               	movf	_userFalse,w
   849  169F  045F               	iorwf	_userFalse+1,w
   850  16A0  1D03               	btfss	3,2
   851  16A1  2EA3               	goto	u2941
   852  16A2  2EA4               	goto	u2940
   853  16A3                     u2941:
   854  16A3  2E97               	goto	l2708
   855  16A4                     u2940:
   856  16A4                     l2712:
   857                           
   858                           ;main.c: 65:         if (userFalse == 0){
   859  16A4  085E               	movf	_userFalse,w
   860  16A5  045F               	iorwf	_userFalse+1,w
   861  16A6  1D03               	btfss	3,2
   862  16A7  2EA9               	goto	u2951
   863  16A8  2EAA               	goto	u2950
   864  16A9                     u2951:
   865  16A9  2E80               	goto	l2702
   866  16AA                     u2950:
   867  16AA                     l2714:
   868                           
   869                           ;main.c: 66:             int i;;main.c: 75:             for (i = 0; i < 10; i++){
   870  16AA  01C8               	clrf	main@i
   871  16AB  01C9               	clrf	main@i+1
   872  16AC                     l2720:
   873                           
   874                           ;main.c: 76:                 valorSensor = i;
   875  16AC  1283               	bcf	3,5	;RP0=0, select bank0
   876  16AD  1303               	bcf	3,6	;RP1=0, select bank0
   877  16AE  0849               	movf	main@i+1,w
   878  16AF  00D5               	movwf	_valorSensor+1
   879  16B0  0848               	movf	main@i,w
   880  16B1  00D4               	movwf	_valorSensor
   881  16B2                     l2722:
   882                           
   883                           ;main.c: 77:                 listaZonas(valorSensor);
   884  16B2  0855               	movf	_valorSensor+1,w
   885  16B3  00F4               	movwf	listaZonas@valorSensor+1
   886  16B4  0854               	movf	_valorSensor,w
   887  16B5  00F3               	movwf	listaZonas@valorSensor
   888  16B6  120A  118A  23CB  160A  118A  	fcall	_listaZonas
   889  16BB                     l2724:
   890                           
   891                           ;main.c: 78:                 _delay((unsigned long)((2500)*(20000000/4000.0)));
   892  16BB  3040               	movlw	64
   893  16BC  1283               	bcf	3,5	;RP0=0, select bank0
   894  16BD  1303               	bcf	3,6	;RP1=0, select bank0
   895  16BE  00C7               	movwf	??_main+2
   896  16BF  306A               	movlw	106
   897  16C0  00C6               	movwf	??_main+1
   898  16C1  3097               	movlw	151
   899  16C2  00C5               	movwf	??_main
   900  16C3                     u2977:
   901  16C3  0BC5               	decfsz	??_main,f
   902  16C4  2EC3               	goto	u2977
   903  16C5  0BC6               	decfsz	??_main+1,f
   904  16C6  2EC3               	goto	u2977
   905  16C7  0BC7               	decfsz	??_main+2,f
   906  16C8  2EC3               	goto	u2977
   907  16C9                     l2726:
   908                           
   909                           ;main.c: 79:             }
   910  16C9  3001               	movlw	1
   911  16CA  1283               	bcf	3,5	;RP0=0, select bank0
   912  16CB  1303               	bcf	3,6	;RP1=0, select bank0
   913  16CC  07C8               	addwf	main@i,f
   914  16CD  1803               	skipnc
   915  16CE  0AC9               	incf	main@i+1,f
   916  16CF  3000               	movlw	0
   917  16D0  07C9               	addwf	main@i+1,f
   918  16D1                     l2728:
   919  16D1  0849               	movf	main@i+1,w
   920  16D2  3A80               	xorlw	128
   921  16D3  00FF               	movwf	btemp+1
   922  16D4  3080               	movlw	128
   923  16D5  027F               	subwf	btemp+1,w
   924  16D6  1D03               	skipz
   925  16D7  2EDA               	goto	u2965
   926  16D8  300A               	movlw	10
   927  16D9  0248               	subwf	main@i,w
   928  16DA                     u2965:
   929  16DA  1C03               	skipc
   930  16DB  2EDD               	goto	u2961
   931  16DC  2EDE               	goto	u2960
   932  16DD                     u2961:
   933  16DD  2EAC               	goto	l2720
   934  16DE                     u2960:
   935  16DE  2E80               	goto	l2702
   936  16DF  120A  118A  2800   	ljmp	start
   937  16E2                     __end_of_main:
   938                           
   939                           	psect	text1
   940  0835                     __ptext1:	
   941 ;; *************** function _validaUser *****************
   942 ;; Defined at:
   943 ;;		line 363 in file "main.c"
   944 ;; Parameters:    Size  Location     Type
   945 ;;		None
   946 ;; Auto vars:     Size  Location     Type
   947 ;;  i               2   33[BANK0 ] int 
   948 ;;  n               2   35[BANK0 ] int 
   949 ;; Return value:  Size  Location     Type
   950 ;;                  1    wreg      void 
   951 ;; Registers used:
   952 ;;		wreg, fsr0l, fsr0h, status,2, status,0, btemp+1, pclath, cstack
   953 ;; Tracked objects:
   954 ;;		On entry : 0/0
   955 ;;		On exit  : 0/0
   956 ;;		Unchanged: 0/0
   957 ;; Data sizes:     COMMON   BANK0   BANK1   BANK3   BANK2
   958 ;;      Params:         0       0       0       0       0
   959 ;;      Locals:         0       4       0       0       0
   960 ;;      Temps:          0       3       0       0       0
   961 ;;      Totals:         0       7       0       0       0
   962 ;;Total ram usage:        7 bytes
   963 ;; Hardware stack levels used: 1
   964 ;; Hardware stack levels required when called: 4
   965 ;; This function calls:
   966 ;;		_LCD_escreve
   967 ;;		_LCD_limpa
   968 ;;		_LCD_linha1
   969 ;;		_liga_buzzer
   970 ;;		_strcat
   971 ;;		_strcmp
   972 ;;		_strcpy
   973 ;;		_strlen
   974 ;;		_teclado
   975 ;; This function is called by:
   976 ;;		_main
   977 ;; This function uses a non-reentrant model
   978 ;;
   979                           
   980                           
   981                           ;psect for function _validaUser
   982  0835                     _validaUser:
   983  0835                     l2524:	
   984                           ;incstack = 0
   985                           ; Regs used in _validaUser: [wreg-fsr0h+status,2+status,0+btemp+1+pclath+cstack]
   986                           
   987                           
   988                           ;main.c: 364:     int n = 8;
   989  0835  3008               	movlw	8
   990  0836  1283               	bcf	3,5	;RP0=0, select bank0
   991  0837  1303               	bcf	3,6	;RP1=0, select bank0
   992  0838  00C3               	movwf	validaUser@n
   993  0839  3000               	movlw	0
   994  083A  00C4               	movwf	validaUser@n+1
   995                           
   996                           ;main.c: 365:     while(userFalse){
   997  083B  2A62               	goto	l2652
   998  083C                     l2526:
   999                           
  1000                           ;main.c: 367:             n--;
  1001  083C  30FF               	movlw	255
  1002  083D  1283               	bcf	3,5	;RP0=0, select bank0
  1003  083E  1303               	bcf	3,6	;RP1=0, select bank0
  1004  083F  07C3               	addwf	validaUser@n,f
  1005  0840  1803               	skipnc
  1006  0841  0AC4               	incf	validaUser@n+1,f
  1007  0842  30FF               	movlw	255
  1008  0843  07C4               	addwf	validaUser@n+1,f
  1009  0844                     l2528:
  1010                           
  1011                           ;main.c: 369:             if (n > 0){
  1012  0844  0844               	movf	validaUser@n+1,w
  1013  0845  3A80               	xorlw	128
  1014  0846  00FF               	movwf	btemp+1
  1015  0847  3080               	movlw	128
  1016  0848  027F               	subwf	btemp+1,w
  1017  0849  1D03               	skipz
  1018  084A  284D               	goto	u2785
  1019  084B  3001               	movlw	1
  1020  084C  0243               	subwf	validaUser@n,w
  1021  084D                     u2785:
  1022  084D  1C03               	skipc
  1023  084E  2850               	goto	u2781
  1024  084F  2851               	goto	u2780
  1025  0850                     u2781:
  1026  0850  28A8               	goto	l2560
  1027  0851                     u2780:
  1028  0851                     l2530:
  1029                           
  1030                           ;main.c: 370:                 input = 10;
  1031  0851  300A               	movlw	10
  1032  0852  1283               	bcf	3,5	;RP0=0, select bank0
  1033  0853  1303               	bcf	3,6	;RP1=0, select bank0
  1034  0854  00E2               	movwf	_input
  1035  0855  3000               	movlw	0
  1036  0856  00E3               	movwf	_input+1
  1037                           
  1038                           ;main.c: 371:                 while (input == 10){
  1039  0857  286C               	goto	l2536
  1040  0858                     l2532:
  1041                           
  1042                           ;main.c: 372:                     teclado();
  1043  0858  120A  158A  2503  120A  158A  	fcall	_teclado
  1044  085D                     l2534:
  1045                           
  1046                           ;main.c: 373:                     _delay((unsigned long)((60)*(20000000/4000.0)));
  1047  085D  3002               	movlw	2
  1048  085E  1283               	bcf	3,5	;RP0=0, select bank0
  1049  085F  1303               	bcf	3,6	;RP1=0, select bank0
  1050  0860  00C0               	movwf	??_validaUser+2
  1051  0861  3086               	movlw	134
  1052  0862  00BF               	movwf	??_validaUser+1
  1053  0863  3098               	movlw	152
  1054  0864  00BE               	movwf	??_validaUser
  1055  0865                     u2987:
  1056  0865  0BBE               	decfsz	??_validaUser,f
  1057  0866  2865               	goto	u2987
  1058  0867  0BBF               	decfsz	??_validaUser+1,f
  1059  0868  2865               	goto	u2987
  1060  0869  0BC0               	decfsz	??_validaUser+2,f
  1061  086A  2865               	goto	u2987
  1062  086B  0000               	nop
  1063  086C                     l2536:
  1064                           
  1065                           ;main.c: 371:                 while (input == 10){
  1066  086C  300A               	movlw	10
  1067  086D  1283               	bcf	3,5	;RP0=0, select bank0
  1068  086E  1303               	bcf	3,6	;RP1=0, select bank0
  1069  086F  0662               	xorwf	_input,w
  1070  0870  0463               	iorwf	_input+1,w
  1071  0871  1903               	btfsc	3,2
  1072  0872  2874               	goto	u2791
  1073  0873  2875               	goto	u2790
  1074  0874                     u2791:
  1075  0874  2858               	goto	l2532
  1076  0875                     u2790:
  1077  0875  28A8               	goto	l2560
  1078  0876                     l2538:
  1079                           
  1080                           ;main.c: 380:                     aux = "1";
  1081  0876  3003               	movlw	(low ((STR_1-__stringbase)| (0+32768)))& (0+255)
  1082  0877  00BE               	movwf	??_validaUser
  1083  0878  083E               	movf	??_validaUser,w
  1084  0879  00D8               	movwf	_aux
  1085                           
  1086                           ;main.c: 382:                 break;
  1087  087A  28CF               	goto	l2562
  1088  087B                     l2540:
  1089                           
  1090                           ;main.c: 384:                     aux = "2";
  1091  087B  3005               	movlw	(low ((STR_2-__stringbase)| (0+32768)))& (0+255)
  1092  087C  00BE               	movwf	??_validaUser
  1093  087D  083E               	movf	??_validaUser,w
  1094  087E  00D8               	movwf	_aux
  1095                           
  1096                           ;main.c: 386:                 break;
  1097  087F  28CF               	goto	l2562
  1098  0880                     l2542:
  1099                           
  1100                           ;main.c: 388:                     aux = "3";
  1101  0880  3007               	movlw	(low ((STR_3-__stringbase)| (0+32768)))& (0+255)
  1102  0881  00BE               	movwf	??_validaUser
  1103  0882  083E               	movf	??_validaUser,w
  1104  0883  00D8               	movwf	_aux
  1105                           
  1106                           ;main.c: 390:                 break;
  1107  0884  28CF               	goto	l2562
  1108  0885                     l2544:
  1109                           
  1110                           ;main.c: 392:                     aux = "4";
  1111  0885  3009               	movlw	(low ((STR_4-__stringbase)| (0+32768)))& (0+255)
  1112  0886  00BE               	movwf	??_validaUser
  1113  0887  083E               	movf	??_validaUser,w
  1114  0888  00D8               	movwf	_aux
  1115                           
  1116                           ;main.c: 394:                 break;
  1117  0889  28CF               	goto	l2562
  1118  088A                     l2546:
  1119                           
  1120                           ;main.c: 396:                     aux = "5";
  1121  088A  300B               	movlw	(low ((STR_5-__stringbase)| (0+32768)))& (0+255)
  1122  088B  00BE               	movwf	??_validaUser
  1123  088C  083E               	movf	??_validaUser,w
  1124  088D  00D8               	movwf	_aux
  1125                           
  1126                           ;main.c: 398:                 break;
  1127  088E  28CF               	goto	l2562
  1128  088F                     l2548:
  1129                           
  1130                           ;main.c: 400:                     aux = "6";
  1131  088F  300D               	movlw	(low ((STR_6-__stringbase)| (0+32768)))& (0+255)
  1132  0890  00BE               	movwf	??_validaUser
  1133  0891  083E               	movf	??_validaUser,w
  1134  0892  00D8               	movwf	_aux
  1135                           
  1136                           ;main.c: 402:                 break;
  1137  0893  28CF               	goto	l2562
  1138  0894                     l2550:
  1139                           
  1140                           ;main.c: 404:                     aux = "7";
  1141  0894  300F               	movlw	(low ((STR_7-__stringbase)| (0+32768)))& (0+255)
  1142  0895  00BE               	movwf	??_validaUser
  1143  0896  083E               	movf	??_validaUser,w
  1144  0897  00D8               	movwf	_aux
  1145                           
  1146                           ;main.c: 406:                 break;
  1147  0898  28CF               	goto	l2562
  1148  0899                     l2552:
  1149                           
  1150                           ;main.c: 408:                     aux = "8";
  1151  0899  3011               	movlw	(low ((STR_8-__stringbase)| (0+32768)))& (0+255)
  1152  089A  00BE               	movwf	??_validaUser
  1153  089B  083E               	movf	??_validaUser,w
  1154  089C  00D8               	movwf	_aux
  1155                           
  1156                           ;main.c: 410:                 break;
  1157  089D  28CF               	goto	l2562
  1158  089E                     l2554:
  1159                           
  1160                           ;main.c: 412:                     aux = "9";
  1161  089E  3013               	movlw	(low ((STR_9-__stringbase)| (0+32768)))& (0+255)
  1162  089F  00BE               	movwf	??_validaUser
  1163  08A0  083E               	movf	??_validaUser,w
  1164  08A1  00D8               	movwf	_aux
  1165                           
  1166                           ;main.c: 414:                 break;
  1167  08A2  28CF               	goto	l2562
  1168  08A3                     l2556:
  1169                           
  1170                           ;main.c: 416:                     aux = "0";
  1171  08A3  3001               	movlw	(low ((STR_10-__stringbase)| (0+32768)))& (0+255)
  1172  08A4  00BE               	movwf	??_validaUser
  1173  08A5  083E               	movf	??_validaUser,w
  1174  08A6  00D8               	movwf	_aux
  1175                           
  1176                           ;main.c: 418:                 break;
  1177  08A7  28CF               	goto	l2562
  1178  08A8                     l2560:
  1179                           
  1180                           ; Switch on 2 bytes has been partitioned into a top level switch of size 1, and 1 sub-sw
      +                          itches
  1181                           ; Switch size 1, requested type "simple"
  1182                           ; Number of cases is 1, Range of values is 0 to 0
  1183                           ; switch strategies available:
  1184                           ; Name         Instructions Cycles
  1185                           ; simple_byte            4     3 (average)
  1186                           ; direct_byte           11     8 (fixed)
  1187                           ; jumptable            260     6 (fixed)
  1188                           ;	Chosen strategy is simple_byte
  1189  08A8  1283               	bcf	3,5	;RP0=0, select bank0
  1190  08A9  1303               	bcf	3,6	;RP1=0, select bank0
  1191  08AA  0863               	movf	_input+1,w
  1192  08AB  3A00               	xorlw	0	; case 0
  1193  08AC  1903               	skipnz
  1194  08AD  28AF               	goto	l2750
  1195  08AE  28CF               	goto	l2562
  1196  08AF                     l2750:
  1197                           
  1198                           ; Switch size 1, requested type "simple"
  1199                           ; Number of cases is 10, Range of values is 0 to 9
  1200                           ; switch strategies available:
  1201                           ; Name         Instructions Cycles
  1202                           ; simple_byte           31    16 (average)
  1203                           ; direct_byte           38     8 (fixed)
  1204                           ; jumptable            260     6 (fixed)
  1205                           ;	Chosen strategy is simple_byte
  1206  08AF  0862               	movf	_input,w
  1207  08B0  3A00               	xorlw	0	; case 0
  1208  08B1  1903               	skipnz
  1209  08B2  28A3               	goto	l2556
  1210  08B3  3A01               	xorlw	1	; case 1
  1211  08B4  1903               	skipnz
  1212  08B5  2876               	goto	l2538
  1213  08B6  3A03               	xorlw	3	; case 2
  1214  08B7  1903               	skipnz
  1215  08B8  287B               	goto	l2540
  1216  08B9  3A01               	xorlw	1	; case 3
  1217  08BA  1903               	skipnz
  1218  08BB  2880               	goto	l2542
  1219  08BC  3A07               	xorlw	7	; case 4
  1220  08BD  1903               	skipnz
  1221  08BE  2885               	goto	l2544
  1222  08BF  3A01               	xorlw	1	; case 5
  1223  08C0  1903               	skipnz
  1224  08C1  288A               	goto	l2546
  1225  08C2  3A03               	xorlw	3	; case 6
  1226  08C3  1903               	skipnz
  1227  08C4  288F               	goto	l2548
  1228  08C5  3A01               	xorlw	1	; case 7
  1229  08C6  1903               	skipnz
  1230  08C7  2894               	goto	l2550
  1231  08C8  3A0F               	xorlw	15	; case 8
  1232  08C9  1903               	skipnz
  1233  08CA  2899               	goto	l2552
  1234  08CB  3A01               	xorlw	1	; case 9
  1235  08CC  1903               	skipnz
  1236  08CD  289E               	goto	l2554
  1237  08CE  28CF               	goto	l2562
  1238  08CF                     l2562:
  1239                           
  1240                           ;main.c: 422:             strcat(strcpy(senhaUserConfere, senhaUserConfere), aux);
  1241  08CF  0858               	movf	_aux,w
  1242  08D0  00BE               	movwf	??_validaUser
  1243  08D1  083E               	movf	??_validaUser,w
  1244  08D2  00F4               	movwf	strcat@from
  1245  08D3  3059               	movlw	(low (_senhaUserConfere| 0))& (0+255)
  1246  08D4  00BF               	movwf	??_validaUser+1
  1247  08D5  083F               	movf	??_validaUser+1,w
  1248  08D6  00F0               	movwf	strcpy@from
  1249  08D7  3059               	movlw	(low (_senhaUserConfere| 0))& (0+255)
  1250  08D8  160A  118A  2571  120A  158A  	fcall	_strcpy
  1251  08DD  160A  118A  2604  120A  158A  	fcall	_strcat
  1252                           
  1253                           ;main.c: 424:             if (strcmp(senhaUser, senhaUserConfere) == 0){
  1254  08E2  3059               	movlw	(low (_senhaUserConfere| 0))& (0+255)
  1255  08E3  1283               	bcf	3,5	;RP0=0, select bank0
  1256  08E4  1303               	bcf	3,6	;RP1=0, select bank0
  1257  08E5  00BE               	movwf	??_validaUser
  1258  08E6  083E               	movf	??_validaUser,w
  1259  08E7  00F0               	movwf	strcmp@s2
  1260  08E8  3069               	movlw	(low (_senhaUser| 0))& (0+255)
  1261  08E9  120A  118A  2003  120A  158A  	fcall	_strcmp
  1262  08EE  0870               	movf	?_strcmp,w
  1263  08EF  0471               	iorwf	?_strcmp+1,w
  1264  08F0  1D03               	btfss	3,2
  1265  08F1  28F3               	goto	u2801
  1266  08F2  28F4               	goto	u2800
  1267  08F3                     u2801:
  1268  08F3  2977               	goto	l2604
  1269  08F4                     u2800:
  1270  08F4                     l2564:
  1271                           
  1272                           ;main.c: 425:                 userFalse = 0;
  1273  08F4  1283               	bcf	3,5	;RP0=0, select bank0
  1274  08F5  1303               	bcf	3,6	;RP1=0, select bank0
  1275  08F6  01DE               	clrf	_userFalse
  1276  08F7  01DF               	clrf	_userFalse+1
  1277  08F8                     l2566:
  1278                           
  1279                           ;main.c: 426:                 n = -1;
  1280  08F8  30FF               	movlw	255
  1281  08F9  00C3               	movwf	validaUser@n
  1282  08FA  30FF               	movlw	255
  1283  08FB  00C4               	movwf	validaUser@n+1
  1284  08FC                     l2568:
  1285                           
  1286                           ;main.c: 428:                 LCD_limpa();
  1287  08FC  160A  118A  24EE  120A  158A  	fcall	_LCD_limpa
  1288  0901                     l2570:
  1289                           
  1290                           ;main.c: 429:                 LCD_linha1();
  1291  0901  160A  118A  24FE  120A  158A  	fcall	_LCD_linha1
  1292  0906                     l2572:
  1293                           
  1294                           ;main.c: 431:                 LCD_escreve(' ');
  1295  0906  3020               	movlw	32
  1296  0907  160A  118A  251E  120A  158A  	fcall	_LCD_escreve
  1297  090C                     l2574:
  1298                           
  1299                           ;main.c: 432:                 LCD_escreve('S');
  1300  090C  3053               	movlw	83
  1301  090D  160A  118A  251E  120A  158A  	fcall	_LCD_escreve
  1302  0912                     l2576:
  1303                           
  1304                           ;main.c: 433:                 LCD_escreve('e');
  1305  0912  3065               	movlw	101
  1306  0913  160A  118A  251E  120A  158A  	fcall	_LCD_escreve
  1307  0918                     l2578:
  1308                           
  1309                           ;main.c: 434:                 LCD_escreve('n');
  1310  0918  306E               	movlw	110
  1311  0919  160A  118A  251E  120A  158A  	fcall	_LCD_escreve
  1312  091E                     l2580:
  1313                           
  1314                           ;main.c: 435:                 LCD_escreve('h');
  1315  091E  3068               	movlw	104
  1316  091F  160A  118A  251E  120A  158A  	fcall	_LCD_escreve
  1317  0924                     l2582:
  1318                           
  1319                           ;main.c: 436:                 LCD_escreve('a');
  1320  0924  3061               	movlw	97
  1321  0925  160A  118A  251E  120A  158A  	fcall	_LCD_escreve
  1322  092A                     l2584:
  1323                           
  1324                           ;main.c: 437:                 LCD_escreve(' ');
  1325  092A  3020               	movlw	32
  1326  092B  160A  118A  251E  120A  158A  	fcall	_LCD_escreve
  1327  0930                     l2586:
  1328                           
  1329                           ;main.c: 438:                 LCD_escreve('c');
  1330  0930  3063               	movlw	99
  1331  0931  160A  118A  251E  120A  158A  	fcall	_LCD_escreve
  1332  0936                     l2588:
  1333                           
  1334                           ;main.c: 439:                 LCD_escreve('o');
  1335  0936  306F               	movlw	111
  1336  0937  160A  118A  251E  120A  158A  	fcall	_LCD_escreve
  1337  093C                     l2590:
  1338                           
  1339                           ;main.c: 440:                 LCD_escreve('r');
  1340  093C  3072               	movlw	114
  1341  093D  160A  118A  251E  120A  158A  	fcall	_LCD_escreve
  1342  0942                     l2592:
  1343                           
  1344                           ;main.c: 441:                 LCD_escreve('r');
  1345  0942  3072               	movlw	114
  1346  0943  160A  118A  251E  120A  158A  	fcall	_LCD_escreve
  1347  0948                     l2594:
  1348                           
  1349                           ;main.c: 442:                 LCD_escreve('e');
  1350  0948  3065               	movlw	101
  1351  0949  160A  118A  251E  120A  158A  	fcall	_LCD_escreve
  1352  094E                     l2596:
  1353                           
  1354                           ;main.c: 443:                 LCD_escreve('t');
  1355  094E  3074               	movlw	116
  1356  094F  160A  118A  251E  120A  158A  	fcall	_LCD_escreve
  1357  0954                     l2598:
  1358                           
  1359                           ;main.c: 444:                 LCD_escreve('a');
  1360  0954  3061               	movlw	97
  1361  0955  160A  118A  251E  120A  158A  	fcall	_LCD_escreve
  1362  095A                     l2600:
  1363                           
  1364                           ;main.c: 446:                 _delay((unsigned long)((2000)*(20000000/4000.0)));
  1365  095A  3033               	movlw	51
  1366  095B  1283               	bcf	3,5	;RP0=0, select bank0
  1367  095C  1303               	bcf	3,6	;RP1=0, select bank0
  1368  095D  00C0               	movwf	??_validaUser+2
  1369  095E  30BB               	movlw	187
  1370  095F  00BF               	movwf	??_validaUser+1
  1371  0960  30DF               	movlw	223
  1372  0961  00BE               	movwf	??_validaUser
  1373  0962                     u2997:
  1374  0962  0BBE               	decfsz	??_validaUser,f
  1375  0963  2962               	goto	u2997
  1376  0964  0BBF               	decfsz	??_validaUser+1,f
  1377  0965  2962               	goto	u2997
  1378  0966  0BC0               	decfsz	??_validaUser+2,f
  1379  0967  2962               	goto	u2997
  1380  0968                     l2602:
  1381                           
  1382                           ;main.c: 447:                 liga_buzzer(0.7);
  1383  0968  303F               	movlw	63
  1384  0969  1283               	bcf	3,5	;RP0=0, select bank0
  1385  096A  1303               	bcf	3,6	;RP1=0, select bank0
  1386  096B  00B8               	movwf	liga_buzzer@tempoSegundos+3
  1387  096C  3033               	movlw	51
  1388  096D  00B7               	movwf	liga_buzzer@tempoSegundos+2
  1389  096E  3033               	movlw	51
  1390  096F  00B6               	movwf	liga_buzzer@tempoSegundos+1
  1391  0970  3033               	movlw	51
  1392  0971  00B5               	movwf	liga_buzzer@tempoSegundos
  1393  0972  160A  118A  26E2  120A  158A  	fcall	_liga_buzzer
  1394  0977                     l2604:
  1395                           
  1396                           ;main.c: 450:             if (n == 4){
  1397  0977  3004               	movlw	4
  1398  0978  1283               	bcf	3,5	;RP0=0, select bank0
  1399  0979  1303               	bcf	3,6	;RP1=0, select bank0
  1400  097A  0643               	xorwf	validaUser@n,w
  1401  097B  0444               	iorwf	validaUser@n+1,w
  1402  097C  1D03               	btfss	3,2
  1403  097D  297F               	goto	u2811
  1404  097E  2980               	goto	u2810
  1405  097F                     u2811:
  1406  097F  2A53               	goto	l2650
  1407  0980                     u2810:
  1408  0980                     l2606:
  1409                           
  1410                           ;main.c: 451:                 if (strcmp(senhaUser, senhaUserConfere) != 0){
  1411  0980  3059               	movlw	(low (_senhaUserConfere| 0))& (0+255)
  1412  0981  00BE               	movwf	??_validaUser
  1413  0982  083E               	movf	??_validaUser,w
  1414  0983  00F0               	movwf	strcmp@s2
  1415  0984  3069               	movlw	(low (_senhaUser| 0))& (0+255)
  1416  0985  120A  118A  2003  120A  158A  	fcall	_strcmp
  1417  098A  0870               	movf	?_strcmp,w
  1418  098B  0471               	iorwf	?_strcmp+1,w
  1419  098C  1903               	btfsc	3,2
  1420  098D  298F               	goto	u2821
  1421  098E  2990               	goto	u2820
  1422  098F                     u2821:
  1423  098F  2A53               	goto	l2650
  1424  0990                     u2820:
  1425  0990                     l2608:
  1426                           
  1427                           ;main.c: 452:                     LCD_limpa();
  1428  0990  160A  118A  24EE  120A  158A  	fcall	_LCD_limpa
  1429                           
  1430                           ;main.c: 453:                     LCD_linha1();
  1431  0995  160A  118A  24FE  120A  158A  	fcall	_LCD_linha1
  1432  099A                     l2610:
  1433                           
  1434                           ;main.c: 454:                     userFalse = 1;
  1435  099A  3001               	movlw	1
  1436  099B  1283               	bcf	3,5	;RP0=0, select bank0
  1437  099C  1303               	bcf	3,6	;RP1=0, select bank0
  1438  099D  00DE               	movwf	_userFalse
  1439  099E  3000               	movlw	0
  1440  099F  00DF               	movwf	_userFalse+1
  1441  09A0                     l2612:
  1442                           
  1443                           ;main.c: 456:                     LCD_escreve(' ');
  1444  09A0  3020               	movlw	32
  1445  09A1  160A  118A  251E  120A  158A  	fcall	_LCD_escreve
  1446  09A6                     l2614:
  1447                           
  1448                           ;main.c: 457:                     LCD_escreve('S');
  1449  09A6  3053               	movlw	83
  1450  09A7  160A  118A  251E  120A  158A  	fcall	_LCD_escreve
  1451  09AC                     l2616:
  1452                           
  1453                           ;main.c: 458:                     LCD_escreve('e');
  1454  09AC  3065               	movlw	101
  1455  09AD  160A  118A  251E  120A  158A  	fcall	_LCD_escreve
  1456  09B2                     l2618:
  1457                           
  1458                           ;main.c: 459:                     LCD_escreve('n');
  1459  09B2  306E               	movlw	110
  1460  09B3  160A  118A  251E  120A  158A  	fcall	_LCD_escreve
  1461  09B8                     l2620:
  1462                           
  1463                           ;main.c: 460:                     LCD_escreve('h');
  1464  09B8  3068               	movlw	104
  1465  09B9  160A  118A  251E  120A  158A  	fcall	_LCD_escreve
  1466  09BE                     l2622:
  1467                           
  1468                           ;main.c: 461:                     LCD_escreve('a');
  1469  09BE  3061               	movlw	97
  1470  09BF  160A  118A  251E  120A  158A  	fcall	_LCD_escreve
  1471  09C4                     l2624:
  1472                           
  1473                           ;main.c: 462:                     LCD_escreve(' ');
  1474  09C4  3020               	movlw	32
  1475  09C5  160A  118A  251E  120A  158A  	fcall	_LCD_escreve
  1476  09CA                     l2626:
  1477                           
  1478                           ;main.c: 463:                     LCD_escreve('e');
  1479  09CA  3065               	movlw	101
  1480  09CB  160A  118A  251E  120A  158A  	fcall	_LCD_escreve
  1481  09D0                     l2628:
  1482                           
  1483                           ;main.c: 464:                     LCD_escreve('r');
  1484  09D0  3072               	movlw	114
  1485  09D1  160A  118A  251E  120A  158A  	fcall	_LCD_escreve
  1486  09D6                     l2630:
  1487                           
  1488                           ;main.c: 465:                     LCD_escreve('r');
  1489  09D6  3072               	movlw	114
  1490  09D7  160A  118A  251E  120A  158A  	fcall	_LCD_escreve
  1491  09DC                     l2632:
  1492                           
  1493                           ;main.c: 466:                     LCD_escreve('a');
  1494  09DC  3061               	movlw	97
  1495  09DD  160A  118A  251E  120A  158A  	fcall	_LCD_escreve
  1496  09E2                     l2634:
  1497                           
  1498                           ;main.c: 467:                     LCD_escreve('d');
  1499  09E2  3064               	movlw	100
  1500  09E3  160A  118A  251E  120A  158A  	fcall	_LCD_escreve
  1501  09E8                     l2636:
  1502                           
  1503                           ;main.c: 468:                     LCD_escreve('a');
  1504  09E8  3061               	movlw	97
  1505  09E9  160A  118A  251E  120A  158A  	fcall	_LCD_escreve
  1506                           
  1507                           ;main.c: 470:                     _delay((unsigned long)((1000)*(20000000/4000.0)));
  1508  09EE  301A               	movlw	26
  1509  09EF  1283               	bcf	3,5	;RP0=0, select bank0
  1510  09F0  1303               	bcf	3,6	;RP1=0, select bank0
  1511  09F1  00C0               	movwf	??_validaUser+2
  1512  09F2  305E               	movlw	94
  1513  09F3  00BF               	movwf	??_validaUser+1
  1514  09F4  306D               	movlw	109
  1515  09F5  00BE               	movwf	??_validaUser
  1516  09F6                     u3007:
  1517  09F6  0BBE               	decfsz	??_validaUser,f
  1518  09F7  29F6               	goto	u3007
  1519  09F8  0BBF               	decfsz	??_validaUser+1,f
  1520  09F9  29F6               	goto	u3007
  1521  09FA  0BC0               	decfsz	??_validaUser+2,f
  1522  09FB  29F6               	goto	u3007
  1523  09FC  29FD               	nop2
  1524  09FD                     l2638:
  1525                           
  1526                           ;main.c: 471:                     liga_buzzer(0.5);
  1527  09FD  303F               	movlw	63
  1528  09FE  1283               	bcf	3,5	;RP0=0, select bank0
  1529  09FF  1303               	bcf	3,6	;RP1=0, select bank0
  1530  0A00  00B8               	movwf	liga_buzzer@tempoSegundos+3
  1531  0A01  3000               	movlw	0
  1532  0A02  00B7               	movwf	liga_buzzer@tempoSegundos+2
  1533  0A03  3000               	movlw	0
  1534  0A04  00B6               	movwf	liga_buzzer@tempoSegundos+1
  1535  0A05  3000               	movlw	0
  1536  0A06  00B5               	movwf	liga_buzzer@tempoSegundos
  1537  0A07  160A  118A  26E2  120A  158A  	fcall	_liga_buzzer
  1538  0A0C                     l2640:
  1539                           
  1540                           ;main.c: 472:                     _delay((unsigned long)((600)*(20000000/4000.0)));
  1541  0A0C  3010               	movlw	16
  1542  0A0D  1283               	bcf	3,5	;RP0=0, select bank0
  1543  0A0E  1303               	bcf	3,6	;RP1=0, select bank0
  1544  0A0F  00C0               	movwf	??_validaUser+2
  1545  0A10  3039               	movlw	57
  1546  0A11  00BF               	movwf	??_validaUser+1
  1547  0A12  300D               	movlw	13
  1548  0A13  00BE               	movwf	??_validaUser
  1549  0A14                     u3017:
  1550  0A14  0BBE               	decfsz	??_validaUser,f
  1551  0A15  2A14               	goto	u3017
  1552  0A16  0BBF               	decfsz	??_validaUser+1,f
  1553  0A17  2A14               	goto	u3017
  1554  0A18  0BC0               	decfsz	??_validaUser+2,f
  1555  0A19  2A14               	goto	u3017
  1556                           
  1557                           ;main.c: 473:                     liga_buzzer(0.5);
  1558  0A1A  303F               	movlw	63
  1559  0A1B  1283               	bcf	3,5	;RP0=0, select bank0
  1560  0A1C  1303               	bcf	3,6	;RP1=0, select bank0
  1561  0A1D  00B8               	movwf	liga_buzzer@tempoSegundos+3
  1562  0A1E  3000               	movlw	0
  1563  0A1F  00B7               	movwf	liga_buzzer@tempoSegundos+2
  1564  0A20  3000               	movlw	0
  1565  0A21  00B6               	movwf	liga_buzzer@tempoSegundos+1
  1566  0A22  3000               	movlw	0
  1567  0A23  00B5               	movwf	liga_buzzer@tempoSegundos
  1568  0A24  160A  118A  26E2  120A  158A  	fcall	_liga_buzzer
  1569  0A29                     l2642:
  1570                           
  1571                           ;main.c: 475:                     for (int i = 0; i <= strlen(senhaUserConfere) -1; i++)
      +                          {
  1572  0A29  1283               	bcf	3,5	;RP0=0, select bank0
  1573  0A2A  1303               	bcf	3,6	;RP1=0, select bank0
  1574  0A2B  01C1               	clrf	validaUser@i
  1575  0A2C  01C2               	clrf	validaUser@i+1
  1576  0A2D  2A39               	goto	l2648
  1577  0A2E                     l2644:
  1578                           
  1579                           ;main.c: 476:                         senhaUserConfere[i] = '\0';
  1580  0A2E  0841               	movf	validaUser@i,w
  1581  0A2F  3E59               	addlw	(low (_senhaUserConfere| 0))& (0+255)
  1582  0A30  0084               	movwf	4
  1583  0A31  1383               	bcf	3,7	;select IRP bank0
  1584  0A32  0180               	clrf	0
  1585  0A33                     l2646:
  1586                           
  1587                           ;main.c: 477:                     }
  1588  0A33  3001               	movlw	1
  1589  0A34  07C1               	addwf	validaUser@i,f
  1590  0A35  1803               	skipnc
  1591  0A36  0AC2               	incf	validaUser@i+1,f
  1592  0A37  3000               	movlw	0
  1593  0A38  07C2               	addwf	validaUser@i+1,f
  1594  0A39                     l2648:
  1595  0A39  3059               	movlw	(low (_senhaUserConfere| 0))& (0+255)
  1596  0A3A  160A  118A  2558  120A  158A  	fcall	_strlen
  1597  0A3F  0870               	movf	?_strlen,w
  1598  0A40  3EFF               	addlw	255
  1599  0A41  1283               	bcf	3,5	;RP0=0, select bank0
  1600  0A42  1303               	bcf	3,6	;RP1=0, select bank0
  1601  0A43  00BE               	movwf	??_validaUser
  1602  0A44  0871               	movf	?_strlen+1,w
  1603  0A45  1803               	skipnc
  1604  0A46  3E01               	addlw	1
  1605  0A47  3EFF               	addlw	255
  1606  0A48  00BF               	movwf	??_validaUser+1
  1607  0A49  0842               	movf	validaUser@i+1,w
  1608  0A4A  023F               	subwf	??_validaUser+1,w
  1609  0A4B  1D03               	skipz
  1610  0A4C  2A4F               	goto	u2835
  1611  0A4D  0841               	movf	validaUser@i,w
  1612  0A4E  023E               	subwf	??_validaUser,w
  1613  0A4F                     u2835:
  1614  0A4F  1803               	skipnc
  1615  0A50  2A52               	goto	u2831
  1616  0A51  2A53               	goto	u2830
  1617  0A52                     u2831:
  1618  0A52  2A2E               	goto	l2644
  1619  0A53                     u2830:
  1620  0A53                     l2650:
  1621                           
  1622                           ;main.c: 366:         while(n > 0){
  1623  0A53  1283               	bcf	3,5	;RP0=0, select bank0
  1624  0A54  1303               	bcf	3,6	;RP1=0, select bank0
  1625  0A55  0844               	movf	validaUser@n+1,w
  1626  0A56  3A80               	xorlw	128
  1627  0A57  00FF               	movwf	btemp+1
  1628  0A58  3080               	movlw	128
  1629  0A59  027F               	subwf	btemp+1,w
  1630  0A5A  1D03               	skipz
  1631  0A5B  2A5E               	goto	u2845
  1632  0A5C  3001               	movlw	1
  1633  0A5D  0243               	subwf	validaUser@n,w
  1634  0A5E                     u2845:
  1635  0A5E  1803               	skipnc
  1636  0A5F  2A61               	goto	u2841
  1637  0A60  2A62               	goto	u2840
  1638  0A61                     u2841:
  1639  0A61  283C               	goto	l2526
  1640  0A62                     u2840:
  1641  0A62                     l2652:
  1642                           
  1643                           ;main.c: 365:     while(userFalse){
  1644  0A62  1283               	bcf	3,5	;RP0=0, select bank0
  1645  0A63  1303               	bcf	3,6	;RP1=0, select bank0
  1646  0A64  085E               	movf	_userFalse,w
  1647  0A65  045F               	iorwf	_userFalse+1,w
  1648  0A66  1D03               	btfss	3,2
  1649  0A67  2A69               	goto	u2851
  1650  0A68  2A6A               	goto	u2850
  1651  0A69                     u2851:
  1652  0A69  2A53               	goto	l2650
  1653  0A6A                     u2850:
  1654  0A6A                     l208:
  1655  0A6A  0008               	return
  1656  0A6B                     __end_of_validaUser:
  1657                           
  1658                           	psect	text2
  1659  0D03                     __ptext2:	
  1660 ;; *************** function _teclado *****************
  1661 ;; Defined at:
  1662 ;;		line 103 in file "main.c"
  1663 ;; Parameters:    Size  Location     Type
  1664 ;;		None
  1665 ;; Auto vars:     Size  Location     Type
  1666 ;;		None
  1667 ;; Return value:  Size  Location     Type
  1668 ;;                  1    wreg      void 
  1669 ;; Registers used:
  1670 ;;		wreg, status,2, status,0, btemp+1, pclath, cstack
  1671 ;; Tracked objects:
  1672 ;;		On entry : 0/0
  1673 ;;		On exit  : 0/0
  1674 ;;		Unchanged: 0/0
  1675 ;; Data sizes:     COMMON   BANK0   BANK1   BANK3   BANK2
  1676 ;;      Params:         0       0       0       0       0
  1677 ;;      Locals:         0       0       0       0       0
  1678 ;;      Temps:          0       3       0       0       0
  1679 ;;      Totals:         0       3       0       0       0
  1680 ;;Total ram usage:        3 bytes
  1681 ;; Hardware stack levels used: 1
  1682 ;; Hardware stack levels required when called: 3
  1683 ;; This function calls:
  1684 ;;		_LCD_escreve
  1685 ;;		_liga_buzzer
  1686 ;; This function is called by:
  1687 ;;		_validaUser
  1688 ;; This function uses a non-reentrant model
  1689 ;;
  1690                           
  1691                           
  1692                           ;psect for function _teclado
  1693  0D03                     _teclado:
  1694  0D03                     l2262:	
  1695                           ;incstack = 0
  1696                           ; Regs used in _teclado: [wreg+status,2+status,0+btemp+1+pclath+cstack]
  1697                           
  1698                           
  1699                           ;main.c: 105:     PORTE = 0x01;
  1700  0D03  3001               	movlw	1
  1701  0D04  1283               	bcf	3,5	;RP0=0, select bank0
  1702  0D05  1303               	bcf	3,6	;RP1=0, select bank0
  1703  0D06  0089               	movwf	9	;volatile
  1704                           
  1705                           ;main.c: 109:     PORTB = 0b11101111;
  1706  0D07  30EF               	movlw	239
  1707  0D08  0086               	movwf	6	;volatile
  1708  0D09                     l2264:
  1709                           
  1710                           ;main.c: 113:     if (RB0 == 0){
  1711  0D09  1806               	btfsc	6,0	;volatile
  1712  0D0A  2D0C               	goto	u2441
  1713  0D0B  2D0D               	goto	u2440
  1714  0D0C                     u2441:
  1715  0D0C  2D3A               	goto	l2276
  1716  0D0D                     u2440:
  1717  0D0D                     l2266:
  1718                           
  1719                           ;main.c: 114:         _delay((unsigned long)((200)*(20000000/4000.0)));
  1720  0D0D  3006               	movlw	6
  1721  0D0E  1283               	bcf	3,5	;RP0=0, select bank0
  1722  0D0F  1303               	bcf	3,6	;RP1=0, select bank0
  1723  0D10  00BD               	movwf	??_teclado+2
  1724  0D11  3013               	movlw	19
  1725  0D12  00BC               	movwf	??_teclado+1
  1726  0D13  30AD               	movlw	173
  1727  0D14  00BB               	movwf	??_teclado
  1728  0D15                     u3027:
  1729  0D15  0BBB               	decfsz	??_teclado,f
  1730  0D16  2D15               	goto	u3027
  1731  0D17  0BBC               	decfsz	??_teclado+1,f
  1732  0D18  2D15               	goto	u3027
  1733  0D19  0BBD               	decfsz	??_teclado+2,f
  1734  0D1A  2D15               	goto	u3027
  1735  0D1B                     l2268:
  1736                           
  1737                           ;main.c: 115:         liga_buzzer(0.1);
  1738  0D1B  303D               	movlw	61
  1739  0D1C  1283               	bcf	3,5	;RP0=0, select bank0
  1740  0D1D  1303               	bcf	3,6	;RP1=0, select bank0
  1741  0D1E  00B8               	movwf	liga_buzzer@tempoSegundos+3
  1742  0D1F  30CC               	movlw	204
  1743  0D20  00B7               	movwf	liga_buzzer@tempoSegundos+2
  1744  0D21  30CC               	movlw	204
  1745  0D22  00B6               	movwf	liga_buzzer@tempoSegundos+1
  1746  0D23  30CD               	movlw	205
  1747  0D24  00B5               	movwf	liga_buzzer@tempoSegundos
  1748  0D25  160A  118A  26E2  120A  158A  	fcall	_liga_buzzer
  1749  0D2A                     l2270:
  1750                           
  1751                           ;main.c: 116:         LCD_escreve('0');
  1752  0D2A  3030               	movlw	48
  1753  0D2B  160A  118A  251E  120A  158A  	fcall	_LCD_escreve
  1754  0D30                     l2272:
  1755                           
  1756                           ;main.c: 118:         if(userFalse == 1){
  1757  0D30  1283               	bcf	3,5	;RP0=0, select bank0
  1758  0D31  1303               	bcf	3,6	;RP1=0, select bank0
  1759  0D32  035E               	decf	_userFalse,w
  1760  0D33  045F               	iorwf	_userFalse+1,w
  1761  0D34  1D03               	btfss	3,2
  1762  0D35  2D37               	goto	u2451
  1763  0D36  2D38               	goto	u2450
  1764  0D37                     u2451:
  1765  0D37  2D3A               	goto	l2276
  1766  0D38                     u2450:
  1767  0D38                     l2274:
  1768                           
  1769                           ;main.c: 119:             input = 0;
  1770  0D38  01E2               	clrf	_input
  1771  0D39  01E3               	clrf	_input+1
  1772  0D3A                     l2276:
  1773                           
  1774                           ;main.c: 126:     if (RB1 == 0){
  1775  0D3A  1886               	btfsc	6,1	;volatile
  1776  0D3B  2D3D               	goto	u2461
  1777  0D3C  2D3E               	goto	u2460
  1778  0D3D                     u2461:
  1779  0D3D  2D6D               	goto	l2288
  1780  0D3E                     u2460:
  1781  0D3E                     l2278:
  1782                           
  1783                           ;main.c: 127:         _delay((unsigned long)((200)*(20000000/4000.0)));
  1784  0D3E  3006               	movlw	6
  1785  0D3F  1283               	bcf	3,5	;RP0=0, select bank0
  1786  0D40  1303               	bcf	3,6	;RP1=0, select bank0
  1787  0D41  00BD               	movwf	??_teclado+2
  1788  0D42  3013               	movlw	19
  1789  0D43  00BC               	movwf	??_teclado+1
  1790  0D44  30AD               	movlw	173
  1791  0D45  00BB               	movwf	??_teclado
  1792  0D46                     u3037:
  1793  0D46  0BBB               	decfsz	??_teclado,f
  1794  0D47  2D46               	goto	u3037
  1795  0D48  0BBC               	decfsz	??_teclado+1,f
  1796  0D49  2D46               	goto	u3037
  1797  0D4A  0BBD               	decfsz	??_teclado+2,f
  1798  0D4B  2D46               	goto	u3037
  1799  0D4C                     l2280:
  1800                           
  1801                           ;main.c: 128:         liga_buzzer(0.1);
  1802  0D4C  303D               	movlw	61
  1803  0D4D  1283               	bcf	3,5	;RP0=0, select bank0
  1804  0D4E  1303               	bcf	3,6	;RP1=0, select bank0
  1805  0D4F  00B8               	movwf	liga_buzzer@tempoSegundos+3
  1806  0D50  30CC               	movlw	204
  1807  0D51  00B7               	movwf	liga_buzzer@tempoSegundos+2
  1808  0D52  30CC               	movlw	204
  1809  0D53  00B6               	movwf	liga_buzzer@tempoSegundos+1
  1810  0D54  30CD               	movlw	205
  1811  0D55  00B5               	movwf	liga_buzzer@tempoSegundos
  1812  0D56  160A  118A  26E2  120A  158A  	fcall	_liga_buzzer
  1813  0D5B                     l2282:
  1814                           
  1815                           ;main.c: 129:         LCD_escreve('1');
  1816  0D5B  3031               	movlw	49
  1817  0D5C  160A  118A  251E  120A  158A  	fcall	_LCD_escreve
  1818  0D61                     l2284:
  1819                           
  1820                           ;main.c: 131:         if(userFalse == 1){
  1821  0D61  1283               	bcf	3,5	;RP0=0, select bank0
  1822  0D62  1303               	bcf	3,6	;RP1=0, select bank0
  1823  0D63  035E               	decf	_userFalse,w
  1824  0D64  045F               	iorwf	_userFalse+1,w
  1825  0D65  1D03               	btfss	3,2
  1826  0D66  2D68               	goto	u2471
  1827  0D67  2D69               	goto	u2470
  1828  0D68                     u2471:
  1829  0D68  2D6D               	goto	l2288
  1830  0D69                     u2470:
  1831  0D69                     l2286:
  1832                           
  1833                           ;main.c: 132:             input = 1;
  1834  0D69  3001               	movlw	1
  1835  0D6A  00E2               	movwf	_input
  1836  0D6B  3000               	movlw	0
  1837  0D6C  00E3               	movwf	_input+1
  1838  0D6D                     l2288:
  1839                           
  1840                           ;main.c: 140:     if (RB2 == 0){
  1841  0D6D  1906               	btfsc	6,2	;volatile
  1842  0D6E  2D70               	goto	u2481
  1843  0D6F  2D71               	goto	u2480
  1844  0D70                     u2481:
  1845  0D70  2DA0               	goto	l2300
  1846  0D71                     u2480:
  1847  0D71                     l2290:
  1848                           
  1849                           ;main.c: 141:         _delay((unsigned long)((200)*(20000000/4000.0)));
  1850  0D71  3006               	movlw	6
  1851  0D72  1283               	bcf	3,5	;RP0=0, select bank0
  1852  0D73  1303               	bcf	3,6	;RP1=0, select bank0
  1853  0D74  00BD               	movwf	??_teclado+2
  1854  0D75  3013               	movlw	19
  1855  0D76  00BC               	movwf	??_teclado+1
  1856  0D77  30AD               	movlw	173
  1857  0D78  00BB               	movwf	??_teclado
  1858  0D79                     u3047:
  1859  0D79  0BBB               	decfsz	??_teclado,f
  1860  0D7A  2D79               	goto	u3047
  1861  0D7B  0BBC               	decfsz	??_teclado+1,f
  1862  0D7C  2D79               	goto	u3047
  1863  0D7D  0BBD               	decfsz	??_teclado+2,f
  1864  0D7E  2D79               	goto	u3047
  1865  0D7F                     l2292:
  1866                           
  1867                           ;main.c: 142:         liga_buzzer(0.1);
  1868  0D7F  303D               	movlw	61
  1869  0D80  1283               	bcf	3,5	;RP0=0, select bank0
  1870  0D81  1303               	bcf	3,6	;RP1=0, select bank0
  1871  0D82  00B8               	movwf	liga_buzzer@tempoSegundos+3
  1872  0D83  30CC               	movlw	204
  1873  0D84  00B7               	movwf	liga_buzzer@tempoSegundos+2
  1874  0D85  30CC               	movlw	204
  1875  0D86  00B6               	movwf	liga_buzzer@tempoSegundos+1
  1876  0D87  30CD               	movlw	205
  1877  0D88  00B5               	movwf	liga_buzzer@tempoSegundos
  1878  0D89  160A  118A  26E2  120A  158A  	fcall	_liga_buzzer
  1879  0D8E                     l2294:
  1880                           
  1881                           ;main.c: 143:         LCD_escreve('2');
  1882  0D8E  3032               	movlw	50
  1883  0D8F  160A  118A  251E  120A  158A  	fcall	_LCD_escreve
  1884  0D94                     l2296:
  1885                           
  1886                           ;main.c: 145:         if(userFalse == 1){
  1887  0D94  1283               	bcf	3,5	;RP0=0, select bank0
  1888  0D95  1303               	bcf	3,6	;RP1=0, select bank0
  1889  0D96  035E               	decf	_userFalse,w
  1890  0D97  045F               	iorwf	_userFalse+1,w
  1891  0D98  1D03               	btfss	3,2
  1892  0D99  2D9B               	goto	u2491
  1893  0D9A  2D9C               	goto	u2490
  1894  0D9B                     u2491:
  1895  0D9B  2DA0               	goto	l2300
  1896  0D9C                     u2490:
  1897  0D9C                     l2298:
  1898                           
  1899                           ;main.c: 146:             input = 2;
  1900  0D9C  3002               	movlw	2
  1901  0D9D  00E2               	movwf	_input
  1902  0D9E  3000               	movlw	0
  1903  0D9F  00E3               	movwf	_input+1
  1904  0DA0                     l2300:
  1905                           
  1906                           ;main.c: 153:     if (RB3 == 0){
  1907  0DA0  1986               	btfsc	6,3	;volatile
  1908  0DA1  2DA3               	goto	u2501
  1909  0DA2  2DA4               	goto	u2500
  1910  0DA3                     u2501:
  1911  0DA3  2DD3               	goto	l142
  1912  0DA4                     u2500:
  1913  0DA4                     l2302:
  1914                           
  1915                           ;main.c: 154:         _delay((unsigned long)((200)*(20000000/4000.0)));
  1916  0DA4  3006               	movlw	6
  1917  0DA5  1283               	bcf	3,5	;RP0=0, select bank0
  1918  0DA6  1303               	bcf	3,6	;RP1=0, select bank0
  1919  0DA7  00BD               	movwf	??_teclado+2
  1920  0DA8  3013               	movlw	19
  1921  0DA9  00BC               	movwf	??_teclado+1
  1922  0DAA  30AD               	movlw	173
  1923  0DAB  00BB               	movwf	??_teclado
  1924  0DAC                     u3057:
  1925  0DAC  0BBB               	decfsz	??_teclado,f
  1926  0DAD  2DAC               	goto	u3057
  1927  0DAE  0BBC               	decfsz	??_teclado+1,f
  1928  0DAF  2DAC               	goto	u3057
  1929  0DB0  0BBD               	decfsz	??_teclado+2,f
  1930  0DB1  2DAC               	goto	u3057
  1931  0DB2                     l2304:
  1932                           
  1933                           ;main.c: 155:         liga_buzzer(0.1);
  1934  0DB2  303D               	movlw	61
  1935  0DB3  1283               	bcf	3,5	;RP0=0, select bank0
  1936  0DB4  1303               	bcf	3,6	;RP1=0, select bank0
  1937  0DB5  00B8               	movwf	liga_buzzer@tempoSegundos+3
  1938  0DB6  30CC               	movlw	204
  1939  0DB7  00B7               	movwf	liga_buzzer@tempoSegundos+2
  1940  0DB8  30CC               	movlw	204
  1941  0DB9  00B6               	movwf	liga_buzzer@tempoSegundos+1
  1942  0DBA  30CD               	movlw	205
  1943  0DBB  00B5               	movwf	liga_buzzer@tempoSegundos
  1944  0DBC  160A  118A  26E2  120A  158A  	fcall	_liga_buzzer
  1945  0DC1                     l2306:
  1946                           
  1947                           ;main.c: 156:         LCD_escreve('3');
  1948  0DC1  3033               	movlw	51
  1949  0DC2  160A  118A  251E  120A  158A  	fcall	_LCD_escreve
  1950  0DC7                     l2308:
  1951                           
  1952                           ;main.c: 158:         if(userFalse == 1){
  1953  0DC7  1283               	bcf	3,5	;RP0=0, select bank0
  1954  0DC8  1303               	bcf	3,6	;RP1=0, select bank0
  1955  0DC9  035E               	decf	_userFalse,w
  1956  0DCA  045F               	iorwf	_userFalse+1,w
  1957  0DCB  1D03               	btfss	3,2
  1958  0DCC  2DCE               	goto	u2511
  1959  0DCD  2DCF               	goto	u2510
  1960  0DCE                     u2511:
  1961  0DCE  2DD3               	goto	l142
  1962  0DCF                     u2510:
  1963  0DCF                     l2310:
  1964                           
  1965                           ;main.c: 159:             input = 3;
  1966  0DCF  3003               	movlw	3
  1967  0DD0  00E2               	movwf	_input
  1968  0DD1  3000               	movlw	0
  1969  0DD2  00E3               	movwf	_input+1
  1970  0DD3                     l142:	
  1971                           ;main.c: 162:     }
  1972                           
  1973                           
  1974                           ;main.c: 167:     PORTB = 0b11011111;
  1975  0DD3  30DF               	movlw	223
  1976  0DD4  0086               	movwf	6	;volatile
  1977  0DD5                     l2312:
  1978                           
  1979                           ;main.c: 172:     if (RB0 == 0){
  1980  0DD5  1806               	btfsc	6,0	;volatile
  1981  0DD6  2DD8               	goto	u2521
  1982  0DD7  2DD9               	goto	u2520
  1983  0DD8                     u2521:
  1984  0DD8  2E08               	goto	l2324
  1985  0DD9                     u2520:
  1986  0DD9                     l2314:
  1987                           
  1988                           ;main.c: 173:         _delay((unsigned long)((200)*(20000000/4000.0)));
  1989  0DD9  3006               	movlw	6
  1990  0DDA  1283               	bcf	3,5	;RP0=0, select bank0
  1991  0DDB  1303               	bcf	3,6	;RP1=0, select bank0
  1992  0DDC  00BD               	movwf	??_teclado+2
  1993  0DDD  3013               	movlw	19
  1994  0DDE  00BC               	movwf	??_teclado+1
  1995  0DDF  30AD               	movlw	173
  1996  0DE0  00BB               	movwf	??_teclado
  1997  0DE1                     u3067:
  1998  0DE1  0BBB               	decfsz	??_teclado,f
  1999  0DE2  2DE1               	goto	u3067
  2000  0DE3  0BBC               	decfsz	??_teclado+1,f
  2001  0DE4  2DE1               	goto	u3067
  2002  0DE5  0BBD               	decfsz	??_teclado+2,f
  2003  0DE6  2DE1               	goto	u3067
  2004  0DE7                     l2316:
  2005                           
  2006                           ;main.c: 174:         liga_buzzer(0.1);
  2007  0DE7  303D               	movlw	61
  2008  0DE8  1283               	bcf	3,5	;RP0=0, select bank0
  2009  0DE9  1303               	bcf	3,6	;RP1=0, select bank0
  2010  0DEA  00B8               	movwf	liga_buzzer@tempoSegundos+3
  2011  0DEB  30CC               	movlw	204
  2012  0DEC  00B7               	movwf	liga_buzzer@tempoSegundos+2
  2013  0DED  30CC               	movlw	204
  2014  0DEE  00B6               	movwf	liga_buzzer@tempoSegundos+1
  2015  0DEF  30CD               	movlw	205
  2016  0DF0  00B5               	movwf	liga_buzzer@tempoSegundos
  2017  0DF1  160A  118A  26E2  120A  158A  	fcall	_liga_buzzer
  2018  0DF6                     l2318:
  2019                           
  2020                           ;main.c: 175:         LCD_escreve('4');
  2021  0DF6  3034               	movlw	52
  2022  0DF7  160A  118A  251E  120A  158A  	fcall	_LCD_escreve
  2023  0DFC                     l2320:
  2024                           
  2025                           ;main.c: 177:         if(userFalse == 1){
  2026  0DFC  1283               	bcf	3,5	;RP0=0, select bank0
  2027  0DFD  1303               	bcf	3,6	;RP1=0, select bank0
  2028  0DFE  035E               	decf	_userFalse,w
  2029  0DFF  045F               	iorwf	_userFalse+1,w
  2030  0E00  1D03               	btfss	3,2
  2031  0E01  2E03               	goto	u2531
  2032  0E02  2E04               	goto	u2530
  2033  0E03                     u2531:
  2034  0E03  2E08               	goto	l2324
  2035  0E04                     u2530:
  2036  0E04                     l2322:
  2037                           
  2038                           ;main.c: 178:             input = 4;
  2039  0E04  3004               	movlw	4
  2040  0E05  00E2               	movwf	_input
  2041  0E06  3000               	movlw	0
  2042  0E07  00E3               	movwf	_input+1
  2043  0E08                     l2324:
  2044                           
  2045                           ;main.c: 185:     if (RB1 == 0){
  2046  0E08  1886               	btfsc	6,1	;volatile
  2047  0E09  2E0B               	goto	u2541
  2048  0E0A  2E0C               	goto	u2540
  2049  0E0B                     u2541:
  2050  0E0B  2E3B               	goto	l2336
  2051  0E0C                     u2540:
  2052  0E0C                     l2326:
  2053                           
  2054                           ;main.c: 186:         _delay((unsigned long)((200)*(20000000/4000.0)));
  2055  0E0C  3006               	movlw	6
  2056  0E0D  1283               	bcf	3,5	;RP0=0, select bank0
  2057  0E0E  1303               	bcf	3,6	;RP1=0, select bank0
  2058  0E0F  00BD               	movwf	??_teclado+2
  2059  0E10  3013               	movlw	19
  2060  0E11  00BC               	movwf	??_teclado+1
  2061  0E12  30AD               	movlw	173
  2062  0E13  00BB               	movwf	??_teclado
  2063  0E14                     u3077:
  2064  0E14  0BBB               	decfsz	??_teclado,f
  2065  0E15  2E14               	goto	u3077
  2066  0E16  0BBC               	decfsz	??_teclado+1,f
  2067  0E17  2E14               	goto	u3077
  2068  0E18  0BBD               	decfsz	??_teclado+2,f
  2069  0E19  2E14               	goto	u3077
  2070  0E1A                     l2328:
  2071                           
  2072                           ;main.c: 187:         liga_buzzer(0.1);
  2073  0E1A  303D               	movlw	61
  2074  0E1B  1283               	bcf	3,5	;RP0=0, select bank0
  2075  0E1C  1303               	bcf	3,6	;RP1=0, select bank0
  2076  0E1D  00B8               	movwf	liga_buzzer@tempoSegundos+3
  2077  0E1E  30CC               	movlw	204
  2078  0E1F  00B7               	movwf	liga_buzzer@tempoSegundos+2
  2079  0E20  30CC               	movlw	204
  2080  0E21  00B6               	movwf	liga_buzzer@tempoSegundos+1
  2081  0E22  30CD               	movlw	205
  2082  0E23  00B5               	movwf	liga_buzzer@tempoSegundos
  2083  0E24  160A  118A  26E2  120A  158A  	fcall	_liga_buzzer
  2084  0E29                     l2330:
  2085                           
  2086                           ;main.c: 188:         LCD_escreve('5');
  2087  0E29  3035               	movlw	53
  2088  0E2A  160A  118A  251E  120A  158A  	fcall	_LCD_escreve
  2089  0E2F                     l2332:
  2090                           
  2091                           ;main.c: 190:         if(userFalse == 1){
  2092  0E2F  1283               	bcf	3,5	;RP0=0, select bank0
  2093  0E30  1303               	bcf	3,6	;RP1=0, select bank0
  2094  0E31  035E               	decf	_userFalse,w
  2095  0E32  045F               	iorwf	_userFalse+1,w
  2096  0E33  1D03               	btfss	3,2
  2097  0E34  2E36               	goto	u2551
  2098  0E35  2E37               	goto	u2550
  2099  0E36                     u2551:
  2100  0E36  2E3B               	goto	l2336
  2101  0E37                     u2550:
  2102  0E37                     l2334:
  2103                           
  2104                           ;main.c: 191:             input = 5;
  2105  0E37  3005               	movlw	5
  2106  0E38  00E2               	movwf	_input
  2107  0E39  3000               	movlw	0
  2108  0E3A  00E3               	movwf	_input+1
  2109  0E3B                     l2336:
  2110                           
  2111                           ;main.c: 199:     if (RB2 == 0){
  2112  0E3B  1906               	btfsc	6,2	;volatile
  2113  0E3C  2E3E               	goto	u2561
  2114  0E3D  2E3F               	goto	u2560
  2115  0E3E                     u2561:
  2116  0E3E  2E6E               	goto	l2348
  2117  0E3F                     u2560:
  2118  0E3F                     l2338:
  2119                           
  2120                           ;main.c: 200:         _delay((unsigned long)((200)*(20000000/4000.0)));
  2121  0E3F  3006               	movlw	6
  2122  0E40  1283               	bcf	3,5	;RP0=0, select bank0
  2123  0E41  1303               	bcf	3,6	;RP1=0, select bank0
  2124  0E42  00BD               	movwf	??_teclado+2
  2125  0E43  3013               	movlw	19
  2126  0E44  00BC               	movwf	??_teclado+1
  2127  0E45  30AD               	movlw	173
  2128  0E46  00BB               	movwf	??_teclado
  2129  0E47                     u3087:
  2130  0E47  0BBB               	decfsz	??_teclado,f
  2131  0E48  2E47               	goto	u3087
  2132  0E49  0BBC               	decfsz	??_teclado+1,f
  2133  0E4A  2E47               	goto	u3087
  2134  0E4B  0BBD               	decfsz	??_teclado+2,f
  2135  0E4C  2E47               	goto	u3087
  2136  0E4D                     l2340:
  2137                           
  2138                           ;main.c: 201:         liga_buzzer(0.1);
  2139  0E4D  303D               	movlw	61
  2140  0E4E  1283               	bcf	3,5	;RP0=0, select bank0
  2141  0E4F  1303               	bcf	3,6	;RP1=0, select bank0
  2142  0E50  00B8               	movwf	liga_buzzer@tempoSegundos+3
  2143  0E51  30CC               	movlw	204
  2144  0E52  00B7               	movwf	liga_buzzer@tempoSegundos+2
  2145  0E53  30CC               	movlw	204
  2146  0E54  00B6               	movwf	liga_buzzer@tempoSegundos+1
  2147  0E55  30CD               	movlw	205
  2148  0E56  00B5               	movwf	liga_buzzer@tempoSegundos
  2149  0E57  160A  118A  26E2  120A  158A  	fcall	_liga_buzzer
  2150  0E5C                     l2342:
  2151                           
  2152                           ;main.c: 202:         LCD_escreve('6');
  2153  0E5C  3036               	movlw	54
  2154  0E5D  160A  118A  251E  120A  158A  	fcall	_LCD_escreve
  2155  0E62                     l2344:
  2156                           
  2157                           ;main.c: 204:         if(userFalse == 1){
  2158  0E62  1283               	bcf	3,5	;RP0=0, select bank0
  2159  0E63  1303               	bcf	3,6	;RP1=0, select bank0
  2160  0E64  035E               	decf	_userFalse,w
  2161  0E65  045F               	iorwf	_userFalse+1,w
  2162  0E66  1D03               	btfss	3,2
  2163  0E67  2E69               	goto	u2571
  2164  0E68  2E6A               	goto	u2570
  2165  0E69                     u2571:
  2166  0E69  2E6E               	goto	l2348
  2167  0E6A                     u2570:
  2168  0E6A                     l2346:
  2169                           
  2170                           ;main.c: 205:             input = 6;
  2171  0E6A  3006               	movlw	6
  2172  0E6B  00E2               	movwf	_input
  2173  0E6C  3000               	movlw	0
  2174  0E6D  00E3               	movwf	_input+1
  2175  0E6E                     l2348:
  2176                           
  2177                           ;main.c: 212:     if (RB3 == 0){
  2178  0E6E  1986               	btfsc	6,3	;volatile
  2179  0E6F  2E71               	goto	u2581
  2180  0E70  2E72               	goto	u2580
  2181  0E71                     u2581:
  2182  0E71  2EA1               	goto	l150
  2183  0E72                     u2580:
  2184  0E72                     l2350:
  2185                           
  2186                           ;main.c: 213:         _delay((unsigned long)((200)*(20000000/4000.0)));
  2187  0E72  3006               	movlw	6
  2188  0E73  1283               	bcf	3,5	;RP0=0, select bank0
  2189  0E74  1303               	bcf	3,6	;RP1=0, select bank0
  2190  0E75  00BD               	movwf	??_teclado+2
  2191  0E76  3013               	movlw	19
  2192  0E77  00BC               	movwf	??_teclado+1
  2193  0E78  30AD               	movlw	173
  2194  0E79  00BB               	movwf	??_teclado
  2195  0E7A                     u3097:
  2196  0E7A  0BBB               	decfsz	??_teclado,f
  2197  0E7B  2E7A               	goto	u3097
  2198  0E7C  0BBC               	decfsz	??_teclado+1,f
  2199  0E7D  2E7A               	goto	u3097
  2200  0E7E  0BBD               	decfsz	??_teclado+2,f
  2201  0E7F  2E7A               	goto	u3097
  2202  0E80                     l2352:
  2203                           
  2204                           ;main.c: 214:         liga_buzzer(0.1);
  2205  0E80  303D               	movlw	61
  2206  0E81  1283               	bcf	3,5	;RP0=0, select bank0
  2207  0E82  1303               	bcf	3,6	;RP1=0, select bank0
  2208  0E83  00B8               	movwf	liga_buzzer@tempoSegundos+3
  2209  0E84  30CC               	movlw	204
  2210  0E85  00B7               	movwf	liga_buzzer@tempoSegundos+2
  2211  0E86  30CC               	movlw	204
  2212  0E87  00B6               	movwf	liga_buzzer@tempoSegundos+1
  2213  0E88  30CD               	movlw	205
  2214  0E89  00B5               	movwf	liga_buzzer@tempoSegundos
  2215  0E8A  160A  118A  26E2  120A  158A  	fcall	_liga_buzzer
  2216  0E8F                     l2354:
  2217                           
  2218                           ;main.c: 215:         LCD_escreve('7');
  2219  0E8F  3037               	movlw	55
  2220  0E90  160A  118A  251E  120A  158A  	fcall	_LCD_escreve
  2221  0E95                     l2356:
  2222                           
  2223                           ;main.c: 217:         if(userFalse == 1){
  2224  0E95  1283               	bcf	3,5	;RP0=0, select bank0
  2225  0E96  1303               	bcf	3,6	;RP1=0, select bank0
  2226  0E97  035E               	decf	_userFalse,w
  2227  0E98  045F               	iorwf	_userFalse+1,w
  2228  0E99  1D03               	btfss	3,2
  2229  0E9A  2E9C               	goto	u2591
  2230  0E9B  2E9D               	goto	u2590
  2231  0E9C                     u2591:
  2232  0E9C  2EA1               	goto	l150
  2233  0E9D                     u2590:
  2234  0E9D                     l2358:
  2235                           
  2236                           ;main.c: 218:             input = 7;
  2237  0E9D  3007               	movlw	7
  2238  0E9E  00E2               	movwf	_input
  2239  0E9F  3000               	movlw	0
  2240  0EA0  00E3               	movwf	_input+1
  2241  0EA1                     l150:	
  2242                           ;main.c: 221:     }
  2243                           
  2244                           
  2245                           ;main.c: 226:     PORTB = 0b10111111;
  2246  0EA1  30BF               	movlw	191
  2247  0EA2  0086               	movwf	6	;volatile
  2248  0EA3                     l2360:
  2249                           
  2250                           ;main.c: 231:     if (RB0 == 0){
  2251  0EA3  1806               	btfsc	6,0	;volatile
  2252  0EA4  2EA6               	goto	u2601
  2253  0EA5  2EA7               	goto	u2600
  2254  0EA6                     u2601:
  2255  0EA6  2ED6               	goto	l2372
  2256  0EA7                     u2600:
  2257  0EA7                     l2362:
  2258                           
  2259                           ;main.c: 232:         _delay((unsigned long)((200)*(20000000/4000.0)));
  2260  0EA7  3006               	movlw	6
  2261  0EA8  1283               	bcf	3,5	;RP0=0, select bank0
  2262  0EA9  1303               	bcf	3,6	;RP1=0, select bank0
  2263  0EAA  00BD               	movwf	??_teclado+2
  2264  0EAB  3013               	movlw	19
  2265  0EAC  00BC               	movwf	??_teclado+1
  2266  0EAD  30AD               	movlw	173
  2267  0EAE  00BB               	movwf	??_teclado
  2268  0EAF                     u3107:
  2269  0EAF  0BBB               	decfsz	??_teclado,f
  2270  0EB0  2EAF               	goto	u3107
  2271  0EB1  0BBC               	decfsz	??_teclado+1,f
  2272  0EB2  2EAF               	goto	u3107
  2273  0EB3  0BBD               	decfsz	??_teclado+2,f
  2274  0EB4  2EAF               	goto	u3107
  2275  0EB5                     l2364:
  2276                           
  2277                           ;main.c: 233:         liga_buzzer(0.1);
  2278  0EB5  303D               	movlw	61
  2279  0EB6  1283               	bcf	3,5	;RP0=0, select bank0
  2280  0EB7  1303               	bcf	3,6	;RP1=0, select bank0
  2281  0EB8  00B8               	movwf	liga_buzzer@tempoSegundos+3
  2282  0EB9  30CC               	movlw	204
  2283  0EBA  00B7               	movwf	liga_buzzer@tempoSegundos+2
  2284  0EBB  30CC               	movlw	204
  2285  0EBC  00B6               	movwf	liga_buzzer@tempoSegundos+1
  2286  0EBD  30CD               	movlw	205
  2287  0EBE  00B5               	movwf	liga_buzzer@tempoSegundos
  2288  0EBF  160A  118A  26E2  120A  158A  	fcall	_liga_buzzer
  2289  0EC4                     l2366:
  2290                           
  2291                           ;main.c: 234:         LCD_escreve('8');
  2292  0EC4  3038               	movlw	56
  2293  0EC5  160A  118A  251E  120A  158A  	fcall	_LCD_escreve
  2294  0ECA                     l2368:
  2295                           
  2296                           ;main.c: 236:         if(userFalse == 1){
  2297  0ECA  1283               	bcf	3,5	;RP0=0, select bank0
  2298  0ECB  1303               	bcf	3,6	;RP1=0, select bank0
  2299  0ECC  035E               	decf	_userFalse,w
  2300  0ECD  045F               	iorwf	_userFalse+1,w
  2301  0ECE  1D03               	btfss	3,2
  2302  0ECF  2ED1               	goto	u2611
  2303  0ED0  2ED2               	goto	u2610
  2304  0ED1                     u2611:
  2305  0ED1  2ED6               	goto	l2372
  2306  0ED2                     u2610:
  2307  0ED2                     l2370:
  2308                           
  2309                           ;main.c: 237:             input = 8;
  2310  0ED2  3008               	movlw	8
  2311  0ED3  00E2               	movwf	_input
  2312  0ED4  3000               	movlw	0
  2313  0ED5  00E3               	movwf	_input+1
  2314  0ED6                     l2372:
  2315                           
  2316                           ;main.c: 245:     if (RB1 == 0){
  2317  0ED6  1886               	btfsc	6,1	;volatile
  2318  0ED7  2ED9               	goto	u2621
  2319  0ED8  2EDA               	goto	u2620
  2320  0ED9                     u2621:
  2321  0ED9  2F09               	goto	l2384
  2322  0EDA                     u2620:
  2323  0EDA                     l2374:
  2324                           
  2325                           ;main.c: 246:         _delay((unsigned long)((200)*(20000000/4000.0)));
  2326  0EDA  3006               	movlw	6
  2327  0EDB  1283               	bcf	3,5	;RP0=0, select bank0
  2328  0EDC  1303               	bcf	3,6	;RP1=0, select bank0
  2329  0EDD  00BD               	movwf	??_teclado+2
  2330  0EDE  3013               	movlw	19
  2331  0EDF  00BC               	movwf	??_teclado+1
  2332  0EE0  30AD               	movlw	173
  2333  0EE1  00BB               	movwf	??_teclado
  2334  0EE2                     u3117:
  2335  0EE2  0BBB               	decfsz	??_teclado,f
  2336  0EE3  2EE2               	goto	u3117
  2337  0EE4  0BBC               	decfsz	??_teclado+1,f
  2338  0EE5  2EE2               	goto	u3117
  2339  0EE6  0BBD               	decfsz	??_teclado+2,f
  2340  0EE7  2EE2               	goto	u3117
  2341  0EE8                     l2376:
  2342                           
  2343                           ;main.c: 247:         liga_buzzer(0.1);
  2344  0EE8  303D               	movlw	61
  2345  0EE9  1283               	bcf	3,5	;RP0=0, select bank0
  2346  0EEA  1303               	bcf	3,6	;RP1=0, select bank0
  2347  0EEB  00B8               	movwf	liga_buzzer@tempoSegundos+3
  2348  0EEC  30CC               	movlw	204
  2349  0EED  00B7               	movwf	liga_buzzer@tempoSegundos+2
  2350  0EEE  30CC               	movlw	204
  2351  0EEF  00B6               	movwf	liga_buzzer@tempoSegundos+1
  2352  0EF0  30CD               	movlw	205
  2353  0EF1  00B5               	movwf	liga_buzzer@tempoSegundos
  2354  0EF2  160A  118A  26E2  120A  158A  	fcall	_liga_buzzer
  2355  0EF7                     l2378:
  2356                           
  2357                           ;main.c: 248:         LCD_escreve('9');
  2358  0EF7  3039               	movlw	57
  2359  0EF8  160A  118A  251E  120A  158A  	fcall	_LCD_escreve
  2360  0EFD                     l2380:
  2361                           
  2362                           ;main.c: 250:         if(userFalse == 1){
  2363  0EFD  1283               	bcf	3,5	;RP0=0, select bank0
  2364  0EFE  1303               	bcf	3,6	;RP1=0, select bank0
  2365  0EFF  035E               	decf	_userFalse,w
  2366  0F00  045F               	iorwf	_userFalse+1,w
  2367  0F01  1D03               	btfss	3,2
  2368  0F02  2F04               	goto	u2631
  2369  0F03  2F05               	goto	u2630
  2370  0F04                     u2631:
  2371  0F04  2F09               	goto	l2384
  2372  0F05                     u2630:
  2373  0F05                     l2382:
  2374                           
  2375                           ;main.c: 251:             input = 9;
  2376  0F05  3009               	movlw	9
  2377  0F06  00E2               	movwf	_input
  2378  0F07  3000               	movlw	0
  2379  0F08  00E3               	movwf	_input+1
  2380  0F09                     l2384:
  2381                           
  2382                           ;main.c: 259:     if (RB2 == 0){
  2383  0F09  1906               	btfsc	6,2	;volatile
  2384  0F0A  2F0C               	goto	u2641
  2385  0F0B  2F0D               	goto	u2640
  2386  0F0C                     u2641:
  2387  0F0C  2F30               	goto	l2392
  2388  0F0D                     u2640:
  2389  0F0D                     l2386:
  2390                           
  2391                           ;main.c: 260:         _delay((unsigned long)((200)*(20000000/4000.0)));
  2392  0F0D  3006               	movlw	6
  2393  0F0E  1283               	bcf	3,5	;RP0=0, select bank0
  2394  0F0F  1303               	bcf	3,6	;RP1=0, select bank0
  2395  0F10  00BD               	movwf	??_teclado+2
  2396  0F11  3013               	movlw	19
  2397  0F12  00BC               	movwf	??_teclado+1
  2398  0F13  30AD               	movlw	173
  2399  0F14  00BB               	movwf	??_teclado
  2400  0F15                     u3127:
  2401  0F15  0BBB               	decfsz	??_teclado,f
  2402  0F16  2F15               	goto	u3127
  2403  0F17  0BBC               	decfsz	??_teclado+1,f
  2404  0F18  2F15               	goto	u3127
  2405  0F19  0BBD               	decfsz	??_teclado+2,f
  2406  0F1A  2F15               	goto	u3127
  2407  0F1B                     l2388:
  2408                           
  2409                           ;main.c: 261:         liga_buzzer(0.1);
  2410  0F1B  303D               	movlw	61
  2411  0F1C  1283               	bcf	3,5	;RP0=0, select bank0
  2412  0F1D  1303               	bcf	3,6	;RP1=0, select bank0
  2413  0F1E  00B8               	movwf	liga_buzzer@tempoSegundos+3
  2414  0F1F  30CC               	movlw	204
  2415  0F20  00B7               	movwf	liga_buzzer@tempoSegundos+2
  2416  0F21  30CC               	movlw	204
  2417  0F22  00B6               	movwf	liga_buzzer@tempoSegundos+1
  2418  0F23  30CD               	movlw	205
  2419  0F24  00B5               	movwf	liga_buzzer@tempoSegundos
  2420  0F25  160A  118A  26E2  120A  158A  	fcall	_liga_buzzer
  2421  0F2A                     l2390:
  2422                           
  2423                           ;main.c: 262:         LCD_escreve('A');
  2424  0F2A  3041               	movlw	65
  2425  0F2B  160A  118A  251E  120A  158A  	fcall	_LCD_escreve
  2426  0F30                     l2392:
  2427                           
  2428                           ;main.c: 269:     if (RB3 == 0){
  2429  0F30  1283               	bcf	3,5	;RP0=0, select bank0
  2430  0F31  1303               	bcf	3,6	;RP1=0, select bank0
  2431  0F32  1986               	btfsc	6,3	;volatile
  2432  0F33  2F35               	goto	u2651
  2433  0F34  2F36               	goto	u2650
  2434  0F35                     u2651:
  2435  0F35  2F59               	goto	l157
  2436  0F36                     u2650:
  2437  0F36                     l2394:
  2438                           
  2439                           ;main.c: 270:         _delay((unsigned long)((200)*(20000000/4000.0)));
  2440  0F36  3006               	movlw	6
  2441  0F37  1283               	bcf	3,5	;RP0=0, select bank0
  2442  0F38  1303               	bcf	3,6	;RP1=0, select bank0
  2443  0F39  00BD               	movwf	??_teclado+2
  2444  0F3A  3013               	movlw	19
  2445  0F3B  00BC               	movwf	??_teclado+1
  2446  0F3C  30AD               	movlw	173
  2447  0F3D  00BB               	movwf	??_teclado
  2448  0F3E                     u3137:
  2449  0F3E  0BBB               	decfsz	??_teclado,f
  2450  0F3F  2F3E               	goto	u3137
  2451  0F40  0BBC               	decfsz	??_teclado+1,f
  2452  0F41  2F3E               	goto	u3137
  2453  0F42  0BBD               	decfsz	??_teclado+2,f
  2454  0F43  2F3E               	goto	u3137
  2455  0F44                     l2396:
  2456                           
  2457                           ;main.c: 271:         liga_buzzer(0.1);
  2458  0F44  303D               	movlw	61
  2459  0F45  1283               	bcf	3,5	;RP0=0, select bank0
  2460  0F46  1303               	bcf	3,6	;RP1=0, select bank0
  2461  0F47  00B8               	movwf	liga_buzzer@tempoSegundos+3
  2462  0F48  30CC               	movlw	204
  2463  0F49  00B7               	movwf	liga_buzzer@tempoSegundos+2
  2464  0F4A  30CC               	movlw	204
  2465  0F4B  00B6               	movwf	liga_buzzer@tempoSegundos+1
  2466  0F4C  30CD               	movlw	205
  2467  0F4D  00B5               	movwf	liga_buzzer@tempoSegundos
  2468  0F4E  160A  118A  26E2  120A  158A  	fcall	_liga_buzzer
  2469  0F53                     l2398:
  2470                           
  2471                           ;main.c: 272:         LCD_escreve('B');
  2472  0F53  3042               	movlw	66
  2473  0F54  160A  118A  251E  120A  158A  	fcall	_LCD_escreve
  2474  0F59                     l157:	
  2475                           ;main.c: 274:     }
  2476                           
  2477                           
  2478                           ;main.c: 279:     PORTB = 0b01111111;
  2479  0F59  307F               	movlw	127
  2480  0F5A  1283               	bcf	3,5	;RP0=0, select bank0
  2481  0F5B  1303               	bcf	3,6	;RP1=0, select bank0
  2482  0F5C  0086               	movwf	6	;volatile
  2483  0F5D                     l2400:
  2484                           
  2485                           ;main.c: 284:     if (RB0 == 0){
  2486  0F5D  1806               	btfsc	6,0	;volatile
  2487  0F5E  2F60               	goto	u2661
  2488  0F5F  2F61               	goto	u2660
  2489  0F60                     u2661:
  2490  0F60  2F84               	goto	l2408
  2491  0F61                     u2660:
  2492  0F61                     l2402:
  2493                           
  2494                           ;main.c: 285:         _delay((unsigned long)((200)*(20000000/4000.0)));
  2495  0F61  3006               	movlw	6
  2496  0F62  1283               	bcf	3,5	;RP0=0, select bank0
  2497  0F63  1303               	bcf	3,6	;RP1=0, select bank0
  2498  0F64  00BD               	movwf	??_teclado+2
  2499  0F65  3013               	movlw	19
  2500  0F66  00BC               	movwf	??_teclado+1
  2501  0F67  30AD               	movlw	173
  2502  0F68  00BB               	movwf	??_teclado
  2503  0F69                     u3147:
  2504  0F69  0BBB               	decfsz	??_teclado,f
  2505  0F6A  2F69               	goto	u3147
  2506  0F6B  0BBC               	decfsz	??_teclado+1,f
  2507  0F6C  2F69               	goto	u3147
  2508  0F6D  0BBD               	decfsz	??_teclado+2,f
  2509  0F6E  2F69               	goto	u3147
  2510  0F6F                     l2404:
  2511                           
  2512                           ;main.c: 286:         liga_buzzer(0.1);
  2513  0F6F  303D               	movlw	61
  2514  0F70  1283               	bcf	3,5	;RP0=0, select bank0
  2515  0F71  1303               	bcf	3,6	;RP1=0, select bank0
  2516  0F72  00B8               	movwf	liga_buzzer@tempoSegundos+3
  2517  0F73  30CC               	movlw	204
  2518  0F74  00B7               	movwf	liga_buzzer@tempoSegundos+2
  2519  0F75  30CC               	movlw	204
  2520  0F76  00B6               	movwf	liga_buzzer@tempoSegundos+1
  2521  0F77  30CD               	movlw	205
  2522  0F78  00B5               	movwf	liga_buzzer@tempoSegundos
  2523  0F79  160A  118A  26E2  120A  158A  	fcall	_liga_buzzer
  2524  0F7E                     l2406:
  2525                           
  2526                           ;main.c: 287:         LCD_escreve('C');
  2527  0F7E  3043               	movlw	67
  2528  0F7F  160A  118A  251E  120A  158A  	fcall	_LCD_escreve
  2529  0F84                     l2408:
  2530                           
  2531                           ;main.c: 294:     if (RB1 == 0){
  2532  0F84  1283               	bcf	3,5	;RP0=0, select bank0
  2533  0F85  1303               	bcf	3,6	;RP1=0, select bank0
  2534  0F86  1886               	btfsc	6,1	;volatile
  2535  0F87  2F89               	goto	u2671
  2536  0F88  2F8A               	goto	u2670
  2537  0F89                     u2671:
  2538  0F89  2FAD               	goto	l2416
  2539  0F8A                     u2670:
  2540  0F8A                     l2410:
  2541                           
  2542                           ;main.c: 295:         _delay((unsigned long)((200)*(20000000/4000.0)));
  2543  0F8A  3006               	movlw	6
  2544  0F8B  1283               	bcf	3,5	;RP0=0, select bank0
  2545  0F8C  1303               	bcf	3,6	;RP1=0, select bank0
  2546  0F8D  00BD               	movwf	??_teclado+2
  2547  0F8E  3013               	movlw	19
  2548  0F8F  00BC               	movwf	??_teclado+1
  2549  0F90  30AD               	movlw	173
  2550  0F91  00BB               	movwf	??_teclado
  2551  0F92                     u3157:
  2552  0F92  0BBB               	decfsz	??_teclado,f
  2553  0F93  2F92               	goto	u3157
  2554  0F94  0BBC               	decfsz	??_teclado+1,f
  2555  0F95  2F92               	goto	u3157
  2556  0F96  0BBD               	decfsz	??_teclado+2,f
  2557  0F97  2F92               	goto	u3157
  2558  0F98                     l2412:
  2559                           
  2560                           ;main.c: 296:         liga_buzzer(0.1);
  2561  0F98  303D               	movlw	61
  2562  0F99  1283               	bcf	3,5	;RP0=0, select bank0
  2563  0F9A  1303               	bcf	3,6	;RP1=0, select bank0
  2564  0F9B  00B8               	movwf	liga_buzzer@tempoSegundos+3
  2565  0F9C  30CC               	movlw	204
  2566  0F9D  00B7               	movwf	liga_buzzer@tempoSegundos+2
  2567  0F9E  30CC               	movlw	204
  2568  0F9F  00B6               	movwf	liga_buzzer@tempoSegundos+1
  2569  0FA0  30CD               	movlw	205
  2570  0FA1  00B5               	movwf	liga_buzzer@tempoSegundos
  2571  0FA2  160A  118A  26E2  120A  158A  	fcall	_liga_buzzer
  2572  0FA7                     l2414:
  2573                           
  2574                           ;main.c: 297:         LCD_escreve('D');
  2575  0FA7  3044               	movlw	68
  2576  0FA8  160A  118A  251E  120A  158A  	fcall	_LCD_escreve
  2577  0FAD                     l2416:
  2578                           
  2579                           ;main.c: 304:     if (RB2 == 0){
  2580  0FAD  1283               	bcf	3,5	;RP0=0, select bank0
  2581  0FAE  1303               	bcf	3,6	;RP1=0, select bank0
  2582  0FAF  1906               	btfsc	6,2	;volatile
  2583  0FB0  2FB2               	goto	u2681
  2584  0FB1  2FB3               	goto	u2680
  2585  0FB2                     u2681:
  2586  0FB2  2FD6               	goto	l2424
  2587  0FB3                     u2680:
  2588  0FB3                     l2418:
  2589                           
  2590                           ;main.c: 305:         _delay((unsigned long)((200)*(20000000/4000.0)));
  2591  0FB3  3006               	movlw	6
  2592  0FB4  1283               	bcf	3,5	;RP0=0, select bank0
  2593  0FB5  1303               	bcf	3,6	;RP1=0, select bank0
  2594  0FB6  00BD               	movwf	??_teclado+2
  2595  0FB7  3013               	movlw	19
  2596  0FB8  00BC               	movwf	??_teclado+1
  2597  0FB9  30AD               	movlw	173
  2598  0FBA  00BB               	movwf	??_teclado
  2599  0FBB                     u3167:
  2600  0FBB  0BBB               	decfsz	??_teclado,f
  2601  0FBC  2FBB               	goto	u3167
  2602  0FBD  0BBC               	decfsz	??_teclado+1,f
  2603  0FBE  2FBB               	goto	u3167
  2604  0FBF  0BBD               	decfsz	??_teclado+2,f
  2605  0FC0  2FBB               	goto	u3167
  2606  0FC1                     l2420:
  2607                           
  2608                           ;main.c: 306:         liga_buzzer(0.1);
  2609  0FC1  303D               	movlw	61
  2610  0FC2  1283               	bcf	3,5	;RP0=0, select bank0
  2611  0FC3  1303               	bcf	3,6	;RP1=0, select bank0
  2612  0FC4  00B8               	movwf	liga_buzzer@tempoSegundos+3
  2613  0FC5  30CC               	movlw	204
  2614  0FC6  00B7               	movwf	liga_buzzer@tempoSegundos+2
  2615  0FC7  30CC               	movlw	204
  2616  0FC8  00B6               	movwf	liga_buzzer@tempoSegundos+1
  2617  0FC9  30CD               	movlw	205
  2618  0FCA  00B5               	movwf	liga_buzzer@tempoSegundos
  2619  0FCB  160A  118A  26E2  120A  158A  	fcall	_liga_buzzer
  2620  0FD0                     l2422:
  2621                           
  2622                           ;main.c: 307:         LCD_escreve('E');
  2623  0FD0  3045               	movlw	69
  2624  0FD1  160A  118A  251E  120A  158A  	fcall	_LCD_escreve
  2625  0FD6                     l2424:
  2626                           
  2627                           ;main.c: 314:     if (RB3 == 0){
  2628  0FD6  1283               	bcf	3,5	;RP0=0, select bank0
  2629  0FD7  1303               	bcf	3,6	;RP1=0, select bank0
  2630  0FD8  1986               	btfsc	6,3	;volatile
  2631  0FD9  2FDB               	goto	u2691
  2632  0FDA  2FDC               	goto	u2690
  2633  0FDB                     u2691:
  2634  0FDB  2FFF               	goto	l162
  2635  0FDC                     u2690:
  2636  0FDC                     l2426:
  2637                           
  2638                           ;main.c: 315:         _delay((unsigned long)((200)*(20000000/4000.0)));
  2639  0FDC  3006               	movlw	6
  2640  0FDD  1283               	bcf	3,5	;RP0=0, select bank0
  2641  0FDE  1303               	bcf	3,6	;RP1=0, select bank0
  2642  0FDF  00BD               	movwf	??_teclado+2
  2643  0FE0  3013               	movlw	19
  2644  0FE1  00BC               	movwf	??_teclado+1
  2645  0FE2  30AD               	movlw	173
  2646  0FE3  00BB               	movwf	??_teclado
  2647  0FE4                     u3177:
  2648  0FE4  0BBB               	decfsz	??_teclado,f
  2649  0FE5  2FE4               	goto	u3177
  2650  0FE6  0BBC               	decfsz	??_teclado+1,f
  2651  0FE7  2FE4               	goto	u3177
  2652  0FE8  0BBD               	decfsz	??_teclado+2,f
  2653  0FE9  2FE4               	goto	u3177
  2654  0FEA                     l2428:
  2655                           
  2656                           ;main.c: 316:         liga_buzzer(0.1);
  2657  0FEA  303D               	movlw	61
  2658  0FEB  1283               	bcf	3,5	;RP0=0, select bank0
  2659  0FEC  1303               	bcf	3,6	;RP1=0, select bank0
  2660  0FED  00B8               	movwf	liga_buzzer@tempoSegundos+3
  2661  0FEE  30CC               	movlw	204
  2662  0FEF  00B7               	movwf	liga_buzzer@tempoSegundos+2
  2663  0FF0  30CC               	movlw	204
  2664  0FF1  00B6               	movwf	liga_buzzer@tempoSegundos+1
  2665  0FF2  30CD               	movlw	205
  2666  0FF3  00B5               	movwf	liga_buzzer@tempoSegundos
  2667  0FF4  160A  118A  26E2  120A  158A  	fcall	_liga_buzzer
  2668  0FF9                     l2430:
  2669                           
  2670                           ;main.c: 317:         LCD_escreve('F');
  2671  0FF9  3046               	movlw	70
  2672  0FFA  160A  118A  251E  120A  158A  	fcall	_LCD_escreve
  2673  0FFF                     l162:
  2674  0FFF  0008               	return
  2675  1000                     __end_of_teclado:
  2676                           
  2677                           	psect	text3
  2678  16E2                     __ptext3:	
  2679 ;; *************** function _liga_buzzer *****************
  2680 ;; Defined at:
  2681 ;;		line 86 in file "main.c"
  2682 ;; Parameters:    Size  Location     Type
  2683 ;;  tempoSegundo    4   21[BANK0 ] float 
  2684 ;; Auto vars:     Size  Location     Type
  2685 ;;		None
  2686 ;; Return value:  Size  Location     Type
  2687 ;;                  1    wreg      void 
  2688 ;; Registers used:
  2689 ;;		wreg, status,2, status,0, btemp+1, pclath, cstack
  2690 ;; Tracked objects:
  2691 ;;		On entry : 0/0
  2692 ;;		On exit  : 0/0
  2693 ;;		Unchanged: 0/0
  2694 ;; Data sizes:     COMMON   BANK0   BANK1   BANK3   BANK2
  2695 ;;      Params:         0       4       0       0       0
  2696 ;;      Locals:         0       0       0       0       0
  2697 ;;      Temps:          0       2       0       0       0
  2698 ;;      Totals:         0       6       0       0       0
  2699 ;;Total ram usage:        6 bytes
  2700 ;; Hardware stack levels used: 1
  2701 ;; Hardware stack levels required when called: 2
  2702 ;; This function calls:
  2703 ;;		___flge
  2704 ;;		___flmul
  2705 ;;		___flsub
  2706 ;; This function is called by:
  2707 ;;		_teclado
  2708 ;;		_validaUser
  2709 ;; This function uses a non-reentrant model
  2710 ;;
  2711                           
  2712                           
  2713                           ;psect for function _liga_buzzer
  2714  16E2                     _liga_buzzer:
  2715  16E2                     l2210:	
  2716                           ;incstack = 0
  2717                           ; Regs used in _liga_buzzer: [wreg+status,2+status,0+btemp+1+pclath+cstack]
  2718                           
  2719                           
  2720                           ;main.c: 87:     tempoSegundos = tempoSegundos * 1000;
  2721  16E2  3044               	movlw	68
  2722  16E3  1283               	bcf	3,5	;RP0=0, select bank0
  2723  16E4  1303               	bcf	3,6	;RP1=0, select bank0
  2724  16E5  00A3               	movwf	___flmul@b+3
  2725  16E6  307A               	movlw	122
  2726  16E7  00A2               	movwf	___flmul@b+2
  2727  16E8  3000               	movlw	0
  2728  16E9  00A1               	movwf	___flmul@b+1
  2729  16EA  3000               	movlw	0
  2730  16EB  00A0               	movwf	___flmul@b
  2731  16EC  0838               	movf	liga_buzzer@tempoSegundos+3,w
  2732  16ED  00A7               	movwf	___flmul@a+3
  2733  16EE  0837               	movf	liga_buzzer@tempoSegundos+2,w
  2734  16EF  00A6               	movwf	___flmul@a+2
  2735  16F0  0836               	movf	liga_buzzer@tempoSegundos+1,w
  2736  16F1  00A5               	movwf	___flmul@a+1
  2737  16F2  0835               	movf	liga_buzzer@tempoSegundos,w
  2738  16F3  00A4               	movwf	___flmul@a
  2739  16F4  120A  118A  206A  160A  118A  	fcall	___flmul
  2740  16F9  1283               	bcf	3,5	;RP0=0, select bank0
  2741  16FA  1303               	bcf	3,6	;RP1=0, select bank0
  2742  16FB  0823               	movf	?___flmul+3,w
  2743  16FC  00B8               	movwf	liga_buzzer@tempoSegundos+3
  2744  16FD  0822               	movf	?___flmul+2,w
  2745  16FE  00B7               	movwf	liga_buzzer@tempoSegundos+2
  2746  16FF  0821               	movf	?___flmul+1,w
  2747  1700  00B6               	movwf	liga_buzzer@tempoSegundos+1
  2748  1701  0820               	movf	?___flmul,w
  2749  1702  00B5               	movwf	liga_buzzer@tempoSegundos
  2750  1703                     l2212:
  2751                           
  2752                           ;main.c: 88:     _delay((unsigned long)((10)*(20000000/4000.0)));
  2753  1703  3041               	movlw	65
  2754  1704  1283               	bcf	3,5	;RP0=0, select bank0
  2755  1705  1303               	bcf	3,6	;RP1=0, select bank0
  2756  1706  00BA               	movwf	??_liga_buzzer+1
  2757  1707  30ED               	movlw	237
  2758  1708  00B9               	movwf	??_liga_buzzer
  2759  1709                     u3187:
  2760  1709  0BB9               	decfsz	??_liga_buzzer,f
  2761  170A  2F09               	goto	u3187
  2762  170B  0BBA               	decfsz	??_liga_buzzer+1,f
  2763  170C  2F09               	goto	u3187
  2764  170D  2F0E               	nop2
  2765                           
  2766                           ;main.c: 91:     while(tempoSegundos > 0){
  2767  170E  2F3E               	goto	l2220
  2768  170F                     l2214:
  2769                           
  2770                           ;main.c: 92:        PORTE = 0;
  2771  170F  1283               	bcf	3,5	;RP0=0, select bank0
  2772  1710  1303               	bcf	3,6	;RP1=0, select bank0
  2773  1711  0189               	clrf	9	;volatile
  2774  1712                     l2216:
  2775                           
  2776                           ;main.c: 93:         _delay((unsigned long)((1)*(20000000/4000.0)));
  2777  1712  3007               	movlw	7
  2778  1713  1283               	bcf	3,5	;RP0=0, select bank0
  2779  1714  1303               	bcf	3,6	;RP1=0, select bank0
  2780  1715  00BA               	movwf	??_liga_buzzer+1
  2781  1716  307C               	movlw	124
  2782  1717  00B9               	movwf	??_liga_buzzer
  2783  1718                     u3197:
  2784  1718  0BB9               	decfsz	??_liga_buzzer,f
  2785  1719  2F18               	goto	u3197
  2786  171A  0BBA               	decfsz	??_liga_buzzer+1,f
  2787  171B  2F18               	goto	u3197
  2788  171C  0000               	nop
  2789  171D                     l2218:
  2790                           
  2791                           ;main.c: 94:         tempoSegundos--;
  2792  171D  303F               	movlw	63
  2793  171E  1283               	bcf	3,5	;RP0=0, select bank0
  2794  171F  1303               	bcf	3,6	;RP1=0, select bank0
  2795  1720  00AB               	movwf	___flsub@a+3
  2796  1721  3080               	movlw	128
  2797  1722  00AA               	movwf	___flsub@a+2
  2798  1723  3000               	movlw	0
  2799  1724  00A9               	movwf	___flsub@a+1
  2800  1725  3000               	movlw	0
  2801  1726  00A8               	movwf	___flsub@a
  2802  1727  0838               	movf	liga_buzzer@tempoSegundos+3,w
  2803  1728  00AF               	movwf	___flsub@b+3
  2804  1729  0837               	movf	liga_buzzer@tempoSegundos+2,w
  2805  172A  00AE               	movwf	___flsub@b+2
  2806  172B  0836               	movf	liga_buzzer@tempoSegundos+1,w
  2807  172C  00AD               	movwf	___flsub@b+1
  2808  172D  0835               	movf	liga_buzzer@tempoSegundos,w
  2809  172E  00AC               	movwf	___flsub@b
  2810  172F  160A  118A  258F  160A  118A  	fcall	___flsub
  2811  1734  1283               	bcf	3,5	;RP0=0, select bank0
  2812  1735  1303               	bcf	3,6	;RP1=0, select bank0
  2813  1736  082B               	movf	?___flsub+3,w
  2814  1737  00B8               	movwf	liga_buzzer@tempoSegundos+3
  2815  1738  082A               	movf	?___flsub+2,w
  2816  1739  00B7               	movwf	liga_buzzer@tempoSegundos+2
  2817  173A  0829               	movf	?___flsub+1,w
  2818  173B  00B6               	movwf	liga_buzzer@tempoSegundos+1
  2819  173C  0828               	movf	?___flsub,w
  2820  173D  00B5               	movwf	liga_buzzer@tempoSegundos
  2821  173E                     l2220:
  2822                           
  2823                           ;main.c: 91:     while(tempoSegundos > 0){
  2824  173E  3000               	movlw	0
  2825  173F  00F3               	movwf	___flge@ff1+3
  2826  1740  3000               	movlw	0
  2827  1741  00F2               	movwf	___flge@ff1+2
  2828  1742  3000               	movlw	0
  2829  1743  00F1               	movwf	___flge@ff1+1
  2830  1744  3000               	movlw	0
  2831  1745  00F0               	movwf	___flge@ff1
  2832  1746  1283               	bcf	3,5	;RP0=0, select bank0
  2833  1747  1303               	bcf	3,6	;RP1=0, select bank0
  2834  1748  0838               	movf	liga_buzzer@tempoSegundos+3,w
  2835  1749  00F7               	movwf	___flge@ff2+3
  2836  174A  0837               	movf	liga_buzzer@tempoSegundos+2,w
  2837  174B  00F6               	movwf	___flge@ff2+2
  2838  174C  0836               	movf	liga_buzzer@tempoSegundos+1,w
  2839  174D  00F5               	movwf	___flge@ff2+1
  2840  174E  0835               	movf	liga_buzzer@tempoSegundos,w
  2841  174F  00F4               	movwf	___flge@ff2
  2842  1750  160A  118A  275E  160A  118A  	fcall	___flge
  2843  1755  1C03               	btfss	3,0
  2844  1756  2F58               	goto	u2431
  2845  1757  2F59               	goto	u2430
  2846  1758                     u2431:
  2847  1758  2F0F               	goto	l2214
  2848  1759                     u2430:
  2849  1759                     l2222:
  2850                           
  2851                           ;main.c: 98:     PORTE = 0x0F;
  2852  1759  300F               	movlw	15
  2853  175A  1283               	bcf	3,5	;RP0=0, select bank0
  2854  175B  1303               	bcf	3,6	;RP1=0, select bank0
  2855  175C  0089               	movwf	9	;volatile
  2856  175D                     l133:
  2857  175D  0008               	return
  2858  175E                     __end_of_liga_buzzer:
  2859                           
  2860                           	psect	text4
  2861  158F                     __ptext4:	
  2862 ;; *************** function ___flsub *****************
  2863 ;; Defined at:
  2864 ;;		line 242 in file "C:\Program Files\Microchip\xc8\v2.32\pic\sources\c90\common\sprcadd.c"
  2865 ;; Parameters:    Size  Location     Type
  2866 ;;  a               4    8[BANK0 ] void 
  2867 ;;  b               4   12[BANK0 ] void 
  2868 ;; Auto vars:     Size  Location     Type
  2869 ;;		None
  2870 ;; Return value:  Size  Location     Type
  2871 ;;                  4    8[BANK0 ] void 
  2872 ;; Registers used:
  2873 ;;		wreg, status,2, status,0, btemp+1, pclath, cstack
  2874 ;; Tracked objects:
  2875 ;;		On entry : 0/0
  2876 ;;		On exit  : 0/0
  2877 ;;		Unchanged: 0/0
  2878 ;; Data sizes:     COMMON   BANK0   BANK1   BANK3   BANK2
  2879 ;;      Params:         0       8       0       0       0
  2880 ;;      Locals:         0       0       0       0       0
  2881 ;;      Temps:          0       0       0       0       0
  2882 ;;      Totals:         0       8       0       0       0
  2883 ;;Total ram usage:        8 bytes
  2884 ;; Hardware stack levels used: 1
  2885 ;; Hardware stack levels required when called: 1
  2886 ;; This function calls:
  2887 ;;		___fladd
  2888 ;; This function is called by:
  2889 ;;		_liga_buzzer
  2890 ;; This function uses a non-reentrant model
  2891 ;;
  2892                           
  2893                           
  2894                           ;psect for function ___flsub
  2895  158F                     ___flsub:
  2896  158F                     l2040:	
  2897                           ;incstack = 0
  2898                           ; Regs used in ___flsub: [wreg+status,2+status,0+btemp+1+pclath+cstack]
  2899                           
  2900  158F  3080               	movlw	128
  2901  1590  1283               	bcf	3,5	;RP0=0, select bank0
  2902  1591  1303               	bcf	3,6	;RP1=0, select bank0
  2903  1592  06AB               	xorwf	___flsub@a+3,f
  2904  1593                     l2042:
  2905  1593  082F               	movf	___flsub@b+3,w
  2906  1594  00F3               	movwf	___fladd@b+3
  2907  1595  082E               	movf	___flsub@b+2,w
  2908  1596  00F2               	movwf	___fladd@b+2
  2909  1597  082D               	movf	___flsub@b+1,w
  2910  1598  00F1               	movwf	___fladd@b+1
  2911  1599  082C               	movf	___flsub@b,w
  2912  159A  00F0               	movwf	___fladd@b
  2913  159B  082B               	movf	___flsub@a+3,w
  2914  159C  00F7               	movwf	___fladd@a+3
  2915  159D  082A               	movf	___flsub@a+2,w
  2916  159E  00F6               	movwf	___fladd@a+2
  2917  159F  0829               	movf	___flsub@a+1,w
  2918  15A0  00F5               	movwf	___fladd@a+1
  2919  15A1  0828               	movf	___flsub@a,w
  2920  15A2  00F4               	movwf	___fladd@a
  2921  15A3  120A  158A  226B  160A  118A  	fcall	___fladd
  2922  15A8  0873               	movf	?___fladd+3,w
  2923  15A9  1283               	bcf	3,5	;RP0=0, select bank0
  2924  15AA  1303               	bcf	3,6	;RP1=0, select bank0
  2925  15AB  00AB               	movwf	?___flsub+3
  2926  15AC  0872               	movf	?___fladd+2,w
  2927  15AD  00AA               	movwf	?___flsub+2
  2928  15AE  0871               	movf	?___fladd+1,w
  2929  15AF  00A9               	movwf	?___flsub+1
  2930  15B0  0870               	movf	?___fladd,w
  2931  15B1  00A8               	movwf	?___flsub
  2932  15B2                     l642:
  2933  15B2  0008               	return
  2934  15B3                     __end_of___flsub:
  2935                           
  2936                           	psect	text5
  2937  0A6B                     __ptext5:	
  2938 ;; *************** function ___fladd *****************
  2939 ;; Defined at:
  2940 ;;		line 10 in file "C:\Program Files\Microchip\xc8\v2.32\pic\sources\c90\common\sprcadd.c"
  2941 ;; Parameters:    Size  Location     Type
  2942 ;;  b               4    0[COMMON] void 
  2943 ;;  a               4    4[COMMON] void 
  2944 ;; Auto vars:     Size  Location     Type
  2945 ;;  grs             1   11[COMMON] unsigned char 
  2946 ;;  bexp            1   10[COMMON] unsigned char 
  2947 ;;  aexp            1    9[COMMON] unsigned char 
  2948 ;;  signs           1    8[COMMON] unsigned char 
  2949 ;; Return value:  Size  Location     Type
  2950 ;;                  4    0[COMMON] unsigned char 
  2951 ;; Registers used:
  2952 ;;		wreg, status,2, status,0, btemp+1
  2953 ;; Tracked objects:
  2954 ;;		On entry : 0/0
  2955 ;;		On exit  : 0/0
  2956 ;;		Unchanged: 0/0
  2957 ;; Data sizes:     COMMON   BANK0   BANK1   BANK3   BANK2
  2958 ;;      Params:         8       0       0       0       0
  2959 ;;      Locals:         4       0       0       0       0
  2960 ;;      Temps:          0       8       0       0       0
  2961 ;;      Totals:        12       8       0       0       0
  2962 ;;Total ram usage:       20 bytes
  2963 ;; Hardware stack levels used: 1
  2964 ;; This function calls:
  2965 ;;		Nothing
  2966 ;; This function is called by:
  2967 ;;		___flsub
  2968 ;; This function uses a non-reentrant model
  2969 ;;
  2970                           
  2971                           
  2972                           ;psect for function ___fladd
  2973  0A6B                     ___fladd:
  2974  0A6B                     l1802:	
  2975                           ;incstack = 0
  2976                           ; Regs used in ___fladd: [wreg+status,2+status,0+btemp+1]
  2977                           
  2978  0A6B  0873               	movf	___fladd@b+3,w
  2979  0A6C  3980               	andlw	128
  2980  0A6D  1283               	bcf	3,5	;RP0=0, select bank0
  2981  0A6E  1303               	bcf	3,6	;RP1=0, select bank0
  2982  0A6F  00A0               	movwf	??___fladd
  2983  0A70  0820               	movf	??___fladd,w
  2984  0A71  00F8               	movwf	___fladd@signs
  2985  0A72                     l1804:
  2986  0A72  0873               	movf	___fladd@b+3,w
  2987  0A73  00A0               	movwf	??___fladd
  2988  0A74  0720               	addwf	??___fladd,w
  2989  0A75  00A1               	movwf	??___fladd+1
  2990  0A76  0821               	movf	??___fladd+1,w
  2991  0A77  00FA               	movwf	___fladd@bexp
  2992  0A78                     l1806:
  2993  0A78  1FF2               	btfss	___fladd@b+2,7
  2994  0A79  2A7B               	goto	u1491
  2995  0A7A  2A7C               	goto	u1490
  2996  0A7B                     u1491:
  2997  0A7B  2A7D               	goto	l1810
  2998  0A7C                     u1490:
  2999  0A7C                     l1808:
  3000  0A7C  147A               	bsf	___fladd@bexp,0
  3001  0A7D                     l1810:
  3002  0A7D  087A               	movf	___fladd@bexp,w
  3003  0A7E  1903               	btfsc	3,2
  3004  0A7F  2A81               	goto	u1501
  3005  0A80  2A82               	goto	u1500
  3006  0A81                     u1501:
  3007  0A81  2A92               	goto	l1820
  3008  0A82                     u1500:
  3009  0A82                     l1812:
  3010  0A82  0A7A               	incf	___fladd@bexp,w
  3011  0A83  1D03               	btfss	3,2
  3012  0A84  2A86               	goto	u1511
  3013  0A85  2A87               	goto	u1510
  3014  0A86                     u1511:
  3015  0A86  2A8F               	goto	l1816
  3016  0A87                     u1510:
  3017  0A87                     l1814:
  3018  0A87  3000               	movlw	0
  3019  0A88  00F3               	movwf	___fladd@b+3
  3020  0A89  3000               	movlw	0
  3021  0A8A  00F2               	movwf	___fladd@b+2
  3022  0A8B  3000               	movlw	0
  3023  0A8C  00F1               	movwf	___fladd@b+1
  3024  0A8D  3000               	movlw	0
  3025  0A8E  00F0               	movwf	___fladd@b
  3026  0A8F                     l1816:
  3027  0A8F  17F2               	bsf	___fladd@b+2,7
  3028  0A90                     l1818:
  3029  0A90  01F3               	clrf	___fladd@b+3
  3030  0A91  2A9A               	goto	l1822
  3031  0A92                     l1820:
  3032  0A92  3000               	movlw	0
  3033  0A93  00F3               	movwf	___fladd@b+3
  3034  0A94  3000               	movlw	0
  3035  0A95  00F2               	movwf	___fladd@b+2
  3036  0A96  3000               	movlw	0
  3037  0A97  00F1               	movwf	___fladd@b+1
  3038  0A98  3000               	movlw	0
  3039  0A99  00F0               	movwf	___fladd@b
  3040  0A9A                     l1822:
  3041  0A9A  0877               	movf	___fladd@a+3,w
  3042  0A9B  3980               	andlw	128
  3043  0A9C  00A0               	movwf	??___fladd
  3044  0A9D  0820               	movf	??___fladd,w
  3045  0A9E  00F9               	movwf	___fladd@aexp
  3046  0A9F                     l1824:
  3047  0A9F  0879               	movf	___fladd@aexp,w
  3048  0AA0  0678               	xorwf	___fladd@signs,w
  3049  0AA1  1903               	skipnz
  3050  0AA2  2AA4               	goto	u1521
  3051  0AA3  2AA5               	goto	u1520
  3052  0AA4                     u1521:
  3053  0AA4  2AA6               	goto	l1828
  3054  0AA5                     u1520:
  3055  0AA5                     l1826:
  3056  0AA5  1778               	bsf	___fladd@signs,6
  3057  0AA6                     l1828:
  3058  0AA6  0877               	movf	___fladd@a+3,w
  3059  0AA7  00A0               	movwf	??___fladd
  3060  0AA8  0720               	addwf	??___fladd,w
  3061  0AA9  00A1               	movwf	??___fladd+1
  3062  0AAA  0821               	movf	??___fladd+1,w
  3063  0AAB  00F9               	movwf	___fladd@aexp
  3064  0AAC                     l1830:
  3065  0AAC  1FF6               	btfss	___fladd@a+2,7
  3066  0AAD  2AAF               	goto	u1531
  3067  0AAE  2AB0               	goto	u1530
  3068  0AAF                     u1531:
  3069  0AAF  2AB1               	goto	l1834
  3070  0AB0                     u1530:
  3071  0AB0                     l1832:
  3072  0AB0  1479               	bsf	___fladd@aexp,0
  3073  0AB1                     l1834:
  3074  0AB1  0879               	movf	___fladd@aexp,w
  3075  0AB2  1903               	btfsc	3,2
  3076  0AB3  2AB5               	goto	u1541
  3077  0AB4  2AB6               	goto	u1540
  3078  0AB5                     u1541:
  3079  0AB5  2AC6               	goto	l1844
  3080  0AB6                     u1540:
  3081  0AB6                     l1836:
  3082  0AB6  0A79               	incf	___fladd@aexp,w
  3083  0AB7  1D03               	btfss	3,2
  3084  0AB8  2ABA               	goto	u1551
  3085  0AB9  2ABB               	goto	u1550
  3086  0ABA                     u1551:
  3087  0ABA  2AC3               	goto	l1840
  3088  0ABB                     u1550:
  3089  0ABB                     l1838:
  3090  0ABB  3000               	movlw	0
  3091  0ABC  00F7               	movwf	___fladd@a+3
  3092  0ABD  3000               	movlw	0
  3093  0ABE  00F6               	movwf	___fladd@a+2
  3094  0ABF  3000               	movlw	0
  3095  0AC0  00F5               	movwf	___fladd@a+1
  3096  0AC1  3000               	movlw	0
  3097  0AC2  00F4               	movwf	___fladd@a
  3098  0AC3                     l1840:
  3099  0AC3  17F6               	bsf	___fladd@a+2,7
  3100  0AC4                     l1842:
  3101  0AC4  01F7               	clrf	___fladd@a+3
  3102  0AC5  2ACE               	goto	l596
  3103  0AC6                     l1844:
  3104  0AC6  3000               	movlw	0
  3105  0AC7  00F7               	movwf	___fladd@a+3
  3106  0AC8  3000               	movlw	0
  3107  0AC9  00F6               	movwf	___fladd@a+2
  3108  0ACA  3000               	movlw	0
  3109  0ACB  00F5               	movwf	___fladd@a+1
  3110  0ACC  3000               	movlw	0
  3111  0ACD  00F4               	movwf	___fladd@a
  3112  0ACE                     l596:
  3113  0ACE  087A               	movf	___fladd@bexp,w
  3114  0ACF  0279               	subwf	___fladd@aexp,w
  3115  0AD0  1803               	skipnc
  3116  0AD1  2AD3               	goto	u1561
  3117  0AD2  2AD4               	goto	u1560
  3118  0AD3                     u1561:
  3119  0AD3  2B18               	goto	l1880
  3120  0AD4                     u1560:
  3121  0AD4                     l1846:
  3122  0AD4  1F78               	btfss	___fladd@signs,6
  3123  0AD5  2AD7               	goto	u1571
  3124  0AD6  2AD8               	goto	u1570
  3125  0AD7                     u1571:
  3126  0AD7  2ADC               	goto	l1850
  3127  0AD8                     u1570:
  3128  0AD8                     l1848:
  3129  0AD8  3080               	movlw	128
  3130  0AD9  00A0               	movwf	??___fladd
  3131  0ADA  0820               	movf	??___fladd,w
  3132  0ADB  06F8               	xorwf	___fladd@signs,f
  3133  0ADC                     l1850:
  3134  0ADC  087A               	movf	___fladd@bexp,w
  3135  0ADD  00A0               	movwf	??___fladd
  3136  0ADE  0820               	movf	??___fladd,w
  3137  0ADF  00FB               	movwf	___fladd@grs
  3138  0AE0                     l1852:
  3139  0AE0  0879               	movf	___fladd@aexp,w
  3140  0AE1  00A0               	movwf	??___fladd
  3141  0AE2  0820               	movf	??___fladd,w
  3142  0AE3  00FA               	movwf	___fladd@bexp
  3143  0AE4                     l1854:
  3144  0AE4  087B               	movf	___fladd@grs,w
  3145  0AE5  00A0               	movwf	??___fladd
  3146  0AE6  0820               	movf	??___fladd,w
  3147  0AE7  00F9               	movwf	___fladd@aexp
  3148  0AE8                     l1856:
  3149  0AE8  0870               	movf	___fladd@b,w
  3150  0AE9  00A0               	movwf	??___fladd
  3151  0AEA  0820               	movf	??___fladd,w
  3152  0AEB  00FB               	movwf	___fladd@grs
  3153  0AEC                     l1858:
  3154  0AEC  0874               	movf	___fladd@a,w
  3155  0AED  00A0               	movwf	??___fladd
  3156  0AEE  0820               	movf	??___fladd,w
  3157  0AEF  00F0               	movwf	___fladd@b
  3158  0AF0                     l1860:
  3159  0AF0  087B               	movf	___fladd@grs,w
  3160  0AF1  00A0               	movwf	??___fladd
  3161  0AF2  0820               	movf	??___fladd,w
  3162  0AF3  00F4               	movwf	___fladd@a
  3163  0AF4                     l1862:
  3164  0AF4  0871               	movf	___fladd@b+1,w
  3165  0AF5  00A0               	movwf	??___fladd
  3166  0AF6  0820               	movf	??___fladd,w
  3167  0AF7  00FB               	movwf	___fladd@grs
  3168  0AF8                     l1864:
  3169  0AF8  0875               	movf	___fladd@a+1,w
  3170  0AF9  00A0               	movwf	??___fladd
  3171  0AFA  0820               	movf	??___fladd,w
  3172  0AFB  00F1               	movwf	___fladd@b+1
  3173  0AFC                     l1866:
  3174  0AFC  087B               	movf	___fladd@grs,w
  3175  0AFD  00A0               	movwf	??___fladd
  3176  0AFE  0820               	movf	??___fladd,w
  3177  0AFF  00F5               	movwf	___fladd@a+1
  3178  0B00                     l1868:
  3179  0B00  0872               	movf	___fladd@b+2,w
  3180  0B01  00A0               	movwf	??___fladd
  3181  0B02  0820               	movf	??___fladd,w
  3182  0B03  00FB               	movwf	___fladd@grs
  3183  0B04                     l1870:
  3184  0B04  0876               	movf	___fladd@a+2,w
  3185  0B05  00A0               	movwf	??___fladd
  3186  0B06  0820               	movf	??___fladd,w
  3187  0B07  00F2               	movwf	___fladd@b+2
  3188  0B08                     l1872:
  3189  0B08  087B               	movf	___fladd@grs,w
  3190  0B09  00A0               	movwf	??___fladd
  3191  0B0A  0820               	movf	??___fladd,w
  3192  0B0B  00F6               	movwf	___fladd@a+2
  3193  0B0C                     l1874:
  3194  0B0C  0873               	movf	___fladd@b+3,w
  3195  0B0D  00A0               	movwf	??___fladd
  3196  0B0E  0820               	movf	??___fladd,w
  3197  0B0F  00FB               	movwf	___fladd@grs
  3198  0B10                     l1876:
  3199  0B10  0877               	movf	___fladd@a+3,w
  3200  0B11  00A0               	movwf	??___fladd
  3201  0B12  0820               	movf	??___fladd,w
  3202  0B13  00F3               	movwf	___fladd@b+3
  3203  0B14                     l1878:
  3204  0B14  087B               	movf	___fladd@grs,w
  3205  0B15  00A0               	movwf	??___fladd
  3206  0B16  0820               	movf	??___fladd,w
  3207  0B17  00F7               	movwf	___fladd@a+3
  3208  0B18                     l1880:
  3209  0B18  01FB               	clrf	___fladd@grs
  3210  0B19                     l1882:
  3211  0B19  0879               	movf	___fladd@aexp,w
  3212  0B1A  00A0               	movwf	??___fladd
  3213  0B1B  01A1               	clrf	??___fladd+1
  3214  0B1C  0821               	movf	??___fladd+1,w
  3215  0B1D  00A3               	movwf	??___fladd+3
  3216  0B1E  087A               	movf	___fladd@bexp,w
  3217  0B1F  0220               	subwf	??___fladd,w
  3218  0B20  00A2               	movwf	??___fladd+2
  3219  0B21  1C03               	skipc
  3220  0B22  03A3               	decf	??___fladd+3,f
  3221  0B23  0823               	movf	??___fladd+3,w
  3222  0B24  3A80               	xorlw	128
  3223  0B25  00FF               	movwf	btemp+1
  3224  0B26  3080               	movlw	128
  3225  0B27  027F               	subwf	btemp+1,w
  3226  0B28  1D03               	skipz
  3227  0B29  2B2C               	goto	u1585
  3228  0B2A  301A               	movlw	26
  3229  0B2B  0222               	subwf	??___fladd+2,w
  3230  0B2C                     u1585:
  3231  0B2C  1C03               	skipc
  3232  0B2D  2B2F               	goto	u1581
  3233  0B2E  2B30               	goto	u1580
  3234  0B2F                     u1581:
  3235  0B2F  2B71               	goto	l1898
  3236  0B30                     u1580:
  3237  0B30                     l1884:
  3238  0B30  0873               	movf	___fladd@b+3,w
  3239  0B31  0472               	iorwf	___fladd@b+2,w
  3240  0B32  0471               	iorwf	___fladd@b+1,w
  3241  0B33  0470               	iorwf	___fladd@b,w
  3242  0B34  1D03               	skipz
  3243  0B35  2B37               	goto	u1591
  3244  0B36  2B39               	goto	u1590
  3245  0B37                     u1591:
  3246  0B37  3001               	movlw	1
  3247  0B38  2B3A               	goto	u1600
  3248  0B39                     u1590:
  3249  0B39  3000               	movlw	0
  3250  0B3A                     u1600:
  3251  0B3A  1283               	bcf	3,5	;RP0=0, select bank0
  3252  0B3B  1303               	bcf	3,6	;RP1=0, select bank0
  3253  0B3C  00A0               	movwf	??___fladd
  3254  0B3D  0820               	movf	??___fladd,w
  3255  0B3E  00FB               	movwf	___fladd@grs
  3256  0B3F  3000               	movlw	0
  3257  0B40  00F3               	movwf	___fladd@b+3
  3258  0B41  3000               	movlw	0
  3259  0B42  00F2               	movwf	___fladd@b+2
  3260  0B43  3000               	movlw	0
  3261  0B44  00F1               	movwf	___fladd@b+1
  3262  0B45  3000               	movlw	0
  3263  0B46  00F0               	movwf	___fladd@b
  3264  0B47  0879               	movf	___fladd@aexp,w
  3265  0B48  00A0               	movwf	??___fladd
  3266  0B49  0820               	movf	??___fladd,w
  3267  0B4A  00FA               	movwf	___fladd@bexp
  3268  0B4B  2B77               	goto	l600
  3269  0B4C                     l602:
  3270  0B4C  1C7B               	btfss	___fladd@grs,0
  3271  0B4D  2B4F               	goto	u1611
  3272  0B4E  2B50               	goto	u1610
  3273  0B4F                     u1611:
  3274  0B4F  2B5B               	goto	l1888
  3275  0B50                     u1610:
  3276  0B50                     l1886:
  3277  0B50  087B               	movf	___fladd@grs,w
  3278  0B51  1283               	bcf	3,5	;RP0=0, select bank0
  3279  0B52  1303               	bcf	3,6	;RP1=0, select bank0
  3280  0B53  00A0               	movwf	??___fladd
  3281  0B54  1003               	clrc
  3282  0B55  0C20               	rrf	??___fladd,w
  3283  0B56  3801               	iorlw	1
  3284  0B57  00A1               	movwf	??___fladd+1
  3285  0B58  0821               	movf	??___fladd+1,w
  3286  0B59  00FB               	movwf	___fladd@grs
  3287  0B5A  2B5D               	goto	l1890
  3288  0B5B                     l1888:
  3289  0B5B  1003               	clrc
  3290  0B5C  0CFB               	rrf	___fladd@grs,f
  3291  0B5D                     l1890:
  3292  0B5D  1C70               	btfss	___fladd@b,0
  3293  0B5E  2B60               	goto	u1621
  3294  0B5F  2B61               	goto	u1620
  3295  0B60                     u1621:
  3296  0B60  2B62               	goto	l1894
  3297  0B61                     u1620:
  3298  0B61                     l1892:
  3299  0B61  17FB               	bsf	___fladd@grs,7
  3300  0B62                     l1894:
  3301  0B62  3001               	movlw	1
  3302  0B63  1283               	bcf	3,5	;RP0=0, select bank0
  3303  0B64  1303               	bcf	3,6	;RP1=0, select bank0
  3304  0B65  00A0               	movwf	??___fladd
  3305  0B66                     u1635:
  3306  0B66  0D73               	rlf	___fladd@b+3,w
  3307  0B67  0CF3               	rrf	___fladd@b+3,f
  3308  0B68  0CF2               	rrf	___fladd@b+2,f
  3309  0B69  0CF1               	rrf	___fladd@b+1,f
  3310  0B6A  0CF0               	rrf	___fladd@b,f
  3311  0B6B  0BA0               	decfsz	??___fladd& (0+127),f
  3312  0B6C  2B66               	goto	u1635
  3313  0B6D                     l1896:
  3314  0B6D  3001               	movlw	1
  3315  0B6E  00A0               	movwf	??___fladd
  3316  0B6F  0820               	movf	??___fladd,w
  3317  0B70  07FA               	addwf	___fladd@bexp,f
  3318  0B71                     l1898:
  3319  0B71  0879               	movf	___fladd@aexp,w
  3320  0B72  027A               	subwf	___fladd@bexp,w
  3321  0B73  1C03               	skipc
  3322  0B74  2B76               	goto	u1641
  3323  0B75  2B77               	goto	u1640
  3324  0B76                     u1641:
  3325  0B76  2B4C               	goto	l602
  3326  0B77                     u1640:
  3327  0B77                     l600:
  3328  0B77  1B78               	btfsc	___fladd@signs,6
  3329  0B78  2B7A               	goto	u1651
  3330  0B79  2B7B               	goto	u1650
  3331  0B7A                     u1651:
  3332  0B7A  2BCA               	goto	l1924
  3333  0B7B                     u1650:
  3334  0B7B                     l1900:
  3335  0B7B  087A               	movf	___fladd@bexp,w
  3336  0B7C  1D03               	btfss	3,2
  3337  0B7D  2B7F               	goto	u1661
  3338  0B7E  2B80               	goto	u1660
  3339  0B7F                     u1661:
  3340  0B7F  2B89               	goto	l1906
  3341  0B80                     u1660:
  3342  0B80                     l1902:
  3343  0B80  3000               	movlw	0
  3344  0B81  00F3               	movwf	?___fladd+3
  3345  0B82  3000               	movlw	0
  3346  0B83  00F2               	movwf	?___fladd+2
  3347  0B84  3000               	movlw	0
  3348  0B85  00F1               	movwf	?___fladd+1
  3349  0B86  3000               	movlw	0
  3350  0B87  00F0               	movwf	?___fladd
  3351  0B88  2D02               	goto	l609
  3352  0B89                     l1906:
  3353  0B89  0874               	movf	___fladd@a,w
  3354  0B8A  07F0               	addwf	___fladd@b,f
  3355  0B8B  0875               	movf	___fladd@a+1,w
  3356  0B8C  1103               	clrz
  3357  0B8D  1803               	skipnc
  3358  0B8E  3E01               	addlw	1
  3359  0B8F  1903               	skipnz
  3360  0B90  2B92               	goto	u1671
  3361  0B91  07F1               	addwf	___fladd@b+1,f
  3362  0B92                     u1671:
  3363  0B92  0876               	movf	___fladd@a+2,w
  3364  0B93  1103               	clrz
  3365  0B94  1803               	skipnc
  3366  0B95  3E01               	addlw	1
  3367  0B96  1903               	skipnz
  3368  0B97  2B99               	goto	u1672
  3369  0B98  07F2               	addwf	___fladd@b+2,f
  3370  0B99                     u1672:
  3371  0B99  0877               	movf	___fladd@a+3,w
  3372  0B9A  1103               	clrz
  3373  0B9B  1803               	skipnc
  3374  0B9C  3E01               	addlw	1
  3375  0B9D  1903               	skipnz
  3376  0B9E  2BA0               	goto	u1673
  3377  0B9F  07F3               	addwf	___fladd@b+3,f
  3378  0BA0                     u1673:
  3379  0BA0                     l1908:
  3380  0BA0  1C73               	btfss	___fladd@b+3,0
  3381  0BA1  2BA3               	goto	u1681
  3382  0BA2  2BA4               	goto	u1680
  3383  0BA3                     u1681:
  3384  0BA3  2C82               	goto	l1958
  3385  0BA4                     u1680:
  3386  0BA4                     l1910:
  3387  0BA4  1C7B               	btfss	___fladd@grs,0
  3388  0BA5  2BA7               	goto	u1691
  3389  0BA6  2BA8               	goto	u1690
  3390  0BA7                     u1691:
  3391  0BA7  2BB3               	goto	l1914
  3392  0BA8                     u1690:
  3393  0BA8                     l1912:
  3394  0BA8  087B               	movf	___fladd@grs,w
  3395  0BA9  1283               	bcf	3,5	;RP0=0, select bank0
  3396  0BAA  1303               	bcf	3,6	;RP1=0, select bank0
  3397  0BAB  00A0               	movwf	??___fladd
  3398  0BAC  1003               	clrc
  3399  0BAD  0C20               	rrf	??___fladd,w
  3400  0BAE  3801               	iorlw	1
  3401  0BAF  00A1               	movwf	??___fladd+1
  3402  0BB0  0821               	movf	??___fladd+1,w
  3403  0BB1  00FB               	movwf	___fladd@grs
  3404  0BB2  2BB5               	goto	l1916
  3405  0BB3                     l1914:
  3406  0BB3  1003               	clrc
  3407  0BB4  0CFB               	rrf	___fladd@grs,f
  3408  0BB5                     l1916:
  3409  0BB5  1C70               	btfss	___fladd@b,0
  3410  0BB6  2BB8               	goto	u1701
  3411  0BB7  2BB9               	goto	u1700
  3412  0BB8                     u1701:
  3413  0BB8  2BBA               	goto	l1920
  3414  0BB9                     u1700:
  3415  0BB9                     l1918:
  3416  0BB9  17FB               	bsf	___fladd@grs,7
  3417  0BBA                     l1920:
  3418  0BBA  3001               	movlw	1
  3419  0BBB  1283               	bcf	3,5	;RP0=0, select bank0
  3420  0BBC  1303               	bcf	3,6	;RP1=0, select bank0
  3421  0BBD  00A0               	movwf	??___fladd
  3422  0BBE                     u1715:
  3423  0BBE  0D73               	rlf	___fladd@b+3,w
  3424  0BBF  0CF3               	rrf	___fladd@b+3,f
  3425  0BC0  0CF2               	rrf	___fladd@b+2,f
  3426  0BC1  0CF1               	rrf	___fladd@b+1,f
  3427  0BC2  0CF0               	rrf	___fladd@b,f
  3428  0BC3  0BA0               	decfsz	??___fladd& (0+127),f
  3429  0BC4  2BBE               	goto	u1715
  3430  0BC5                     l1922:
  3431  0BC5  3001               	movlw	1
  3432  0BC6  00A0               	movwf	??___fladd
  3433  0BC7  0820               	movf	??___fladd,w
  3434  0BC8  07FA               	addwf	___fladd@bexp,f
  3435  0BC9  2C82               	goto	l1958
  3436  0BCA                     l1924:
  3437  0BCA  0873               	movf	___fladd@b+3,w
  3438  0BCB  3A80               	xorlw	128
  3439  0BCC  00FF               	movwf	btemp+1
  3440  0BCD  0877               	movf	___fladd@a+3,w
  3441  0BCE  3A80               	xorlw	128
  3442  0BCF  027F               	subwf	btemp+1,w
  3443  0BD0  1D03               	skipz
  3444  0BD1  2BDC               	goto	u1723
  3445  0BD2  0876               	movf	___fladd@a+2,w
  3446  0BD3  0272               	subwf	___fladd@b+2,w
  3447  0BD4  1D03               	skipz
  3448  0BD5  2BDC               	goto	u1723
  3449  0BD6  0875               	movf	___fladd@a+1,w
  3450  0BD7  0271               	subwf	___fladd@b+1,w
  3451  0BD8  1D03               	skipz
  3452  0BD9  2BDC               	goto	u1723
  3453  0BDA  0874               	movf	___fladd@a,w
  3454  0BDB  0270               	subwf	___fladd@b,w
  3455  0BDC                     u1723:
  3456  0BDC  1803               	skipnc
  3457  0BDD  2BDF               	goto	u1721
  3458  0BDE  2BE0               	goto	u1720
  3459  0BDF                     u1721:
  3460  0BDF  2C3A               	goto	l1934
  3461  0BE0                     u1720:
  3462  0BE0                     l1926:
  3463  0BE0  30FF               	movlw	255
  3464  0BE1  1283               	bcf	3,5	;RP0=0, select bank0
  3465  0BE2  1303               	bcf	3,6	;RP1=0, select bank0
  3466  0BE3  00A0               	movwf	??___fladd
  3467  0BE4  30FF               	movlw	255
  3468  0BE5  00A1               	movwf	??___fladd+1
  3469  0BE6  30FF               	movlw	255
  3470  0BE7  00A2               	movwf	??___fladd+2
  3471  0BE8  30FF               	movlw	255
  3472  0BE9  00A3               	movwf	??___fladd+3
  3473  0BEA  0874               	movf	___fladd@a,w
  3474  0BEB  00A4               	movwf	??___fladd+4
  3475  0BEC  0875               	movf	___fladd@a+1,w
  3476  0BED  00A5               	movwf	??___fladd+5
  3477  0BEE  0876               	movf	___fladd@a+2,w
  3478  0BEF  00A6               	movwf	??___fladd+6
  3479  0BF0  0877               	movf	___fladd@a+3,w
  3480  0BF1  00A7               	movwf	??___fladd+7
  3481  0BF2  0870               	movf	___fladd@b,w
  3482  0BF3  02A4               	subwf	??___fladd+4,f
  3483  0BF4  0871               	movf	___fladd@b+1,w
  3484  0BF5  1C03               	skipc
  3485  0BF6  0F71               	incfsz	___fladd@b+1,w
  3486  0BF7  2BF9               	goto	u1731
  3487  0BF8  2BFA               	goto	u1732
  3488  0BF9                     u1731:
  3489  0BF9  02A5               	subwf	??___fladd+5,f
  3490  0BFA                     u1732:
  3491  0BFA  0872               	movf	___fladd@b+2,w
  3492  0BFB  1C03               	skipc
  3493  0BFC  0F72               	incfsz	___fladd@b+2,w
  3494  0BFD  2BFF               	goto	u1733
  3495  0BFE  2C00               	goto	u1734
  3496  0BFF                     u1733:
  3497  0BFF  02A6               	subwf	??___fladd+6,f
  3498  0C00                     u1734:
  3499  0C00  0873               	movf	___fladd@b+3,w
  3500  0C01  1C03               	skipc
  3501  0C02  0F73               	incfsz	___fladd@b+3,w
  3502  0C03  2C05               	goto	u1735
  3503  0C04  2C06               	goto	u1736
  3504  0C05                     u1735:
  3505  0C05  02A7               	subwf	??___fladd+7,f
  3506  0C06                     u1736:
  3507  0C06  0824               	movf	??___fladd+4,w
  3508  0C07  07A0               	addwf	??___fladd,f
  3509  0C08  0825               	movf	??___fladd+5,w
  3510  0C09  1803               	skipnc
  3511  0C0A  0F25               	incfsz	??___fladd+5,w
  3512  0C0B  2C0D               	goto	u1740
  3513  0C0C  2C0E               	goto	u1741
  3514  0C0D                     u1740:
  3515  0C0D  07A1               	addwf	??___fladd+1,f
  3516  0C0E                     u1741:
  3517  0C0E  0826               	movf	??___fladd+6,w
  3518  0C0F  1803               	skipnc
  3519  0C10  0F26               	incfsz	??___fladd+6,w
  3520  0C11  2C13               	goto	u1742
  3521  0C12  2C14               	goto	u1743
  3522  0C13                     u1742:
  3523  0C13  07A2               	addwf	??___fladd+2,f
  3524  0C14                     u1743:
  3525  0C14  0827               	movf	??___fladd+7,w
  3526  0C15  1803               	skipnc
  3527  0C16  0A27               	incf	??___fladd+7,w
  3528  0C17  07A3               	addwf	??___fladd+3,f
  3529  0C18  0823               	movf	??___fladd+3,w
  3530  0C19  00F3               	movwf	___fladd@b+3
  3531  0C1A  0822               	movf	??___fladd+2,w
  3532  0C1B  00F2               	movwf	___fladd@b+2
  3533  0C1C  0821               	movf	??___fladd+1,w
  3534  0C1D  00F1               	movwf	___fladd@b+1
  3535  0C1E  0820               	movf	??___fladd,w
  3536  0C1F  00F0               	movwf	___fladd@b
  3537  0C20                     l1928:
  3538  0C20  3080               	movlw	128
  3539  0C21  00A0               	movwf	??___fladd
  3540  0C22  0820               	movf	??___fladd,w
  3541  0C23  06F8               	xorwf	___fladd@signs,f
  3542  0C24  09FB               	comf	___fladd@grs,f
  3543  0C25  0AFB               	incf	___fladd@grs,f
  3544  0C26                     l1930:
  3545  0C26  087B               	movf	___fladd@grs,w
  3546  0C27  1D03               	btfss	3,2
  3547  0C28  2C2A               	goto	u1751
  3548  0C29  2C2B               	goto	u1750
  3549  0C2A                     u1751:
  3550  0C2A  2C48               	goto	l617
  3551  0C2B                     u1750:
  3552  0C2B                     l1932:
  3553  0C2B  3001               	movlw	1
  3554  0C2C  07F0               	addwf	___fladd@b,f
  3555  0C2D  3000               	movlw	0
  3556  0C2E  1803               	skipnc
  3557  0C2F  3001               	movlw	1
  3558  0C30  07F1               	addwf	___fladd@b+1,f
  3559  0C31  3000               	movlw	0
  3560  0C32  1803               	skipnc
  3561  0C33  3001               	movlw	1
  3562  0C34  07F2               	addwf	___fladd@b+2,f
  3563  0C35  3000               	movlw	0
  3564  0C36  1803               	skipnc
  3565  0C37  3001               	movlw	1
  3566  0C38  07F3               	addwf	___fladd@b+3,f
  3567  0C39  2C48               	goto	l617
  3568  0C3A                     l1934:
  3569  0C3A  0874               	movf	___fladd@a,w
  3570  0C3B  02F0               	subwf	___fladd@b,f
  3571  0C3C  0875               	movf	___fladd@a+1,w
  3572  0C3D  1C03               	skipc
  3573  0C3E  0F75               	incfsz	___fladd@a+1,w
  3574  0C3F  02F1               	subwf	___fladd@b+1,f
  3575  0C40  0876               	movf	___fladd@a+2,w
  3576  0C41  1C03               	skipc
  3577  0C42  0F76               	incfsz	___fladd@a+2,w
  3578  0C43  02F2               	subwf	___fladd@b+2,f
  3579  0C44  0877               	movf	___fladd@a+3,w
  3580  0C45  1C03               	skipc
  3581  0C46  0F77               	incfsz	___fladd@a+3,w
  3582  0C47  02F3               	subwf	___fladd@b+3,f
  3583  0C48                     l617:
  3584  0C48  0873               	movf	___fladd@b+3,w
  3585  0C49  0472               	iorwf	___fladd@b+2,w
  3586  0C4A  0471               	iorwf	___fladd@b+1,w
  3587  0C4B  0470               	iorwf	___fladd@b,w
  3588  0C4C  1D03               	skipz
  3589  0C4D  2C4F               	goto	u1761
  3590  0C4E  2C50               	goto	u1760
  3591  0C4F                     u1761:
  3592  0C4F  2C7E               	goto	l1956
  3593  0C50                     u1760:
  3594  0C50                     l1936:
  3595  0C50  087B               	movf	___fladd@grs,w
  3596  0C51  1D03               	btfss	3,2
  3597  0C52  2C54               	goto	u1771
  3598  0C53  2C55               	goto	u1770
  3599  0C54                     u1771:
  3600  0C54  2C7E               	goto	l1956
  3601  0C55                     u1770:
  3602  0C55                     l1938:
  3603  0C55  3000               	movlw	0
  3604  0C56  00F3               	movwf	?___fladd+3
  3605  0C57  3000               	movlw	0
  3606  0C58  00F2               	movwf	?___fladd+2
  3607  0C59  3000               	movlw	0
  3608  0C5A  00F1               	movwf	?___fladd+1
  3609  0C5B  3000               	movlw	0
  3610  0C5C  00F0               	movwf	?___fladd
  3611  0C5D  2D02               	goto	l609
  3612  0C5E                     l1942:
  3613  0C5E  3001               	movlw	1
  3614  0C5F  1283               	bcf	3,5	;RP0=0, select bank0
  3615  0C60  1303               	bcf	3,6	;RP1=0, select bank0
  3616  0C61  00A0               	movwf	??___fladd
  3617  0C62                     u1785:
  3618  0C62  1003               	clrc
  3619  0C63  0DF0               	rlf	___fladd@b,f
  3620  0C64  0DF1               	rlf	___fladd@b+1,f
  3621  0C65  0DF2               	rlf	___fladd@b+2,f
  3622  0C66  0DF3               	rlf	___fladd@b+3,f
  3623  0C67  0BA0               	decfsz	??___fladd,f
  3624  0C68  2C62               	goto	u1785
  3625  0C69                     l1944:
  3626  0C69  1FFB               	btfss	___fladd@grs,7
  3627  0C6A  2C6C               	goto	u1791
  3628  0C6B  2C6D               	goto	u1790
  3629  0C6C                     u1791:
  3630  0C6C  2C6E               	goto	l621
  3631  0C6D                     u1790:
  3632  0C6D                     l1946:
  3633  0C6D  1470               	bsf	___fladd@b,0
  3634  0C6E                     l621:
  3635  0C6E  1C7B               	btfss	___fladd@grs,0
  3636  0C6F  2C71               	goto	u1801
  3637  0C70  2C72               	goto	u1800
  3638  0C71                     u1801:
  3639  0C71  2C75               	goto	l1950
  3640  0C72                     u1800:
  3641  0C72                     l1948:
  3642  0C72  1403               	setc
  3643  0C73  0DFB               	rlf	___fladd@grs,f
  3644  0C74  2C77               	goto	l1952
  3645  0C75                     l1950:
  3646  0C75  1003               	clrc
  3647  0C76  0DFB               	rlf	___fladd@grs,f
  3648  0C77                     l1952:
  3649  0C77  087A               	movf	___fladd@bexp,w
  3650  0C78  1903               	btfsc	3,2
  3651  0C79  2C7B               	goto	u1811
  3652  0C7A  2C7C               	goto	u1810
  3653  0C7B                     u1811:
  3654  0C7B  2C7E               	goto	l1956
  3655  0C7C                     u1810:
  3656  0C7C                     l1954:
  3657  0C7C  3001               	movlw	1
  3658  0C7D  02FA               	subwf	___fladd@bexp,f
  3659  0C7E                     l1956:
  3660  0C7E  1FF2               	btfss	___fladd@b+2,7
  3661  0C7F  2C81               	goto	u1821
  3662  0C80  2C82               	goto	u1820
  3663  0C81                     u1821:
  3664  0C81  2C5E               	goto	l1942
  3665  0C82                     u1820:
  3666  0C82                     l1958:
  3667  0C82  01F9               	clrf	___fladd@aexp
  3668  0C83                     l1960:
  3669  0C83  1FFB               	btfss	___fladd@grs,7
  3670  0C84  2C86               	goto	u1831
  3671  0C85  2C87               	goto	u1830
  3672  0C86                     u1831:
  3673  0C86  2C95               	goto	l1968
  3674  0C87                     u1830:
  3675  0C87                     l1962:
  3676  0C87  087B               	movf	___fladd@grs,w
  3677  0C88  397F               	andlw	127
  3678  0C89  1903               	btfsc	3,2
  3679  0C8A  2C8C               	goto	u1841
  3680  0C8B  2C8D               	goto	u1840
  3681  0C8C                     u1841:
  3682  0C8C  2C90               	goto	l627
  3683  0C8D                     u1840:
  3684  0C8D                     l1964:
  3685  0C8D  01F9               	clrf	___fladd@aexp
  3686  0C8E  0AF9               	incf	___fladd@aexp,f
  3687  0C8F  2C95               	goto	l1968
  3688  0C90                     l627:
  3689  0C90  1C70               	btfss	___fladd@b,0
  3690  0C91  2C93               	goto	u1851
  3691  0C92  2C94               	goto	u1850
  3692  0C93                     u1851:
  3693  0C93  2C95               	goto	l1968
  3694  0C94                     u1850:
  3695  0C94  2C8D               	goto	l1964
  3696  0C95                     l1968:
  3697  0C95  0879               	movf	___fladd@aexp,w
  3698  0C96  1903               	btfsc	3,2
  3699  0C97  2C99               	goto	u1861
  3700  0C98  2C9A               	goto	u1860
  3701  0C99                     u1861:
  3702  0C99  2CD0               	goto	l630
  3703  0C9A                     u1860:
  3704  0C9A                     l1970:
  3705  0C9A  3001               	movlw	1
  3706  0C9B  07F0               	addwf	___fladd@b,f
  3707  0C9C  3000               	movlw	0
  3708  0C9D  1803               	skipnc
  3709  0C9E  3001               	movlw	1
  3710  0C9F  07F1               	addwf	___fladd@b+1,f
  3711  0CA0  3000               	movlw	0
  3712  0CA1  1803               	skipnc
  3713  0CA2  3001               	movlw	1
  3714  0CA3  07F2               	addwf	___fladd@b+2,f
  3715  0CA4  3000               	movlw	0
  3716  0CA5  1803               	skipnc
  3717  0CA6  3001               	movlw	1
  3718  0CA7  07F3               	addwf	___fladd@b+3,f
  3719  0CA8                     l1972:
  3720  0CA8  1C73               	btfss	___fladd@b+3,0
  3721  0CA9  2CAB               	goto	u1871
  3722  0CAA  2CAC               	goto	u1870
  3723  0CAB                     u1871:
  3724  0CAB  2CD0               	goto	l630
  3725  0CAC                     u1870:
  3726  0CAC                     l1974:
  3727  0CAC  0870               	movf	___fladd@b,w
  3728  0CAD  1283               	bcf	3,5	;RP0=0, select bank0
  3729  0CAE  1303               	bcf	3,6	;RP1=0, select bank0
  3730  0CAF  00A0               	movwf	??___fladd
  3731  0CB0  0871               	movf	___fladd@b+1,w
  3732  0CB1  00A1               	movwf	??___fladd+1
  3733  0CB2  0872               	movf	___fladd@b+2,w
  3734  0CB3  00A2               	movwf	??___fladd+2
  3735  0CB4  0873               	movf	___fladd@b+3,w
  3736  0CB5  00A3               	movwf	??___fladd+3
  3737  0CB6  3001               	movlw	1
  3738  0CB7  00A4               	movwf	??___fladd+4
  3739  0CB8                     u1885:
  3740  0CB8  0D23               	rlf	??___fladd+3,w
  3741  0CB9  0CA3               	rrf	??___fladd+3,f
  3742  0CBA  0CA2               	rrf	??___fladd+2,f
  3743  0CBB  0CA1               	rrf	??___fladd+1,f
  3744  0CBC  0CA0               	rrf	??___fladd,f
  3745  0CBD                     u1880:
  3746  0CBD  0BA4               	decfsz	??___fladd+4,f
  3747  0CBE  2CB8               	goto	u1885
  3748  0CBF  0823               	movf	??___fladd+3,w
  3749  0CC0  00F3               	movwf	___fladd@b+3
  3750  0CC1  0822               	movf	??___fladd+2,w
  3751  0CC2  00F2               	movwf	___fladd@b+2
  3752  0CC3  0821               	movf	??___fladd+1,w
  3753  0CC4  00F1               	movwf	___fladd@b+1
  3754  0CC5  0820               	movf	??___fladd,w
  3755  0CC6  00F0               	movwf	___fladd@b
  3756  0CC7  0A7A               	incf	___fladd@bexp,w
  3757  0CC8  1903               	btfsc	3,2
  3758  0CC9  2CCB               	goto	u1891
  3759  0CCA  2CCC               	goto	u1890
  3760  0CCB                     u1891:
  3761  0CCB  2CD0               	goto	l630
  3762  0CCC                     u1890:
  3763  0CCC                     l1976:
  3764  0CCC  3001               	movlw	1
  3765  0CCD  00A0               	movwf	??___fladd
  3766  0CCE  0820               	movf	??___fladd,w
  3767  0CCF  07FA               	addwf	___fladd@bexp,f
  3768  0CD0                     l630:
  3769  0CD0  0A7A               	incf	___fladd@bexp,w
  3770  0CD1  1903               	btfsc	3,2
  3771  0CD2  2CD4               	goto	u1901
  3772  0CD3  2CD5               	goto	u1900
  3773  0CD4                     u1901:
  3774  0CD4  2CDA               	goto	l1980
  3775  0CD5                     u1900:
  3776  0CD5                     l1978:
  3777  0CD5  087A               	movf	___fladd@bexp,w
  3778  0CD6  1D03               	btfss	3,2
  3779  0CD7  2CD9               	goto	u1911
  3780  0CD8  2CDA               	goto	u1910
  3781  0CD9                     u1911:
  3782  0CD9  2CE8               	goto	l1986
  3783  0CDA                     u1910:
  3784  0CDA                     l1980:
  3785  0CDA  3000               	movlw	0
  3786  0CDB  00F3               	movwf	___fladd@b+3
  3787  0CDC  3000               	movlw	0
  3788  0CDD  00F2               	movwf	___fladd@b+2
  3789  0CDE  3000               	movlw	0
  3790  0CDF  00F1               	movwf	___fladd@b+1
  3791  0CE0  3000               	movlw	0
  3792  0CE1  00F0               	movwf	___fladd@b
  3793  0CE2                     l1982:
  3794  0CE2  087A               	movf	___fladd@bexp,w
  3795  0CE3  1D03               	btfss	3,2
  3796  0CE4  2CE6               	goto	u1921
  3797  0CE5  2CE7               	goto	u1920
  3798  0CE6                     u1921:
  3799  0CE6  2CE8               	goto	l1986
  3800  0CE7                     u1920:
  3801  0CE7                     l1984:
  3802  0CE7  01F8               	clrf	___fladd@signs
  3803  0CE8                     l1986:
  3804  0CE8  1C7A               	btfss	___fladd@bexp,0
  3805  0CE9  2CEB               	goto	u1931
  3806  0CEA  2CEC               	goto	u1930
  3807  0CEB                     u1931:
  3808  0CEB  2CEE               	goto	l1990
  3809  0CEC                     u1930:
  3810  0CEC                     l1988:
  3811  0CEC  17F2               	bsf	___fladd@b+2,7
  3812  0CED  2CF4               	goto	l638
  3813  0CEE                     l1990:
  3814  0CEE  307F               	movlw	127
  3815  0CEF  1283               	bcf	3,5	;RP0=0, select bank0
  3816  0CF0  1303               	bcf	3,6	;RP1=0, select bank0
  3817  0CF1  00A0               	movwf	??___fladd
  3818  0CF2  0820               	movf	??___fladd,w
  3819  0CF3  05F2               	andwf	___fladd@b+2,f
  3820  0CF4                     l638:
  3821  0CF4  087A               	movf	___fladd@bexp,w
  3822  0CF5  1283               	bcf	3,5	;RP0=0, select bank0
  3823  0CF6  1303               	bcf	3,6	;RP1=0, select bank0
  3824  0CF7  00A0               	movwf	??___fladd
  3825  0CF8  1003               	clrc
  3826  0CF9  0C20               	rrf	??___fladd,w
  3827  0CFA  00A1               	movwf	??___fladd+1
  3828  0CFB  0821               	movf	??___fladd+1,w
  3829  0CFC  00F3               	movwf	___fladd@b+3
  3830  0CFD                     l1992:
  3831  0CFD  1FF8               	btfss	___fladd@signs,7
  3832  0CFE  2D00               	goto	u1941
  3833  0CFF  2D01               	goto	u1940
  3834  0D00                     u1941:
  3835  0D00  2D02               	goto	l639
  3836  0D01                     u1940:
  3837  0D01                     l1994:
  3838  0D01  17F3               	bsf	___fladd@b+3,7
  3839  0D02                     l639:
  3840  0D02                     l609:
  3841  0D02  0008               	return
  3842  0D03                     __end_of___fladd:
  3843                           
  3844                           	psect	text6
  3845  006A                     __ptext6:	
  3846 ;; *************** function ___flmul *****************
  3847 ;; Defined at:
  3848 ;;		line 8 in file "C:\Program Files\Microchip\xc8\v2.32\pic\sources\c90\common\sprcmul.c"
  3849 ;; Parameters:    Size  Location     Type
  3850 ;;  b               4    0[BANK0 ] unsigned char 
  3851 ;;  a               4    4[BANK0 ] unsigned char 
  3852 ;; Auto vars:     Size  Location     Type
  3853 ;;  prod            4   15[BANK0 ] struct .
  3854 ;;  grs             4    9[BANK0 ] unsigned long 
  3855 ;;  temp            2   19[BANK0 ] struct .
  3856 ;;  bexp            1   14[BANK0 ] unsigned char 
  3857 ;;  aexp            1   13[BANK0 ] unsigned char 
  3858 ;;  sign            1    8[BANK0 ] unsigned char 
  3859 ;; Return value:  Size  Location     Type
  3860 ;;                  4    0[BANK0 ] unsigned char 
  3861 ;; Registers used:
  3862 ;;		wreg, status,2, status,0, btemp+1, pclath, cstack
  3863 ;; Tracked objects:
  3864 ;;		On entry : 0/0
  3865 ;;		On exit  : 0/0
  3866 ;;		Unchanged: 0/0
  3867 ;; Data sizes:     COMMON   BANK0   BANK1   BANK3   BANK2
  3868 ;;      Params:         0       8       0       0       0
  3869 ;;      Locals:         0      13       0       0       0
  3870 ;;      Temps:          5       0       0       0       0
  3871 ;;      Totals:         5      21       0       0       0
  3872 ;;Total ram usage:       26 bytes
  3873 ;; Hardware stack levels used: 1
  3874 ;; Hardware stack levels required when called: 1
  3875 ;; This function calls:
  3876 ;;		__Umul8_16
  3877 ;; This function is called by:
  3878 ;;		_liga_buzzer
  3879 ;; This function uses a non-reentrant model
  3880 ;;
  3881                           
  3882                           
  3883                           ;psect for function ___flmul
  3884  006A                     ___flmul:
  3885  006A                     l2046:	
  3886                           ;incstack = 0
  3887                           ; Regs used in ___flmul: [wreg+status,2+status,0+btemp+1+pclath+cstack]
  3888                           
  3889  006A  1283               	bcf	3,5	;RP0=0, select bank0
  3890  006B  1303               	bcf	3,6	;RP1=0, select bank0
  3891  006C  0823               	movf	___flmul@b+3,w
  3892  006D  3980               	andlw	128
  3893  006E  00F9               	movwf	??___flmul
  3894  006F  0879               	movf	??___flmul,w
  3895  0070  00A8               	movwf	___flmul@sign
  3896  0071                     l2048:
  3897  0071  0823               	movf	___flmul@b+3,w
  3898  0072  00F9               	movwf	??___flmul
  3899  0073  0779               	addwf	??___flmul,w
  3900  0074  00FA               	movwf	??___flmul+1
  3901  0075  087A               	movf	??___flmul+1,w
  3902  0076  00AE               	movwf	___flmul@bexp
  3903  0077                     l2050:
  3904  0077  1FA2               	btfss	___flmul@b+2,7
  3905  0078  287A               	goto	u2061
  3906  0079  287B               	goto	u2060
  3907  007A                     u2061:
  3908  007A  287C               	goto	l2054
  3909  007B                     u2060:
  3910  007B                     l2052:
  3911  007B  142E               	bsf	___flmul@bexp,0
  3912  007C                     l2054:
  3913  007C  082E               	movf	___flmul@bexp,w
  3914  007D  1903               	btfsc	3,2
  3915  007E  2880               	goto	u2071
  3916  007F  2881               	goto	u2070
  3917  0080                     u2071:
  3918  0080  2890               	goto	l2062
  3919  0081                     u2070:
  3920  0081                     l2056:
  3921  0081  0A2E               	incf	___flmul@bexp,w
  3922  0082  1D03               	btfss	3,2
  3923  0083  2885               	goto	u2081
  3924  0084  2886               	goto	u2080
  3925  0085                     u2081:
  3926  0085  288E               	goto	l2060
  3927  0086                     u2080:
  3928  0086                     l2058:
  3929  0086  3000               	movlw	0
  3930  0087  00A3               	movwf	___flmul@b+3
  3931  0088  3000               	movlw	0
  3932  0089  00A2               	movwf	___flmul@b+2
  3933  008A  3000               	movlw	0
  3934  008B  00A1               	movwf	___flmul@b+1
  3935  008C  3000               	movlw	0
  3936  008D  00A0               	movwf	___flmul@b
  3937  008E                     l2060:
  3938  008E  17A2               	bsf	___flmul@b+2,7
  3939  008F  2898               	goto	l2064
  3940  0090                     l2062:
  3941  0090  3000               	movlw	0
  3942  0091  00A3               	movwf	___flmul@b+3
  3943  0092  3000               	movlw	0
  3944  0093  00A2               	movwf	___flmul@b+2
  3945  0094  3000               	movlw	0
  3946  0095  00A1               	movwf	___flmul@b+1
  3947  0096  3000               	movlw	0
  3948  0097  00A0               	movwf	___flmul@b
  3949  0098                     l2064:
  3950  0098  0827               	movf	___flmul@a+3,w
  3951  0099  3980               	andlw	128
  3952  009A  00F9               	movwf	??___flmul
  3953  009B  0879               	movf	??___flmul,w
  3954  009C  06A8               	xorwf	___flmul@sign,f
  3955  009D                     l2066:
  3956  009D  0827               	movf	___flmul@a+3,w
  3957  009E  00F9               	movwf	??___flmul
  3958  009F  0779               	addwf	??___flmul,w
  3959  00A0  00FA               	movwf	??___flmul+1
  3960  00A1  087A               	movf	??___flmul+1,w
  3961  00A2  00AD               	movwf	___flmul@aexp
  3962  00A3                     l2068:
  3963  00A3  1FA6               	btfss	___flmul@a+2,7
  3964  00A4  28A6               	goto	u2091
  3965  00A5  28A7               	goto	u2090
  3966  00A6                     u2091:
  3967  00A6  28A8               	goto	l2072
  3968  00A7                     u2090:
  3969  00A7                     l2070:
  3970  00A7  142D               	bsf	___flmul@aexp,0
  3971  00A8                     l2072:
  3972  00A8  082D               	movf	___flmul@aexp,w
  3973  00A9  1903               	btfsc	3,2
  3974  00AA  28AC               	goto	u2101
  3975  00AB  28AD               	goto	u2100
  3976  00AC                     u2101:
  3977  00AC  28BC               	goto	l2080
  3978  00AD                     u2100:
  3979  00AD                     l2074:
  3980  00AD  0A2D               	incf	___flmul@aexp,w
  3981  00AE  1D03               	btfss	3,2
  3982  00AF  28B1               	goto	u2111
  3983  00B0  28B2               	goto	u2110
  3984  00B1                     u2111:
  3985  00B1  28BA               	goto	l2078
  3986  00B2                     u2110:
  3987  00B2                     l2076:
  3988  00B2  3000               	movlw	0
  3989  00B3  00A7               	movwf	___flmul@a+3
  3990  00B4  3000               	movlw	0
  3991  00B5  00A6               	movwf	___flmul@a+2
  3992  00B6  3000               	movlw	0
  3993  00B7  00A5               	movwf	___flmul@a+1
  3994  00B8  3000               	movlw	0
  3995  00B9  00A4               	movwf	___flmul@a
  3996  00BA                     l2078:
  3997  00BA  17A6               	bsf	___flmul@a+2,7
  3998  00BB  28C4               	goto	l2082
  3999  00BC                     l2080:
  4000  00BC  3000               	movlw	0
  4001  00BD  00A7               	movwf	___flmul@a+3
  4002  00BE  3000               	movlw	0
  4003  00BF  00A6               	movwf	___flmul@a+2
  4004  00C0  3000               	movlw	0
  4005  00C1  00A5               	movwf	___flmul@a+1
  4006  00C2  3000               	movlw	0
  4007  00C3  00A4               	movwf	___flmul@a
  4008  00C4                     l2082:
  4009  00C4  082D               	movf	___flmul@aexp,w
  4010  00C5  1903               	btfsc	3,2
  4011  00C6  28C8               	goto	u2121
  4012  00C7  28C9               	goto	u2120
  4013  00C8                     u2121:
  4014  00C8  28CE               	goto	l2086
  4015  00C9                     u2120:
  4016  00C9                     l2084:
  4017  00C9  082E               	movf	___flmul@bexp,w
  4018  00CA  1D03               	btfss	3,2
  4019  00CB  28CD               	goto	u2131
  4020  00CC  28CE               	goto	u2130
  4021  00CD                     u2131:
  4022  00CD  28D7               	goto	l2090
  4023  00CE                     u2130:
  4024  00CE                     l2086:
  4025  00CE  3000               	movlw	0
  4026  00CF  00A3               	movwf	?___flmul+3
  4027  00D0  3000               	movlw	0
  4028  00D1  00A2               	movwf	?___flmul+2
  4029  00D2  3000               	movlw	0
  4030  00D3  00A1               	movwf	?___flmul+1
  4031  00D4  3000               	movlw	0
  4032  00D5  00A0               	movwf	?___flmul
  4033  00D6  2BCA               	goto	l692
  4034  00D7                     l2090:
  4035  00D7  0820               	movf	___flmul@b,w
  4036  00D8  00F9               	movwf	??___flmul
  4037  00D9  0879               	movf	??___flmul,w
  4038  00DA  00F0               	movwf	__Umul8_16@multiplicand
  4039  00DB  0826               	movf	___flmul@a+2,w
  4040  00DC  160A  118A  25B3  120A  118A  	fcall	__Umul8_16
  4041  00E1  0871               	movf	?__Umul8_16+1,w
  4042  00E2  1283               	bcf	3,5	;RP0=0, select bank0
  4043  00E3  1303               	bcf	3,6	;RP1=0, select bank0
  4044  00E4  00B4               	movwf	___flmul@temp+1
  4045  00E5  0870               	movf	?__Umul8_16,w
  4046  00E6  00B3               	movwf	___flmul@temp
  4047  00E7                     l2092:
  4048  00E7  0833               	movf	___flmul@temp,w
  4049  00E8  00F9               	movwf	??___flmul
  4050  00E9  01FA               	clrf	??___flmul+1
  4051  00EA  01FB               	clrf	??___flmul+2
  4052  00EB  01FC               	clrf	??___flmul+3
  4053  00EC  087C               	movf	??___flmul+3,w
  4054  00ED  00AC               	movwf	___flmul@grs+3
  4055  00EE  087B               	movf	??___flmul+2,w
  4056  00EF  00AB               	movwf	___flmul@grs+2
  4057  00F0  087A               	movf	??___flmul+1,w
  4058  00F1  00AA               	movwf	___flmul@grs+1
  4059  00F2  0879               	movf	??___flmul,w
  4060  00F3  00A9               	movwf	___flmul@grs
  4061  00F4                     l2094:
  4062  00F4  0834               	movf	___flmul@temp+1,w
  4063  00F5  00F9               	movwf	??___flmul
  4064  00F6  01FA               	clrf	??___flmul+1
  4065  00F7  01FB               	clrf	??___flmul+2
  4066  00F8  01FC               	clrf	??___flmul+3
  4067  00F9  087C               	movf	??___flmul+3,w
  4068  00FA  00B2               	movwf	___flmul@prod+3
  4069  00FB  087B               	movf	??___flmul+2,w
  4070  00FC  00B1               	movwf	___flmul@prod+2
  4071  00FD  087A               	movf	??___flmul+1,w
  4072  00FE  00B0               	movwf	___flmul@prod+1
  4073  00FF  0879               	movf	??___flmul,w
  4074  0100  00AF               	movwf	___flmul@prod
  4075  0101  0821               	movf	___flmul@b+1,w
  4076  0102  00F9               	movwf	??___flmul
  4077  0103  0879               	movf	??___flmul,w
  4078  0104  00F0               	movwf	__Umul8_16@multiplicand
  4079  0105  0825               	movf	___flmul@a+1,w
  4080  0106  160A  118A  25B3  120A  118A  	fcall	__Umul8_16
  4081  010B  0871               	movf	?__Umul8_16+1,w
  4082  010C  1283               	bcf	3,5	;RP0=0, select bank0
  4083  010D  1303               	bcf	3,6	;RP1=0, select bank0
  4084  010E  00B4               	movwf	___flmul@temp+1
  4085  010F  0870               	movf	?__Umul8_16,w
  4086  0110  00B3               	movwf	___flmul@temp
  4087  0111                     l2096:
  4088  0111  0833               	movf	___flmul@temp,w
  4089  0112  00F9               	movwf	??___flmul
  4090  0113  01FA               	clrf	??___flmul+1
  4091  0114  01FB               	clrf	??___flmul+2
  4092  0115  01FC               	clrf	??___flmul+3
  4093  0116  0879               	movf	??___flmul,w
  4094  0117  07A9               	addwf	___flmul@grs,f
  4095  0118  087A               	movf	??___flmul+1,w
  4096  0119  1103               	clrz
  4097  011A  1803               	skipnc
  4098  011B  3E01               	addlw	1
  4099  011C  1903               	skipnz
  4100  011D  291F               	goto	u2141
  4101  011E  07AA               	addwf	___flmul@grs+1,f
  4102  011F                     u2141:
  4103  011F  087B               	movf	??___flmul+2,w
  4104  0120  1103               	clrz
  4105  0121  1803               	skipnc
  4106  0122  3E01               	addlw	1
  4107  0123  1903               	skipnz
  4108  0124  2926               	goto	u2142
  4109  0125  07AB               	addwf	___flmul@grs+2,f
  4110  0126                     u2142:
  4111  0126  087C               	movf	??___flmul+3,w
  4112  0127  1103               	clrz
  4113  0128  1803               	skipnc
  4114  0129  3E01               	addlw	1
  4115  012A  1903               	skipnz
  4116  012B  292D               	goto	u2143
  4117  012C  07AC               	addwf	___flmul@grs+3,f
  4118  012D                     u2143:
  4119  012D                     l2098:
  4120  012D  0834               	movf	___flmul@temp+1,w
  4121  012E  00F9               	movwf	??___flmul
  4122  012F  01FA               	clrf	??___flmul+1
  4123  0130  01FB               	clrf	??___flmul+2
  4124  0131  01FC               	clrf	??___flmul+3
  4125  0132  0879               	movf	??___flmul,w
  4126  0133  07AF               	addwf	___flmul@prod,f
  4127  0134  087A               	movf	??___flmul+1,w
  4128  0135  1103               	clrz
  4129  0136  1803               	skipnc
  4130  0137  3E01               	addlw	1
  4131  0138  1903               	skipnz
  4132  0139  293B               	goto	u2151
  4133  013A  07B0               	addwf	___flmul@prod+1,f
  4134  013B                     u2151:
  4135  013B  087B               	movf	??___flmul+2,w
  4136  013C  1103               	clrz
  4137  013D  1803               	skipnc
  4138  013E  3E01               	addlw	1
  4139  013F  1903               	skipnz
  4140  0140  2942               	goto	u2152
  4141  0141  07B1               	addwf	___flmul@prod+2,f
  4142  0142                     u2152:
  4143  0142  087C               	movf	??___flmul+3,w
  4144  0143  1103               	clrz
  4145  0144  1803               	skipnc
  4146  0145  3E01               	addlw	1
  4147  0146  1903               	skipnz
  4148  0147  2949               	goto	u2153
  4149  0148  07B2               	addwf	___flmul@prod+3,f
  4150  0149                     u2153:
  4151  0149  0822               	movf	___flmul@b+2,w
  4152  014A  00F9               	movwf	??___flmul
  4153  014B  0879               	movf	??___flmul,w
  4154  014C  00F0               	movwf	__Umul8_16@multiplicand
  4155  014D  0824               	movf	___flmul@a,w
  4156  014E  160A  118A  25B3  120A  118A  	fcall	__Umul8_16
  4157  0153  0871               	movf	?__Umul8_16+1,w
  4158  0154  1283               	bcf	3,5	;RP0=0, select bank0
  4159  0155  1303               	bcf	3,6	;RP1=0, select bank0
  4160  0156  00B4               	movwf	___flmul@temp+1
  4161  0157  0870               	movf	?__Umul8_16,w
  4162  0158  00B3               	movwf	___flmul@temp
  4163  0159                     l2100:
  4164  0159  0833               	movf	___flmul@temp,w
  4165  015A  00F9               	movwf	??___flmul
  4166  015B  01FA               	clrf	??___flmul+1
  4167  015C  01FB               	clrf	??___flmul+2
  4168  015D  01FC               	clrf	??___flmul+3
  4169  015E  0879               	movf	??___flmul,w
  4170  015F  07A9               	addwf	___flmul@grs,f
  4171  0160  087A               	movf	??___flmul+1,w
  4172  0161  1103               	clrz
  4173  0162  1803               	skipnc
  4174  0163  3E01               	addlw	1
  4175  0164  1903               	skipnz
  4176  0165  2967               	goto	u2161
  4177  0166  07AA               	addwf	___flmul@grs+1,f
  4178  0167                     u2161:
  4179  0167  087B               	movf	??___flmul+2,w
  4180  0168  1103               	clrz
  4181  0169  1803               	skipnc
  4182  016A  3E01               	addlw	1
  4183  016B  1903               	skipnz
  4184  016C  296E               	goto	u2162
  4185  016D  07AB               	addwf	___flmul@grs+2,f
  4186  016E                     u2162:
  4187  016E  087C               	movf	??___flmul+3,w
  4188  016F  1103               	clrz
  4189  0170  1803               	skipnc
  4190  0171  3E01               	addlw	1
  4191  0172  1903               	skipnz
  4192  0173  2975               	goto	u2163
  4193  0174  07AC               	addwf	___flmul@grs+3,f
  4194  0175                     u2163:
  4195  0175                     l2102:
  4196  0175  0834               	movf	___flmul@temp+1,w
  4197  0176  00F9               	movwf	??___flmul
  4198  0177  01FA               	clrf	??___flmul+1
  4199  0178  01FB               	clrf	??___flmul+2
  4200  0179  01FC               	clrf	??___flmul+3
  4201  017A  0879               	movf	??___flmul,w
  4202  017B  07AF               	addwf	___flmul@prod,f
  4203  017C  087A               	movf	??___flmul+1,w
  4204  017D  1103               	clrz
  4205  017E  1803               	skipnc
  4206  017F  3E01               	addlw	1
  4207  0180  1903               	skipnz
  4208  0181  2983               	goto	u2171
  4209  0182  07B0               	addwf	___flmul@prod+1,f
  4210  0183                     u2171:
  4211  0183  087B               	movf	??___flmul+2,w
  4212  0184  1103               	clrz
  4213  0185  1803               	skipnc
  4214  0186  3E01               	addlw	1
  4215  0187  1903               	skipnz
  4216  0188  298A               	goto	u2172
  4217  0189  07B1               	addwf	___flmul@prod+2,f
  4218  018A                     u2172:
  4219  018A  087C               	movf	??___flmul+3,w
  4220  018B  1103               	clrz
  4221  018C  1803               	skipnc
  4222  018D  3E01               	addlw	1
  4223  018E  1903               	skipnz
  4224  018F  2991               	goto	u2173
  4225  0190  07B2               	addwf	___flmul@prod+3,f
  4226  0191                     u2173:
  4227  0191                     l2104:
  4228  0191  3008               	movlw	8
  4229  0192  00F9               	movwf	??___flmul
  4230  0193                     u2185:
  4231  0193  1003               	clrc
  4232  0194  0DA9               	rlf	___flmul@grs,f
  4233  0195  0DAA               	rlf	___flmul@grs+1,f
  4234  0196  0DAB               	rlf	___flmul@grs+2,f
  4235  0197  0DAC               	rlf	___flmul@grs+3,f
  4236  0198  0BF9               	decfsz	??___flmul,f
  4237  0199  2993               	goto	u2185
  4238  019A                     l2106:
  4239  019A  0821               	movf	___flmul@b+1,w
  4240  019B  00F9               	movwf	??___flmul
  4241  019C  0879               	movf	??___flmul,w
  4242  019D  00F0               	movwf	__Umul8_16@multiplicand
  4243  019E  0824               	movf	___flmul@a,w
  4244  019F  160A  118A  25B3  120A  118A  	fcall	__Umul8_16
  4245  01A4  0871               	movf	?__Umul8_16+1,w
  4246  01A5  1283               	bcf	3,5	;RP0=0, select bank0
  4247  01A6  1303               	bcf	3,6	;RP1=0, select bank0
  4248  01A7  00B4               	movwf	___flmul@temp+1
  4249  01A8  0870               	movf	?__Umul8_16,w
  4250  01A9  00B3               	movwf	___flmul@temp
  4251  01AA                     l2108:
  4252  01AA  0833               	movf	___flmul@temp,w
  4253  01AB  00F9               	movwf	??___flmul
  4254  01AC  0834               	movf	___flmul@temp+1,w
  4255  01AD  00FA               	movwf	??___flmul+1
  4256  01AE  01FB               	clrf	??___flmul+2
  4257  01AF  01FC               	clrf	??___flmul+3
  4258  01B0  0879               	movf	??___flmul,w
  4259  01B1  07A9               	addwf	___flmul@grs,f
  4260  01B2  087A               	movf	??___flmul+1,w
  4261  01B3  1103               	clrz
  4262  01B4  1803               	skipnc
  4263  01B5  3E01               	addlw	1
  4264  01B6  1903               	skipnz
  4265  01B7  29B9               	goto	u2191
  4266  01B8  07AA               	addwf	___flmul@grs+1,f
  4267  01B9                     u2191:
  4268  01B9  087B               	movf	??___flmul+2,w
  4269  01BA  1103               	clrz
  4270  01BB  1803               	skipnc
  4271  01BC  3E01               	addlw	1
  4272  01BD  1903               	skipnz
  4273  01BE  29C0               	goto	u2192
  4274  01BF  07AB               	addwf	___flmul@grs+2,f
  4275  01C0                     u2192:
  4276  01C0  087C               	movf	??___flmul+3,w
  4277  01C1  1103               	clrz
  4278  01C2  1803               	skipnc
  4279  01C3  3E01               	addlw	1
  4280  01C4  1903               	skipnz
  4281  01C5  29C7               	goto	u2193
  4282  01C6  07AC               	addwf	___flmul@grs+3,f
  4283  01C7                     u2193:
  4284  01C7                     l2110:
  4285  01C7  0820               	movf	___flmul@b,w
  4286  01C8  00F9               	movwf	??___flmul
  4287  01C9  0879               	movf	??___flmul,w
  4288  01CA  00F0               	movwf	__Umul8_16@multiplicand
  4289  01CB  0825               	movf	___flmul@a+1,w
  4290  01CC  160A  118A  25B3  120A  118A  	fcall	__Umul8_16
  4291  01D1  0871               	movf	?__Umul8_16+1,w
  4292  01D2  1283               	bcf	3,5	;RP0=0, select bank0
  4293  01D3  1303               	bcf	3,6	;RP1=0, select bank0
  4294  01D4  00B4               	movwf	___flmul@temp+1
  4295  01D5  0870               	movf	?__Umul8_16,w
  4296  01D6  00B3               	movwf	___flmul@temp
  4297  01D7                     l2112:
  4298  01D7  0833               	movf	___flmul@temp,w
  4299  01D8  00F9               	movwf	??___flmul
  4300  01D9  0834               	movf	___flmul@temp+1,w
  4301  01DA  00FA               	movwf	??___flmul+1
  4302  01DB  01FB               	clrf	??___flmul+2
  4303  01DC  01FC               	clrf	??___flmul+3
  4304  01DD  0879               	movf	??___flmul,w
  4305  01DE  07A9               	addwf	___flmul@grs,f
  4306  01DF  087A               	movf	??___flmul+1,w
  4307  01E0  1103               	clrz
  4308  01E1  1803               	skipnc
  4309  01E2  3E01               	addlw	1
  4310  01E3  1903               	skipnz
  4311  01E4  29E6               	goto	u2201
  4312  01E5  07AA               	addwf	___flmul@grs+1,f
  4313  01E6                     u2201:
  4314  01E6  087B               	movf	??___flmul+2,w
  4315  01E7  1103               	clrz
  4316  01E8  1803               	skipnc
  4317  01E9  3E01               	addlw	1
  4318  01EA  1903               	skipnz
  4319  01EB  29ED               	goto	u2202
  4320  01EC  07AB               	addwf	___flmul@grs+2,f
  4321  01ED                     u2202:
  4322  01ED  087C               	movf	??___flmul+3,w
  4323  01EE  1103               	clrz
  4324  01EF  1803               	skipnc
  4325  01F0  3E01               	addlw	1
  4326  01F1  1903               	skipnz
  4327  01F2  29F4               	goto	u2203
  4328  01F3  07AC               	addwf	___flmul@grs+3,f
  4329  01F4                     u2203:
  4330  01F4                     l2114:
  4331  01F4  3008               	movlw	8
  4332  01F5  00F9               	movwf	??___flmul
  4333  01F6                     u2215:
  4334  01F6  1003               	clrc
  4335  01F7  0DA9               	rlf	___flmul@grs,f
  4336  01F8  0DAA               	rlf	___flmul@grs+1,f
  4337  01F9  0DAB               	rlf	___flmul@grs+2,f
  4338  01FA  0DAC               	rlf	___flmul@grs+3,f
  4339  01FB  0BF9               	decfsz	??___flmul,f
  4340  01FC  29F6               	goto	u2215
  4341  01FD  0820               	movf	___flmul@b,w
  4342  01FE  00F9               	movwf	??___flmul
  4343  01FF  0879               	movf	??___flmul,w
  4344  0200  00F0               	movwf	__Umul8_16@multiplicand
  4345  0201  0824               	movf	___flmul@a,w
  4346  0202  160A  118A  25B3  120A  118A  	fcall	__Umul8_16
  4347  0207  0871               	movf	?__Umul8_16+1,w
  4348  0208  1283               	bcf	3,5	;RP0=0, select bank0
  4349  0209  1303               	bcf	3,6	;RP1=0, select bank0
  4350  020A  00B4               	movwf	___flmul@temp+1
  4351  020B  0870               	movf	?__Umul8_16,w
  4352  020C  00B3               	movwf	___flmul@temp
  4353  020D                     l2116:
  4354  020D  0833               	movf	___flmul@temp,w
  4355  020E  00F9               	movwf	??___flmul
  4356  020F  0834               	movf	___flmul@temp+1,w
  4357  0210  00FA               	movwf	??___flmul+1
  4358  0211  01FB               	clrf	??___flmul+2
  4359  0212  01FC               	clrf	??___flmul+3
  4360  0213  0879               	movf	??___flmul,w
  4361  0214  07A9               	addwf	___flmul@grs,f
  4362  0215  087A               	movf	??___flmul+1,w
  4363  0216  1103               	clrz
  4364  0217  1803               	skipnc
  4365  0218  3E01               	addlw	1
  4366  0219  1903               	skipnz
  4367  021A  2A1C               	goto	u2221
  4368  021B  07AA               	addwf	___flmul@grs+1,f
  4369  021C                     u2221:
  4370  021C  087B               	movf	??___flmul+2,w
  4371  021D  1103               	clrz
  4372  021E  1803               	skipnc
  4373  021F  3E01               	addlw	1
  4374  0220  1903               	skipnz
  4375  0221  2A23               	goto	u2222
  4376  0222  07AB               	addwf	___flmul@grs+2,f
  4377  0223                     u2222:
  4378  0223  087C               	movf	??___flmul+3,w
  4379  0224  1103               	clrz
  4380  0225  1803               	skipnc
  4381  0226  3E01               	addlw	1
  4382  0227  1903               	skipnz
  4383  0228  2A2A               	goto	u2223
  4384  0229  07AC               	addwf	___flmul@grs+3,f
  4385  022A                     u2223:
  4386  022A                     l2118:
  4387  022A  0821               	movf	___flmul@b+1,w
  4388  022B  00F9               	movwf	??___flmul
  4389  022C  0879               	movf	??___flmul,w
  4390  022D  00F0               	movwf	__Umul8_16@multiplicand
  4391  022E  0826               	movf	___flmul@a+2,w
  4392  022F  160A  118A  25B3  120A  118A  	fcall	__Umul8_16
  4393  0234  0871               	movf	?__Umul8_16+1,w
  4394  0235  1283               	bcf	3,5	;RP0=0, select bank0
  4395  0236  1303               	bcf	3,6	;RP1=0, select bank0
  4396  0237  00B4               	movwf	___flmul@temp+1
  4397  0238  0870               	movf	?__Umul8_16,w
  4398  0239  00B3               	movwf	___flmul@temp
  4399  023A  0833               	movf	___flmul@temp,w
  4400  023B  00F9               	movwf	??___flmul
  4401  023C  0834               	movf	___flmul@temp+1,w
  4402  023D  00FA               	movwf	??___flmul+1
  4403  023E  01FB               	clrf	??___flmul+2
  4404  023F  01FC               	clrf	??___flmul+3
  4405  0240  0879               	movf	??___flmul,w
  4406  0241  07AF               	addwf	___flmul@prod,f
  4407  0242  087A               	movf	??___flmul+1,w
  4408  0243  1103               	clrz
  4409  0244  1803               	skipnc
  4410  0245  3E01               	addlw	1
  4411  0246  1903               	skipnz
  4412  0247  2A49               	goto	u2231
  4413  0248  07B0               	addwf	___flmul@prod+1,f
  4414  0249                     u2231:
  4415  0249  087B               	movf	??___flmul+2,w
  4416  024A  1103               	clrz
  4417  024B  1803               	skipnc
  4418  024C  3E01               	addlw	1
  4419  024D  1903               	skipnz
  4420  024E  2A50               	goto	u2232
  4421  024F  07B1               	addwf	___flmul@prod+2,f
  4422  0250                     u2232:
  4423  0250  087C               	movf	??___flmul+3,w
  4424  0251  1103               	clrz
  4425  0252  1803               	skipnc
  4426  0253  3E01               	addlw	1
  4427  0254  1903               	skipnz
  4428  0255  2A57               	goto	u2233
  4429  0256  07B2               	addwf	___flmul@prod+3,f
  4430  0257                     u2233:
  4431  0257                     l2120:
  4432  0257  0822               	movf	___flmul@b+2,w
  4433  0258  00F9               	movwf	??___flmul
  4434  0259  0879               	movf	??___flmul,w
  4435  025A  00F0               	movwf	__Umul8_16@multiplicand
  4436  025B  0825               	movf	___flmul@a+1,w
  4437  025C  160A  118A  25B3  120A  118A  	fcall	__Umul8_16
  4438  0261  0871               	movf	?__Umul8_16+1,w
  4439  0262  1283               	bcf	3,5	;RP0=0, select bank0
  4440  0263  1303               	bcf	3,6	;RP1=0, select bank0
  4441  0264  00B4               	movwf	___flmul@temp+1
  4442  0265  0870               	movf	?__Umul8_16,w
  4443  0266  00B3               	movwf	___flmul@temp
  4444  0267                     l2122:
  4445  0267  0833               	movf	___flmul@temp,w
  4446  0268  00F9               	movwf	??___flmul
  4447  0269  0834               	movf	___flmul@temp+1,w
  4448  026A  00FA               	movwf	??___flmul+1
  4449  026B  01FB               	clrf	??___flmul+2
  4450  026C  01FC               	clrf	??___flmul+3
  4451  026D  0879               	movf	??___flmul,w
  4452  026E  07AF               	addwf	___flmul@prod,f
  4453  026F  087A               	movf	??___flmul+1,w
  4454  0270  1103               	clrz
  4455  0271  1803               	skipnc
  4456  0272  3E01               	addlw	1
  4457  0273  1903               	skipnz
  4458  0274  2A76               	goto	u2241
  4459  0275  07B0               	addwf	___flmul@prod+1,f
  4460  0276                     u2241:
  4461  0276  087B               	movf	??___flmul+2,w
  4462  0277  1103               	clrz
  4463  0278  1803               	skipnc
  4464  0279  3E01               	addlw	1
  4465  027A  1903               	skipnz
  4466  027B  2A7D               	goto	u2242
  4467  027C  07B1               	addwf	___flmul@prod+2,f
  4468  027D                     u2242:
  4469  027D  087C               	movf	??___flmul+3,w
  4470  027E  1103               	clrz
  4471  027F  1803               	skipnc
  4472  0280  3E01               	addlw	1
  4473  0281  1903               	skipnz
  4474  0282  2A84               	goto	u2243
  4475  0283  07B2               	addwf	___flmul@prod+3,f
  4476  0284                     u2243:
  4477  0284  0822               	movf	___flmul@b+2,w
  4478  0285  00F9               	movwf	??___flmul
  4479  0286  0879               	movf	??___flmul,w
  4480  0287  00F0               	movwf	__Umul8_16@multiplicand
  4481  0288  0826               	movf	___flmul@a+2,w
  4482  0289  160A  118A  25B3  120A  118A  	fcall	__Umul8_16
  4483  028E  0871               	movf	?__Umul8_16+1,w
  4484  028F  1283               	bcf	3,5	;RP0=0, select bank0
  4485  0290  1303               	bcf	3,6	;RP1=0, select bank0
  4486  0291  00B4               	movwf	___flmul@temp+1
  4487  0292  0870               	movf	?__Umul8_16,w
  4488  0293  00B3               	movwf	___flmul@temp
  4489  0294                     l2124:
  4490  0294  0833               	movf	___flmul@temp,w
  4491  0295  00F9               	movwf	??___flmul
  4492  0296  0834               	movf	___flmul@temp+1,w
  4493  0297  00FA               	movwf	??___flmul+1
  4494  0298  01FB               	clrf	??___flmul+2
  4495  0299  01FC               	clrf	??___flmul+3
  4496  029A  3008               	movlw	8
  4497  029B                     u2255:
  4498  029B  1003               	clrc
  4499  029C  0DF9               	rlf	??___flmul,f
  4500  029D  0DFA               	rlf	??___flmul+1,f
  4501  029E  0DFB               	rlf	??___flmul+2,f
  4502  029F  0DFC               	rlf	??___flmul+3,f
  4503  02A0                     u2250:
  4504  02A0  3EFF               	addlw	-1
  4505  02A1  1D03               	skipz
  4506  02A2  2A9B               	goto	u2255
  4507  02A3  0879               	movf	??___flmul,w
  4508  02A4  07AF               	addwf	___flmul@prod,f
  4509  02A5  087A               	movf	??___flmul+1,w
  4510  02A6  1103               	clrz
  4511  02A7  1803               	skipnc
  4512  02A8  3E01               	addlw	1
  4513  02A9  1903               	skipnz
  4514  02AA  2AAC               	goto	u2261
  4515  02AB  07B0               	addwf	___flmul@prod+1,f
  4516  02AC                     u2261:
  4517  02AC  087B               	movf	??___flmul+2,w
  4518  02AD  1103               	clrz
  4519  02AE  1803               	skipnc
  4520  02AF  3E01               	addlw	1
  4521  02B0  1903               	skipnz
  4522  02B1  2AB3               	goto	u2262
  4523  02B2  07B1               	addwf	___flmul@prod+2,f
  4524  02B3                     u2262:
  4525  02B3  087C               	movf	??___flmul+3,w
  4526  02B4  1103               	clrz
  4527  02B5  1803               	skipnc
  4528  02B6  3E01               	addlw	1
  4529  02B7  1903               	skipnz
  4530  02B8  2ABA               	goto	u2263
  4531  02B9  07B2               	addwf	___flmul@prod+3,f
  4532  02BA                     u2263:
  4533  02BA                     l2126:
  4534  02BA  0829               	movf	___flmul@grs,w
  4535  02BB  00F9               	movwf	??___flmul
  4536  02BC  082A               	movf	___flmul@grs+1,w
  4537  02BD  00FA               	movwf	??___flmul+1
  4538  02BE  082B               	movf	___flmul@grs+2,w
  4539  02BF  00FB               	movwf	??___flmul+2
  4540  02C0  082C               	movf	___flmul@grs+3,w
  4541  02C1  00FC               	movwf	??___flmul+3
  4542  02C2  3018               	movlw	24
  4543  02C3                     u2275:
  4544  02C3  1003               	clrc
  4545  02C4  0CFC               	rrf	??___flmul+3,f
  4546  02C5  0CFB               	rrf	??___flmul+2,f
  4547  02C6  0CFA               	rrf	??___flmul+1,f
  4548  02C7  0CF9               	rrf	??___flmul,f
  4549  02C8                     u2270:
  4550  02C8  3EFF               	addlw	-1
  4551  02C9  1D03               	skipz
  4552  02CA  2AC3               	goto	u2275
  4553  02CB  0879               	movf	??___flmul,w
  4554  02CC  07AF               	addwf	___flmul@prod,f
  4555  02CD  087A               	movf	??___flmul+1,w
  4556  02CE  1103               	clrz
  4557  02CF  1803               	skipnc
  4558  02D0  3E01               	addlw	1
  4559  02D1  1903               	skipnz
  4560  02D2  2AD4               	goto	u2281
  4561  02D3  07B0               	addwf	___flmul@prod+1,f
  4562  02D4                     u2281:
  4563  02D4  087B               	movf	??___flmul+2,w
  4564  02D5  1103               	clrz
  4565  02D6  1803               	skipnc
  4566  02D7  3E01               	addlw	1
  4567  02D8  1903               	skipnz
  4568  02D9  2ADB               	goto	u2282
  4569  02DA  07B1               	addwf	___flmul@prod+2,f
  4570  02DB                     u2282:
  4571  02DB  087C               	movf	??___flmul+3,w
  4572  02DC  1103               	clrz
  4573  02DD  1803               	skipnc
  4574  02DE  3E01               	addlw	1
  4575  02DF  1903               	skipnz
  4576  02E0  2AE2               	goto	u2283
  4577  02E1  07B2               	addwf	___flmul@prod+3,f
  4578  02E2                     u2283:
  4579  02E2                     l2128:
  4580  02E2  3008               	movlw	8
  4581  02E3  00F9               	movwf	??___flmul
  4582  02E4                     u2295:
  4583  02E4  1003               	clrc
  4584  02E5  0DA9               	rlf	___flmul@grs,f
  4585  02E6  0DAA               	rlf	___flmul@grs+1,f
  4586  02E7  0DAB               	rlf	___flmul@grs+2,f
  4587  02E8  0DAC               	rlf	___flmul@grs+3,f
  4588  02E9  0BF9               	decfsz	??___flmul,f
  4589  02EA  2AE4               	goto	u2295
  4590  02EB                     l2130:
  4591  02EB  082E               	movf	___flmul@bexp,w
  4592  02EC  072D               	addwf	___flmul@aexp,w
  4593  02ED  00F9               	movwf	??___flmul
  4594  02EE  01FA               	clrf	??___flmul+1
  4595  02EF  0DFA               	rlf	??___flmul+1,f
  4596  02F0  0879               	movf	??___flmul,w
  4597  02F1  3E82               	addlw	130
  4598  02F2  00B3               	movwf	___flmul@temp
  4599  02F3  087A               	movf	??___flmul+1,w
  4600  02F4  1803               	skipnc
  4601  02F5  3E01               	addlw	1
  4602  02F6  3EFF               	addlw	255
  4603  02F7  00B4               	movwf	___flmul@temp+1
  4604  02F8  2B16               	goto	l2142
  4605  02F9                     l2132:
  4606  02F9  3001               	movlw	1
  4607  02FA  00F9               	movwf	??___flmul
  4608  02FB                     u2305:
  4609  02FB  1003               	clrc
  4610  02FC  0DAF               	rlf	___flmul@prod,f
  4611  02FD  0DB0               	rlf	___flmul@prod+1,f
  4612  02FE  0DB1               	rlf	___flmul@prod+2,f
  4613  02FF  0DB2               	rlf	___flmul@prod+3,f
  4614  0300  0BF9               	decfsz	??___flmul,f
  4615  0301  2AFB               	goto	u2305
  4616  0302                     l2134:
  4617  0302  1FAC               	btfss	___flmul@grs+3,7
  4618  0303  2B05               	goto	u2311
  4619  0304  2B06               	goto	u2310
  4620  0305                     u2311:
  4621  0305  2B07               	goto	l2138
  4622  0306                     u2310:
  4623  0306                     l2136:
  4624  0306  142F               	bsf	___flmul@prod,0
  4625  0307                     l2138:
  4626  0307  3001               	movlw	1
  4627  0308  00F9               	movwf	??___flmul
  4628  0309                     u2325:
  4629  0309  1003               	clrc
  4630  030A  0DA9               	rlf	___flmul@grs,f
  4631  030B  0DAA               	rlf	___flmul@grs+1,f
  4632  030C  0DAB               	rlf	___flmul@grs+2,f
  4633  030D  0DAC               	rlf	___flmul@grs+3,f
  4634  030E  0BF9               	decfsz	??___flmul,f
  4635  030F  2B09               	goto	u2325
  4636  0310                     l2140:
  4637  0310  30FF               	movlw	255
  4638  0311  07B3               	addwf	___flmul@temp,f
  4639  0312  1803               	skipnc
  4640  0313  0AB4               	incf	___flmul@temp+1,f
  4641  0314  30FF               	movlw	255
  4642  0315  07B4               	addwf	___flmul@temp+1,f
  4643  0316                     l2142:
  4644  0316  1FB1               	btfss	___flmul@prod+2,7
  4645  0317  2B19               	goto	u2331
  4646  0318  2B1A               	goto	u2330
  4647  0319                     u2331:
  4648  0319  2AF9               	goto	l2132
  4649  031A                     u2330:
  4650  031A                     l2144:
  4651  031A  01AD               	clrf	___flmul@aexp
  4652  031B                     l2146:
  4653  031B  1FAC               	btfss	___flmul@grs+3,7
  4654  031C  2B1E               	goto	u2341
  4655  031D  2B1F               	goto	u2340
  4656  031E                     u2341:
  4657  031E  2B3B               	goto	l2154
  4658  031F                     u2340:
  4659  031F                     l2148:
  4660  031F  30FF               	movlw	255
  4661  0320  0529               	andwf	___flmul@grs,w
  4662  0321  00F9               	movwf	??___flmul
  4663  0322  30FF               	movlw	255
  4664  0323  052A               	andwf	___flmul@grs+1,w
  4665  0324  00FA               	movwf	??___flmul+1
  4666  0325  30FF               	movlw	255
  4667  0326  052B               	andwf	___flmul@grs+2,w
  4668  0327  00FB               	movwf	??___flmul+2
  4669  0328  307F               	movlw	127
  4670  0329  052C               	andwf	___flmul@grs+3,w
  4671  032A  00FC               	movwf	??___flmul+3
  4672  032B  087C               	movf	??___flmul+3,w
  4673  032C  047B               	iorwf	??___flmul+2,w
  4674  032D  047A               	iorwf	??___flmul+1,w
  4675  032E  0479               	iorwf	??___flmul,w
  4676  032F  1903               	skipnz
  4677  0330  2B32               	goto	u2351
  4678  0331  2B33               	goto	u2350
  4679  0332                     u2351:
  4680  0332  2B36               	goto	l698
  4681  0333                     u2350:
  4682  0333                     l2150:
  4683  0333  01AD               	clrf	___flmul@aexp
  4684  0334  0AAD               	incf	___flmul@aexp,f
  4685  0335  2B3B               	goto	l2154
  4686  0336                     l698:
  4687  0336  1C2F               	btfss	___flmul@prod,0
  4688  0337  2B39               	goto	u2361
  4689  0338  2B3A               	goto	u2360
  4690  0339                     u2361:
  4691  0339  2B3B               	goto	l2154
  4692  033A                     u2360:
  4693  033A  2B33               	goto	l2150
  4694  033B                     l2154:
  4695  033B  082D               	movf	___flmul@aexp,w
  4696  033C  1903               	btfsc	3,2
  4697  033D  2B3F               	goto	u2371
  4698  033E  2B40               	goto	u2370
  4699  033F                     u2371:
  4700  033F  2B71               	goto	l2164
  4701  0340                     u2370:
  4702  0340                     l2156:
  4703  0340  3001               	movlw	1
  4704  0341  07AF               	addwf	___flmul@prod,f
  4705  0342  3000               	movlw	0
  4706  0343  1803               	skipnc
  4707  0344  3001               	movlw	1
  4708  0345  07B0               	addwf	___flmul@prod+1,f
  4709  0346  3000               	movlw	0
  4710  0347  1803               	skipnc
  4711  0348  3001               	movlw	1
  4712  0349  07B1               	addwf	___flmul@prod+2,f
  4713  034A  3000               	movlw	0
  4714  034B  1803               	skipnc
  4715  034C  3001               	movlw	1
  4716  034D  07B2               	addwf	___flmul@prod+3,f
  4717  034E                     l2158:
  4718  034E  1C32               	btfss	___flmul@prod+3,0
  4719  034F  2B51               	goto	u2381
  4720  0350  2B52               	goto	u2380
  4721  0351                     u2381:
  4722  0351  2B71               	goto	l2164
  4723  0352                     u2380:
  4724  0352                     l2160:
  4725  0352  082F               	movf	___flmul@prod,w
  4726  0353  00F9               	movwf	??___flmul
  4727  0354  0830               	movf	___flmul@prod+1,w
  4728  0355  00FA               	movwf	??___flmul+1
  4729  0356  0831               	movf	___flmul@prod+2,w
  4730  0357  00FB               	movwf	??___flmul+2
  4731  0358  0832               	movf	___flmul@prod+3,w
  4732  0359  00FC               	movwf	??___flmul+3
  4733  035A  3001               	movlw	1
  4734  035B  00FD               	movwf	??___flmul+4
  4735  035C                     u2395:
  4736  035C  0D7C               	rlf	??___flmul+3,w
  4737  035D  0CFC               	rrf	??___flmul+3,f
  4738  035E  0CFB               	rrf	??___flmul+2,f
  4739  035F  0CFA               	rrf	??___flmul+1,f
  4740  0360  0CF9               	rrf	??___flmul,f
  4741  0361                     u2390:
  4742  0361  0BFD               	decfsz	??___flmul+4,f
  4743  0362  2B5C               	goto	u2395
  4744  0363  087C               	movf	??___flmul+3,w
  4745  0364  00B2               	movwf	___flmul@prod+3
  4746  0365  087B               	movf	??___flmul+2,w
  4747  0366  00B1               	movwf	___flmul@prod+2
  4748  0367  087A               	movf	??___flmul+1,w
  4749  0368  00B0               	movwf	___flmul@prod+1
  4750  0369  0879               	movf	??___flmul,w
  4751  036A  00AF               	movwf	___flmul@prod
  4752  036B                     l2162:
  4753  036B  3001               	movlw	1
  4754  036C  07B3               	addwf	___flmul@temp,f
  4755  036D  1803               	skipnc
  4756  036E  0AB4               	incf	___flmul@temp+1,f
  4757  036F  3000               	movlw	0
  4758  0370  07B4               	addwf	___flmul@temp+1,f
  4759  0371                     l2164:
  4760  0371  0834               	movf	___flmul@temp+1,w
  4761  0372  3A80               	xorlw	128
  4762  0373  00FF               	movwf	btemp+1
  4763  0374  3080               	movlw	128
  4764  0375  027F               	subwf	btemp+1,w
  4765  0376  1D03               	skipz
  4766  0377  2B7A               	goto	u2405
  4767  0378  30FF               	movlw	255
  4768  0379  0233               	subwf	___flmul@temp,w
  4769  037A                     u2405:
  4770  037A  1C03               	skipc
  4771  037B  2B7D               	goto	u2401
  4772  037C  2B7E               	goto	u2400
  4773  037D                     u2401:
  4774  037D  2B89               	goto	l2168
  4775  037E                     u2400:
  4776  037E                     l2166:
  4777  037E  307F               	movlw	127
  4778  037F  1283               	bcf	3,5	;RP0=0, select bank0
  4779  0380  1303               	bcf	3,6	;RP1=0, select bank0
  4780  0381  00B2               	movwf	___flmul@prod+3
  4781  0382  3080               	movlw	128
  4782  0383  00B1               	movwf	___flmul@prod+2
  4783  0384  3000               	movlw	0
  4784  0385  00B0               	movwf	___flmul@prod+1
  4785  0386  3000               	movlw	0
  4786  0387  00AF               	movwf	___flmul@prod
  4787  0388  2BBE               	goto	l704
  4788  0389                     l2168:
  4789  0389  1283               	bcf	3,5	;RP0=0, select bank0
  4790  038A  1303               	bcf	3,6	;RP1=0, select bank0
  4791  038B  0834               	movf	___flmul@temp+1,w
  4792  038C  3A80               	xorlw	128
  4793  038D  00FF               	movwf	btemp+1
  4794  038E  3080               	movlw	128
  4795  038F  027F               	subwf	btemp+1,w
  4796  0390  1D03               	skipz
  4797  0391  2B94               	goto	u2415
  4798  0392  3001               	movlw	1
  4799  0393  0233               	subwf	___flmul@temp,w
  4800  0394                     u2415:
  4801  0394  1803               	skipnc
  4802  0395  2B97               	goto	u2411
  4803  0396  2B98               	goto	u2410
  4804  0397                     u2411:
  4805  0397  2BA4               	goto	l2174
  4806  0398                     u2410:
  4807  0398                     l2170:
  4808  0398  3000               	movlw	0
  4809  0399  1283               	bcf	3,5	;RP0=0, select bank0
  4810  039A  1303               	bcf	3,6	;RP1=0, select bank0
  4811  039B  00B2               	movwf	___flmul@prod+3
  4812  039C  3000               	movlw	0
  4813  039D  00B1               	movwf	___flmul@prod+2
  4814  039E  3000               	movlw	0
  4815  039F  00B0               	movwf	___flmul@prod+1
  4816  03A0  3000               	movlw	0
  4817  03A1  00AF               	movwf	___flmul@prod
  4818  03A2                     l2172:
  4819  03A2  01A8               	clrf	___flmul@sign
  4820  03A3  2BBE               	goto	l704
  4821  03A4                     l2174:
  4822  03A4  1283               	bcf	3,5	;RP0=0, select bank0
  4823  03A5  1303               	bcf	3,6	;RP1=0, select bank0
  4824  03A6  0833               	movf	___flmul@temp,w
  4825  03A7  00F9               	movwf	??___flmul
  4826  03A8  0879               	movf	??___flmul,w
  4827  03A9  00AE               	movwf	___flmul@bexp
  4828  03AA  30FF               	movlw	255
  4829  03AB  05AF               	andwf	___flmul@prod,f
  4830  03AC  30FF               	movlw	255
  4831  03AD  05B0               	andwf	___flmul@prod+1,f
  4832  03AE  307F               	movlw	127
  4833  03AF  05B1               	andwf	___flmul@prod+2,f
  4834  03B0  3000               	movlw	0
  4835  03B1  05B2               	andwf	___flmul@prod+3,f
  4836  03B2                     l2176:
  4837  03B2  1C2E               	btfss	___flmul@bexp,0
  4838  03B3  2BB5               	goto	u2421
  4839  03B4  2BB6               	goto	u2420
  4840  03B5                     u2421:
  4841  03B5  2BB7               	goto	l2180
  4842  03B6                     u2420:
  4843  03B6                     l2178:
  4844  03B6  17B1               	bsf	___flmul@prod+2,7
  4845  03B7                     l2180:
  4846  03B7  082E               	movf	___flmul@bexp,w
  4847  03B8  00F9               	movwf	??___flmul
  4848  03B9  1003               	clrc
  4849  03BA  0C79               	rrf	??___flmul,w
  4850  03BB  00FA               	movwf	??___flmul+1
  4851  03BC  087A               	movf	??___flmul+1,w
  4852  03BD  00B2               	movwf	___flmul@prod+3
  4853  03BE                     l704:
  4854  03BE  0828               	movf	___flmul@sign,w
  4855  03BF  00F9               	movwf	??___flmul
  4856  03C0  0879               	movf	??___flmul,w
  4857  03C1  04B2               	iorwf	___flmul@prod+3,f
  4858  03C2                     l2182:
  4859  03C2  0832               	movf	___flmul@prod+3,w
  4860  03C3  00A3               	movwf	?___flmul+3
  4861  03C4  0831               	movf	___flmul@prod+2,w
  4862  03C5  00A2               	movwf	?___flmul+2
  4863  03C6  0830               	movf	___flmul@prod+1,w
  4864  03C7  00A1               	movwf	?___flmul+1
  4865  03C8  082F               	movf	___flmul@prod,w
  4866  03C9  00A0               	movwf	?___flmul
  4867  03CA                     l692:
  4868  03CA  0008               	return
  4869  03CB                     __end_of___flmul:
  4870                           
  4871                           	psect	text7
  4872  15B3                     __ptext7:	
  4873 ;; *************** function __Umul8_16 *****************
  4874 ;; Defined at:
  4875 ;;		line 4 in file "C:\Program Files\Microchip\xc8\v2.32\pic\sources\c90\common\Umul8_16.c"
  4876 ;; Parameters:    Size  Location     Type
  4877 ;;  multiplier      1    wreg     unsigned char 
  4878 ;;  multiplicand    1    0[COMMON] unsigned char 
  4879 ;; Auto vars:     Size  Location     Type
  4880 ;;  multiplier      1    8[COMMON] unsigned char 
  4881 ;;  word_mpld       2    6[COMMON] unsigned int 
  4882 ;;  product         2    4[COMMON] unsigned int 
  4883 ;; Return value:  Size  Location     Type
  4884 ;;                  2    0[COMMON] unsigned int 
  4885 ;; Registers used:
  4886 ;;		wreg, status,2, status,0
  4887 ;; Tracked objects:
  4888 ;;		On entry : 0/0
  4889 ;;		On exit  : 0/0
  4890 ;;		Unchanged: 0/0
  4891 ;; Data sizes:     COMMON   BANK0   BANK1   BANK3   BANK2
  4892 ;;      Params:         2       0       0       0       0
  4893 ;;      Locals:         5       0       0       0       0
  4894 ;;      Temps:          2       0       0       0       0
  4895 ;;      Totals:         9       0       0       0       0
  4896 ;;Total ram usage:        9 bytes
  4897 ;; Hardware stack levels used: 1
  4898 ;; This function calls:
  4899 ;;		Nothing
  4900 ;; This function is called by:
  4901 ;;		___flmul
  4902 ;; This function uses a non-reentrant model
  4903 ;;
  4904                           
  4905                           
  4906                           ;psect for function __Umul8_16
  4907  15B3                     __Umul8_16:
  4908                           
  4909                           ;incstack = 0
  4910                           ; Regs used in __Umul8_16: [wreg+status,2+status,0]
  4911                           ;__Umul8_16@multiplier stored from wreg
  4912  15B3  00F8               	movwf	__Umul8_16@multiplier
  4913  15B4                     l1996:
  4914  15B4  01F4               	clrf	__Umul8_16@product
  4915  15B5  01F5               	clrf	__Umul8_16@product+1
  4916  15B6                     l1998:
  4917  15B6  0870               	movf	__Umul8_16@multiplicand,w
  4918  15B7  00F2               	movwf	??__Umul8_16
  4919  15B8  01F3               	clrf	??__Umul8_16+1
  4920  15B9  0872               	movf	??__Umul8_16,w
  4921  15BA  00F6               	movwf	__Umul8_16@word_mpld
  4922  15BB  0873               	movf	??__Umul8_16+1,w
  4923  15BC  00F7               	movwf	__Umul8_16@word_mpld+1
  4924  15BD                     l2000:
  4925  15BD  1C78               	btfss	__Umul8_16@multiplier,0
  4926  15BE  2DC0               	goto	u1951
  4927  15BF  2DC1               	goto	u1950
  4928  15C0                     u1951:
  4929  15C0  2DC7               	goto	l711
  4930  15C1                     u1950:
  4931  15C1                     l2002:
  4932  15C1  0876               	movf	__Umul8_16@word_mpld,w
  4933  15C2  07F4               	addwf	__Umul8_16@product,f
  4934  15C3  1803               	skipnc
  4935  15C4  0AF5               	incf	__Umul8_16@product+1,f
  4936  15C5  0877               	movf	__Umul8_16@word_mpld+1,w
  4937  15C6  07F5               	addwf	__Umul8_16@product+1,f
  4938  15C7                     l711:
  4939  15C7  3001               	movlw	1
  4940  15C8                     u1965:
  4941  15C8  1003               	clrc
  4942  15C9  0DF6               	rlf	__Umul8_16@word_mpld,f
  4943  15CA  0DF7               	rlf	__Umul8_16@word_mpld+1,f
  4944  15CB  3EFF               	addlw	-1
  4945  15CC  1D03               	skipz
  4946  15CD  2DC8               	goto	u1965
  4947  15CE  1003               	clrc
  4948  15CF  0CF8               	rrf	__Umul8_16@multiplier,f
  4949  15D0                     l2004:
  4950  15D0  0878               	movf	__Umul8_16@multiplier,w
  4951  15D1  1D03               	btfss	3,2
  4952  15D2  2DD4               	goto	u1971
  4953  15D3  2DD5               	goto	u1970
  4954  15D4                     u1971:
  4955  15D4  2DBD               	goto	l2000
  4956  15D5                     u1970:
  4957  15D5                     l2006:
  4958  15D5  0875               	movf	__Umul8_16@product+1,w
  4959  15D6  00F1               	movwf	?__Umul8_16+1
  4960  15D7  0874               	movf	__Umul8_16@product,w
  4961  15D8  00F0               	movwf	?__Umul8_16
  4962  15D9                     l713:
  4963  15D9  0008               	return
  4964  15DA                     __end_of__Umul8_16:
  4965                           
  4966                           	psect	text8
  4967  175E                     __ptext8:	
  4968 ;; *************** function ___flge *****************
  4969 ;; Defined at:
  4970 ;;		line 4 in file "C:\Program Files\Microchip\xc8\v2.32\pic\sources\c90\common\flge.c"
  4971 ;; Parameters:    Size  Location     Type
  4972 ;;  ff1             4    0[COMMON] unsigned int 
  4973 ;;  ff2             4    4[COMMON] unsigned int 
  4974 ;; Auto vars:     Size  Location     Type
  4975 ;;		None
  4976 ;; Return value:  Size  Location     Type
  4977 ;;		None               void
  4978 ;; Registers used:
  4979 ;;		wreg, status,2, status,0
  4980 ;; Tracked objects:
  4981 ;;		On entry : 0/0
  4982 ;;		On exit  : 0/0
  4983 ;;		Unchanged: 0/0
  4984 ;; Data sizes:     COMMON   BANK0   BANK1   BANK3   BANK2
  4985 ;;      Params:         8       0       0       0       0
  4986 ;;      Locals:         0       0       0       0       0
  4987 ;;      Temps:          4       0       0       0       0
  4988 ;;      Totals:        12       0       0       0       0
  4989 ;;Total ram usage:       12 bytes
  4990 ;; Hardware stack levels used: 1
  4991 ;; This function calls:
  4992 ;;		Nothing
  4993 ;; This function is called by:
  4994 ;;		_liga_buzzer
  4995 ;; This function uses a non-reentrant model
  4996 ;;
  4997                           
  4998                           
  4999                           ;psect for function ___flge
  5000  175E                     ___flge:
  5001  175E                     l2020:	
  5002                           ;incstack = 0
  5003                           ; Regs used in ___flge: [wreg+status,2+status,0]
  5004                           
  5005  175E  3000               	movlw	0
  5006  175F  0570               	andwf	___flge@ff1,w
  5007  1760  00F8               	movwf	??___flge
  5008  1761  3000               	movlw	0
  5009  1762  0571               	andwf	___flge@ff1+1,w
  5010  1763  00F9               	movwf	??___flge+1
  5011  1764  3080               	movlw	128
  5012  1765  0572               	andwf	___flge@ff1+2,w
  5013  1766  00FA               	movwf	??___flge+2
  5014  1767  307F               	movlw	127
  5015  1768  0573               	andwf	___flge@ff1+3,w
  5016  1769  00FB               	movwf	??___flge+3
  5017  176A  087B               	movf	??___flge+3,w
  5018  176B  047A               	iorwf	??___flge+2,w
  5019  176C  0479               	iorwf	??___flge+1,w
  5020  176D  0478               	iorwf	??___flge,w
  5021  176E  1D03               	skipz
  5022  176F  2F71               	goto	u1991
  5023  1770  2F72               	goto	u1990
  5024  1771                     u1991:
  5025  1771  2F7A               	goto	l477
  5026  1772                     u1990:
  5027  1772                     l2022:
  5028  1772  3000               	movlw	0
  5029  1773  00F3               	movwf	___flge@ff1+3
  5030  1774  3000               	movlw	0
  5031  1775  00F2               	movwf	___flge@ff1+2
  5032  1776  3000               	movlw	0
  5033  1777  00F1               	movwf	___flge@ff1+1
  5034  1778  3000               	movlw	0
  5035  1779  00F0               	movwf	___flge@ff1
  5036  177A                     l477:
  5037  177A  3000               	movlw	0
  5038  177B  0574               	andwf	___flge@ff2,w
  5039  177C  00F8               	movwf	??___flge
  5040  177D  3000               	movlw	0
  5041  177E  0575               	andwf	___flge@ff2+1,w
  5042  177F  00F9               	movwf	??___flge+1
  5043  1780  3080               	movlw	128
  5044  1781  0576               	andwf	___flge@ff2+2,w
  5045  1782  00FA               	movwf	??___flge+2
  5046  1783  307F               	movlw	127
  5047  1784  0577               	andwf	___flge@ff2+3,w
  5048  1785  00FB               	movwf	??___flge+3
  5049  1786  087B               	movf	??___flge+3,w
  5050  1787  047A               	iorwf	??___flge+2,w
  5051  1788  0479               	iorwf	??___flge+1,w
  5052  1789  0478               	iorwf	??___flge,w
  5053  178A  1D03               	skipz
  5054  178B  2F8D               	goto	u2001
  5055  178C  2F8E               	goto	u2000
  5056  178D                     u2001:
  5057  178D  2F96               	goto	l2026
  5058  178E                     u2000:
  5059  178E                     l2024:
  5060  178E  3000               	movlw	0
  5061  178F  00F7               	movwf	___flge@ff2+3
  5062  1790  3000               	movlw	0
  5063  1791  00F6               	movwf	___flge@ff2+2
  5064  1792  3000               	movlw	0
  5065  1793  00F5               	movwf	___flge@ff2+1
  5066  1794  3000               	movlw	0
  5067  1795  00F4               	movwf	___flge@ff2
  5068  1796                     l2026:
  5069  1796  1FF3               	btfss	___flge@ff1+3,7
  5070  1797  2F99               	goto	u2011
  5071  1798  2F9A               	goto	u2010
  5072  1799                     u2011:
  5073  1799  2FBE               	goto	l2030
  5074  179A                     u2010:
  5075  179A                     l2028:
  5076  179A  3000               	movlw	0
  5077  179B  00F8               	movwf	??___flge
  5078  179C  3000               	movlw	0
  5079  179D  00F9               	movwf	??___flge+1
  5080  179E  3000               	movlw	0
  5081  179F  00FA               	movwf	??___flge+2
  5082  17A0  3080               	movlw	128
  5083  17A1  00FB               	movwf	??___flge+3
  5084  17A2  0870               	movf	___flge@ff1,w
  5085  17A3  02F8               	subwf	??___flge,f
  5086  17A4  0871               	movf	___flge@ff1+1,w
  5087  17A5  1C03               	skipc
  5088  17A6  0F71               	incfsz	___flge@ff1+1,w
  5089  17A7  2FA9               	goto	u2021
  5090  17A8  2FAA               	goto	u2022
  5091  17A9                     u2021:
  5092  17A9  02F9               	subwf	??___flge+1,f
  5093  17AA                     u2022:
  5094  17AA  0872               	movf	___flge@ff1+2,w
  5095  17AB  1C03               	skipc
  5096  17AC  0F72               	incfsz	___flge@ff1+2,w
  5097  17AD  2FAF               	goto	u2023
  5098  17AE  2FB0               	goto	u2024
  5099  17AF                     u2023:
  5100  17AF  02FA               	subwf	??___flge+2,f
  5101  17B0                     u2024:
  5102  17B0  0873               	movf	___flge@ff1+3,w
  5103  17B1  1C03               	skipc
  5104  17B2  0F73               	incfsz	___flge@ff1+3,w
  5105  17B3  2FB5               	goto	u2025
  5106  17B4  2FB6               	goto	u2026
  5107  17B5                     u2025:
  5108  17B5  02FB               	subwf	??___flge+3,f
  5109  17B6                     u2026:
  5110  17B6  087B               	movf	??___flge+3,w
  5111  17B7  00F3               	movwf	___flge@ff1+3
  5112  17B8  087A               	movf	??___flge+2,w
  5113  17B9  00F2               	movwf	___flge@ff1+2
  5114  17BA  0879               	movf	??___flge+1,w
  5115  17BB  00F1               	movwf	___flge@ff1+1
  5116  17BC  0878               	movf	??___flge,w
  5117  17BD  00F0               	movwf	___flge@ff1
  5118  17BE                     l2030:
  5119  17BE  1FF7               	btfss	___flge@ff2+3,7
  5120  17BF  2FC1               	goto	u2031
  5121  17C0  2FC2               	goto	u2030
  5122  17C1                     u2031:
  5123  17C1  2FE6               	goto	l480
  5124  17C2                     u2030:
  5125  17C2                     l2032:
  5126  17C2  3000               	movlw	0
  5127  17C3  00F8               	movwf	??___flge
  5128  17C4  3000               	movlw	0
  5129  17C5  00F9               	movwf	??___flge+1
  5130  17C6  3000               	movlw	0
  5131  17C7  00FA               	movwf	??___flge+2
  5132  17C8  3080               	movlw	128
  5133  17C9  00FB               	movwf	??___flge+3
  5134  17CA  0874               	movf	___flge@ff2,w
  5135  17CB  02F8               	subwf	??___flge,f
  5136  17CC  0875               	movf	___flge@ff2+1,w
  5137  17CD  1C03               	skipc
  5138  17CE  0F75               	incfsz	___flge@ff2+1,w
  5139  17CF  2FD1               	goto	u2041
  5140  17D0  2FD2               	goto	u2042
  5141  17D1                     u2041:
  5142  17D1  02F9               	subwf	??___flge+1,f
  5143  17D2                     u2042:
  5144  17D2  0876               	movf	___flge@ff2+2,w
  5145  17D3  1C03               	skipc
  5146  17D4  0F76               	incfsz	___flge@ff2+2,w
  5147  17D5  2FD7               	goto	u2043
  5148  17D6  2FD8               	goto	u2044
  5149  17D7                     u2043:
  5150  17D7  02FA               	subwf	??___flge+2,f
  5151  17D8                     u2044:
  5152  17D8  0877               	movf	___flge@ff2+3,w
  5153  17D9  1C03               	skipc
  5154  17DA  0F77               	incfsz	___flge@ff2+3,w
  5155  17DB  2FDD               	goto	u2045
  5156  17DC  2FDE               	goto	u2046
  5157  17DD                     u2045:
  5158  17DD  02FB               	subwf	??___flge+3,f
  5159  17DE                     u2046:
  5160  17DE  087B               	movf	??___flge+3,w
  5161  17DF  00F7               	movwf	___flge@ff2+3
  5162  17E0  087A               	movf	??___flge+2,w
  5163  17E1  00F6               	movwf	___flge@ff2+2
  5164  17E2  0879               	movf	??___flge+1,w
  5165  17E3  00F5               	movwf	___flge@ff2+1
  5166  17E4  0878               	movf	??___flge,w
  5167  17E5  00F4               	movwf	___flge@ff2
  5168  17E6                     l480:
  5169  17E6  3080               	movlw	128
  5170  17E7  06F3               	xorwf	___flge@ff1+3,f
  5171  17E8  3080               	movlw	128
  5172  17E9  06F7               	xorwf	___flge@ff2+3,f
  5173  17EA  0877               	movf	___flge@ff2+3,w
  5174  17EB  0273               	subwf	___flge@ff1+3,w
  5175  17EC  1D03               	skipz
  5176  17ED  2FF8               	goto	u2055
  5177  17EE  0876               	movf	___flge@ff2+2,w
  5178  17EF  0272               	subwf	___flge@ff1+2,w
  5179  17F0  1D03               	skipz
  5180  17F1  2FF8               	goto	u2055
  5181  17F2  0875               	movf	___flge@ff2+1,w
  5182  17F3  0271               	subwf	___flge@ff1+1,w
  5183  17F4  1D03               	skipz
  5184  17F5  2FF8               	goto	u2055
  5185  17F6  0874               	movf	___flge@ff2,w
  5186  17F7  0270               	subwf	___flge@ff1,w
  5187  17F8                     u2055:
  5188  17F8  1803               	skipnc
  5189  17F9  2FFB               	goto	u2051
  5190  17FA  2FFC               	goto	u2050
  5191  17FB                     u2051:
  5192  17FB  2FFE               	goto	l2036
  5193  17FC                     u2050:
  5194  17FC                     l2034:
  5195  17FC  1003               	clrc
  5196  17FD  2FFF               	goto	l481
  5197  17FE                     l2036:
  5198  17FE  1403               	setc
  5199  17FF                     l481:
  5200  17FF  0008               	return
  5201  1800                     __end_of___flge:
  5202                           
  5203                           	psect	text9
  5204  1571                     __ptext9:	
  5205 ;; *************** function _strcpy *****************
  5206 ;; Defined at:
  5207 ;;		line 8 in file "C:\Program Files\Microchip\xc8\v2.32\pic\sources\c90\common\strcpy.c"
  5208 ;; Parameters:    Size  Location     Type
  5209 ;;  to              1    wreg     PTR unsigned char 
  5210 ;;		 -> senhaUserConfere(5), 
  5211 ;;  from            1    0[COMMON] PTR const unsigned char 
  5212 ;;		 -> senhaUserConfere(5), 
  5213 ;; Auto vars:     Size  Location     Type
  5214 ;;  to              1    3[COMMON] PTR unsigned char 
  5215 ;;		 -> senhaUserConfere(5), 
  5216 ;;  cp              1    2[COMMON] PTR unsigned char 
  5217 ;;		 -> senhaUserConfere(5), 
  5218 ;; Return value:  Size  Location     Type
  5219 ;;                  1    wreg      PTR unsigned char 
  5220 ;; Registers used:
  5221 ;;		wreg, fsr0l, fsr0h, status,2, status,0
  5222 ;; Tracked objects:
  5223 ;;		On entry : 0/0
  5224 ;;		On exit  : 0/0
  5225 ;;		Unchanged: 0/0
  5226 ;; Data sizes:     COMMON   BANK0   BANK1   BANK3   BANK2
  5227 ;;      Params:         1       0       0       0       0
  5228 ;;      Locals:         2       0       0       0       0
  5229 ;;      Temps:          1       0       0       0       0
  5230 ;;      Totals:         4       0       0       0       0
  5231 ;;Total ram usage:        4 bytes
  5232 ;; Hardware stack levels used: 1
  5233 ;; This function calls:
  5234 ;;		Nothing
  5235 ;; This function is called by:
  5236 ;;		_validaUser
  5237 ;; This function uses a non-reentrant model
  5238 ;;
  5239                           
  5240                           
  5241                           ;psect for function _strcpy
  5242  1571                     _strcpy:
  5243                           
  5244                           ;incstack = 0
  5245                           ; Regs used in _strcpy: [wreg-fsr0h+status,2+status,0]
  5246                           ;strcpy@to stored from wreg
  5247  1571  00F3               	movwf	strcpy@to
  5248  1572                     l2444:
  5249  1572  0873               	movf	strcpy@to,w
  5250  1573  00F1               	movwf	??_strcpy
  5251  1574  0871               	movf	??_strcpy,w
  5252  1575  00F2               	movwf	strcpy@cp
  5253  1576  2D7F               	goto	l2448
  5254  1577                     l2446:
  5255  1577  3001               	movlw	1
  5256  1578  00F1               	movwf	??_strcpy
  5257  1579  0871               	movf	??_strcpy,w
  5258  157A  07F2               	addwf	strcpy@cp,f
  5259  157B  3001               	movlw	1
  5260  157C  00F1               	movwf	??_strcpy
  5261  157D  0871               	movf	??_strcpy,w
  5262  157E  07F0               	addwf	strcpy@from,f
  5263  157F                     l2448:
  5264  157F  0870               	movf	strcpy@from,w
  5265  1580  0084               	movwf	4
  5266  1581  1383               	bcf	3,7	;select IRP bank0
  5267  1582  0800               	movf	0,w
  5268  1583  00F1               	movwf	??_strcpy
  5269  1584  0872               	movf	strcpy@cp,w
  5270  1585  0084               	movwf	4
  5271  1586  0871               	movf	??_strcpy,w
  5272  1587  0080               	movwf	0
  5273  1588  0800               	movf	0,w
  5274  1589  1D03               	btfss	3,2
  5275  158A  2D8C               	goto	u2711
  5276  158B  2D8D               	goto	u2710
  5277  158C                     u2711:
  5278  158C  2D77               	goto	l2446
  5279  158D                     u2710:
  5280  158D                     l2450:
  5281  158D  0873               	movf	strcpy@to,w
  5282  158E                     l774:
  5283  158E  0008               	return
  5284  158F                     __end_of_strcpy:
  5285                           
  5286                           	psect	text10
  5287  0003                     __ptext10:	
  5288 ;; *************** function _strcmp *****************
  5289 ;; Defined at:
  5290 ;;		line 33 in file "C:\Program Files\Microchip\xc8\v2.32\pic\sources\c90\common\strcmp.c"
  5291 ;; Parameters:    Size  Location     Type
  5292 ;;  s1              1    wreg     PTR const unsigned char 
  5293 ;;		 -> senhaUser(5), 
  5294 ;;  s2              1    0[COMMON] PTR const unsigned char 
  5295 ;;		 -> senhaUserConfere(5), 
  5296 ;; Auto vars:     Size  Location     Type
  5297 ;;  s1              1    6[COMMON] PTR const unsigned char 
  5298 ;;		 -> senhaUser(5), 
  5299 ;;  r               1    5[COMMON] char 
  5300 ;; Return value:  Size  Location     Type
  5301 ;;                  2    0[COMMON] int 
  5302 ;; Registers used:
  5303 ;;		wreg, fsr0l, fsr0h, status,2, status,0
  5304 ;; Tracked objects:
  5305 ;;		On entry : 0/0
  5306 ;;		On exit  : 0/0
  5307 ;;		Unchanged: 0/0
  5308 ;; Data sizes:     COMMON   BANK0   BANK1   BANK3   BANK2
  5309 ;;      Params:         2       0       0       0       0
  5310 ;;      Locals:         2       0       0       0       0
  5311 ;;      Temps:          3       0       0       0       0
  5312 ;;      Totals:         7       0       0       0       0
  5313 ;;Total ram usage:        7 bytes
  5314 ;; Hardware stack levels used: 1
  5315 ;; This function calls:
  5316 ;;		Nothing
  5317 ;; This function is called by:
  5318 ;;		_validaUser
  5319 ;; This function uses a non-reentrant model
  5320 ;;
  5321                           
  5322                           
  5323                           ;psect for function _strcmp
  5324  0003                     _strcmp:
  5325                           
  5326                           ;incstack = 0
  5327                           ; Regs used in _strcmp: [wreg-fsr0h+status,2+status,0]
  5328                           ;strcmp@s1 stored from wreg
  5329  0003  00F6               	movwf	strcmp@s1
  5330  0004                     l2464:
  5331  0004  280D               	goto	l2470
  5332  0005                     l2466:
  5333  0005  3001               	movlw	1
  5334  0006  00F2               	movwf	??_strcmp
  5335  0007  0872               	movf	??_strcmp,w
  5336  0008  07F6               	addwf	strcmp@s1,f
  5337  0009                     l2468:
  5338  0009  3001               	movlw	1
  5339  000A  00F2               	movwf	??_strcmp
  5340  000B  0872               	movf	??_strcmp,w
  5341  000C  07F0               	addwf	strcmp@s2,f
  5342  000D                     l2470:
  5343  000D  0870               	movf	strcmp@s2,w
  5344  000E  0084               	movwf	4
  5345  000F  1383               	bcf	3,7	;select IRP bank0
  5346  0010  0800               	movf	0,w
  5347  0011  00F2               	movwf	??_strcmp
  5348  0012  0876               	movf	strcmp@s1,w
  5349  0013  0084               	movwf	4
  5350  0014  0800               	movf	0,w
  5351  0015  00F3               	movwf	??_strcmp+1
  5352  0016  0872               	movf	??_strcmp,w
  5353  0017  0273               	subwf	??_strcmp+1,w
  5354  0018  00F4               	movwf	??_strcmp+2
  5355  0019  0874               	movf	??_strcmp+2,w
  5356  001A  00F5               	movwf	strcmp@r
  5357  001B  0875               	movf	strcmp@r,w
  5358  001C  1D03               	btfss	3,2
  5359  001D  281F               	goto	u2741
  5360  001E  2820               	goto	u2740
  5361  001F                     u2741:
  5362  001F  2827               	goto	l2474
  5363  0020                     u2740:
  5364  0020                     l2472:
  5365  0020  0876               	movf	strcmp@s1,w
  5366  0021  0084               	movwf	4
  5367  0022  0800               	movf	0,w
  5368  0023  1D03               	btfss	3,2
  5369  0024  2826               	goto	u2751
  5370  0025  2827               	goto	u2750
  5371  0026                     u2751:
  5372  0026  2805               	goto	l2466
  5373  0027                     u2750:
  5374  0027                     l2474:
  5375  0027  0875               	movf	strcmp@r,w
  5376  0028  00F0               	movwf	?_strcmp
  5377  0029  01F1               	clrf	?_strcmp+1
  5378  002A  1BF0               	btfsc	?_strcmp,7
  5379  002B  03F1               	decf	?_strcmp+1,f
  5380  002C                     l768:
  5381  002C  0008               	return
  5382  002D                     __end_of_strcmp:
  5383                           
  5384                           	psect	text11
  5385  1604                     __ptext11:	
  5386 ;; *************** function _strcat *****************
  5387 ;; Defined at:
  5388 ;;		line 8 in file "C:\Program Files\Microchip\xc8\v2.32\pic\sources\c90\common\strcat.c"
  5389 ;; Parameters:    Size  Location     Type
  5390 ;;  to              1    wreg     PTR unsigned char 
  5391 ;;		 -> senhaUserConfere(5), 
  5392 ;;  from            1    4[COMMON] PTR const unsigned char 
  5393 ;;		 -> NULL(0), STR_10(2), STR_9(2), STR_8(2), 
  5394 ;;		 -> STR_7(2), STR_6(2), STR_5(2), STR_4(2), 
  5395 ;;		 -> STR_3(2), STR_2(2), STR_1(2), 
  5396 ;; Auto vars:     Size  Location     Type
  5397 ;;  to              1    6[COMMON] PTR unsigned char 
  5398 ;;		 -> senhaUserConfere(5), 
  5399 ;;  cp              1    7[COMMON] PTR unsigned char 
  5400 ;;		 -> senhaUserConfere(5), 
  5401 ;; Return value:  Size  Location     Type
  5402 ;;                  1    wreg      PTR unsigned char 
  5403 ;; Registers used:
  5404 ;;		wreg, fsr0l, fsr0h, status,2, status,0, pclath
  5405 ;; Tracked objects:
  5406 ;;		On entry : 0/0
  5407 ;;		On exit  : 0/0
  5408 ;;		Unchanged: 0/0
  5409 ;; Data sizes:     COMMON   BANK0   BANK1   BANK3   BANK2
  5410 ;;      Params:         1       0       0       0       0
  5411 ;;      Locals:         2       0       0       0       0
  5412 ;;      Temps:          1       0       0       0       0
  5413 ;;      Totals:         4       0       0       0       0
  5414 ;;Total ram usage:        4 bytes
  5415 ;; Hardware stack levels used: 2
  5416 ;; This function calls:
  5417 ;;		Nothing
  5418 ;; This function is called by:
  5419 ;;		_validaUser
  5420 ;; This function uses a non-reentrant model
  5421 ;;
  5422                           
  5423                           
  5424                           ;psect for function _strcat
  5425  1604                     _strcat:
  5426                           
  5427                           ;incstack = 0
  5428                           ; Regs used in _strcat: [wreg-fsr0h+status,2+status,0+pclath]
  5429                           ;strcat@to stored from wreg
  5430  1604  00F6               	movwf	strcat@to
  5431  1605                     l2454:
  5432  1605  0876               	movf	strcat@to,w
  5433  1606  00F5               	movwf	??_strcat
  5434  1607  0875               	movf	??_strcat,w
  5435  1608  00F7               	movwf	strcat@cp
  5436  1609  2E0E               	goto	l2458
  5437  160A                     l2456:
  5438  160A  3001               	movlw	1
  5439  160B  00F5               	movwf	??_strcat
  5440  160C  0875               	movf	??_strcat,w
  5441  160D  07F7               	addwf	strcat@cp,f
  5442  160E                     l2458:
  5443  160E  0877               	movf	strcat@cp,w
  5444  160F  0084               	movwf	4
  5445  1610  1383               	bcf	3,7	;select IRP bank0
  5446  1611  0800               	movf	0,w
  5447  1612  1D03               	btfss	3,2
  5448  1613  2E15               	goto	u2721
  5449  1614  2E16               	goto	u2720
  5450  1615                     u2721:
  5451  1615  2E0A               	goto	l2456
  5452  1616                     u2720:
  5453  1616  2E1F               	goto	l2462
  5454  1617                     l2460:
  5455  1617  3001               	movlw	1
  5456  1618  00F5               	movwf	??_strcat
  5457  1619  0875               	movf	??_strcat,w
  5458  161A  07F7               	addwf	strcat@cp,f
  5459  161B  3001               	movlw	1
  5460  161C  00F5               	movwf	??_strcat
  5461  161D  0875               	movf	??_strcat,w
  5462  161E  07F4               	addwf	strcat@from,f
  5463  161F                     l2462:
  5464  161F  0874               	movf	strcat@from,w
  5465  1620  0084               	movwf	4
  5466  1621  160A  118A  2000  160A  118A  	fcall	stringdir
  5467  1626  00F5               	movwf	??_strcat
  5468  1627  0877               	movf	strcat@cp,w
  5469  1628  0084               	movwf	4
  5470  1629  0875               	movf	??_strcat,w
  5471  162A  0080               	movwf	0
  5472  162B  0800               	movf	0,w
  5473  162C  1D03               	btfss	3,2
  5474  162D  2E2F               	goto	u2731
  5475  162E  2E30               	goto	u2730
  5476  162F                     u2731:
  5477  162F  2E17               	goto	l2460
  5478  1630                     u2730:
  5479  1630                     l760:
  5480  1630  0008               	return
  5481  1631                     __end_of_strcat:
  5482                           
  5483                           	psect	text12
  5484  002D                     __ptext12:	
  5485 ;; *************** function _telaInicial *****************
  5486 ;; Defined at:
  5487 ;;		line 324 in file "main.c"
  5488 ;; Parameters:    Size  Location     Type
  5489 ;;		None
  5490 ;; Auto vars:     Size  Location     Type
  5491 ;;  i               2    7[COMMON] int 
  5492 ;; Return value:  Size  Location     Type
  5493 ;;                  1    wreg      void 
  5494 ;; Registers used:
  5495 ;;		wreg, fsr0l, fsr0h, status,2, status,0, btemp+1, pclath, cstack
  5496 ;; Tracked objects:
  5497 ;;		On entry : 0/0
  5498 ;;		On exit  : 0/0
  5499 ;;		Unchanged: 0/0
  5500 ;; Data sizes:     COMMON   BANK0   BANK1   BANK3   BANK2
  5501 ;;      Params:         0       0       0       0       0
  5502 ;;      Locals:         2       0       0       0       0
  5503 ;;      Temps:          2       0       0       0       0
  5504 ;;      Totals:         4       0       0       0       0
  5505 ;;Total ram usage:        4 bytes
  5506 ;; Hardware stack levels used: 1
  5507 ;; Hardware stack levels required when called: 2
  5508 ;; This function calls:
  5509 ;;		_LCD_escreve
  5510 ;;		_LCD_linha1
  5511 ;;		_strlen
  5512 ;; This function is called by:
  5513 ;;		_main
  5514 ;; This function uses a non-reentrant model
  5515 ;;
  5516                           
  5517                           
  5518                           ;psect for function _telaInicial
  5519  002D                     _telaInicial:
  5520  002D                     l2500:	
  5521                           ;incstack = 0
  5522                           ; Regs used in _telaInicial: [wreg-fsr0h+status,2+status,0+btemp+1+pclath+cstack]
  5523                           
  5524                           
  5525                           ;main.c: 326:     LCD_linha1();
  5526  002D  160A  118A  24FE  120A  118A  	fcall	_LCD_linha1
  5527                           
  5528                           ;main.c: 327:     LCD_escreve(' ');
  5529  0032  3020               	movlw	32
  5530  0033  160A  118A  251E  120A  118A  	fcall	_LCD_escreve
  5531  0038                     l2502:
  5532                           
  5533                           ;main.c: 328:     for (int i = 0; i <= strlen(msg)-1; i++){
  5534  0038  01F7               	clrf	telaInicial@i
  5535  0039  01F8               	clrf	telaInicial@i+1
  5536  003A  284B               	goto	l2508
  5537  003B                     l2504:
  5538                           
  5539                           ;main.c: 329:         LCD_escreve(msg[i]);
  5540  003B  0877               	movf	telaInicial@i,w
  5541  003C  3EA0               	addlw	(low (_msg| 0))& (0+255)
  5542  003D  0084               	movwf	4
  5543  003E  1383               	bcf	3,7	;select IRP bank1
  5544  003F  0800               	movf	0,w
  5545  0040  160A  118A  251E  120A  118A  	fcall	_LCD_escreve
  5546  0045                     l2506:
  5547                           
  5548                           ;main.c: 330:     }
  5549  0045  3001               	movlw	1
  5550  0046  07F7               	addwf	telaInicial@i,f
  5551  0047  1803               	skipnc
  5552  0048  0AF8               	incf	telaInicial@i+1,f
  5553  0049  3000               	movlw	0
  5554  004A  07F8               	addwf	telaInicial@i+1,f
  5555  004B                     l2508:
  5556  004B  30A0               	movlw	(low (_msg| 0))& (0+255)
  5557  004C  160A  118A  2558  120A  118A  	fcall	_strlen
  5558  0051  0870               	movf	?_strlen,w
  5559  0052  3EFF               	addlw	255
  5560  0053  00F5               	movwf	??_telaInicial
  5561  0054  0871               	movf	?_strlen+1,w
  5562  0055  1803               	skipnc
  5563  0056  3E01               	addlw	1
  5564  0057  3EFF               	addlw	255
  5565  0058  00F6               	movwf	??_telaInicial+1
  5566  0059  0878               	movf	telaInicial@i+1,w
  5567  005A  0276               	subwf	??_telaInicial+1,w
  5568  005B  1D03               	skipz
  5569  005C  285F               	goto	u2765
  5570  005D  0877               	movf	telaInicial@i,w
  5571  005E  0275               	subwf	??_telaInicial,w
  5572  005F                     u2765:
  5573  005F  1803               	skipnc
  5574  0060  2862               	goto	u2761
  5575  0061  2863               	goto	u2760
  5576  0062                     u2761:
  5577  0062  283B               	goto	l2504
  5578  0063                     u2760:
  5579  0063                     l2510:
  5580                           
  5581                           ;main.c: 331:     LCD_escreve(' ');
  5582  0063  3020               	movlw	32
  5583  0064  160A  118A  251E  120A  118A  	fcall	_LCD_escreve
  5584  0069                     l168:
  5585  0069  0008               	return
  5586  006A                     __end_of_telaInicial:
  5587                           
  5588                           	psect	text13
  5589  03CB                     __ptext13:	
  5590 ;; *************** function _listaZonas *****************
  5591 ;; Defined at:
  5592 ;;		line 488 in file "main.c"
  5593 ;; Parameters:    Size  Location     Type
  5594 ;;  valorSensor     2    3[COMMON] int 
  5595 ;; Auto vars:     Size  Location     Type
  5596 ;;		None
  5597 ;; Return value:  Size  Location     Type
  5598 ;;                  1    wreg      void 
  5599 ;; Registers used:
  5600 ;;		wreg, status,2, status,0, btemp+1, pclath, cstack
  5601 ;; Tracked objects:
  5602 ;;		On entry : 0/0
  5603 ;;		On exit  : 0/0
  5604 ;;		Unchanged: 0/0
  5605 ;; Data sizes:     COMMON   BANK0   BANK1   BANK3   BANK2
  5606 ;;      Params:         2       0       0       0       0
  5607 ;;      Locals:         0       0       0       0       0
  5608 ;;      Temps:          0       0       0       0       0
  5609 ;;      Totals:         2       0       0       0       0
  5610 ;;Total ram usage:        2 bytes
  5611 ;; Hardware stack levels used: 1
  5612 ;; Hardware stack levels required when called: 2
  5613 ;; This function calls:
  5614 ;;		_LCD_escreve
  5615 ;;		_LCD_limpa
  5616 ;;		_LCD_linha1
  5617 ;;		_LCD_linha2
  5618 ;; This function is called by:
  5619 ;;		_main
  5620 ;; This function uses a non-reentrant model
  5621 ;;
  5622                           
  5623                           
  5624                           ;psect for function _listaZonas
  5625  03CB                     _listaZonas:
  5626  03CB                     l2658:	
  5627                           ;incstack = 0
  5628                           ; Regs used in _listaZonas: [wreg+status,2+status,0+btemp+1+pclath+cstack]
  5629                           
  5630                           
  5631                           ;main.c: 489:     LCD_limpa();
  5632  03CB  160A  118A  24EE  120A  118A  	fcall	_LCD_limpa
  5633  03D0                     l2660:
  5634                           
  5635                           ;main.c: 490:     if (valorSensor == 1){
  5636  03D0  0373               	decf	listaZonas@valorSensor,w
  5637  03D1  0474               	iorwf	listaZonas@valorSensor+1,w
  5638  03D2  1D03               	btfss	3,2
  5639  03D3  2BD5               	goto	u2861
  5640  03D4  2BD6               	goto	u2860
  5641  03D5                     u2861:
  5642  03D5  2C88               	goto	l2664
  5643  03D6                     u2860:
  5644  03D6                     l2662:
  5645                           
  5646                           ;main.c: 491:         LCD_linha1();
  5647  03D6  160A  118A  24FE  120A  118A  	fcall	_LCD_linha1
  5648                           
  5649                           ;main.c: 492:         LCD_escreve('>');
  5650  03DB  303E               	movlw	62
  5651  03DC  160A  118A  251E  120A  118A  	fcall	_LCD_escreve
  5652                           
  5653                           ;main.c: 493:         LCD_escreve('S');
  5654  03E1  3053               	movlw	83
  5655  03E2  160A  118A  251E  120A  118A  	fcall	_LCD_escreve
  5656                           
  5657                           ;main.c: 494:         LCD_escreve('e');
  5658  03E7  3065               	movlw	101
  5659  03E8  160A  118A  251E  120A  118A  	fcall	_LCD_escreve
  5660                           
  5661                           ;main.c: 495:         LCD_escreve('n');
  5662  03ED  306E               	movlw	110
  5663  03EE  160A  118A  251E  120A  118A  	fcall	_LCD_escreve
  5664                           
  5665                           ;main.c: 496:         LCD_escreve('h');
  5666  03F3  3068               	movlw	104
  5667  03F4  160A  118A  251E  120A  118A  	fcall	_LCD_escreve
  5668                           
  5669                           ;main.c: 497:         LCD_escreve('a');
  5670  03F9  3061               	movlw	97
  5671  03FA  160A  118A  251E  120A  118A  	fcall	_LCD_escreve
  5672                           
  5673                           ;main.c: 498:         LCD_escreve(' ');
  5674  03FF  3020               	movlw	32
  5675  0400  160A  118A  251E  120A  118A  	fcall	_LCD_escreve
  5676                           
  5677                           ;main.c: 499:         LCD_escreve('C');
  5678  0405  3043               	movlw	67
  5679  0406  160A  118A  251E  120A  118A  	fcall	_LCD_escreve
  5680                           
  5681                           ;main.c: 500:         LCD_escreve('o');
  5682  040B  306F               	movlw	111
  5683  040C  160A  118A  251E  120A  118A  	fcall	_LCD_escreve
  5684                           
  5685                           ;main.c: 501:         LCD_escreve('n');
  5686  0411  306E               	movlw	110
  5687  0412  160A  118A  251E  120A  118A  	fcall	_LCD_escreve
  5688                           
  5689                           ;main.c: 502:         LCD_escreve('f');
  5690  0417  3066               	movlw	102
  5691  0418  160A  118A  251E  120A  118A  	fcall	_LCD_escreve
  5692                           
  5693                           ;main.c: 503:         LCD_escreve('i');
  5694  041D  3069               	movlw	105
  5695  041E  160A  118A  251E  120A  118A  	fcall	_LCD_escreve
  5696                           
  5697                           ;main.c: 504:         LCD_escreve('i');
  5698  0423  3069               	movlw	105
  5699  0424  160A  118A  251E  120A  118A  	fcall	_LCD_escreve
  5700                           
  5701                           ;main.c: 505:         LCD_escreve('g');
  5702  0429  3067               	movlw	103
  5703  042A  160A  118A  251E  120A  118A  	fcall	_LCD_escreve
  5704                           
  5705                           ;main.c: 507:         LCD_linha2();
  5706  042F  160A  118A  24DE  120A  118A  	fcall	_LCD_linha2
  5707                           
  5708                           ;main.c: 508:         LCD_escreve(' ');
  5709  0434  3020               	movlw	32
  5710  0435  160A  118A  251E  120A  118A  	fcall	_LCD_escreve
  5711                           
  5712                           ;main.c: 509:         LCD_escreve('S');
  5713  043A  3053               	movlw	83
  5714  043B  160A  118A  251E  120A  118A  	fcall	_LCD_escreve
  5715                           
  5716                           ;main.c: 510:         LCD_escreve('e');
  5717  0440  3065               	movlw	101
  5718  0441  160A  118A  251E  120A  118A  	fcall	_LCD_escreve
  5719                           
  5720                           ;main.c: 511:         LCD_escreve('n');
  5721  0446  306E               	movlw	110
  5722  0447  160A  118A  251E  120A  118A  	fcall	_LCD_escreve
  5723                           
  5724                           ;main.c: 512:         LCD_escreve('h');
  5725  044C  3068               	movlw	104
  5726  044D  160A  118A  251E  120A  118A  	fcall	_LCD_escreve
  5727                           
  5728                           ;main.c: 513:         LCD_escreve('a');
  5729  0452  3061               	movlw	97
  5730  0453  160A  118A  251E  120A  118A  	fcall	_LCD_escreve
  5731                           
  5732                           ;main.c: 514:         LCD_escreve(' ');
  5733  0458  3020               	movlw	32
  5734  0459  160A  118A  251E  120A  118A  	fcall	_LCD_escreve
  5735                           
  5736                           ;main.c: 515:         LCD_escreve('U');
  5737  045E  3055               	movlw	85
  5738  045F  160A  118A  251E  120A  118A  	fcall	_LCD_escreve
  5739                           
  5740                           ;main.c: 516:         LCD_escreve('s');
  5741  0464  3073               	movlw	115
  5742  0465  160A  118A  251E  120A  118A  	fcall	_LCD_escreve
  5743                           
  5744                           ;main.c: 517:         LCD_escreve('u');
  5745  046A  3075               	movlw	117
  5746  046B  160A  118A  251E  120A  118A  	fcall	_LCD_escreve
  5747                           
  5748                           ;main.c: 518:         LCD_escreve('a');
  5749  0470  3061               	movlw	97
  5750  0471  160A  118A  251E  120A  118A  	fcall	_LCD_escreve
  5751                           
  5752                           ;main.c: 519:         LCD_escreve('r');
  5753  0476  3072               	movlw	114
  5754  0477  160A  118A  251E  120A  118A  	fcall	_LCD_escreve
  5755                           
  5756                           ;main.c: 520:         LCD_escreve('i');
  5757  047C  3069               	movlw	105
  5758  047D  160A  118A  251E  120A  118A  	fcall	_LCD_escreve
  5759                           
  5760                           ;main.c: 521:         LCD_escreve('o');
  5761  0482  306F               	movlw	111
  5762  0483  160A  118A  251E  120A  118A  	fcall	_LCD_escreve
  5763  0488                     l2664:
  5764                           
  5765                           ;main.c: 525:     if (valorSensor == 2){
  5766  0488  3002               	movlw	2
  5767  0489  0673               	xorwf	listaZonas@valorSensor,w
  5768  048A  0474               	iorwf	listaZonas@valorSensor+1,w
  5769  048B  1D03               	btfss	3,2
  5770  048C  2C8E               	goto	u2871
  5771  048D  2C8F               	goto	u2870
  5772  048E                     u2871:
  5773  048E  2D3B               	goto	l2668
  5774  048F                     u2870:
  5775  048F                     l2666:
  5776                           
  5777                           ;main.c: 526:         LCD_linha1();
  5778  048F  160A  118A  24FE  120A  118A  	fcall	_LCD_linha1
  5779                           
  5780                           ;main.c: 527:         LCD_escreve('>');
  5781  0494  303E               	movlw	62
  5782  0495  160A  118A  251E  120A  118A  	fcall	_LCD_escreve
  5783                           
  5784                           ;main.c: 528:         LCD_escreve('S');
  5785  049A  3053               	movlw	83
  5786  049B  160A  118A  251E  120A  118A  	fcall	_LCD_escreve
  5787                           
  5788                           ;main.c: 529:         LCD_escreve('e');
  5789  04A0  3065               	movlw	101
  5790  04A1  160A  118A  251E  120A  118A  	fcall	_LCD_escreve
  5791                           
  5792                           ;main.c: 530:         LCD_escreve('n');
  5793  04A6  306E               	movlw	110
  5794  04A7  160A  118A  251E  120A  118A  	fcall	_LCD_escreve
  5795                           
  5796                           ;main.c: 531:         LCD_escreve('h');
  5797  04AC  3068               	movlw	104
  5798  04AD  160A  118A  251E  120A  118A  	fcall	_LCD_escreve
  5799                           
  5800                           ;main.c: 532:         LCD_escreve('a');
  5801  04B2  3061               	movlw	97
  5802  04B3  160A  118A  251E  120A  118A  	fcall	_LCD_escreve
  5803                           
  5804                           ;main.c: 533:         LCD_escreve(' ');
  5805  04B8  3020               	movlw	32
  5806  04B9  160A  118A  251E  120A  118A  	fcall	_LCD_escreve
  5807                           
  5808                           ;main.c: 534:         LCD_escreve('U');
  5809  04BE  3055               	movlw	85
  5810  04BF  160A  118A  251E  120A  118A  	fcall	_LCD_escreve
  5811                           
  5812                           ;main.c: 535:         LCD_escreve('s');
  5813  04C4  3073               	movlw	115
  5814  04C5  160A  118A  251E  120A  118A  	fcall	_LCD_escreve
  5815                           
  5816                           ;main.c: 536:         LCD_escreve('u');
  5817  04CA  3075               	movlw	117
  5818  04CB  160A  118A  251E  120A  118A  	fcall	_LCD_escreve
  5819                           
  5820                           ;main.c: 537:         LCD_escreve('a');
  5821  04D0  3061               	movlw	97
  5822  04D1  160A  118A  251E  120A  118A  	fcall	_LCD_escreve
  5823                           
  5824                           ;main.c: 538:         LCD_escreve('r');
  5825  04D6  3072               	movlw	114
  5826  04D7  160A  118A  251E  120A  118A  	fcall	_LCD_escreve
  5827                           
  5828                           ;main.c: 539:         LCD_escreve('i');
  5829  04DC  3069               	movlw	105
  5830  04DD  160A  118A  251E  120A  118A  	fcall	_LCD_escreve
  5831                           
  5832                           ;main.c: 540:         LCD_escreve('o');
  5833  04E2  306F               	movlw	111
  5834  04E3  160A  118A  251E  120A  118A  	fcall	_LCD_escreve
  5835                           
  5836                           ;main.c: 542:         LCD_linha2();
  5837  04E8  160A  118A  24DE  120A  118A  	fcall	_LCD_linha2
  5838                           
  5839                           ;main.c: 543:         LCD_escreve(' ');
  5840  04ED  3020               	movlw	32
  5841  04EE  160A  118A  251E  120A  118A  	fcall	_LCD_escreve
  5842                           
  5843                           ;main.c: 544:         LCD_escreve('S');
  5844  04F3  3053               	movlw	83
  5845  04F4  160A  118A  251E  120A  118A  	fcall	_LCD_escreve
  5846                           
  5847                           ;main.c: 545:         LCD_escreve('e');
  5848  04F9  3065               	movlw	101
  5849  04FA  160A  118A  251E  120A  118A  	fcall	_LCD_escreve
  5850                           
  5851                           ;main.c: 546:         LCD_escreve('n');
  5852  04FF  306E               	movlw	110
  5853  0500  160A  118A  251E  120A  118A  	fcall	_LCD_escreve
  5854                           
  5855                           ;main.c: 547:         LCD_escreve('h');
  5856  0505  3068               	movlw	104
  5857  0506  160A  118A  251E  120A  118A  	fcall	_LCD_escreve
  5858                           
  5859                           ;main.c: 548:         LCD_escreve('a');
  5860  050B  3061               	movlw	97
  5861  050C  160A  118A  251E  120A  118A  	fcall	_LCD_escreve
  5862                           
  5863                           ;main.c: 549:         LCD_escreve(' ');
  5864  0511  3020               	movlw	32
  5865  0512  160A  118A  251E  120A  118A  	fcall	_LCD_escreve
  5866                           
  5867                           ;main.c: 550:         LCD_escreve('C');
  5868  0517  3043               	movlw	67
  5869  0518  160A  118A  251E  120A  118A  	fcall	_LCD_escreve
  5870                           
  5871                           ;main.c: 551:         LCD_escreve('o');
  5872  051D  306F               	movlw	111
  5873  051E  160A  118A  251E  120A  118A  	fcall	_LCD_escreve
  5874                           
  5875                           ;main.c: 552:         LCD_escreve('a');
  5876  0523  3061               	movlw	97
  5877  0524  160A  118A  251E  120A  118A  	fcall	_LCD_escreve
  5878                           
  5879                           ;main.c: 553:         LCD_escreve('c');
  5880  0529  3063               	movlw	99
  5881  052A  160A  118A  251E  120A  118A  	fcall	_LCD_escreve
  5882                           
  5883                           ;main.c: 554:         LCD_escreve('a');
  5884  052F  3061               	movlw	97
  5885  0530  160A  118A  251E  120A  118A  	fcall	_LCD_escreve
  5886                           
  5887                           ;main.c: 555:         LCD_escreve('o');
  5888  0535  306F               	movlw	111
  5889  0536  160A  118A  251E  120A  118A  	fcall	_LCD_escreve
  5890  053B                     l2668:
  5891                           
  5892                           ;main.c: 559:     if (valorSensor == 3){
  5893  053B  3003               	movlw	3
  5894  053C  0673               	xorwf	listaZonas@valorSensor,w
  5895  053D  0474               	iorwf	listaZonas@valorSensor+1,w
  5896  053E  1D03               	btfss	3,2
  5897  053F  2D41               	goto	u2881
  5898  0540  2D42               	goto	u2880
  5899  0541                     u2881:
  5900  0541  2DF4               	goto	l2672
  5901  0542                     u2880:
  5902  0542                     l2670:
  5903                           
  5904                           ;main.c: 560:         LCD_linha1();
  5905  0542  160A  118A  24FE  120A  118A  	fcall	_LCD_linha1
  5906                           
  5907                           ;main.c: 561:         LCD_escreve('>');
  5908  0547  303E               	movlw	62
  5909  0548  160A  118A  251E  120A  118A  	fcall	_LCD_escreve
  5910                           
  5911                           ;main.c: 562:         LCD_escreve('S');
  5912  054D  3053               	movlw	83
  5913  054E  160A  118A  251E  120A  118A  	fcall	_LCD_escreve
  5914                           
  5915                           ;main.c: 563:         LCD_escreve('e');
  5916  0553  3065               	movlw	101
  5917  0554  160A  118A  251E  120A  118A  	fcall	_LCD_escreve
  5918                           
  5919                           ;main.c: 564:         LCD_escreve('n');
  5920  0559  306E               	movlw	110
  5921  055A  160A  118A  251E  120A  118A  	fcall	_LCD_escreve
  5922                           
  5923                           ;main.c: 565:         LCD_escreve('h');
  5924  055F  3068               	movlw	104
  5925  0560  160A  118A  251E  120A  118A  	fcall	_LCD_escreve
  5926                           
  5927                           ;main.c: 566:         LCD_escreve('a');
  5928  0565  3061               	movlw	97
  5929  0566  160A  118A  251E  120A  118A  	fcall	_LCD_escreve
  5930                           
  5931                           ;main.c: 567:         LCD_escreve(' ');
  5932  056B  3020               	movlw	32
  5933  056C  160A  118A  251E  120A  118A  	fcall	_LCD_escreve
  5934                           
  5935                           ;main.c: 568:         LCD_escreve('C');
  5936  0571  3043               	movlw	67
  5937  0572  160A  118A  251E  120A  118A  	fcall	_LCD_escreve
  5938                           
  5939                           ;main.c: 569:         LCD_escreve('o');
  5940  0577  306F               	movlw	111
  5941  0578  160A  118A  251E  120A  118A  	fcall	_LCD_escreve
  5942                           
  5943                           ;main.c: 570:         LCD_escreve('a');
  5944  057D  3061               	movlw	97
  5945  057E  160A  118A  251E  120A  118A  	fcall	_LCD_escreve
  5946                           
  5947                           ;main.c: 571:         LCD_escreve('c');
  5948  0583  3063               	movlw	99
  5949  0584  160A  118A  251E  120A  118A  	fcall	_LCD_escreve
  5950                           
  5951                           ;main.c: 572:         LCD_escreve('a');
  5952  0589  3061               	movlw	97
  5953  058A  160A  118A  251E  120A  118A  	fcall	_LCD_escreve
  5954                           
  5955                           ;main.c: 573:         LCD_escreve('o');
  5956  058F  306F               	movlw	111
  5957  0590  160A  118A  251E  120A  118A  	fcall	_LCD_escreve
  5958                           
  5959                           ;main.c: 575:         LCD_linha2();
  5960  0595  160A  118A  24DE  120A  118A  	fcall	_LCD_linha2
  5961                           
  5962                           ;main.c: 576:         LCD_escreve(' ');
  5963  059A  3020               	movlw	32
  5964  059B  160A  118A  251E  120A  118A  	fcall	_LCD_escreve
  5965                           
  5966                           ;main.c: 577:         LCD_escreve('C');
  5967  05A0  3043               	movlw	67
  5968  05A1  160A  118A  251E  120A  118A  	fcall	_LCD_escreve
  5969                           
  5970                           ;main.c: 578:         LCD_escreve('o');
  5971  05A6  306F               	movlw	111
  5972  05A7  160A  118A  251E  120A  118A  	fcall	_LCD_escreve
  5973                           
  5974                           ;main.c: 579:         LCD_escreve('n');
  5975  05AC  306E               	movlw	110
  5976  05AD  160A  118A  251E  120A  118A  	fcall	_LCD_escreve
  5977                           
  5978                           ;main.c: 580:         LCD_escreve('f');
  5979  05B2  3066               	movlw	102
  5980  05B3  160A  118A  251E  120A  118A  	fcall	_LCD_escreve
  5981                           
  5982                           ;main.c: 581:         LCD_escreve('i');
  5983  05B8  3069               	movlw	105
  5984  05B9  160A  118A  251E  120A  118A  	fcall	_LCD_escreve
  5985                           
  5986                           ;main.c: 582:         LCD_escreve('g');
  5987  05BE  3067               	movlw	103
  5988  05BF  160A  118A  251E  120A  118A  	fcall	_LCD_escreve
  5989                           
  5990                           ;main.c: 583:         LCD_escreve(' ');
  5991  05C4  3020               	movlw	32
  5992  05C5  160A  118A  251E  120A  118A  	fcall	_LCD_escreve
  5993                           
  5994                           ;main.c: 584:         LCD_escreve('D');
  5995  05CA  3044               	movlw	68
  5996  05CB  160A  118A  251E  120A  118A  	fcall	_LCD_escreve
  5997                           
  5998                           ;main.c: 585:         LCD_escreve('i');
  5999  05D0  3069               	movlw	105
  6000  05D1  160A  118A  251E  120A  118A  	fcall	_LCD_escreve
  6001                           
  6002                           ;main.c: 586:         LCD_escreve('s');
  6003  05D6  3073               	movlw	115
  6004  05D7  160A  118A  251E  120A  118A  	fcall	_LCD_escreve
  6005                           
  6006                           ;main.c: 587:         LCD_escreve('p');
  6007  05DC  3070               	movlw	112
  6008  05DD  160A  118A  251E  120A  118A  	fcall	_LCD_escreve
  6009                           
  6010                           ;main.c: 588:         LCD_escreve('a');
  6011  05E2  3061               	movlw	97
  6012  05E3  160A  118A  251E  120A  118A  	fcall	_LCD_escreve
  6013                           
  6014                           ;main.c: 589:         LCD_escreve('r');
  6015  05E8  3072               	movlw	114
  6016  05E9  160A  118A  251E  120A  118A  	fcall	_LCD_escreve
  6017                           
  6018                           ;main.c: 590:         LCD_escreve('o');
  6019  05EE  306F               	movlw	111
  6020  05EF  160A  118A  251E  120A  118A  	fcall	_LCD_escreve
  6021  05F4                     l2672:
  6022                           
  6023                           ;main.c: 594:     if (valorSensor == 4){
  6024  05F4  3004               	movlw	4
  6025  05F5  0673               	xorwf	listaZonas@valorSensor,w
  6026  05F6  0474               	iorwf	listaZonas@valorSensor+1,w
  6027  05F7  1D03               	btfss	3,2
  6028  05F8  2DFA               	goto	u2891
  6029  05F9  2DFB               	goto	u2890
  6030  05FA                     u2891:
  6031  05FA  2EB9               	goto	l2676
  6032  05FB                     u2890:
  6033  05FB                     l2674:
  6034                           
  6035                           ;main.c: 595:         LCD_linha1();
  6036  05FB  160A  118A  24FE  120A  118A  	fcall	_LCD_linha1
  6037                           
  6038                           ;main.c: 596:         LCD_escreve('>');
  6039  0600  303E               	movlw	62
  6040  0601  160A  118A  251E  120A  118A  	fcall	_LCD_escreve
  6041                           
  6042                           ;main.c: 597:         LCD_escreve('C');
  6043  0606  3043               	movlw	67
  6044  0607  160A  118A  251E  120A  118A  	fcall	_LCD_escreve
  6045                           
  6046                           ;main.c: 598:         LCD_escreve('o');
  6047  060C  306F               	movlw	111
  6048  060D  160A  118A  251E  120A  118A  	fcall	_LCD_escreve
  6049                           
  6050                           ;main.c: 599:         LCD_escreve('n');
  6051  0612  306E               	movlw	110
  6052  0613  160A  118A  251E  120A  118A  	fcall	_LCD_escreve
  6053                           
  6054                           ;main.c: 600:         LCD_escreve('f');
  6055  0618  3066               	movlw	102
  6056  0619  160A  118A  251E  120A  118A  	fcall	_LCD_escreve
  6057                           
  6058                           ;main.c: 601:         LCD_escreve('i');
  6059  061E  3069               	movlw	105
  6060  061F  160A  118A  251E  120A  118A  	fcall	_LCD_escreve
  6061                           
  6062                           ;main.c: 602:         LCD_escreve('g');
  6063  0624  3067               	movlw	103
  6064  0625  160A  118A  251E  120A  118A  	fcall	_LCD_escreve
  6065                           
  6066                           ;main.c: 603:         LCD_escreve(' ');
  6067  062A  3020               	movlw	32
  6068  062B  160A  118A  251E  120A  118A  	fcall	_LCD_escreve
  6069                           
  6070                           ;main.c: 604:         LCD_escreve('D');
  6071  0630  3044               	movlw	68
  6072  0631  160A  118A  251E  120A  118A  	fcall	_LCD_escreve
  6073                           
  6074                           ;main.c: 605:         LCD_escreve('i');
  6075  0636  3069               	movlw	105
  6076  0637  160A  118A  251E  120A  118A  	fcall	_LCD_escreve
  6077                           
  6078                           ;main.c: 606:         LCD_escreve('s');
  6079  063C  3073               	movlw	115
  6080  063D  160A  118A  251E  120A  118A  	fcall	_LCD_escreve
  6081                           
  6082                           ;main.c: 607:         LCD_escreve('p');
  6083  0642  3070               	movlw	112
  6084  0643  160A  118A  251E  120A  118A  	fcall	_LCD_escreve
  6085                           
  6086                           ;main.c: 608:         LCD_escreve('a');
  6087  0648  3061               	movlw	97
  6088  0649  160A  118A  251E  120A  118A  	fcall	_LCD_escreve
  6089                           
  6090                           ;main.c: 609:         LCD_escreve('r');
  6091  064E  3072               	movlw	114
  6092  064F  160A  118A  251E  120A  118A  	fcall	_LCD_escreve
  6093                           
  6094                           ;main.c: 610:         LCD_escreve('o');
  6095  0654  306F               	movlw	111
  6096  0655  160A  118A  251E  120A  118A  	fcall	_LCD_escreve
  6097                           
  6098                           ;main.c: 612:         LCD_linha2();
  6099  065A  160A  118A  24DE  120A  118A  	fcall	_LCD_linha2
  6100                           
  6101                           ;main.c: 613:         LCD_escreve(' ');
  6102  065F  3020               	movlw	32
  6103  0660  160A  118A  251E  120A  118A  	fcall	_LCD_escreve
  6104                           
  6105                           ;main.c: 614:         LCD_escreve('D');
  6106  0665  3044               	movlw	68
  6107  0666  160A  118A  251E  120A  118A  	fcall	_LCD_escreve
  6108                           
  6109                           ;main.c: 615:         LCD_escreve('e');
  6110  066B  3065               	movlw	101
  6111  066C  160A  118A  251E  120A  118A  	fcall	_LCD_escreve
  6112                           
  6113                           ;main.c: 616:         LCD_escreve('s');
  6114  0671  3073               	movlw	115
  6115  0672  160A  118A  251E  120A  118A  	fcall	_LCD_escreve
  6116                           
  6117                           ;main.c: 617:         LCD_escreve('a');
  6118  0677  3061               	movlw	97
  6119  0678  160A  118A  251E  120A  118A  	fcall	_LCD_escreve
  6120                           
  6121                           ;main.c: 618:         LCD_escreve('t');
  6122  067D  3074               	movlw	116
  6123  067E  160A  118A  251E  120A  118A  	fcall	_LCD_escreve
  6124                           
  6125                           ;main.c: 619:         LCD_escreve('i');
  6126  0683  3069               	movlw	105
  6127  0684  160A  118A  251E  120A  118A  	fcall	_LCD_escreve
  6128                           
  6129                           ;main.c: 620:         LCD_escreve('v');
  6130  0689  3076               	movlw	118
  6131  068A  160A  118A  251E  120A  118A  	fcall	_LCD_escreve
  6132                           
  6133                           ;main.c: 621:         LCD_escreve('a');
  6134  068F  3061               	movlw	97
  6135  0690  160A  118A  251E  120A  118A  	fcall	_LCD_escreve
  6136                           
  6137                           ;main.c: 622:         LCD_escreve('r');
  6138  0695  3072               	movlw	114
  6139  0696  160A  118A  251E  120A  118A  	fcall	_LCD_escreve
  6140                           
  6141                           ;main.c: 623:         LCD_escreve(' ');
  6142  069B  3020               	movlw	32
  6143  069C  160A  118A  251E  120A  118A  	fcall	_LCD_escreve
  6144                           
  6145                           ;main.c: 624:         LCD_escreve('Z');
  6146  06A1  305A               	movlw	90
  6147  06A2  160A  118A  251E  120A  118A  	fcall	_LCD_escreve
  6148                           
  6149                           ;main.c: 625:         LCD_escreve('o');
  6150  06A7  306F               	movlw	111
  6151  06A8  160A  118A  251E  120A  118A  	fcall	_LCD_escreve
  6152                           
  6153                           ;main.c: 626:         LCD_escreve('n');
  6154  06AD  306E               	movlw	110
  6155  06AE  160A  118A  251E  120A  118A  	fcall	_LCD_escreve
  6156                           
  6157                           ;main.c: 627:         LCD_escreve('a');
  6158  06B3  3061               	movlw	97
  6159  06B4  160A  118A  251E  120A  118A  	fcall	_LCD_escreve
  6160  06B9                     l2676:
  6161                           
  6162                           ;main.c: 631:     if (valorSensor == 5){
  6163  06B9  3005               	movlw	5
  6164  06BA  0673               	xorwf	listaZonas@valorSensor,w
  6165  06BB  0474               	iorwf	listaZonas@valorSensor+1,w
  6166  06BC  1D03               	btfss	3,2
  6167  06BD  2EBF               	goto	u2901
  6168  06BE  2EC0               	goto	u2900
  6169  06BF                     u2901:
  6170  06BF  2F78               	goto	l2680
  6171  06C0                     u2900:
  6172  06C0                     l2678:
  6173                           
  6174                           ;main.c: 632:         LCD_linha1();
  6175  06C0  160A  118A  24FE  120A  118A  	fcall	_LCD_linha1
  6176                           
  6177                           ;main.c: 633:         LCD_escreve('>');
  6178  06C5  303E               	movlw	62
  6179  06C6  160A  118A  251E  120A  118A  	fcall	_LCD_escreve
  6180                           
  6181                           ;main.c: 634:         LCD_escreve('D');
  6182  06CB  3044               	movlw	68
  6183  06CC  160A  118A  251E  120A  118A  	fcall	_LCD_escreve
  6184                           
  6185                           ;main.c: 635:         LCD_escreve('e');
  6186  06D1  3065               	movlw	101
  6187  06D2  160A  118A  251E  120A  118A  	fcall	_LCD_escreve
  6188                           
  6189                           ;main.c: 636:         LCD_escreve('s');
  6190  06D7  3073               	movlw	115
  6191  06D8  160A  118A  251E  120A  118A  	fcall	_LCD_escreve
  6192                           
  6193                           ;main.c: 637:         LCD_escreve('a');
  6194  06DD  3061               	movlw	97
  6195  06DE  160A  118A  251E  120A  118A  	fcall	_LCD_escreve
  6196                           
  6197                           ;main.c: 638:         LCD_escreve('t');
  6198  06E3  3074               	movlw	116
  6199  06E4  160A  118A  251E  120A  118A  	fcall	_LCD_escreve
  6200                           
  6201                           ;main.c: 639:         LCD_escreve('i');
  6202  06E9  3069               	movlw	105
  6203  06EA  160A  118A  251E  120A  118A  	fcall	_LCD_escreve
  6204                           
  6205                           ;main.c: 640:         LCD_escreve('v');
  6206  06EF  3076               	movlw	118
  6207  06F0  160A  118A  251E  120A  118A  	fcall	_LCD_escreve
  6208                           
  6209                           ;main.c: 641:         LCD_escreve('a');
  6210  06F5  3061               	movlw	97
  6211  06F6  160A  118A  251E  120A  118A  	fcall	_LCD_escreve
  6212                           
  6213                           ;main.c: 642:         LCD_escreve('r');
  6214  06FB  3072               	movlw	114
  6215  06FC  160A  118A  251E  120A  118A  	fcall	_LCD_escreve
  6216                           
  6217                           ;main.c: 643:         LCD_escreve(' ');
  6218  0701  3020               	movlw	32
  6219  0702  160A  118A  251E  120A  118A  	fcall	_LCD_escreve
  6220                           
  6221                           ;main.c: 644:         LCD_escreve('Z');
  6222  0707  305A               	movlw	90
  6223  0708  160A  118A  251E  120A  118A  	fcall	_LCD_escreve
  6224                           
  6225                           ;main.c: 645:         LCD_escreve('o');
  6226  070D  306F               	movlw	111
  6227  070E  160A  118A  251E  120A  118A  	fcall	_LCD_escreve
  6228                           
  6229                           ;main.c: 646:         LCD_escreve('n');
  6230  0713  306E               	movlw	110
  6231  0714  160A  118A  251E  120A  118A  	fcall	_LCD_escreve
  6232                           
  6233                           ;main.c: 647:         LCD_escreve('a');
  6234  0719  3061               	movlw	97
  6235  071A  160A  118A  251E  120A  118A  	fcall	_LCD_escreve
  6236                           
  6237                           ;main.c: 649:         LCD_linha2();
  6238  071F  160A  118A  24DE  120A  118A  	fcall	_LCD_linha2
  6239                           
  6240                           ;main.c: 650:         LCD_escreve(' ');
  6241  0724  3020               	movlw	32
  6242  0725  160A  118A  251E  120A  118A  	fcall	_LCD_escreve
  6243                           
  6244                           ;main.c: 651:         LCD_escreve('R');
  6245  072A  3052               	movlw	82
  6246  072B  160A  118A  251E  120A  118A  	fcall	_LCD_escreve
  6247                           
  6248                           ;main.c: 652:         LCD_escreve('e');
  6249  0730  3065               	movlw	101
  6250  0731  160A  118A  251E  120A  118A  	fcall	_LCD_escreve
  6251                           
  6252                           ;main.c: 653:         LCD_escreve('a');
  6253  0736  3061               	movlw	97
  6254  0737  160A  118A  251E  120A  118A  	fcall	_LCD_escreve
  6255                           
  6256                           ;main.c: 654:         LCD_escreve('t');
  6257  073C  3074               	movlw	116
  6258  073D  160A  118A  251E  120A  118A  	fcall	_LCD_escreve
  6259                           
  6260                           ;main.c: 655:         LCD_escreve('i');
  6261  0742  3069               	movlw	105
  6262  0743  160A  118A  251E  120A  118A  	fcall	_LCD_escreve
  6263                           
  6264                           ;main.c: 656:         LCD_escreve('v');
  6265  0748  3076               	movlw	118
  6266  0749  160A  118A  251E  120A  118A  	fcall	_LCD_escreve
  6267                           
  6268                           ;main.c: 657:         LCD_escreve('a');
  6269  074E  3061               	movlw	97
  6270  074F  160A  118A  251E  120A  118A  	fcall	_LCD_escreve
  6271                           
  6272                           ;main.c: 658:         LCD_escreve('r');
  6273  0754  3072               	movlw	114
  6274  0755  160A  118A  251E  120A  118A  	fcall	_LCD_escreve
  6275                           
  6276                           ;main.c: 659:         LCD_escreve(' ');
  6277  075A  3020               	movlw	32
  6278  075B  160A  118A  251E  120A  118A  	fcall	_LCD_escreve
  6279                           
  6280                           ;main.c: 660:         LCD_escreve('Z');
  6281  0760  305A               	movlw	90
  6282  0761  160A  118A  251E  120A  118A  	fcall	_LCD_escreve
  6283                           
  6284                           ;main.c: 661:         LCD_escreve('o');
  6285  0766  306F               	movlw	111
  6286  0767  160A  118A  251E  120A  118A  	fcall	_LCD_escreve
  6287                           
  6288                           ;main.c: 662:         LCD_escreve('n');
  6289  076C  306E               	movlw	110
  6290  076D  160A  118A  251E  120A  118A  	fcall	_LCD_escreve
  6291                           
  6292                           ;main.c: 663:         LCD_escreve('a');
  6293  0772  3061               	movlw	97
  6294  0773  160A  118A  251E  120A  118A  	fcall	_LCD_escreve
  6295  0778                     l2680:
  6296                           
  6297                           ;main.c: 667:     if (valorSensor == 6){
  6298  0778  3006               	movlw	6
  6299  0779  0673               	xorwf	listaZonas@valorSensor,w
  6300  077A  0474               	iorwf	listaZonas@valorSensor+1,w
  6301  077B  1D03               	btfss	3,2
  6302  077C  2F7E               	goto	u2911
  6303  077D  2F7F               	goto	u2910
  6304  077E                     u2911:
  6305  077E  2FD8               	goto	l217
  6306  077F                     u2910:
  6307  077F                     l2682:
  6308                           
  6309                           ;main.c: 668:         LCD_linha1();
  6310  077F  160A  118A  24FE  120A  118A  	fcall	_LCD_linha1
  6311                           
  6312                           ;main.c: 669:         LCD_escreve('>');
  6313  0784  303E               	movlw	62
  6314  0785  160A  118A  251E  120A  118A  	fcall	_LCD_escreve
  6315                           
  6316                           ;main.c: 670:         LCD_escreve('R');
  6317  078A  3052               	movlw	82
  6318  078B  160A  118A  251E  120A  118A  	fcall	_LCD_escreve
  6319                           
  6320                           ;main.c: 671:         LCD_escreve('e');
  6321  0790  3065               	movlw	101
  6322  0791  160A  118A  251E  120A  118A  	fcall	_LCD_escreve
  6323                           
  6324                           ;main.c: 672:         LCD_escreve('a');
  6325  0796  3061               	movlw	97
  6326  0797  160A  118A  251E  120A  118A  	fcall	_LCD_escreve
  6327                           
  6328                           ;main.c: 673:         LCD_escreve('t');
  6329  079C  3074               	movlw	116
  6330  079D  160A  118A  251E  120A  118A  	fcall	_LCD_escreve
  6331                           
  6332                           ;main.c: 674:         LCD_escreve('i');
  6333  07A2  3069               	movlw	105
  6334  07A3  160A  118A  251E  120A  118A  	fcall	_LCD_escreve
  6335                           
  6336                           ;main.c: 675:         LCD_escreve('v');
  6337  07A8  3076               	movlw	118
  6338  07A9  160A  118A  251E  120A  118A  	fcall	_LCD_escreve
  6339                           
  6340                           ;main.c: 676:         LCD_escreve('a');
  6341  07AE  3061               	movlw	97
  6342  07AF  160A  118A  251E  120A  118A  	fcall	_LCD_escreve
  6343                           
  6344                           ;main.c: 677:         LCD_escreve('r');
  6345  07B4  3072               	movlw	114
  6346  07B5  160A  118A  251E  120A  118A  	fcall	_LCD_escreve
  6347                           
  6348                           ;main.c: 678:         LCD_escreve(' ');
  6349  07BA  3020               	movlw	32
  6350  07BB  160A  118A  251E  120A  118A  	fcall	_LCD_escreve
  6351                           
  6352                           ;main.c: 679:         LCD_escreve('z');
  6353  07C0  307A               	movlw	122
  6354  07C1  160A  118A  251E  120A  118A  	fcall	_LCD_escreve
  6355                           
  6356                           ;main.c: 680:         LCD_escreve('o');
  6357  07C6  306F               	movlw	111
  6358  07C7  160A  118A  251E  120A  118A  	fcall	_LCD_escreve
  6359                           
  6360                           ;main.c: 681:         LCD_escreve('n');
  6361  07CC  306E               	movlw	110
  6362  07CD  160A  118A  251E  120A  118A  	fcall	_LCD_escreve
  6363                           
  6364                           ;main.c: 682:         LCD_escreve('a');
  6365  07D2  3061               	movlw	97
  6366  07D3  160A  118A  251E  120A  118A  	fcall	_LCD_escreve
  6367  07D8                     l217:
  6368  07D8  0008               	return
  6369  07D9                     __end_of_listaZonas:
  6370                           
  6371                           	psect	text14
  6372  14FE                     __ptext14:	
  6373 ;; *************** function _LCD_linha1 *****************
  6374 ;; Defined at:
  6375 ;;		line 65 in file "./lcd.h"
  6376 ;; Parameters:    Size  Location     Type
  6377 ;;		None
  6378 ;; Auto vars:     Size  Location     Type
  6379 ;;		None
  6380 ;; Return value:  Size  Location     Type
  6381 ;;                  1    wreg      void 
  6382 ;; Registers used:
  6383 ;;		wreg, status,2, status,0, btemp+1, pclath, cstack
  6384 ;; Tracked objects:
  6385 ;;		On entry : 0/0
  6386 ;;		On exit  : 0/0
  6387 ;;		Unchanged: 0/0
  6388 ;; Data sizes:     COMMON   BANK0   BANK1   BANK3   BANK2
  6389 ;;      Params:         0       0       0       0       0
  6390 ;;      Locals:         0       0       0       0       0
  6391 ;;      Temps:          0       0       0       0       0
  6392 ;;      Totals:         0       0       0       0       0
  6393 ;;Total ram usage:        0 bytes
  6394 ;; Hardware stack levels used: 1
  6395 ;; Hardware stack levels required when called: 1
  6396 ;; This function calls:
  6397 ;;		_delay
  6398 ;; This function is called by:
  6399 ;;		_telaInicial
  6400 ;;		_validaUser
  6401 ;;		_listaZonas
  6402 ;; This function uses a non-reentrant model
  6403 ;;
  6404                           
  6405                           
  6406                           ;psect for function _LCD_linha1
  6407  14FE                     _LCD_linha1:
  6408  14FE                     l2250:	
  6409                           ;incstack = 0
  6410                           ; Regs used in _LCD_linha1: [wreg+status,2+status,0+btemp+1+pclath+cstack]
  6411                           
  6412                           
  6413                           ;./lcd.h: 66:     PORTD = 0x02;
  6414  14FE  3002               	movlw	2
  6415  14FF  1283               	bcf	3,5	;RP0=0, select bank0
  6416  1500  1303               	bcf	3,6	;RP1=0, select bank0
  6417  1501  0088               	movwf	8	;volatile
  6418  1502                     l2252:
  6419                           
  6420                           ;./lcd.h: 67:     RA5 = 0;
  6421  1502  1285               	bcf	5,5	;volatile
  6422  1503                     l2254:
  6423                           
  6424                           ;./lcd.h: 68:     RA4 = 0;
  6425  1503  1205               	bcf	5,4	;volatile
  6426  1504                     l2256:
  6427                           
  6428                           ;./lcd.h: 69:     RA3=0;
  6429  1504  1185               	bcf	5,3	;volatile
  6430  1505                     l2258:
  6431                           
  6432                           ;./lcd.h: 70:     delay();
  6433  1505  160A  118A  2542  160A  118A  	fcall	_delay
  6434  150A                     l2260:
  6435                           
  6436                           ;./lcd.h: 71:  RA3 = 1;
  6437  150A  1283               	bcf	3,5	;RP0=0, select bank0
  6438  150B  1303               	bcf	3,6	;RP1=0, select bank0
  6439  150C  1585               	bsf	5,3	;volatile
  6440  150D                     l71:
  6441  150D  0008               	return
  6442  150E                     __end_of_LCD_linha1:
  6443                           
  6444                           	psect	text15
  6445  14EE                     __ptext15:	
  6446 ;; *************** function _LCD_limpa *****************
  6447 ;; Defined at:
  6448 ;;		line 56 in file "./lcd.h"
  6449 ;; Parameters:    Size  Location     Type
  6450 ;;		None
  6451 ;; Auto vars:     Size  Location     Type
  6452 ;;		None
  6453 ;; Return value:  Size  Location     Type
  6454 ;;                  1    wreg      void 
  6455 ;; Registers used:
  6456 ;;		wreg, status,2, status,0, btemp+1, pclath, cstack
  6457 ;; Tracked objects:
  6458 ;;		On entry : 0/0
  6459 ;;		On exit  : 0/0
  6460 ;;		Unchanged: 0/0
  6461 ;; Data sizes:     COMMON   BANK0   BANK1   BANK3   BANK2
  6462 ;;      Params:         0       0       0       0       0
  6463 ;;      Locals:         0       0       0       0       0
  6464 ;;      Temps:          0       0       0       0       0
  6465 ;;      Totals:         0       0       0       0       0
  6466 ;;Total ram usage:        0 bytes
  6467 ;; Hardware stack levels used: 1
  6468 ;; Hardware stack levels required when called: 1
  6469 ;; This function calls:
  6470 ;;		_delay
  6471 ;; This function is called by:
  6472 ;;		_main
  6473 ;;		_validaUser
  6474 ;;		_listaZonas
  6475 ;; This function uses a non-reentrant model
  6476 ;;
  6477                           
  6478                           
  6479                           ;psect for function _LCD_limpa
  6480  14EE                     _LCD_limpa:
  6481  14EE                     l2238:	
  6482                           ;incstack = 0
  6483                           ; Regs used in _LCD_limpa: [wreg+status,2+status,0+btemp+1+pclath+cstack]
  6484                           
  6485                           
  6486                           ;./lcd.h: 57:     PORTD = 0x01;
  6487  14EE  3001               	movlw	1
  6488  14EF  1283               	bcf	3,5	;RP0=0, select bank0
  6489  14F0  1303               	bcf	3,6	;RP1=0, select bank0
  6490  14F1  0088               	movwf	8	;volatile
  6491  14F2                     l2240:
  6492                           
  6493                           ;./lcd.h: 58:     RA5 = 0;
  6494  14F2  1285               	bcf	5,5	;volatile
  6495  14F3                     l2242:
  6496                           
  6497                           ;./lcd.h: 59:     RA4 = 0;
  6498  14F3  1205               	bcf	5,4	;volatile
  6499  14F4                     l2244:
  6500                           
  6501                           ;./lcd.h: 60:     RA3=0;
  6502  14F4  1185               	bcf	5,3	;volatile
  6503  14F5                     l2246:
  6504                           
  6505                           ;./lcd.h: 61:     delay();
  6506  14F5  160A  118A  2542  160A  118A  	fcall	_delay
  6507  14FA                     l2248:
  6508                           
  6509                           ;./lcd.h: 62:  RA3 = 1;
  6510  14FA  1283               	bcf	3,5	;RP0=0, select bank0
  6511  14FB  1303               	bcf	3,6	;RP1=0, select bank0
  6512  14FC  1585               	bsf	5,3	;volatile
  6513  14FD                     l68:
  6514  14FD  0008               	return
  6515  14FE                     __end_of_LCD_limpa:
  6516                           
  6517                           	psect	text16
  6518  1631                     __ptext16:	
  6519 ;; *************** function _Linha2 *****************
  6520 ;; Defined at:
  6521 ;;		line 339 in file "main.c"
  6522 ;; Parameters:    Size  Location     Type
  6523 ;;		None
  6524 ;; Auto vars:     Size  Location     Type
  6525 ;;  i               2    7[COMMON] int 
  6526 ;; Return value:  Size  Location     Type
  6527 ;;                  1    wreg      void 
  6528 ;; Registers used:
  6529 ;;		wreg, fsr0l, fsr0h, status,2, status,0, btemp+1, pclath, cstack
  6530 ;; Tracked objects:
  6531 ;;		On entry : 0/0
  6532 ;;		On exit  : 0/0
  6533 ;;		Unchanged: 0/0
  6534 ;; Data sizes:     COMMON   BANK0   BANK1   BANK3   BANK2
  6535 ;;      Params:         0       0       0       0       0
  6536 ;;      Locals:         2       0       0       0       0
  6537 ;;      Temps:          2       0       0       0       0
  6538 ;;      Totals:         4       0       0       0       0
  6539 ;;Total ram usage:        4 bytes
  6540 ;; Hardware stack levels used: 1
  6541 ;; Hardware stack levels required when called: 3
  6542 ;; This function calls:
  6543 ;;		_LCD_escreve
  6544 ;;		_LCD_linha2
  6545 ;;		_espacoLivre
  6546 ;;		_strlen
  6547 ;; This function is called by:
  6548 ;;		_main
  6549 ;; This function uses a non-reentrant model
  6550 ;;
  6551                           
  6552                           
  6553                           ;psect for function _Linha2
  6554  1631                     _Linha2:
  6555  1631                     l2512:	
  6556                           ;incstack = 0
  6557                           ; Regs used in _Linha2: [wreg-fsr0h+status,2+status,0+btemp+1+pclath+cstack]
  6558                           
  6559                           
  6560                           ;main.c: 340:     LCD_linha2();
  6561  1631  160A  118A  24DE  160A  118A  	fcall	_LCD_linha2
  6562                           
  6563                           ;main.c: 341:     espacoLivre();
  6564  1636  160A  118A  25DA  160A  118A  	fcall	_espacoLivre
  6565  163B                     l2514:
  6566                           
  6567                           ;main.c: 342:     for (int i = 0; i <= strlen(msg2)-1; i++){
  6568  163B  01F7               	clrf	Linha2@i
  6569  163C  01F8               	clrf	Linha2@i+1
  6570  163D  2E4E               	goto	l2520
  6571  163E                     l2516:
  6572                           
  6573                           ;main.c: 343:         LCD_escreve(msg2[i]);
  6574  163E  0877               	movf	Linha2@i,w
  6575  163F  3E64               	addlw	(low (_msg2| 0))& (0+255)
  6576  1640  0084               	movwf	4
  6577  1641  1383               	bcf	3,7	;select IRP bank0
  6578  1642  0800               	movf	0,w
  6579  1643  160A  118A  251E  160A  118A  	fcall	_LCD_escreve
  6580  1648                     l2518:
  6581                           
  6582                           ;main.c: 344:     }
  6583  1648  3001               	movlw	1
  6584  1649  07F7               	addwf	Linha2@i,f
  6585  164A  1803               	skipnc
  6586  164B  0AF8               	incf	Linha2@i+1,f
  6587  164C  3000               	movlw	0
  6588  164D  07F8               	addwf	Linha2@i+1,f
  6589  164E                     l2520:
  6590  164E  3064               	movlw	(low (_msg2| 0))& (0+255)
  6591  164F  160A  118A  2558  160A  118A  	fcall	_strlen
  6592  1654  0870               	movf	?_strlen,w
  6593  1655  3EFF               	addlw	255
  6594  1656  00F5               	movwf	??_Linha2
  6595  1657  0871               	movf	?_strlen+1,w
  6596  1658  1803               	skipnc
  6597  1659  3E01               	addlw	1
  6598  165A  3EFF               	addlw	255
  6599  165B  00F6               	movwf	??_Linha2+1
  6600  165C  0878               	movf	Linha2@i+1,w
  6601  165D  0276               	subwf	??_Linha2+1,w
  6602  165E  1D03               	skipz
  6603  165F  2E62               	goto	u2775
  6604  1660  0877               	movf	Linha2@i,w
  6605  1661  0275               	subwf	??_Linha2,w
  6606  1662                     u2775:
  6607  1662  1803               	skipnc
  6608  1663  2E65               	goto	u2771
  6609  1664  2E66               	goto	u2770
  6610  1665                     u2771:
  6611  1665  2E3E               	goto	l2516
  6612  1666                     u2770:
  6613  1666                     l2522:
  6614                           
  6615                           ;main.c: 345:     espacoLivre();
  6616  1666  160A  118A  25DA  160A  118A  	fcall	_espacoLivre
  6617  166B                     l174:
  6618  166B  0008               	return
  6619  166C                     __end_of_Linha2:
  6620                           
  6621                           	psect	text17
  6622  1558                     __ptext17:	
  6623 ;; *************** function _strlen *****************
  6624 ;; Defined at:
  6625 ;;		line 4 in file "C:\Program Files\Microchip\xc8\v2.32\pic\sources\c90\common\strlen.c"
  6626 ;; Parameters:    Size  Location     Type
  6627 ;;  s               1    wreg     PTR const unsigned char 
  6628 ;;		 -> senhaUserConfere(5), msg2(5), msg(15), 
  6629 ;; Auto vars:     Size  Location     Type
  6630 ;;  s               1    4[COMMON] PTR const unsigned char 
  6631 ;;		 -> senhaUserConfere(5), msg2(5), msg(15), 
  6632 ;;  cp              1    3[COMMON] PTR const unsigned char 
  6633 ;;		 -> senhaUserConfere(5), msg2(5), msg(15), 
  6634 ;; Return value:  Size  Location     Type
  6635 ;;                  2    0[COMMON] unsigned int 
  6636 ;; Registers used:
  6637 ;;		wreg, fsr0l, fsr0h, status,2, status,0
  6638 ;; Tracked objects:
  6639 ;;		On entry : 0/0
  6640 ;;		On exit  : 0/0
  6641 ;;		Unchanged: 0/0
  6642 ;; Data sizes:     COMMON   BANK0   BANK1   BANK3   BANK2
  6643 ;;      Params:         2       0       0       0       0
  6644 ;;      Locals:         2       0       0       0       0
  6645 ;;      Temps:          1       0       0       0       0
  6646 ;;      Totals:         5       0       0       0       0
  6647 ;;Total ram usage:        5 bytes
  6648 ;; Hardware stack levels used: 1
  6649 ;; This function calls:
  6650 ;;		Nothing
  6651 ;; This function is called by:
  6652 ;;		_telaInicial
  6653 ;;		_Linha2
  6654 ;;		_validaUser
  6655 ;; This function uses a non-reentrant model
  6656 ;;
  6657                           
  6658                           
  6659                           ;psect for function _strlen
  6660  1558                     _strlen:
  6661                           
  6662                           ;incstack = 0
  6663                           ; Regs used in _strlen: [wreg-fsr0h+status,2+status,0]
  6664                           ;strlen@s stored from wreg
  6665  1558  00F4               	movwf	strlen@s
  6666  1559                     l2432:
  6667  1559  0874               	movf	strlen@s,w
  6668  155A  00F2               	movwf	??_strlen
  6669  155B  0872               	movf	??_strlen,w
  6670  155C  00F3               	movwf	strlen@cp
  6671  155D  2D62               	goto	l2436
  6672  155E                     l2434:
  6673  155E  3001               	movlw	1
  6674  155F  00F2               	movwf	??_strlen
  6675  1560  0872               	movf	??_strlen,w
  6676  1561  07F3               	addwf	strlen@cp,f
  6677  1562                     l2436:
  6678  1562  0873               	movf	strlen@cp,w
  6679  1563  0084               	movwf	4
  6680  1564  1383               	bcf	3,7	;select IRP bank0
  6681  1565  0800               	movf	0,w
  6682  1566  1D03               	btfss	3,2
  6683  1567  2D69               	goto	u2701
  6684  1568  2D6A               	goto	u2700
  6685  1569                     u2701:
  6686  1569  2D5E               	goto	l2434
  6687  156A                     u2700:
  6688  156A                     l2438:
  6689  156A  0874               	movf	strlen@s,w
  6690  156B  0273               	subwf	strlen@cp,w
  6691  156C  00F0               	movwf	?_strlen
  6692  156D  01F1               	clrf	?_strlen+1
  6693  156E  1BF0               	btfsc	?_strlen,7
  6694  156F  03F1               	decf	?_strlen+1,f
  6695  1570                     l780:
  6696  1570  0008               	return
  6697  1571                     __end_of_strlen:
  6698                           
  6699                           	psect	text18
  6700  15DA                     __ptext18:	
  6701 ;; *************** function _espacoLivre *****************
  6702 ;; Defined at:
  6703 ;;		line 351 in file "main.c"
  6704 ;; Parameters:    Size  Location     Type
  6705 ;;		None
  6706 ;; Auto vars:     Size  Location     Type
  6707 ;;		None
  6708 ;; Return value:  Size  Location     Type
  6709 ;;                  1    wreg      void 
  6710 ;; Registers used:
  6711 ;;		wreg, status,2, status,0, btemp+1, pclath, cstack
  6712 ;; Tracked objects:
  6713 ;;		On entry : 0/0
  6714 ;;		On exit  : 0/0
  6715 ;;		Unchanged: 0/0
  6716 ;; Data sizes:     COMMON   BANK0   BANK1   BANK3   BANK2
  6717 ;;      Params:         0       0       0       0       0
  6718 ;;      Locals:         0       0       0       0       0
  6719 ;;      Temps:          0       0       0       0       0
  6720 ;;      Totals:         0       0       0       0       0
  6721 ;;Total ram usage:        0 bytes
  6722 ;; Hardware stack levels used: 1
  6723 ;; Hardware stack levels required when called: 2
  6724 ;; This function calls:
  6725 ;;		_LCD_escreve
  6726 ;;		_LCD_linha2
  6727 ;; This function is called by:
  6728 ;;		_Linha2
  6729 ;; This function uses a non-reentrant model
  6730 ;;
  6731                           
  6732                           
  6733                           ;psect for function _espacoLivre
  6734  15DA                     _espacoLivre:
  6735  15DA                     l2442:	
  6736                           ;incstack = 0
  6737                           ; Regs used in _espacoLivre: [wreg+status,2+status,0+btemp+1+pclath+cstack]
  6738                           
  6739                           
  6740                           ;main.c: 352:     LCD_linha2();
  6741  15DA  160A  118A  24DE  160A  118A  	fcall	_LCD_linha2
  6742                           
  6743                           ;main.c: 353:     LCD_escreve(' ');
  6744  15DF  3020               	movlw	32
  6745  15E0  160A  118A  251E  160A  118A  	fcall	_LCD_escreve
  6746                           
  6747                           ;main.c: 354:     LCD_escreve(' ');
  6748  15E5  3020               	movlw	32
  6749  15E6  160A  118A  251E  160A  118A  	fcall	_LCD_escreve
  6750                           
  6751                           ;main.c: 355:     LCD_escreve(' ');
  6752  15EB  3020               	movlw	32
  6753  15EC  160A  118A  251E  160A  118A  	fcall	_LCD_escreve
  6754                           
  6755                           ;main.c: 356:     LCD_escreve(' ');
  6756  15F1  3020               	movlw	32
  6757  15F2  160A  118A  251E  160A  118A  	fcall	_LCD_escreve
  6758                           
  6759                           ;main.c: 357:     LCD_escreve(' ');
  6760  15F7  3020               	movlw	32
  6761  15F8  160A  118A  251E  160A  118A  	fcall	_LCD_escreve
  6762                           
  6763                           ;main.c: 358:     LCD_escreve(' ');
  6764  15FD  3020               	movlw	32
  6765  15FE  160A  118A  251E  160A  118A  	fcall	_LCD_escreve
  6766  1603                     l177:
  6767  1603  0008               	return
  6768  1604                     __end_of_espacoLivre:
  6769                           
  6770                           	psect	text19
  6771  14DE                     __ptext19:	
  6772 ;; *************** function _LCD_linha2 *****************
  6773 ;; Defined at:
  6774 ;;		line 73 in file "./lcd.h"
  6775 ;; Parameters:    Size  Location     Type
  6776 ;;		None
  6777 ;; Auto vars:     Size  Location     Type
  6778 ;;		None
  6779 ;; Return value:  Size  Location     Type
  6780 ;;                  1    wreg      void 
  6781 ;; Registers used:
  6782 ;;		wreg, status,2, status,0, btemp+1, pclath, cstack
  6783 ;; Tracked objects:
  6784 ;;		On entry : 0/0
  6785 ;;		On exit  : 0/0
  6786 ;;		Unchanged: 0/0
  6787 ;; Data sizes:     COMMON   BANK0   BANK1   BANK3   BANK2
  6788 ;;      Params:         0       0       0       0       0
  6789 ;;      Locals:         0       0       0       0       0
  6790 ;;      Temps:          0       0       0       0       0
  6791 ;;      Totals:         0       0       0       0       0
  6792 ;;Total ram usage:        0 bytes
  6793 ;; Hardware stack levels used: 1
  6794 ;; Hardware stack levels required when called: 1
  6795 ;; This function calls:
  6796 ;;		_delay
  6797 ;; This function is called by:
  6798 ;;		_Linha2
  6799 ;;		_espacoLivre
  6800 ;;		_listaZonas
  6801 ;; This function uses a non-reentrant model
  6802 ;;
  6803                           
  6804                           
  6805                           ;psect for function _LCD_linha2
  6806  14DE                     _LCD_linha2:
  6807  14DE                     l2198:	
  6808                           ;incstack = 0
  6809                           ; Regs used in _LCD_linha2: [wreg+status,2+status,0+btemp+1+pclath+cstack]
  6810                           
  6811                           
  6812                           ;./lcd.h: 74:     PORTD = 0xC0;
  6813  14DE  30C0               	movlw	192
  6814  14DF  1283               	bcf	3,5	;RP0=0, select bank0
  6815  14E0  1303               	bcf	3,6	;RP1=0, select bank0
  6816  14E1  0088               	movwf	8	;volatile
  6817  14E2                     l2200:
  6818                           
  6819                           ;./lcd.h: 75:     RA5 = 0;
  6820  14E2  1285               	bcf	5,5	;volatile
  6821  14E3                     l2202:
  6822                           
  6823                           ;./lcd.h: 76:     RA4 = 0;
  6824  14E3  1205               	bcf	5,4	;volatile
  6825  14E4                     l2204:
  6826                           
  6827                           ;./lcd.h: 77:     RA3=0;
  6828  14E4  1185               	bcf	5,3	;volatile
  6829  14E5                     l2206:
  6830                           
  6831                           ;./lcd.h: 78:     delay();
  6832  14E5  160A  118A  2542  160A  118A  	fcall	_delay
  6833  14EA                     l2208:
  6834                           
  6835                           ;./lcd.h: 79:  RA3 = 1;
  6836  14EA  1283               	bcf	3,5	;RP0=0, select bank0
  6837  14EB  1303               	bcf	3,6	;RP1=0, select bank0
  6838  14EC  1585               	bsf	5,3	;volatile
  6839  14ED                     l74:
  6840  14ED  0008               	return
  6841  14EE                     __end_of_LCD_linha2:
  6842                           
  6843                           	psect	text20
  6844  151E                     __ptext20:	
  6845 ;; *************** function _LCD_escreve *****************
  6846 ;; Defined at:
  6847 ;;		line 46 in file "./lcd.h"
  6848 ;; Parameters:    Size  Location     Type
  6849 ;;  x               1    wreg     unsigned char 
  6850 ;; Auto vars:     Size  Location     Type
  6851 ;;  x               1    2[COMMON] unsigned char 
  6852 ;; Return value:  Size  Location     Type
  6853 ;;                  1    wreg      void 
  6854 ;; Registers used:
  6855 ;;		wreg, status,2, status,0, btemp+1, pclath, cstack
  6856 ;; Tracked objects:
  6857 ;;		On entry : 0/0
  6858 ;;		On exit  : 0/0
  6859 ;;		Unchanged: 0/0
  6860 ;; Data sizes:     COMMON   BANK0   BANK1   BANK3   BANK2
  6861 ;;      Params:         0       0       0       0       0
  6862 ;;      Locals:         1       0       0       0       0
  6863 ;;      Temps:          0       0       0       0       0
  6864 ;;      Totals:         1       0       0       0       0
  6865 ;;Total ram usage:        1 bytes
  6866 ;; Hardware stack levels used: 1
  6867 ;; Hardware stack levels required when called: 1
  6868 ;; This function calls:
  6869 ;;		_delay
  6870 ;; This function is called by:
  6871 ;;		_teclado
  6872 ;;		_telaInicial
  6873 ;;		_Linha2
  6874 ;;		_espacoLivre
  6875 ;;		_validaUser
  6876 ;;		_listaZonas
  6877 ;;		_LCD_escreveFrase
  6878 ;; This function uses a non-reentrant model
  6879 ;;
  6880                           
  6881                           
  6882                           ;psect for function _LCD_escreve
  6883  151E                     _LCD_escreve:
  6884                           
  6885                           ;incstack = 0
  6886                           ; Regs used in _LCD_escreve: [wreg+status,2+status,0+btemp+1+pclath+cstack]
  6887                           ;LCD_escreve@x stored from wreg
  6888  151E  00F2               	movwf	LCD_escreve@x
  6889  151F                     l2186:
  6890                           
  6891                           ;./lcd.h: 46: void LCD_escreve(char x);./lcd.h: 47: {;./lcd.h: 48:  PORTD = x;
  6892  151F  0872               	movf	LCD_escreve@x,w
  6893  1520  1283               	bcf	3,5	;RP0=0, select bank0
  6894  1521  1303               	bcf	3,6	;RP1=0, select bank0
  6895  1522  0088               	movwf	8	;volatile
  6896  1523                     l2188:
  6897                           
  6898                           ;./lcd.h: 49:  RA5 = 1;
  6899  1523  1685               	bsf	5,5	;volatile
  6900  1524                     l2190:
  6901                           
  6902                           ;./lcd.h: 50:  RA4 = 0;
  6903  1524  1205               	bcf	5,4	;volatile
  6904  1525                     l2192:
  6905                           
  6906                           ;./lcd.h: 51:  RA3 = 0;
  6907  1525  1185               	bcf	5,3	;volatile
  6908  1526                     l2194:
  6909                           
  6910                           ;./lcd.h: 52:  delay();
  6911  1526  160A  118A  2542  160A  118A  	fcall	_delay
  6912  152B                     l2196:
  6913                           
  6914                           ;./lcd.h: 53:  RA3 = 1;
  6915  152B  1283               	bcf	3,5	;RP0=0, select bank0
  6916  152C  1303               	bcf	3,6	;RP1=0, select bank0
  6917  152D  1585               	bsf	5,3	;volatile
  6918  152E                     l65:
  6919  152E  0008               	return
  6920  152F                     __end_of_LCD_escreve:
  6921                           
  6922                           	psect	text21
  6923  0802                     __ptext21:	
  6924 ;; *************** function _LCD_init *****************
  6925 ;; Defined at:
  6926 ;;		line 31 in file "./lcd.h"
  6927 ;; Parameters:    Size  Location     Type
  6928 ;;		None
  6929 ;; Auto vars:     Size  Location     Type
  6930 ;;		None
  6931 ;; Return value:  Size  Location     Type
  6932 ;;                  1    wreg      void 
  6933 ;; Registers used:
  6934 ;;		wreg, status,2, status,0, btemp+1, pclath, cstack
  6935 ;; Tracked objects:
  6936 ;;		On entry : 0/0
  6937 ;;		On exit  : 0/0
  6938 ;;		Unchanged: 0/0
  6939 ;; Data sizes:     COMMON   BANK0   BANK1   BANK3   BANK2
  6940 ;;      Params:         0       0       0       0       0
  6941 ;;      Locals:         0       0       0       0       0
  6942 ;;      Temps:          0       0       0       0       0
  6943 ;;      Totals:         0       0       0       0       0
  6944 ;;Total ram usage:        0 bytes
  6945 ;; Hardware stack levels used: 1
  6946 ;; Hardware stack levels required when called: 2
  6947 ;; This function calls:
  6948 ;;		_LCD_enable
  6949 ;;		_init
  6950 ;; This function is called by:
  6951 ;;		_main
  6952 ;; This function uses a non-reentrant model
  6953 ;;
  6954                           
  6955                           
  6956                           ;psect for function _LCD_init
  6957  0802                     _LCD_init:
  6958  0802                     l2478:	
  6959                           ;incstack = 0
  6960                           ; Regs used in _LCD_init: [wreg+status,2+status,0+btemp+1+pclath+cstack]
  6961                           
  6962                           
  6963                           ;./lcd.h: 33:     init();
  6964  0802  160A  118A  24B5  120A  158A  	fcall	_init
  6965  0807                     l2480:
  6966                           
  6967                           ;./lcd.h: 34:  PORTD = 0X1;
  6968  0807  3001               	movlw	1
  6969  0808  1283               	bcf	3,5	;RP0=0, select bank0
  6970  0809  1303               	bcf	3,6	;RP1=0, select bank0
  6971  080A  0088               	movwf	8	;volatile
  6972  080B                     l2482:
  6973                           
  6974                           ;./lcd.h: 35:  LCD_enable();
  6975  080B  160A  118A  24C1  120A  158A  	fcall	_LCD_enable
  6976  0810                     l2484:
  6977                           
  6978                           ;./lcd.h: 36:  PORTD = 0X38;
  6979  0810  3038               	movlw	56
  6980  0811  1283               	bcf	3,5	;RP0=0, select bank0
  6981  0812  1303               	bcf	3,6	;RP1=0, select bank0
  6982  0813  0088               	movwf	8	;volatile
  6983  0814                     l2486:
  6984                           
  6985                           ;./lcd.h: 37:  LCD_enable();
  6986  0814  160A  118A  24C1  120A  158A  	fcall	_LCD_enable
  6987  0819                     l2488:
  6988                           
  6989                           ;./lcd.h: 38:  PORTD = 0X0e;
  6990  0819  300E               	movlw	14
  6991  081A  1283               	bcf	3,5	;RP0=0, select bank0
  6992  081B  1303               	bcf	3,6	;RP1=0, select bank0
  6993  081C  0088               	movwf	8	;volatile
  6994  081D                     l2490:
  6995                           
  6996                           ;./lcd.h: 39:  LCD_enable();
  6997  081D  160A  118A  24C1  120A  158A  	fcall	_LCD_enable
  6998  0822                     l2492:
  6999                           
  7000                           ;./lcd.h: 40:  PORTD = 0X06;
  7001  0822  3006               	movlw	6
  7002  0823  1283               	bcf	3,5	;RP0=0, select bank0
  7003  0824  1303               	bcf	3,6	;RP1=0, select bank0
  7004  0825  0088               	movwf	8	;volatile
  7005  0826                     l2494:
  7006                           
  7007                           ;./lcd.h: 41:  LCD_enable();
  7008  0826  160A  118A  24C1  120A  158A  	fcall	_LCD_enable
  7009  082B                     l2496:
  7010                           
  7011                           ;./lcd.h: 42:  PORTD = 0X80;
  7012  082B  3080               	movlw	128
  7013  082C  1283               	bcf	3,5	;RP0=0, select bank0
  7014  082D  1303               	bcf	3,6	;RP1=0, select bank0
  7015  082E  0088               	movwf	8	;volatile
  7016  082F                     l2498:
  7017                           
  7018                           ;./lcd.h: 43:  LCD_enable();
  7019  082F  160A  118A  24C1  120A  158A  	fcall	_LCD_enable
  7020  0834                     l62:
  7021  0834  0008               	return
  7022  0835                     __end_of_LCD_init:
  7023                           
  7024                           	psect	text22
  7025  14B5                     __ptext22:	
  7026 ;; *************** function _init *****************
  7027 ;; Defined at:
  7028 ;;		line 23 in file "./lcd.h"
  7029 ;; Parameters:    Size  Location     Type
  7030 ;;		None
  7031 ;; Auto vars:     Size  Location     Type
  7032 ;;		None
  7033 ;; Return value:  Size  Location     Type
  7034 ;;                  1    wreg      void 
  7035 ;; Registers used:
  7036 ;;		wreg, status,2
  7037 ;; Tracked objects:
  7038 ;;		On entry : 0/0
  7039 ;;		On exit  : 0/0
  7040 ;;		Unchanged: 0/0
  7041 ;; Data sizes:     COMMON   BANK0   BANK1   BANK3   BANK2
  7042 ;;      Params:         0       0       0       0       0
  7043 ;;      Locals:         0       0       0       0       0
  7044 ;;      Temps:          0       0       0       0       0
  7045 ;;      Totals:         0       0       0       0       0
  7046 ;;Total ram usage:        0 bytes
  7047 ;; Hardware stack levels used: 1
  7048 ;; This function calls:
  7049 ;;		Nothing
  7050 ;; This function is called by:
  7051 ;;		_LCD_init
  7052 ;; This function uses a non-reentrant model
  7053 ;;
  7054                           
  7055                           
  7056                           ;psect for function _init
  7057  14B5                     _init:
  7058  14B5                     l2224:	
  7059                           ;incstack = 0
  7060                           ; Regs used in _init: [wreg+status,2]
  7061                           
  7062                           
  7063                           ;./lcd.h: 25:  ADCON1 = 0X07;
  7064  14B5  3007               	movlw	7
  7065  14B6  1683               	bsf	3,5	;RP0=1, select bank1
  7066  14B7  1303               	bcf	3,6	;RP1=0, select bank1
  7067  14B8  009F               	movwf	31	;volatile
  7068  14B9                     l2226:
  7069                           
  7070                           ;./lcd.h: 26:      RA1=1;
  7071  14B9  1283               	bcf	3,5	;RP0=0, select bank0
  7072  14BA  1303               	bcf	3,6	;RP1=0, select bank0
  7073  14BB  1485               	bsf	5,1	;volatile
  7074  14BC                     l2228:
  7075                           
  7076                           ;./lcd.h: 27:  TRISA = 0X00;
  7077  14BC  1683               	bsf	3,5	;RP0=1, select bank1
  7078  14BD  1303               	bcf	3,6	;RP1=0, select bank1
  7079  14BE  0185               	clrf	5	;volatile
  7080  14BF                     l2230:
  7081                           
  7082                           ;./lcd.h: 28:  TRISD = 0X00;
  7083  14BF  0188               	clrf	8	;volatile
  7084  14C0                     l59:
  7085  14C0  0008               	return
  7086  14C1                     __end_of_init:
  7087                           
  7088                           	psect	text23
  7089  14C1                     __ptext23:	
  7090 ;; *************** function _LCD_enable *****************
  7091 ;; Defined at:
  7092 ;;		line 85 in file "./lcd.h"
  7093 ;; Parameters:    Size  Location     Type
  7094 ;;		None
  7095 ;; Auto vars:     Size  Location     Type
  7096 ;;		None
  7097 ;; Return value:  Size  Location     Type
  7098 ;;                  1    wreg      void 
  7099 ;; Registers used:
  7100 ;;		wreg, status,2, status,0, btemp+1, pclath, cstack
  7101 ;; Tracked objects:
  7102 ;;		On entry : 0/0
  7103 ;;		On exit  : 0/0
  7104 ;;		Unchanged: 0/0
  7105 ;; Data sizes:     COMMON   BANK0   BANK1   BANK3   BANK2
  7106 ;;      Params:         0       0       0       0       0
  7107 ;;      Locals:         0       0       0       0       0
  7108 ;;      Temps:          0       0       0       0       0
  7109 ;;      Totals:         0       0       0       0       0
  7110 ;;Total ram usage:        0 bytes
  7111 ;; Hardware stack levels used: 1
  7112 ;; Hardware stack levels required when called: 1
  7113 ;; This function calls:
  7114 ;;		_delay
  7115 ;; This function is called by:
  7116 ;;		_LCD_init
  7117 ;; This function uses a non-reentrant model
  7118 ;;
  7119                           
  7120                           
  7121                           ;psect for function _LCD_enable
  7122  14C1                     _LCD_enable:
  7123  14C1                     l2232:	
  7124                           ;incstack = 0
  7125                           ; Regs used in _LCD_enable: [wreg+status,2+status,0+btemp+1+pclath+cstack]
  7126                           
  7127                           
  7128                           ;./lcd.h: 87:  RA5 = 0;
  7129  14C1  1283               	bcf	3,5	;RP0=0, select bank0
  7130  14C2  1303               	bcf	3,6	;RP1=0, select bank0
  7131  14C3  1285               	bcf	5,5	;volatile
  7132                           
  7133                           ;./lcd.h: 88:  RA4 = 0;
  7134  14C4  1205               	bcf	5,4	;volatile
  7135                           
  7136                           ;./lcd.h: 89:  RA3 = 0;
  7137  14C5  1185               	bcf	5,3	;volatile
  7138  14C6                     l2234:
  7139                           
  7140                           ;./lcd.h: 90:  delay();
  7141  14C6  160A  118A  2542  160A  118A  	fcall	_delay
  7142  14CB                     l2236:
  7143                           
  7144                           ;./lcd.h: 91:  RA3 = 1;
  7145  14CB  1283               	bcf	3,5	;RP0=0, select bank0
  7146  14CC  1303               	bcf	3,6	;RP1=0, select bank0
  7147  14CD  1585               	bsf	5,3	;volatile
  7148  14CE                     l77:
  7149  14CE  0008               	return
  7150  14CF                     __end_of_LCD_enable:
  7151                           
  7152                           	psect	text24
  7153  1542                     __ptext24:	
  7154 ;; *************** function _delay *****************
  7155 ;; Defined at:
  7156 ;;		line 94 in file "./lcd.h"
  7157 ;; Parameters:    Size  Location     Type
  7158 ;;		None
  7159 ;; Auto vars:     Size  Location     Type
  7160 ;;  i               2    0[COMMON] int 
  7161 ;; Return value:  Size  Location     Type
  7162 ;;                  1    wreg      void 
  7163 ;; Registers used:
  7164 ;;		wreg, status,2, btemp+1
  7165 ;; Tracked objects:
  7166 ;;		On entry : 0/0
  7167 ;;		On exit  : 0/0
  7168 ;;		Unchanged: 0/0
  7169 ;; Data sizes:     COMMON   BANK0   BANK1   BANK3   BANK2
  7170 ;;      Params:         0       0       0       0       0
  7171 ;;      Locals:         2       0       0       0       0
  7172 ;;      Temps:          0       0       0       0       0
  7173 ;;      Totals:         2       0       0       0       0
  7174 ;;Total ram usage:        2 bytes
  7175 ;; Hardware stack levels used: 1
  7176 ;; This function calls:
  7177 ;;		Nothing
  7178 ;; This function is called by:
  7179 ;;		_LCD_escreve
  7180 ;;		_LCD_limpa
  7181 ;;		_LCD_linha1
  7182 ;;		_LCD_linha2
  7183 ;;		_LCD_enable
  7184 ;; This function uses a non-reentrant model
  7185 ;;
  7186                           
  7187                           
  7188                           ;psect for function _delay
  7189  1542                     _delay:
  7190  1542                     l2010:	
  7191                           ;incstack = 0
  7192                           ; Regs used in _delay: [wreg+status,2+btemp+1]
  7193                           
  7194                           
  7195                           ;./lcd.h: 96:  int i;;./lcd.h: 97:  for (i = 0;i < 5000;i++);
  7196  1542  01F0               	clrf	delay@i
  7197  1543  01F1               	clrf	delay@i+1
  7198  1544                     l2016:
  7199  1544  3001               	movlw	1
  7200  1545  07F0               	addwf	delay@i,f
  7201  1546  1803               	skipnc
  7202  1547  0AF1               	incf	delay@i+1,f
  7203  1548  3000               	movlw	0
  7204  1549  07F1               	addwf	delay@i+1,f
  7205  154A                     l2018:
  7206  154A  0871               	movf	delay@i+1,w
  7207  154B  3A80               	xorlw	128
  7208  154C  00FF               	movwf	btemp+1
  7209  154D  3093               	movlw	147
  7210  154E  027F               	subwf	btemp+1,w
  7211  154F  1D03               	skipz
  7212  1550  2D53               	goto	u1985
  7213  1551  3088               	movlw	136
  7214  1552  0270               	subwf	delay@i,w
  7215  1553                     u1985:
  7216  1553  1C03               	skipc
  7217  1554  2D56               	goto	u1981
  7218  1555  2D57               	goto	u1980
  7219  1556                     u1981:
  7220  1556  2D44               	goto	l2016
  7221  1557                     u1980:
  7222  1557                     l82:
  7223  1557  0008               	return
  7224  1558                     __end_of_delay:
  7225  007E                     btemp	set	126	;btemp
  7226  007E                     wtemp0	set	126

Data Sizes:
    Strings     20
    Constant    0
    Data        31
    BSS         20
    Persistent  0
    Stack       0

Auto Spaces:
    Space          Size  Autos    Used
    COMMON           14     14      14
    BANK0            80     42      78
    BANK1            80      0      15
    BANK3            96      0       0
    BANK2            96      0       0

Pointer List with Targets:

    strlen@s	PTR const unsigned char  size(1) Largest target is 15
		 -> senhaUserConfere(BANK0[5]), msg2(BANK0[5]), msg(BANK1[15]), 

    strlen@cp	PTR const unsigned char  size(1) Largest target is 15
		 -> senhaUserConfere(BANK0[5]), msg2(BANK0[5]), msg(BANK1[15]), 

    strcpy@from	PTR const unsigned char  size(1) Largest target is 5
		 -> senhaUserConfere(BANK0[5]), 

    strcpy@to	PTR unsigned char  size(1) Largest target is 5
		 -> senhaUserConfere(BANK0[5]), 

    strcpy@cp	PTR unsigned char  size(1) Largest target is 5
		 -> senhaUserConfere(BANK0[5]), 

    strcmp@s2	PTR const unsigned char  size(1) Largest target is 5
		 -> senhaUserConfere(BANK0[5]), 

    strcmp@s1	PTR const unsigned char  size(1) Largest target is 5
		 -> senhaUser(BANK0[5]), 

    strcat@from	PTR const unsigned char  size(1) Largest target is 2
		 -> NULL(NULL[0]), STR_10(CODE[2]), STR_9(CODE[2]), STR_8(CODE[2]), 
		 -> STR_7(CODE[2]), STR_6(CODE[2]), STR_5(CODE[2]), STR_4(CODE[2]), 
		 -> STR_3(CODE[2]), STR_2(CODE[2]), STR_1(CODE[2]), 

    strcat@to	PTR unsigned char  size(1) Largest target is 5
		 -> senhaUserConfere(BANK0[5]), 

    strcat@cp	PTR unsigned char  size(1) Largest target is 5
		 -> senhaUserConfere(BANK0[5]), 

    sp__strcat	PTR unsigned char  size(1) Largest target is 5
		 -> senhaUserConfere(BANK0[5]), 

    sp__strcpy	PTR unsigned char  size(1) Largest target is 5
		 -> senhaUserConfere(BANK0[5]), 

    aux	PTR unsigned char  size(1) Largest target is 2
		 -> NULL(NULL[0]), STR_10(CODE[2]), STR_9(CODE[2]), STR_8(CODE[2]), 
		 -> STR_7(CODE[2]), STR_6(CODE[2]), STR_5(CODE[2]), STR_4(CODE[2]), 
		 -> STR_3(CODE[2]), STR_2(CODE[2]), STR_1(CODE[2]), 


Critical Paths under _main in COMMON

    _liga_buzzer->___flmul
    ___flsub->___fladd
    ___flmul->__Umul8_16
    _strcat->_strcpy
    _telaInicial->_strlen
    _listaZonas->_LCD_escreve
    _LCD_linha1->_delay
    _LCD_limpa->_delay
    _Linha2->_strlen
    _espacoLivre->_LCD_escreve
    _LCD_linha2->_delay
    _LCD_escreve->_delay
    _LCD_enable->_delay

Critical Paths under _main in BANK0

    _main->_validaUser
    _validaUser->_teclado
    _teclado->_liga_buzzer
    _liga_buzzer->___flmul
    ___flsub->___fladd

Critical Paths under _main in BANK1

    None.

Critical Paths under _main in BANK3

    None.

Critical Paths under _main in BANK2

    None.

Call Graph Tables:

 ---------------------------------------------------------------------------------
 (Depth) Function   	        Calls       Base Space   Used Autos Params    Refs
 ---------------------------------------------------------------------------------
 (0) _main                                                 5     5      0   15826
                                             37 BANK0      5     5      0
                           _LCD_init
                          _LCD_limpa
                             _Linha2
                         _listaZonas
                        _telaInicial
                         _validaUser
 ---------------------------------------------------------------------------------
 (1) _validaUser                                           7     7      0   14440
                                             30 BANK0      7     7      0
                        _LCD_escreve
                          _LCD_limpa
                         _LCD_linha1
                        _liga_buzzer
                             _strcat
                             _strcmp
                             _strcpy
                             _strlen
                            _teclado
 ---------------------------------------------------------------------------------
 (2) _teclado                                              3     3      0    6664
                                             27 BANK0      3     3      0
                        _LCD_escreve
                        _liga_buzzer
 ---------------------------------------------------------------------------------
 (3) _liga_buzzer                                          6     2      4    6596
                                             21 BANK0      6     2      4
                             ___flge
                            ___flmul
                            ___flsub
 ---------------------------------------------------------------------------------
 (4) ___flsub                                              8     0      8    2333
                                              8 BANK0      8     0      8
                            ___fladd
 ---------------------------------------------------------------------------------
 (5) ___fladd                                             20    12      8    2136
                                              0 COMMON    12     4      8
                                              0 BANK0      8     8      0
 ---------------------------------------------------------------------------------
 (4) ___flmul                                             26    18      8    2417
                                              9 COMMON     5     5      0
                                              0 BANK0     21    13      8
                          __Umul8_16
 ---------------------------------------------------------------------------------
 (5) __Umul8_16                                            9     7      2     799
                                              0 COMMON     9     7      2
 ---------------------------------------------------------------------------------
 (4) ___flge                                              12     4      8     334
                                              0 COMMON    12     4      8
 ---------------------------------------------------------------------------------
 (2) _strcpy                                               4     3      1     200
                                              0 COMMON     4     3      1
 ---------------------------------------------------------------------------------
 (2) _strcmp                                               7     5      2     309
                                              0 COMMON     7     5      2
 ---------------------------------------------------------------------------------
 (3) _strcat                                               4     3      1     207
                                              4 COMMON     4     3      1
                             _strcpy (ARG)
 ---------------------------------------------------------------------------------
 (1) _telaInicial                                          4     4      0     349
                                              5 COMMON     4     4      0
                        _LCD_escreve
                         _LCD_linha1
                             _strlen
 ---------------------------------------------------------------------------------
 (1) _listaZonas                                           2     0      2     414
                                              3 COMMON     2     0      2
                        _LCD_escreve
                          _LCD_limpa
                         _LCD_linha1
                         _LCD_linha2
 ---------------------------------------------------------------------------------
 (2) _LCD_linha1                                           0     0      0      46
                              _delay
 ---------------------------------------------------------------------------------
 (2) _LCD_limpa                                            0     0      0      46
                              _delay
 ---------------------------------------------------------------------------------
 (1) _Linha2                                               4     4      0     463
                                              5 COMMON     4     4      0
                        _LCD_escreve
                         _LCD_linha2
                        _espacoLivre
                             _strlen
 ---------------------------------------------------------------------------------
 (2) _strlen                                               5     3      2     189
                                              0 COMMON     5     3      2
 ---------------------------------------------------------------------------------
 (2) _espacoLivre                                          0     0      0     114
                        _LCD_escreve
                         _LCD_linha2
 ---------------------------------------------------------------------------------
 (2) _LCD_linha2                                           0     0      0      46
                              _delay
 ---------------------------------------------------------------------------------
 (3) _LCD_escreve                                          1     1      0      68
                                              2 COMMON     1     1      0
                              _delay
 ---------------------------------------------------------------------------------
 (1) _LCD_init                                             0     0      0      46
                         _LCD_enable
                               _init
 ---------------------------------------------------------------------------------
 (2) _init                                                 0     0      0       0
 ---------------------------------------------------------------------------------
 (2) _LCD_enable                                           0     0      0      46
                              _delay
 ---------------------------------------------------------------------------------
 (4) _delay                                                2     2      0      46
                                              0 COMMON     2     2      0
 ---------------------------------------------------------------------------------
 Estimated maximum stack depth 5
 ---------------------------------------------------------------------------------

 Call Graph Graphs:

 _main (ROOT)
   _LCD_init
     _LCD_enable
       _delay
     _init
   _LCD_limpa
     _delay
   _Linha2
     _LCD_escreve
       _delay
     _LCD_linha2
       _delay
     _espacoLivre
       _LCD_escreve
       _LCD_linha2
     _strlen
   _listaZonas
     _LCD_escreve
     _LCD_limpa
     _LCD_linha1
       _delay
     _LCD_linha2
   _telaInicial
     _LCD_escreve
     _LCD_linha1
     _strlen
   _validaUser
     _LCD_escreve
     _LCD_limpa
     _LCD_linha1
     _liga_buzzer
       ___flge
       ___flmul
         __Umul8_16
       ___flsub
         ___fladd
     _strcat
       _strcpy (ARG)
     _strcmp
     _strcpy
     _strlen
     _teclado
       _LCD_escreve
       _liga_buzzer

 Address spaces:
Name               Size   Autos  Total    Cost      Usage
BANK3               60      0       0       9        0.0%
BITBANK3            60      0       0       8        0.0%
SFR3                 0      0       0       4        0.0%
BITSFR3              0      0       0       4        0.0%
BANK2               60      0       0      11        0.0%
BITBANK2            60      0       0      10        0.0%
SFR2                 0      0       0       5        0.0%
BITSFR2              0      0       0       5        0.0%
BANK1               50      0       F       7       18.8%
BITBANK1            50      0       0       6        0.0%
SFR1                 0      0       0       2        0.0%
BITSFR1              0      0       0       2        0.0%
BANK0               50     2A      4E       5       97.5%
BITBANK0            50      0       0       4        0.0%
SFR0                 0      0       0       1        0.0%
BITSFR0              0      0       0       1        0.0%
COMMON               E      E       E       1      100.0%
BITCOMMON            E      0       0       0        0.0%
CODE                 0      0       0       0        0.0%
DATA                 0      0      6B      12        0.0%
ABS                  0      0      6B       3        0.0%
NULL                 0      0       0       0        0.0%
STACK                0      0       0       2        0.0%
EEDATA             100      0       0       0        0.0%


Microchip Technology PIC Macro Assembler V2.32 build 20210201212658 
Symbol Table                                                                                   Wed Sep 29 23:27:09 2021

                       pc 0002                        l62 0834                        l71 150D  
                      l65 152E                        l82 1557                        l74 14ED  
                      l59 14C0                        l68 14FD                        l77 14CE  
                      fsr 0004       __Umul8_16@word_mpld 0076               ?_LCD_enable 0070  
                     l133 175D                       l150 0EA1                       l142 0DD3  
                     l208 0A6A                       l217 07D8                       l162 0FFF  
                     l157 0F59                       l174 166B                       l168 0069  
                     l600 0B77                       l177 1603                       l602 0B4C  
                     l621 0C6E                       l630 0CD0                       l711 15C7  
                     l480 17E6                       l704 03BE                       l481 17FF  
                     l713 15D9                       l617 0C48                       l609 0D02  
                     l642 15B2                       l627 0C90                       l477 177A  
                     l638 0CF4                       l639 0D02                       l760 1630  
                     l780 1570                       l692 03CA                       l596 0ACE  
                     l774 158E                       l768 002C                       l698 0336  
                     _RA1 0029                       _RB0 0030                       _RA3 002B  
                     _RB1 0031                       _RA4 002C                       _RB2 0032  
                     _RA5 002D                       _RB3 0033               ?_LCD_linha1 0070  
             ?_LCD_linha2 0070                       _aux 0058                       _msg 00A0  
                     fsr0 0004                       indf 0000              ___flmul@aexp 002D  
            ___flmul@bexp 002E              ___flmul@sign 0028              ___flmul@temp 0033  
            ___flmul@prod 002F                      l2000 15BD                      l2010 1542  
                    l2002 15C1                      l2020 175E                      l2004 15D0  
                    l2100 0159                      l2030 17BE                      l2022 1772  
                    l2006 15D5                      l2110 01C7                      l2102 0175  
                    l2016 1544                      l2200 14E2                      l2032 17C2  
                    l2024 178E                      l2120 0257                      l2112 01D7  
                    l2104 0191                      l2040 158F                      l2018 154A  
                    l2202 14E3                      l2034 17FC                      l2026 1796  
                    l2130 02EB                      l2122 0267                      l2114 01F4  
                    l2106 019A                      l2050 0077                      l2042 1593  
                    l2210 16E2                      l2204 14E4                      l2036 17FE  
                    l2028 179A                      l2140 0310                      l2132 02F9  
                    l2124 0294                      l2116 020D                      l2108 01AA  
                    l2060 008E                      l2052 007B                      l2220 173E  
                    l2212 1703                      l2300 0DA0                      l2230 14BF  
                    l2206 14E5                      l2150 0333                      l2134 0302  
                    l2142 0316                      l2126 02BA                      l2118 022A  
                    l2070 00A7                      l2062 0090                      l2054 007C  
                    l2046 006A                      l2222 1759                      l2214 170F  
                    l2310 0DCF                      l2302 0DA4                      l2232 14C1  
                    l2224 14B5                      l2208 14EA                      l2240 14F2  
                    l2160 0352                      l2144 031A                      l2136 0306  
                    l2128 02E2                      l2080 00BC                      l2072 00A8  
                    l2064 0098                      l2056 0081                      l2048 0071  
                    l2216 1712                      l2400 0F5D                      l2320 0DFC  
                    l2312 0DD5                      l2304 0DB2                      l2234 14C6  
                    l2226 14B9                      l2242 14F3                      l2250 14FE  
                    l2170 0398                      l2162 036B                      l2154 033B  
                    l2146 031B                      l2138 0307                      l2090 00D7  
                    l2082 00C4                      l2074 00AD                      l2066 009D  
                    l2058 0086                      l2218 171D                      l2410 0F8A  
                    l2402 0F61                      l2330 0E29                      l2322 0E04  
                    l2314 0DD9                      l2306 0DC1                      l2236 14CB  
                    l2228 14BC                      l2244 14F4                      l2260 150A  
                    l2252 1502                      l2500 002D                      l2180 03B7  
                    l2172 03A2                      l2156 0340                      l2164 0371  
                    l2148 031F                      l2092 00E7                      l2084 00C9  
                    l2076 00B2                      l2068 00A3                      l2420 0FC1  
                    l2412 0F98                      l2404 0F6F                      l2340 0E4D  
                    l2332 0E2F                      l2316 0DE7                      l2324 0E08  
                    l2308 0DC7                      l2190 1524                      l2246 14F5  
                    l2238 14EE                      l2254 1503                      l2510 0063  
                    l2502 0038                      l2182 03C2                      l2174 03A4  
                    l2166 037E                      l2158 034E                      l2094 00F4  
                    l2086 00CE                      l2078 00BA                      l2430 0FF9  
                    l2422 0FD0                      l2414 0FA7                      l2406 0F7E  
                    l2350 0E72                      l2342 0E5C                      l2334 0E37  
                    l2326 0E0C                      l2318 0DF6                      l2270 0D2A  
                    l2262 0D03                      l2192 1525                      l2432 1559  
                    l2520 164E                      l2512 1631                      l2248 14FA  
                    l2256 1504                      l2504 003B                      l2176 03B2  
                    l2168 0389                      l2096 0111                      l2424 0FD6  
                    l2416 0FAD                      l2408 0F84                      l2360 0EA3  
                    l2352 0E80                      l2344 0E62                      l2328 0E1A  
                    l2336 0E3B                      l2280 0D4C                      l2272 0D30  
                    l2264 0D09                      l2600 095A                      l2194 1526  
                    l2186 151F                      l2442 15DA                      l2434 155E  
                    l2522 1666                      l2514 163B                      l2258 1505  
                    l2506 0045                      l2450 158D                      l2178 03B6  
                    l2098 012D                      l1810 0A7D                      l1802 0A6B  
                    l2426 0FDC                      l2418 0FB3                      l2370 0ED2  
                    l2362 0EA7                      l2354 0E8F                      l2346 0E6A  
                    l2338 0E3F                      l2290 0D71                      l2282 0D5B  
                    l2274 0D38                      l2266 0D0D                      l2610 099A  
                    l2602 0968                      l2530 0851                      l2196 152B  
                    l2188 1523                      l2436 1562                      l2516 163E  
                    l2508 004B                      l2460 1617                      l2444 1572  
                    l1900 0B7B                      l1812 0A82                      l1820 0A92  
                    l1804 0A72                      l2428 0FEA                      l2380 0EFD  
                    l2364 0EB5                      l2372 0ED6                      l2356 0E95  
                    l2348 0E6E                      l2292 0D7F                      l2284 0D61  
                    l2268 0D1B                      l2276 0D3A                      l2620 09B8  
                    l2612 09A0                      l2604 0977                      l2540 087B  
                    l2532 0858                      l2524 0835                      l2700 167B  
                    l2198 14DE                      l2438 156A                      l2518 1648  
                    l2462 161F                      l2454 1605                      l2470 000D  
                    l2446 1577                      l1910 0BA4                      l1902 0B80  
                    l1830 0AAC                      l1822 0A9A                      l1814 0A87  
                    l1806 0A78                      l2390 0F2A                      l2382 0F05  
                    l2374 0EDA                      l2366 0EC4                      l2358 0E9D  
                    l2294 0D8E                      l2286 0D69                      l2278 0D3E  
                    l2630 09D6                      l2622 09BE                      l2614 09A6  
                    l2606 0980                      l2550 0894                      l2542 0880  
                    l2534 085D                      l2526 083C                      l2710 169C  
                    l2702 1680                      l2480 0807                      l2456 160A  
                    l2472 0020                      l2464 0004                      l2448 157F  
                    l1920 0BBA                      l1912 0BA8                      l1840 0AC3  
                    l1832 0AB0                      l1824 0A9F                      l1816 0A8F  
                    l1808 0A7C                      l2392 0F30                      l2376 0EE8  
                    l2384 0F09                      l2368 0ECA                      l2296 0D94  
                    l2288 0D6D                      l2640 0A0C                      l2632 09DC  
                    l2624 09C4                      l2616 09AC                      l2608 0990  
                    l2552 0899                      l2544 0885                      l2536 086C  
                    l2560 08A8                      l2528 0844                      l2720 16AC  
                    l2712 16A4                      l2704 1688                      l2490 081D  
                    l2482 080B                      l2458 160E                      l2474 0027  
                    l2466 0005                      l1930 0C26                      l1922 0BC5  
                    l1914 0BB3                      l1906 0B89                      l1850 0ADC  
                    l1842 0AC4                      l1834 0AB1                      l1826 0AA5  
                    l1818 0A90                      l2394 0F36                      l2386 0F0D  
                    l2378 0EF7                      l2298 0D9C                      l2642 0A29  
                    l2634 09E2                      l2626 09CA                      l2618 09B2  
                    l2650 0A53                      l2570 0901                      l2554 089E  
                    l2546 088A                      l2562 08CF                      l2538 0876  
                    l2722 16B2                      l2714 16AA                      l2706 1692  
                    l2492 0822                      l2484 0810                      l2660 03D0  
                    l2468 0009                      l1932 0C2B                      l1916 0BB5  
                    l1908 0BA0                      l1924 0BCA                      l1860 0AF0  
                    l1852 0AE0                      l1836 0AB6                      l1844 0AC6  
                    l1828 0AA6                      l2396 0F44                      l2388 0F1B  
                    l2644 0A2E                      l2636 09E8                      l2628 09D0  
                    l2580 091E                      l2572 0906                      l2564 08F4  
                    l2556 08A3                      l2548 088F                      l2652 0A62  
                    l2724 16BB                      l2708 1697                      l2494 0826  
                    l2486 0814                      l2478 0802                      l2670 0542  
                    l2662 03D6                      l1950 0C75                      l1942 0C5E  
                    l1926 0BE0                      l1934 0C3A                      l1918 0BB9  
                    l1870 0B04                      l1862 0AF4                      l1854 0AE4  
                    l1846 0AD4                      l1838 0ABB                      l2398 0F53  
                    l2646 0A33                      l2638 09FD                      l2590 093C  
                    l2582 0924                      l2574 090C                      l2566 08F8  
                    l2750 08AF                      l2726 16C9                      l2496 082B  
                    l2488 0819                      l2680 0778                      l2672 05F4  
                    l2664 0488                      l1960 0C83                      l1952 0C77  
                    l1944 0C69                      l1936 0C50                      l1928 0C20  
                    l1872 0B08                      l1864 0AF8                      l1856 0AE8  
                    l1848 0AD8                      l1880 0B18                      l2648 0A39  
                    l2592 0942                      l2584 092A                      l2576 0912  
                    l2568 08FC                      l2728 16D1                      l2498 082F  
                    l2682 077F                      l2674 05FB                      l2666 048F  
                    l2658 03CB                      l1970 0C9A                      l1962 0C87  
                    l1954 0C7C                      l1946 0C6D                      l1938 0C55  
                    l1890 0B5D                      l1882 0B19                      l1874 0B0C  
                    l1866 0AFC                      l1858 0AEC                      l2594 0948  
                    l2586 0930                      l2578 0918                      l2676 06B9  
                    l2668 053B                      l1980 0CDA                      l1972 0CA8  
                    l1964 0C8D                      l1948 0C72                      l1956 0C7E  
                    l1892 0B61                      l1884 0B30                      l1876 0B10  
                    l1868 0B00                      l2596 094E                      l2588 0936  
                    l2692 166C                      l2678 06C0                      l1990 0CEE  
                    l1982 0CE2                      l1974 0CAC                      l1958 0C82  
                    l1894 0B62                      l1886 0B50                      l1878 0B14  
                    l2598 0954                      l2694 1670                      l1992 0CFD  
                    l1984 0CE7                      l1976 0CCC                      l1968 0C95  
                    l1896 0B6D                      l1888 0B5B                      l2696 1672  
                    l1994 0D01                      l1986 0CE8                      l1978 0CD5  
                    l1898 0B71                      l2698 1676                      l1996 15B4  
                    l1988 0CEC                      l1998 15B6                      STR_1 1008  
                    STR_2 100A                      STR_3 100C                      STR_4 100E  
                    STR_5 1010                      STR_6 1012                      STR_7 1014  
                    STR_8 1016                      STR_9 1018                      u2000 178E  
                    u2001 178D                      u2010 179A                      u2011 1799  
                    u2100 00AD                      u2021 17A9                      u2101 00AC  
                    u2030 17C2                      u2022 17AA                      u2110 00B2  
                    u2031 17C1                      u2023 17AF                      u2111 00B1  
                    u2024 17B0                      u2120 00C9                      u2041 17D1  
                    u2025 17B5                      u2201 01E6                      u2121 00C8  
                    u2050 17FC                      u2042 17D2                      u2026 17B6  
                    u2202 01ED                      u2130 00CE                      u2051 17FB  
                    u2043 17D7                      u2203 01F4                      u2131 00CD  
                    u2044 17D8                      u2060 007B                      u1500 0A82  
                    u2045 17DD                      u2221 021C                      u2141 011F  
                    u2061 007A                      u1501 0A81                      u2046 17DE  
                    u2310 0306                      u2222 0223                      u2142 0126  
                    u2070 0081                      u1510 0A87                      u2055 17F8  
                    u2311 0305                      u2231 0249                      u2223 022A  
                    u2215 01F6                      u2151 013B                      u2143 012D  
                    u2071 0080                      u1511 0A86                      u3007 09F6  
                    u2400 037E                      u2232 0250                      u2152 0142  
                    u2080 0086                      u1600 0B3A                      u1520 0AA5  
                    u2401 037D                      u2305 02FB                      u2241 0276  
                    u2233 0257                      u2161 0167                      u2153 0149  
                    u2081 0085                      u1521 0AA4                      u3017 0A14  
                    u2410 0398                      u2330 031A                      u2250 02A0  
                    u2242 027D                      u2162 016E                      u2090 00A7  
                    u1610 0B50                      u1530 0AB0                      u2411 0397  
                    u2331 0319                      u2243 0284                      u2171 0183  
                    u2163 0175                      u2091 00A6                      u1611 0B4F  
                    u1531 0AAF                      u3107 0EAF                      u3027 0D15  
                    u2420 03B6                      u2340 031F                      u2172 018A  
                    u1700 0BB9                      u1620 0B61                      u1540 0AB6  
                    u2500 0DA4                      u2421 03B5                      u2405 037A  
                    u2341 031E                      u2325 0309                      u2261 02AC  
                    u2173 0191                      u1701 0BB8                      u1621 0B60  
                    u1541 0AB5                      u3117 0EE2                      u2501 0DA3  
                    u3037 0D46                      u2350 0333                      u2270 02C8  
                    u2262 02B3                      u1550 0ABB                      u2430 1759  
                    u2510 0DCF                      u2415 0394                      u2351 0332  
                    u2263 02BA                      u2255 029B                      u2191 01B9  
                    u1551 0ABA                      u2431 1758                      u3127 0F15  
                    u2511 0DCE                      u3047 0D79                      u2360 033A  
                    u2192 01C0                      u1800 0C72                      u1720 0BE0  
                    u1640 0B77                      u1560 0AD4                      u2600 0EA7  
                    u2520 0DD9                      u2440 0D0D                      u2361 0339  
                    u2281 02D4                      u2193 01C7                      u2185 0193  
                    u1801 0C71                      u1721 0BDF                      u1641 0B76  
                    u1561 0AD3                      u3137 0F3E                      u2601 0EA6  
                    u2521 0DD8                      u3057 0DAC                      u2441 0D0C  
                    u2370 0340                      u2282 02DB                      u1810 0C7C  
                    u1650 0B7B                      u1570 0AD8                      u1490 0A7C  
                    u2610 0ED2                      u2530 0E04                      u2450 0D38  
                    u2371 033F                      u2283 02E2                      u2275 02C3  
                    u1811 0C7B                      u1731 0BF9                      u1723 0BDC  
                    u1715 0BBE                      u1651 0B7A                      u1635 0B66  
                    u1571 0AD7                      u1491 0A7B                      u3147 0F69  
                    u2611 0ED1                      u2531 0E03                      u3067 0DE1  
                    u2451 0D37                      u2700 156A                      u2380 0352  
                    u1900 0CD5                      u1820 0C82                      u1740 0C0D  
                    u1732 0BFA                      u1660 0B80                      u1580 0B30  
                    u2620 0EDA                      u2540 0E0C                      u2460 0D3E  
                    u2701 1569                      u2381 0351                      u1901 0CD4  
                    u1821 0C81                      u1741 0C0E                      u1733 0BFF  
                    u1661 0B7F                      u1581 0B2F                      u3157 0F92  
                    u2621 0ED9                      u3077 0E14                      u2541 0E0B  
                    u2461 0D3D                      u2710 158D                      u2390 0361  
                    u1910 0CDA                      u1830 0C87                      u1750 0C2B  
                    u1742 0C13                      u1734 0C00                      u1590 0B39  
                    u2630 0F05                      u2550 0E37                      u2470 0D69  
                    u2711 158C                      u2295 02E4                      u1911 0CD9  
                    u1831 0C86                      u1751 0C2A                      u1743 0C14  
                    u1735 0C05                      u1671 0B92                      u1591 0B37  
                    u3167 0FBB                      u2631 0F04                      u3087 0E47  
                    u2551 0E36                      u2471 0D68                      u2720 1616  
                    u1920 0CE7                      u1840 0C8D                      u1760 0C50  
                    u1736 0C06                      u1680 0BA4                      u1672 0B99  
                    u2640 0F0D                      u2560 0E3F                      u2480 0D71  
                    u2800 08F4                      u2721 1615                      u1921 0CE6  
                    u1841 0C8C                      u1761 0C4F                      u1681 0BA3  
                    u1673 0BA0                      u1585 0B2C                      u3177 0FE4  
                    u2641 0F0C                      u3097 0E7A                      u2561 0E3E  
                    u2481 0D70                      u2801 08F3                      u2730 1630  
                    u1930 0CEC                      u1850 0C94                      u1770 0C55  
                    u1690 0BA8                      u2650 0F36                      u2570 0E6A  
                    u2490 0D9C                      u2810 0980                      u2731 162F  
                    u2395 035C                      u1931 0CEB                      u1851 0C93  
                    u1771 0C54                      u1691 0BA7                      u3187 1709  
                    u2651 0F35                      u2571 0E69                      u2491 0D9B  
                    u2811 097F                      u2900 06C0                      u2740 0020  
                    u1940 0D01                      u1860 0C9A                      u2660 0F61  
                    u2580 0E72                      u2820 0990                      u2901 06BF  
                    u2741 001F                      u1941 0D00                      u1861 0C99  
                    u3197 1718                      u2661 0F60                      u2581 0E71  
                    u2821 098F                      u2910 077F                      u2750 0027  
                    u1950 15C1                      u1870 0CAC                      u1790 0C6D  
                    u2670 0F8A                      u2590 0E9D                      u2830 0A53  
                    u2911 077E                      u2751 0026                      u1951 15C0  
                    u1871 0CAB                      u1791 0C6C                      u2671 0F89  
                    u2591 0E9C                      u2831 0A52                      u2760 0063  
                    u1880 0CBD                      u2680 0FB3                      u2840 0A62  
                    u2761 0062                      u1785 0C62                      u2681 0FB2  
                    u2841 0A61                      u2770 1666                      u1970 15D5  
                    u1890 0CCC                      u2690 0FDC                      u2850 0A6A  
                    u2930 1688                      u2771 1665                      u1971 15D4  
                    u1891 0CCB                      u2691 0FDB                      u2851 0A69  
                    u2835 0A4F                      u2931 1687                      u1980 1557  
                    u2860 03D6                      u2780 0851                      u2940 16A4  
                    u1981 1556                      u2861 03D5                      u2765 005F  
                    u1965 15C8                      u1885 0CB8                      u2845 0A5E  
                    u2781 0850                      u2941 16A3                      u2870 048F  
                    u1990 1772                      u2790 0875                      u2950 16AA  
                    u2775 1662                      u2871 048E                      u1991 1771  
                    u2791 0874                      u2951 16A9                      u2880 0542  
                    u2960 16DE                      u1985 1553                      u2881 0541  
                    u2785 084D                      u2961 16DD                      u2890 05FB  
                    u2891 05FA                      u2965 16DA                      u2977 16C3  
                    u2987 0865                      u2997 0962              ?_LCD_escreve 0070  
                    _main 166C                      _msg2 0064                      _init 14B5  
            ?_liga_buzzer 0035                      btemp 007E              ?_espacoLivre 0070  
        _senhaUserConfere 0059                      start 0000        __size_of_LCD_limpa 0010  
        __end_of_LCD_init 0835           __end_of___fladd 0D03                     ?_main 0070  
                   ?_init 0070                     STR_10 1006           __end_of___flmul 03CB  
         __end_of___flsub 15B3                     _PORTB 0006                     _PORTD 0008  
                   _PORTE 0009                     _TRISA 0085                     _TRISB 0086  
                   _TRISD 0088                     _TRISE 0089                     _delay 1542  
                   _input 0062                     main@i 0048           __end_of_teclado 1000  
                   pclath 000A                     status 0003                     wtemp0 007E  
     __size_of_LCD_enable 000E       __size_of_LCD_linha1 0010       __size_of_LCD_linha2 0010  
         __initialization 07D9              __end_of_main 16E2              __end_of_init 14C1  
            ?_telaInicial 0070                    ??_main 0045                    ??_init 0070  
       __end_of_LCD_limpa 14FE                    ?_delay 0070                    _ADCON1 009F  
                  _Linha2 1631                    ___flge 175E                 ??___fladd 0020  
               ??___flmul 0079                 ??___flsub 007C                    _config 0056  
                  _painel 0060                    delay@i 0070                    _strcat 1604  
                  _strcmp 0003                    _strcpy 1571                    _strlen 1558  
      __size_of__Umul8_16 0027                 ??_teclado 003B                ___flge@ff1 0070  
              ___flge@ff2 0074   __end_of__initialization 07FC                 ?_LCD_init 0070  
    __size_of_LCD_escreve 0011              LCD_escreve@x 0072      __size_of_liga_buzzer 007C  
    __size_of_espacoLivre 002A            __pcstackCOMMON 0070              __pidataBANK0 150E  
            __pidataBANK1 14CF             __end_of_delay 1558              ??_LCD_enable 0072  
            ??_LCD_linha1 0072              ??_LCD_linha2 0072                   ??_delay 0070  
              __pbssBANK0 004A                ??_LCD_init 0072                   ?_Linha2 0070  
      __end_of_LCD_enable 14CF         __end_of__Umul8_16 15DA        __end_of_LCD_linha1 150E  
      __end_of_LCD_linha2 14EE                __pmaintext 166C                   ?___flge 0070  
                 ?_strcat 0074                   ?_strcmp 0070                   ?_strcpy 0070  
                 ?_strlen 0070      __size_of_telaInicial 003D                __stringtab 1000  
                 Linha2@i 0077  liga_buzzer@tempoSegundos 0035           __size_of_Linha2 003B  
         __size_of___flge 00A2                   ___fladd 0A6B                   ___flmul 006A  
                 ___flsub 158F               validaUser@i 0041               validaUser@n 0043  
                 __ptext1 0835                   __ptext2 0D03                   __ptext3 16E2  
                 __ptext4 158F                   __ptext5 0A6B                   __ptext6 006A  
                 __ptext7 15B3                   __ptext8 175E                   __ptext9 1571  
         __size_of_strcat 002D           __size_of_strcmp 002A           __size_of_strcpy 001E  
         __size_of_strlen 0019                   _teclado 0D03                _listaZonas 03CB  
                 clrloop0 14AE      end_of_initialization 07FC                 _LCD_limpa 14EE  
              _validaUser 0835                   strcmp@r 0075                   strlen@s 0074  
             ___fladd@grs 007B                ?_LCD_limpa 0070               ___flmul@grs 0029  
       __size_of_LCD_init 0033            __end_of_Linha2 166C            __end_of___flge 1800  
          __end_of_strcat 1631            __end_of_strcmp 002D            __end_of_strcpy 158F  
          __end_of_strlen 1571       start_initialization 07D9               ?_listaZonas 0073  
           ??_LCD_escreve 0072             ??_liga_buzzer 0039             ??_espacoLivre 0073  
             ?_validaUser 0070                  ??_Linha2 0075                  ??___flge 0078  
              init_fetch0 152F                 __Umul8_16 15B3               __pdataBANK0 005E  
             __pdataBANK1 00A0                  ??_strcat 0075                  ??_strcmp 0072  
                ??_strcpy 0071                  ??_strlen 0072                 ___fladd@a 0074  
               ___fladd@b 0070                 ___flmul@a 0024                 ___flmul@b 0020  
               ___flsub@a 0028                 ___flsub@b 002C                 ___latbits 0002  
           __pcstackBANK0 0020               ??_LCD_limpa 0072       __end_of_LCD_escreve 152F  
     __end_of_liga_buzzer 175E                  ?___fladd 0070       __end_of_espacoLivre 1604  
     __size_of_listaZonas 040E                  ?___flmul 0020                  ?___flsub 0028  
              ?__Umul8_16 0070              telaInicial@i 0077             ??_telaInicial 0075  
               __pstrings 1000                  ?_teclado 0070       __size_of_validaUser 0236  
          __size_of_delay 0016                  _LCD_init 0802                 clear_ram0 14AD  
               _senhaUser 0069               __stringbase 1005                 _userFalse 005E  
     __end_of_telaInicial 006A               _LCD_escreve 151E               _liga_buzzer 16E2  
             _espacoLivre 15DA               ??__Umul8_16 0072          __size_of___fladd 0298  
        __size_of___flmul 0361          __size_of___flsub 0024        __end_of__stringtab 1006  
              strcat@from 0074              ??_listaZonas 0075          __size_of_teclado 02FD  
                __ptext10 0003                  __ptext11 1604                  __ptext20 151E  
                __ptext12 002D                  __ptext21 0802                  __ptext13 03CB  
                __ptext22 14B5                  __ptext14 14FE                  __ptext23 14C1  
                __ptext15 14EE                  __ptext24 1542                  __ptext16 1631  
                __ptext17 1558                  __ptext18 15DA                  __ptext19 14DE  
              strcpy@from 0070             __size_of_main 0076             __size_of_init 000C  
            ??_validaUser 003E                  _senhaCoa 004F        __end_of_listaZonas 07D9  
             _telaInicial 002D                _LCD_enable 14C1                _LCD_linha1 14FE  
              _LCD_linha2 14DE               _senhaConfig 004A                  init_ram0 1533  
      __end_of_validaUser 0A6B                 stringcode 1000               _valorSensor 0054  
  __Umul8_16@multiplicand 0070     listaZonas@valorSensor 0073                  strcat@cp 0077  
                strcat@to 0076                  strcmp@s1 0076                  strcmp@s2 0070  
                strcpy@cp 0072                  strlen@cp 0073                  strcpy@to 0073  
                stringdir 1000                  stringtab 1000             ___fladd@signs 0078  
            ___fladd@aexp 0079              ___fladd@bexp 007A      __Umul8_16@multiplier 0078  
       __Umul8_16@product 0074  
