

Microchip MPLAB XC8 Assembler V2.32 build 20210201212658 
                                                                                               Sun Oct 03 16:46:45 2021

Microchip MPLAB XC8 C Compiler v2.32 (Free license) build 20210201212658 Og1 
     1                           	processor	16F877A
     2                           	pagewidth 120
     3                           	opt	flic
     4                           	psect	idataBANK0,global,class=CODE,delta=2,noexec
     5                           	psect	idataBANK1,global,class=CODE,delta=2,noexec
     6                           	psect	idataBANK2,global,class=CODE,delta=2,noexec
     7                           	psect	idataBANK3,global,class=CODE,delta=2,noexec
     8                           	psect	cinit,global,class=CODE,merge=1,delta=2
     9                           	psect	bssBANK0,global,class=BANK0,space=1,delta=1,noexec
    10                           	psect	dataBANK0,global,class=BANK0,space=1,delta=1,noexec
    11                           	psect	dataBANK1,global,class=BANK1,space=1,delta=1,noexec
    12                           	psect	dataBANK3,global,class=BANK3,space=1,delta=1,noexec
    13                           	psect	dataBANK2,global,class=BANK2,space=1,delta=1,noexec
    14                           	psect	inittext,global,class=CODE,delta=2
    15                           	psect	cstackCOMMON,global,class=COMMON,space=1,delta=1,noexec
    16                           	psect	cstackBANK0,global,class=BANK0,space=1,delta=1,noexec
    17                           	psect	maintext,global,class=CODE,split=1,delta=2
    18                           	psect	text1,local,class=CODE,merge=1,delta=2
    19                           	psect	text2,local,class=CODE,merge=1,delta=2
    20                           	psect	text3,local,class=CODE,merge=1,delta=2
    21                           	psect	text4,local,class=CODE,merge=1,delta=2,group=1
    22                           	psect	text5,local,class=CODE,merge=1,delta=2,group=1
    23                           	psect	text6,local,class=CODE,merge=1,delta=2,group=1
    24                           	psect	text7,local,class=CODE,merge=1,delta=2,group=1
    25                           	psect	text8,local,class=CODE,merge=1,delta=2,group=1
    26                           	psect	text9,local,class=CODE,merge=1,delta=2,group=2
    27                           	psect	text10,local,class=CODE,merge=1,delta=2
    28                           	psect	text11,local,class=CODE,merge=1,delta=2
    29                           	psect	text12,local,class=CODE,merge=1,delta=2
    30                           	psect	text13,local,class=CODE,merge=1,delta=2
    31                           	psect	text14,local,class=CODE,merge=1,delta=2
    32                           	psect	text15,local,class=CODE,merge=1,delta=2
    33                           	psect	text16,local,class=CODE,merge=1,delta=2
    34                           	psect	text17,local,class=CODE,merge=1,delta=2
    35                           	psect	text18,local,class=CODE,merge=1,delta=2
    36                           	psect	text19,local,class=CODE,merge=1,delta=2
    37                           	psect	text20,local,class=CODE,merge=1,delta=2
    38                           	psect	text21,local,class=CODE,merge=1,delta=2,group=2
    39                           	psect	text22,local,class=CODE,merge=1,delta=2
    40                           	psect	text23,local,class=CODE,merge=1,delta=2
    41                           	psect	text24,local,class=CODE,merge=1,delta=2
    42                           	psect	text25,local,class=CODE,merge=1,delta=2
    43                           	dabs	1,0x7E,2
    44  0000                     
    45                           ; Version 2.20
    46                           ; Generated 12/02/2020 GMT
    47                           ; 
    48                           ; Copyright © 2020, Microchip Technology Inc. and its subsidiaries ("Microchip")
    49                           ; All rights reserved.
    50                           ; 
    51                           ; This software is developed by Microchip Technology Inc. and its subsidiaries ("Microch
      +                          ip").
    52                           ; 
    53                           ; Redistribution and use in source and binary forms, with or without modification, are
    54                           ; permitted provided that the following conditions are met:
    55                           ; 
    56                           ;     1. Redistributions of source code must retain the above copyright notice, this lis
      +                          t of
    57                           ;        conditions and the following disclaimer.
    58                           ; 
    59                           ;     2. Redistributions in binary form must reproduce the above copyright notice, this 
      +                          list
    60                           ;        of conditions and the following disclaimer in the documentation and/or other
    61                           ;        materials provided with the distribution.
    62                           ; 
    63                           ;     3. Microchip's name may not be used to endorse or promote products derived from th
      +                          is
    64                           ;        software without specific prior written permission.
    65                           ; 
    66                           ; THIS SOFTWARE IS PROVIDED BY MICROCHIP "AS IS" AND ANY EXPRESS OR IMPLIED WARRANTIES,
    67                           ; INCLUDING, BUT NOT LIMITED TO, THE IMPLIED WARRANTIES OF MERCHANTABILITY AND FITNESS F
      +                          OR
    68                           ; PURPOSE ARE DISCLAIMED.  IN NO EVENT SHALL MICROCHIP BE LIABLE FOR ANY DIRECT, INDIREC
      +                          T,
    69                           ; INCIDENTAL, SPECIAL, EXEMPLARY, OR CONSEQUENTIAL DAMAGES (INCLUDING BUT NOT LIMITED TO
    70                           ; PROCUREMENT OF SUBSTITUTE GOODS OR SERVICES; LOSS OF USE, DATA OR PROFITS; OR BUSINESS
    71                           ; INTERRUPTION) HOWSOEVER CAUSED AND ON ANY THEORY OF LIABILITY, WHETHER IN CONTRACT, ST
      +                          RICT
    72                           ; LIABILITY, OR TORT (INCLUDING NEGLIGENCE OR OTHERWISE) ARISING IN ANY WAY OUT OF THE U
      +                          SE OF
    73                           ; THIS SOFTWARE, EVEN IF ADVISED OF THE POSSIBILITY OF SUCH DAMAGE.
    74                           ; 
    75                           ; 
    76                           ; Code-generator required, PIC16F877A Definitions
    77                           ; 
    78                           ; SFR Addresses
    79  0000                     	;# 
    80  0001                     	;# 
    81  0002                     	;# 
    82  0003                     	;# 
    83  0004                     	;# 
    84  0005                     	;# 
    85  0006                     	;# 
    86  0007                     	;# 
    87  0008                     	;# 
    88  0009                     	;# 
    89  000A                     	;# 
    90  000B                     	;# 
    91  000C                     	;# 
    92  000D                     	;# 
    93  000E                     	;# 
    94  000E                     	;# 
    95  000F                     	;# 
    96  0010                     	;# 
    97  0011                     	;# 
    98  0012                     	;# 
    99  0013                     	;# 
   100  0014                     	;# 
   101  0015                     	;# 
   102  0015                     	;# 
   103  0016                     	;# 
   104  0017                     	;# 
   105  0018                     	;# 
   106  0019                     	;# 
   107  001A                     	;# 
   108  001B                     	;# 
   109  001B                     	;# 
   110  001C                     	;# 
   111  001D                     	;# 
   112  001E                     	;# 
   113  001F                     	;# 
   114  0081                     	;# 
   115  0085                     	;# 
   116  0086                     	;# 
   117  0087                     	;# 
   118  0088                     	;# 
   119  0089                     	;# 
   120  008C                     	;# 
   121  008D                     	;# 
   122  008E                     	;# 
   123  0091                     	;# 
   124  0092                     	;# 
   125  0093                     	;# 
   126  0094                     	;# 
   127  0098                     	;# 
   128  0099                     	;# 
   129  009C                     	;# 
   130  009D                     	;# 
   131  009E                     	;# 
   132  009F                     	;# 
   133  010C                     	;# 
   134  010D                     	;# 
   135  010E                     	;# 
   136  010F                     	;# 
   137  018C                     	;# 
   138  018D                     	;# 
   139  0000                     	;# 
   140  0001                     	;# 
   141  0002                     	;# 
   142  0003                     	;# 
   143  0004                     	;# 
   144  0005                     	;# 
   145  0006                     	;# 
   146  0007                     	;# 
   147  0008                     	;# 
   148  0009                     	;# 
   149  000A                     	;# 
   150  000B                     	;# 
   151  000C                     	;# 
   152  000D                     	;# 
   153  000E                     	;# 
   154  000E                     	;# 
   155  000F                     	;# 
   156  0010                     	;# 
   157  0011                     	;# 
   158  0012                     	;# 
   159  0013                     	;# 
   160  0014                     	;# 
   161  0015                     	;# 
   162  0015                     	;# 
   163  0016                     	;# 
   164  0017                     	;# 
   165  0018                     	;# 
   166  0019                     	;# 
   167  001A                     	;# 
   168  001B                     	;# 
   169  001B                     	;# 
   170  001C                     	;# 
   171  001D                     	;# 
   172  001E                     	;# 
   173  001F                     	;# 
   174  0081                     	;# 
   175  0085                     	;# 
   176  0086                     	;# 
   177  0087                     	;# 
   178  0088                     	;# 
   179  0089                     	;# 
   180  008C                     	;# 
   181  008D                     	;# 
   182  008E                     	;# 
   183  0091                     	;# 
   184  0092                     	;# 
   185  0093                     	;# 
   186  0094                     	;# 
   187  0098                     	;# 
   188  0099                     	;# 
   189  009C                     	;# 
   190  009D                     	;# 
   191  009E                     	;# 
   192  009F                     	;# 
   193  010C                     	;# 
   194  010D                     	;# 
   195  010E                     	;# 
   196  010F                     	;# 
   197  018C                     	;# 
   198  018D                     	;# 
   199                           
   200                           	psect	idataBANK0
   201  0881                     __pidataBANK0:
   202                           
   203                           ;initializer for _senhaConfig
   204  0881  3430               	retlw	48
   205  0882  3430               	retlw	48
   206  0883  3430               	retlw	48
   207  0884  3430               	retlw	48
   208  0885  3400               	retlw	0
   209                           
   210                           ;initializer for _senhaCoa
   211  0886  3435               	retlw	53
   212  0887  3435               	retlw	53
   213  0888  3435               	retlw	53
   214  0889  3435               	retlw	53
   215  088A  3400               	retlw	0
   216                           
   217                           ;initializer for _menu
   218  088B  3401               	retlw	1
   219  088C  3400               	retlw	0
   220                           
   221                           ;initializer for _userFalse
   222  088D  3401               	retlw	1
   223  088E  3400               	retlw	0
   224                           
   225                           ;initializer for _painel
   226  088F  3401               	retlw	1
   227  0890  3400               	retlw	0
   228                           
   229                           ;initializer for _input
   230  0891  340A               	retlw	10
   231  0892  3400               	retlw	0
   232                           
   233                           ;initializer for _auxSensor
   234  0893  34CC               	retlw	204
   235  0894  3400               	retlw	0
   236                           
   237                           ;initializer for _msgMascara
   238  0895  345F               	retlw	95
   239  0896  345F               	retlw	95
   240  0897  345F               	retlw	95
   241  0898  345F               	retlw	95
   242  0899  3400               	retlw	0
   243                           
   244                           ;initializer for _senhaUserConfere
   245  089A  3430               	retlw	48
   246  089B  3430               	retlw	48
   247  089C  3430               	retlw	48
   248  089D  3430               	retlw	48
   249  089E  3400               	retlw	0
   250                           
   251                           ;initializer for _senhaUser
   252  089F  3431               	retlw	49
   253  08A0  3432               	retlw	50
   254  08A1  3431               	retlw	49
   255  08A2  3432               	retlw	50
   256  08A3  3400               	retlw	0
   257                           
   258                           	psect	idataBANK1
   259  0A1B                     __pidataBANK1:
   260                           
   261                           ;initializer for _msgDigiteSenha
   262  0A1B  3444               	retlw	68
   263  0A1C  3469               	retlw	105
   264  0A1D  3467               	retlw	103
   265  0A1E  3469               	retlw	105
   266  0A1F  3474               	retlw	116
   267  0A20  3465               	retlw	101
   268  0A21  3420               	retlw	32
   269  0A22  3461               	retlw	97
   270  0A23  3420               	retlw	32
   271  0A24  3473               	retlw	115
   272  0A25  3465               	retlw	101
   273  0A26  346E               	retlw	110
   274  0A27  3468               	retlw	104
   275  0A28  3461               	retlw	97
   276  0A29  3400               	retlw	0
   277                           
   278                           ;initializer for _msgSenhaCoacao
   279  0A2A  3453               	retlw	83
   280  0A2B  3465               	retlw	101
   281  0A2C  346E               	retlw	110
   282  0A2D  3468               	retlw	104
   283  0A2E  3461               	retlw	97
   284  0A2F  3420               	retlw	32
   285  0A30  3443               	retlw	67
   286  0A31  346F               	retlw	111
   287  0A32  3461               	retlw	97
   288  0A33  3463               	retlw	99
   289  0A34  3461               	retlw	97
   290  0A35  346F               	retlw	111
   291  0A36  3400               	retlw	0
   292                           
   293                           ;initializer for _msgSenhaConfig
   294  0A37  3453               	retlw	83
   295  0A38  3465               	retlw	101
   296  0A39  346E               	retlw	110
   297  0A3A  3468               	retlw	104
   298  0A3B  3461               	retlw	97
   299  0A3C  3420               	retlw	32
   300  0A3D  3443               	retlw	67
   301  0A3E  346F               	retlw	111
   302  0A3F  346E               	retlw	110
   303  0A40  3466               	retlw	102
   304  0A41  3469               	retlw	105
   305  0A42  3467               	retlw	103
   306  0A43  3400               	retlw	0
   307                           
   308                           ;initializer for _msgSenhaErrada
   309  0A44  3453               	retlw	83
   310  0A45  3465               	retlw	101
   311  0A46  346E               	retlw	110
   312  0A47  3468               	retlw	104
   313  0A48  3461               	retlw	97
   314  0A49  3420               	retlw	32
   315  0A4A  3465               	retlw	101
   316  0A4B  3472               	retlw	114
   317  0A4C  3472               	retlw	114
   318  0A4D  3461               	retlw	97
   319  0A4E  3464               	retlw	100
   320  0A4F  3461               	retlw	97
   321  0A50  3400               	retlw	0
   322                           
   323                           ;initializer for _msgReativarActive
   324  0A51  343E               	retlw	62
   325  0A52  3452               	retlw	82
   326  0A53  3465               	retlw	101
   327  0A54  3461               	retlw	97
   328  0A55  3474               	retlw	116
   329  0A56  3469               	retlw	105
   330  0A57  3476               	retlw	118
   331  0A58  3461               	retlw	97
   332  0A59  3472               	retlw	114
   333  0A5A  3400               	retlw	0
   334                           
   335                           ;initializer for _msgReativar
   336  0A5B  3452               	retlw	82
   337  0A5C  3465               	retlw	101
   338  0A5D  3461               	retlw	97
   339  0A5E  3474               	retlw	116
   340  0A5F  3469               	retlw	105
   341  0A60  3476               	retlw	118
   342  0A61  3461               	retlw	97
   343  0A62  3472               	retlw	114
   344  0A63  3400               	retlw	0
   345                           
   346                           	psect	idataBANK2
   347  0919                     __pidataBANK2:
   348                           
   349                           ;initializer for _msgDesativarZonaActive
   350  0919  343E               	retlw	62
   351  091A  3444               	retlw	68
   352  091B  3465               	retlw	101
   353  091C  3473               	retlw	115
   354  091D  3461               	retlw	97
   355  091E  3474               	retlw	116
   356  091F  3469               	retlw	105
   357  0920  3476               	retlw	118
   358  0921  3461               	retlw	97
   359  0922  3472               	retlw	114
   360  0923  3420               	retlw	32
   361  0924  345A               	retlw	90
   362  0925  346F               	retlw	111
   363  0926  346E               	retlw	110
   364  0927  3461               	retlw	97
   365  0928  3400               	retlw	0
   366                           
   367                           ;initializer for _msgDesativarZona
   368  0929  3444               	retlw	68
   369  092A  3465               	retlw	101
   370  092B  3473               	retlw	115
   371  092C  3461               	retlw	97
   372  092D  3474               	retlw	116
   373  092E  3469               	retlw	105
   374  092F  3476               	retlw	118
   375  0930  3461               	retlw	97
   376  0931  3472               	retlw	114
   377  0932  3420               	retlw	32
   378  0933  345A               	retlw	90
   379  0934  346F               	retlw	111
   380  0935  346E               	retlw	110
   381  0936  3461               	retlw	97
   382  0937  3400               	retlw	0
   383                           
   384                           ;initializer for _msgSenhaDisparoActive
   385  0938  343E               	retlw	62
   386  0939  3453               	retlw	83
   387  093A  3465               	retlw	101
   388  093B  346E               	retlw	110
   389  093C  3468               	retlw	104
   390  093D  3461               	retlw	97
   391  093E  3420               	retlw	32
   392  093F  3444               	retlw	68
   393  0940  3469               	retlw	105
   394  0941  3473               	retlw	115
   395  0942  3470               	retlw	112
   396  0943  3461               	retlw	97
   397  0944  3472               	retlw	114
   398  0945  346F               	retlw	111
   399  0946  3400               	retlw	0
   400                           
   401                           	psect	idataBANK3
   402  0A64                     __pidataBANK3:
   403                           
   404                           ;initializer for _msgSenhaUsuarioActive
   405  0A64  343E               	retlw	62
   406  0A65  3453               	retlw	83
   407  0A66  3465               	retlw	101
   408  0A67  346E               	retlw	110
   409  0A68  3468               	retlw	104
   410  0A69  3461               	retlw	97
   411  0A6A  3420               	retlw	32
   412  0A6B  3455               	retlw	85
   413  0A6C  3473               	retlw	115
   414  0A6D  3475               	retlw	117
   415  0A6E  3461               	retlw	97
   416  0A6F  3472               	retlw	114
   417  0A70  3469               	retlw	105
   418  0A71  346F               	retlw	111
   419  0A72  3400               	retlw	0
   420                           
   421                           ;initializer for _msgSenhaDisparo
   422  0A73  3453               	retlw	83
   423  0A74  3465               	retlw	101
   424  0A75  346E               	retlw	110
   425  0A76  3468               	retlw	104
   426  0A77  3461               	retlw	97
   427  0A78  3420               	retlw	32
   428  0A79  3444               	retlw	68
   429  0A7A  3469               	retlw	105
   430  0A7B  3473               	retlw	115
   431  0A7C  3470               	retlw	112
   432  0A7D  3461               	retlw	97
   433  0A7E  3472               	retlw	114
   434  0A7F  346F               	retlw	111
   435  0A80  3400               	retlw	0
   436                           
   437                           ;initializer for _msgSenhaCoacaoActive
   438  0A81  343E               	retlw	62
   439  0A82  3453               	retlw	83
   440  0A83  3465               	retlw	101
   441  0A84  346E               	retlw	110
   442  0A85  3468               	retlw	104
   443  0A86  3461               	retlw	97
   444  0A87  3420               	retlw	32
   445  0A88  3443               	retlw	67
   446  0A89  346F               	retlw	111
   447  0A8A  3461               	retlw	97
   448  0A8B  3463               	retlw	99
   449  0A8C  3461               	retlw	97
   450  0A8D  346F               	retlw	111
   451  0A8E  3400               	retlw	0
   452                           
   453                           ;initializer for _msgSenhaUsuario
   454  0A8F  3453               	retlw	83
   455  0A90  3465               	retlw	101
   456  0A91  346E               	retlw	110
   457  0A92  3468               	retlw	104
   458  0A93  3461               	retlw	97
   459  0A94  3420               	retlw	32
   460  0A95  3455               	retlw	85
   461  0A96  3473               	retlw	115
   462  0A97  3475               	retlw	117
   463  0A98  3461               	retlw	97
   464  0A99  3472               	retlw	114
   465  0A9A  3469               	retlw	105
   466  0A9B  346F               	retlw	111
   467  0A9C  3400               	retlw	0
   468                           
   469                           ;initializer for _msgSenhaConfigActive
   470  0A9D  343E               	retlw	62
   471  0A9E  3453               	retlw	83
   472  0A9F  3465               	retlw	101
   473  0AA0  346E               	retlw	110
   474  0AA1  3468               	retlw	104
   475  0AA2  3461               	retlw	97
   476  0AA3  3420               	retlw	32
   477  0AA4  3443               	retlw	67
   478  0AA5  346F               	retlw	111
   479  0AA6  346E               	retlw	110
   480  0AA7  3466               	retlw	102
   481  0AA8  3469               	retlw	105
   482  0AA9  3467               	retlw	103
   483  0AAA  3400               	retlw	0
   484                           
   485                           ;initializer for _msgSenhaCorreta
   486  0AAB  3453               	retlw	83
   487  0AAC  3465               	retlw	101
   488  0AAD  346E               	retlw	110
   489  0AAE  3468               	retlw	104
   490  0AAF  3461               	retlw	97
   491  0AB0  3420               	retlw	32
   492  0AB1  3463               	retlw	99
   493  0AB2  346F               	retlw	111
   494  0AB3  3472               	retlw	114
   495  0AB4  3472               	retlw	114
   496  0AB5  3465               	retlw	101
   497  0AB6  3474               	retlw	116
   498  0AB7  3461               	retlw	97
   499  0AB8  3400               	retlw	0
   500  001E                     _ADRESH	set	30
   501  001F                     _ADCON0	set	31
   502  0006                     _PORTB	set	6
   503  0009                     _PORTE	set	9
   504  0008                     _PORTD	set	8
   505  00FA                     _GO_nDONE	set	250
   506  0033                     _RB3	set	51
   507  0032                     _RB2	set	50
   508  0031                     _RB1	set	49
   509  0030                     _RB0	set	48
   510  002B                     _RA3	set	43
   511  002C                     _RA4	set	44
   512  002D                     _RA5	set	45
   513  0029                     _RA1	set	41
   514  009E                     _ADRESL	set	158
   515  0086                     _TRISB	set	134
   516  0089                     _TRISE	set	137
   517  0088                     _TRISD	set	136
   518  0085                     _TRISA	set	133
   519  009F                     _ADCON1	set	159
   520                           
   521                           	psect	cinit
   522  07C0                     start_initialization:	
   523                           ; #config settings
   524                           
   525  07C0                     __initialization:
   526                           
   527                           ; Initialize objects allocated to BANK3
   528  07C0  1783               	bsf	3,7	;select IRP bank2
   529  07C1  30E5               	movlw	low (__pdataBANK3+85)
   530  07C2  00FD               	movwf	btemp+-1
   531  07C3  300A               	movlw	high __pidataBANK3
   532  07C4  00FE               	movwf	btemp
   533  07C5  3064               	movlw	low __pidataBANK3
   534  07C6  00FF               	movwf	btemp+1
   535  07C7  3090               	movlw	low __pdataBANK3
   536  07C8  0084               	movwf	4
   537  07C9  120A  158A  2022  120A  118A  	fcall	init_ram0
   538                           
   539                           ; Initialize objects allocated to BANK2
   540  07CE  303E               	movlw	low (__pdataBANK2+46)
   541  07CF  00FD               	movwf	btemp+-1
   542  07D0  3009               	movlw	high __pidataBANK2
   543  07D1  00FE               	movwf	btemp
   544  07D2  3019               	movlw	low __pidataBANK2
   545  07D3  00FF               	movwf	btemp+1
   546  07D4  3010               	movlw	low __pdataBANK2
   547  07D5  0084               	movwf	4
   548  07D6  120A  158A  2022  120A  118A  	fcall	init_ram0
   549                           
   550                           ; Initialize objects allocated to BANK1
   551  07DB  1383               	bcf	3,7	;select IRP bank0
   552  07DC  30E9               	movlw	low (__pdataBANK1+73)
   553  07DD  00FD               	movwf	btemp+-1
   554  07DE  300A               	movlw	high __pidataBANK1
   555  07DF  00FE               	movwf	btemp
   556  07E0  301B               	movlw	low __pidataBANK1
   557  07E1  00FF               	movwf	btemp+1
   558  07E2  30A0               	movlw	low __pdataBANK1
   559  07E3  0084               	movwf	4
   560  07E4  120A  158A  2022  120A  118A  	fcall	init_ram0
   561                           
   562                           ; Initialize objects allocated to BANK0
   563  07E9  3069               	movlw	low (__pdataBANK0+35)
   564  07EA  00FD               	movwf	btemp+-1
   565  07EB  3008               	movlw	high __pidataBANK0
   566  07EC  00FE               	movwf	btemp
   567  07ED  3081               	movlw	low __pidataBANK0
   568  07EE  00FF               	movwf	btemp+1
   569  07EF  3046               	movlw	low __pdataBANK0
   570  07F0  0084               	movwf	4
   571  07F1  120A  158A  2022  120A  118A  	fcall	init_ram0
   572                           
   573                           ; Clear objects allocated to BANK0
   574  07F6  01E9               	clrf	__pbssBANK0& (0+127)
   575  07F7  01EA               	clrf	(__pbssBANK0+1)& (0+127)
   576  07F8  01EB               	clrf	(__pbssBANK0+2)& (0+127)
   577  07F9  01EC               	clrf	(__pbssBANK0+3)& (0+127)
   578  07FA  01ED               	clrf	(__pbssBANK0+4)& (0+127)
   579  07FB  01EE               	clrf	(__pbssBANK0+5)& (0+127)
   580  07FC                     end_of_initialization:	
   581                           ;End of C runtime variable initialization code
   582                           
   583  07FC                     __end_of__initialization:
   584  07FC  0183               	clrf	3
   585  07FD  120A  158A  2B35   	ljmp	_main	;jump to C main() function
   586                           
   587                           	psect	bssBANK0
   588  0069                     __pbssBANK0:
   589  0069                     _aux:
   590  0069                     	ds	2
   591  006B                     _valorSensorAux:
   592  006B                     	ds	2
   593  006D                     _valorSensor:
   594  006D                     	ds	2
   595                           
   596                           	psect	dataBANK0
   597  0046                     __pdataBANK0:
   598  0046                     _senhaConfig:
   599  0046                     	ds	5
   600  004B                     _senhaCoa:
   601  004B                     	ds	5
   602  0050                     _menu:
   603  0050                     	ds	2
   604  0052                     _userFalse:
   605  0052                     	ds	2
   606  0054                     _painel:
   607  0054                     	ds	2
   608  0056                     _input:
   609  0056                     	ds	2
   610  0058                     _auxSensor:
   611  0058                     	ds	2
   612  005A                     _msgMascara:
   613  005A                     	ds	5
   614  005F                     _senhaUserConfere:
   615  005F                     	ds	5
   616  0064                     _senhaUser:
   617  0064                     	ds	5
   618                           
   619                           	psect	dataBANK1
   620  00A0                     __pdataBANK1:
   621  00A0                     _msgDigiteSenha:
   622  00A0                     	ds	15
   623  00AF                     _msgSenhaCoacao:
   624  00AF                     	ds	13
   625  00BC                     _msgSenhaConfig:
   626  00BC                     	ds	13
   627  00C9                     _msgSenhaErrada:
   628  00C9                     	ds	13
   629  00D6                     _msgReativarActive:
   630  00D6                     	ds	10
   631  00E0                     _msgReativar:
   632  00E0                     	ds	9
   633                           
   634                           	psect	dataBANK3
   635  0190                     __pdataBANK3:
   636  0190                     _msgSenhaUsuarioActive:
   637  0190                     	ds	15
   638  019F                     _msgSenhaDisparo:
   639  019F                     	ds	14
   640  01AD                     _msgSenhaCoacaoActive:
   641  01AD                     	ds	14
   642  01BB                     _msgSenhaUsuario:
   643  01BB                     	ds	14
   644  01C9                     _msgSenhaConfigActive:
   645  01C9                     	ds	14
   646  01D7                     _msgSenhaCorreta:
   647  01D7                     	ds	14
   648                           
   649                           	psect	dataBANK2
   650  0110                     __pdataBANK2:
   651  0110                     _msgDesativarZonaActive:
   652  0110                     	ds	16
   653  0120                     _msgDesativarZona:
   654  0120                     	ds	15
   655  012F                     _msgSenhaDisparoActive:
   656  012F                     	ds	15
   657                           
   658                           	psect	inittext
   659  081E                     init_fetch0:	
   660                           ;	Called with low address in FSR and high address in W
   661                           
   662  081E  087E               	movf	btemp,w
   663  081F  008A               	movwf	10
   664  0820  087F               	movf	btemp+1,w
   665  0821  0082               	movwf	2
   666  0822                     init_ram0:	
   667                           ;Called with:
   668                           ;	high address of idata address in btemp 
   669                           ;	low address of idata address in btemp+1 
   670                           ;	low address of data in FSR
   671                           ;	high address + 1 of data in btemp-1
   672                           
   673  0822  120A  158A  201E  120A  158A  	fcall	init_fetch0
   674  0827  0080               	movwf	0
   675  0828  0A84               	incf	4,f
   676  0829  0804               	movf	4,w
   677  082A  067D               	xorwf	btemp+-1,w
   678  082B  1903               	btfsc	3,2
   679  082C  3400               	retlw	0
   680  082D  0AFF               	incf	btemp+1,f
   681  082E  1903               	btfsc	3,2
   682  082F  0AFE               	incf	btemp,f
   683  0830  2822               	goto	init_ram0
   684                           
   685                           	psect	cstackCOMMON
   686  0070                     __pcstackCOMMON:
   687  0070                     ?___flge:
   688  0070                     ?_LCD_enable:	
   689                           ; 1 bit 
   690                           
   691  0070                     ?_delay:	
   692                           ; 1 bytes @ 0x0
   693                           
   694  0070                     ??_delay:	
   695                           ; 1 bytes @ 0x0
   696                           
   697  0070                     ?_inicioADC:	
   698                           ; 1 bytes @ 0x0
   699                           
   700  0070                     ??_inicioADC:	
   701                           ; 1 bytes @ 0x0
   702                           
   703  0070                     ?_telaInicial:	
   704                           ; 1 bytes @ 0x0
   705                           
   706  0070                     ?_Linha2:	
   707                           ; 1 bytes @ 0x0
   708                           
   709  0070                     ?_validaUser:	
   710                           ; 1 bytes @ 0x0
   711                           
   712  0070                     ?_espacoLivre:	
   713                           ; 1 bytes @ 0x0
   714                           
   715  0070                     ?_init:	
   716                           ; 1 bytes @ 0x0
   717                           
   718  0070                     ??_init:	
   719                           ; 1 bytes @ 0x0
   720                           
   721  0070                     ?_LCD_init:	
   722                           ; 1 bytes @ 0x0
   723                           
   724  0070                     ?_LCD_escreve:	
   725                           ; 1 bytes @ 0x0
   726                           
   727  0070                     ?_LCD_limpa:	
   728                           ; 1 bytes @ 0x0
   729                           
   730  0070                     ?_LCD_linha1:	
   731                           ; 1 bytes @ 0x0
   732                           
   733  0070                     ?_LCD_linha2:	
   734                           ; 1 bytes @ 0x0
   735                           
   736  0070                     ?_main:	
   737                           ; 1 bytes @ 0x0
   738                           
   739  0070                     ?_teclado:	
   740                           ; 1 bytes @ 0x0
   741                           
   742  0070                     ?_leituraADC:	
   743                           ; 1 bytes @ 0x0
   744                           
   745  0070                     ?_strlen:	
   746                           ; 2 bytes @ 0x0
   747                           
   748  0070                     ?_strcmp:	
   749                           ; 2 bytes @ 0x0
   750                           
   751  0070                     ?__Umul8_16:	
   752                           ; 2 bytes @ 0x0
   753                           
   754  0070                     ?___fladd:	
   755                           ; 2 bytes @ 0x0
   756                           
   757  0070                     __Umul8_16@multiplicand:	
   758                           ; 4 bytes @ 0x0
   759                           
   760  0070                     strcmp@s2:	
   761                           ; 1 bytes @ 0x0
   762                           
   763  0070                     delay@i:	
   764                           ; 1 bytes @ 0x0
   765                           
   766  0070                     ___flge@ff1:	
   767                           ; 2 bytes @ 0x0
   768                           
   769  0070                     ___fladd@b:	
   770                           ; 4 bytes @ 0x0
   771                           
   772                           
   773                           ; 4 bytes @ 0x0
   774  0070                     	ds	2
   775  0072                     ??_LCD_enable:
   776  0072                     ??_leituraADC:	
   777                           ; 1 bytes @ 0x2
   778                           
   779  0072                     ??_strlen:	
   780                           ; 1 bytes @ 0x2
   781                           
   782  0072                     ??_strcmp:	
   783                           ; 1 bytes @ 0x2
   784                           
   785  0072                     ??__Umul8_16:	
   786                           ; 1 bytes @ 0x2
   787                           
   788  0072                     ??_LCD_init:	
   789                           ; 1 bytes @ 0x2
   790                           
   791  0072                     ??_LCD_escreve:	
   792                           ; 1 bytes @ 0x2
   793                           
   794  0072                     ??_LCD_limpa:	
   795                           ; 1 bytes @ 0x2
   796                           
   797  0072                     ??_LCD_linha1:	
   798                           ; 1 bytes @ 0x2
   799                           
   800  0072                     ??_LCD_linha2:	
   801                           ; 1 bytes @ 0x2
   802                           
   803  0072                     LCD_escreve@x:	
   804                           ; 1 bytes @ 0x2
   805                           
   806                           
   807                           ; 1 bytes @ 0x2
   808  0072                     	ds	1
   809  0073                     ??_espacoLivre:
   810  0073                     ?_escreveMesagem:	
   811                           ; 1 bytes @ 0x3
   812                           
   813  0073                     strlen@cp:	
   814                           ; 1 bytes @ 0x3
   815                           
   816  0073                     espacoLivre@i:	
   817                           ; 1 bytes @ 0x3
   818                           
   819  0073                     escreveMesagem@texto:	
   820                           ; 2 bytes @ 0x3
   821                           
   822                           
   823                           ; 2 bytes @ 0x3
   824  0073                     	ds	1
   825  0074                     strlen@s:
   826  0074                     leituraADC@leitura:	
   827                           ; 1 bytes @ 0x4
   828                           
   829  0074                     __Umul8_16@product:	
   830                           ; 2 bytes @ 0x4
   831                           
   832  0074                     ___flge@ff2:	
   833                           ; 2 bytes @ 0x4
   834                           
   835  0074                     ___fladd@a:	
   836                           ; 4 bytes @ 0x4
   837                           
   838                           
   839                           ; 4 bytes @ 0x4
   840  0074                     	ds	1
   841  0075                     ??_telaInicial:
   842  0075                     ??_Linha2:	
   843                           ; 1 bytes @ 0x5
   844                           
   845  0075                     ??_escreveMesagem:	
   846                           ; 1 bytes @ 0x5
   847                           
   848  0075                     strcmp@r:	
   849                           ; 1 bytes @ 0x5
   850                           
   851                           
   852                           ; 1 bytes @ 0x5
   853  0075                     	ds	1
   854  0076                     leituraADC@canal:
   855  0076                     strcmp@s1:	
   856                           ; 1 bytes @ 0x6
   857                           
   858  0076                     __Umul8_16@word_mpld:	
   859                           ; 1 bytes @ 0x6
   860                           
   861                           
   862                           ; 2 bytes @ 0x6
   863  0076                     	ds	1
   864  0077                     telaInicial@i:
   865  0077                     Linha2@i:	
   866                           ; 2 bytes @ 0x7
   867                           
   868                           
   869                           ; 2 bytes @ 0x7
   870  0077                     	ds	1
   871  0078                     ??___flge:
   872  0078                     ___fladd@signs:	
   873                           ; 1 bytes @ 0x8
   874                           
   875  0078                     __Umul8_16@multiplier:	
   876                           ; 1 bytes @ 0x8
   877                           
   878  0078                     escreveMesagem@i:	
   879                           ; 1 bytes @ 0x8
   880                           
   881                           
   882                           ; 2 bytes @ 0x8
   883  0078                     	ds	1
   884  0079                     ??___flmul:
   885  0079                     ___fladd@aexp:	
   886                           ; 1 bytes @ 0x9
   887                           
   888                           
   889                           ; 1 bytes @ 0x9
   890  0079                     	ds	1
   891  007A                     ?_listaZonas:
   892  007A                     ___fladd@bexp:	
   893                           ; 1 bytes @ 0xA
   894                           
   895  007A                     listaZonas@valorSensor:	
   896                           ; 1 bytes @ 0xA
   897                           
   898                           
   899                           ; 2 bytes @ 0xA
   900  007A                     	ds	1
   901  007B                     ___fladd@grs:
   902                           
   903                           ; 1 bytes @ 0xB
   904  007B                     	ds	1
   905  007C                     ??_listaZonas:
   906  007C                     ??___flsub:	
   907                           ; 1 bytes @ 0xC
   908                           
   909                           
   910                           ; 1 bytes @ 0xC
   911  007C                     	ds	2
   912                           
   913                           	psect	cstackBANK0
   914  0020                     __pcstackBANK0:
   915  0020                     ??___fladd:
   916  0020                     ?___flmul:	
   917                           ; 1 bytes @ 0x0
   918                           
   919  0020                     ___flmul@b:	
   920                           ; 4 bytes @ 0x0
   921                           
   922                           
   923                           ; 4 bytes @ 0x0
   924  0020                     	ds	4
   925  0024                     ___flmul@a:
   926                           
   927                           ; 4 bytes @ 0x4
   928  0024                     	ds	4
   929  0028                     ?___flsub:
   930  0028                     ___flmul@sign:	
   931                           ; 4 bytes @ 0x8
   932                           
   933  0028                     ___flsub@a:	
   934                           ; 1 bytes @ 0x8
   935                           
   936                           
   937                           ; 4 bytes @ 0x8
   938  0028                     	ds	1
   939  0029                     ___flmul@grs:
   940                           
   941                           ; 4 bytes @ 0x9
   942  0029                     	ds	3
   943  002C                     ___flsub@b:
   944                           
   945                           ; 4 bytes @ 0xC
   946  002C                     	ds	1
   947  002D                     ___flmul@aexp:
   948                           
   949                           ; 1 bytes @ 0xD
   950  002D                     	ds	1
   951  002E                     ___flmul@bexp:
   952                           
   953                           ; 1 bytes @ 0xE
   954  002E                     	ds	1
   955  002F                     ___flmul@prod:
   956                           
   957                           ; 4 bytes @ 0xF
   958  002F                     	ds	4
   959  0033                     ___flmul@temp:
   960                           
   961                           ; 2 bytes @ 0x13
   962  0033                     	ds	2
   963  0035                     ?_liga_buzzer:
   964  0035                     liga_buzzer@tempoSegundos:	
   965                           ; 1 bytes @ 0x15
   966                           
   967                           
   968                           ; 4 bytes @ 0x15
   969  0035                     	ds	4
   970  0039                     ??_liga_buzzer:
   971                           
   972                           ; 1 bytes @ 0x19
   973  0039                     	ds	2
   974  003B                     ??_teclado:
   975                           
   976                           ; 1 bytes @ 0x1B
   977  003B                     	ds	3
   978  003E                     ??_validaUser:
   979                           
   980                           ; 1 bytes @ 0x1E
   981  003E                     	ds	3
   982  0041                     validaUser@n:
   983                           
   984                           ; 2 bytes @ 0x21
   985  0041                     	ds	2
   986  0043                     ??_main:
   987                           
   988                           ; 1 bytes @ 0x23
   989  0043                     	ds	3
   990                           
   991                           	psect	maintext
   992  0B35                     __pmaintext:	
   993 ;;
   994 ;;Main: autosize = 0, tempsize = 3, incstack = 0, save=0
   995 ;;
   996 ;; *************** function _main *****************
   997 ;; Defined at:
   998 ;;		line 61 in file "main.c"
   999 ;; Parameters:    Size  Location     Type
  1000 ;;		None
  1001 ;; Auto vars:     Size  Location     Type
  1002 ;;		None
  1003 ;; Return value:  Size  Location     Type
  1004 ;;                  1    wreg      void 
  1005 ;; Registers used:
  1006 ;;		wreg, fsr0l, fsr0h, status,2, status,0, btemp+1, pclath, cstack
  1007 ;; Tracked objects:
  1008 ;;		On entry : B00/0
  1009 ;;		On exit  : 0/0
  1010 ;;		Unchanged: 0/0
  1011 ;; Data sizes:     COMMON   BANK0   BANK1   BANK3   BANK2
  1012 ;;      Params:         0       0       0       0       0
  1013 ;;      Locals:         0       0       0       0       0
  1014 ;;      Temps:          0       3       0       0       0
  1015 ;;      Totals:         0       3       0       0       0
  1016 ;;Total ram usage:        3 bytes
  1017 ;; Hardware stack levels required when called: 5
  1018 ;; This function calls:
  1019 ;;		_LCD_init
  1020 ;;		_LCD_limpa
  1021 ;;		_Linha2
  1022 ;;		_inicioADC
  1023 ;;		_leituraADC
  1024 ;;		_listaZonas
  1025 ;;		_telaInicial
  1026 ;;		_validaUser
  1027 ;; This function is called by:
  1028 ;;		Startup code after reset
  1029 ;; This function uses a non-reentrant model
  1030 ;;
  1031                           
  1032                           
  1033                           ;psect for function _main
  1034  0B35                     _main:
  1035  0B35                     l2914:	
  1036                           ;incstack = 0
  1037                           ; Regs used in _main: [wreg-fsr0h+status,2+status,0+btemp+1+pclath+cstack]
  1038                           
  1039                           
  1040                           ;main.c: 62:     TRISE = 0x00;
  1041  0B35  1683               	bsf	3,5	;RP0=1, select bank1
  1042  0B36  1303               	bcf	3,6	;RP1=0, select bank1
  1043  0B37  0189               	clrf	9	;volatile
  1044                           
  1045                           ;main.c: 63:     TRISD = 0x00;
  1046  0B38  0188               	clrf	8	;volatile
  1047  0B39                     l2916:
  1048                           
  1049                           ;main.c: 64:     TRISB = 0x0F;
  1050  0B39  300F               	movlw	15
  1051  0B3A  0086               	movwf	6	;volatile
  1052  0B3B                     l2918:
  1053                           
  1054                           ;main.c: 65:     PORTE = 0x01;
  1055  0B3B  3001               	movlw	1
  1056  0B3C  1283               	bcf	3,5	;RP0=0, select bank0
  1057  0B3D  1303               	bcf	3,6	;RP1=0, select bank0
  1058  0B3E  0089               	movwf	9	;volatile
  1059  0B3F                     l2920:
  1060                           
  1061                           ;main.c: 67:     inicioADC();
  1062  0B3F  120A  158A  2000  120A  158A  	fcall	_inicioADC
  1063  0B44  2B5D               	goto	l2930
  1064  0B45                     l2922:
  1065                           
  1066                           ;main.c: 73:             LCD_init();
  1067  0B45  120A  158A  2176  120A  158A  	fcall	_LCD_init
  1068                           
  1069                           ;main.c: 74:             LCD_limpa();
  1070  0B4A  160A  118A  27E0  120A  158A  	fcall	_LCD_limpa
  1071  0B4F                     l2924:
  1072                           
  1073                           ;main.c: 75:             telaInicial();
  1074  0B4F  120A  118A  2004  120A  158A  	fcall	_telaInicial
  1075  0B54                     l2926:
  1076                           
  1077                           ;main.c: 76:             Linha2();
  1078  0B54  120A  158A  21E0  120A  158A  	fcall	_Linha2
  1079  0B59                     l2928:
  1080                           
  1081                           ;main.c: 77:             painel = 0;
  1082  0B59  1283               	bcf	3,5	;RP0=0, select bank0
  1083  0B5A  1303               	bcf	3,6	;RP1=0, select bank0
  1084  0B5B  01D4               	clrf	_painel
  1085  0B5C  01D5               	clrf	_painel+1
  1086  0B5D                     l2930:
  1087                           
  1088                           ;main.c: 72:         while (painel){
  1089  0B5D  1283               	bcf	3,5	;RP0=0, select bank0
  1090  0B5E  1303               	bcf	3,6	;RP1=0, select bank0
  1091  0B5F  0854               	movf	_painel,w
  1092  0B60  0455               	iorwf	_painel+1,w
  1093  0B61  1D03               	btfss	3,2
  1094  0B62  2B64               	goto	u3181
  1095  0B63  2B65               	goto	u3180
  1096  0B64                     u3181:
  1097  0B64  2B45               	goto	l2922
  1098  0B65                     u3180:
  1099  0B65                     l2932:
  1100                           
  1101                           ;main.c: 79:         _delay((unsigned long)((100)*(20000000/4000.0)));
  1102  0B65  3003               	movlw	3
  1103  0B66  1283               	bcf	3,5	;RP0=0, select bank0
  1104  0B67  1303               	bcf	3,6	;RP1=0, select bank0
  1105  0B68  00C5               	movwf	??_main+2
  1106  0B69  308A               	movlw	138
  1107  0B6A  00C4               	movwf	??_main+1
  1108  0B6B  3055               	movlw	85
  1109  0B6C  00C3               	movwf	??_main
  1110  0B6D                     u3217:
  1111  0B6D  0BC3               	decfsz	??_main,f
  1112  0B6E  2B6D               	goto	u3217
  1113  0B6F  0BC4               	decfsz	??_main+1,f
  1114  0B70  2B6D               	goto	u3217
  1115  0B71  0BC5               	decfsz	??_main+2,f
  1116  0B72  2B6D               	goto	u3217
  1117                           
  1118                           ;main.c: 81:         while (userFalse){
  1119  0B73  2B79               	goto	l2936
  1120  0B74                     l2934:
  1121                           
  1122                           ;main.c: 82:            validaUser();
  1123  0B74  120A  158A  2453  120A  158A  	fcall	_validaUser
  1124  0B79                     l2936:
  1125                           
  1126                           ;main.c: 81:         while (userFalse){
  1127  0B79  1283               	bcf	3,5	;RP0=0, select bank0
  1128  0B7A  1303               	bcf	3,6	;RP1=0, select bank0
  1129  0B7B  0852               	movf	_userFalse,w
  1130  0B7C  0453               	iorwf	_userFalse+1,w
  1131  0B7D  1D03               	btfss	3,2
  1132  0B7E  2B80               	goto	u3191
  1133  0B7F  2B81               	goto	u3190
  1134  0B80                     u3191:
  1135  0B80  2B74               	goto	l2934
  1136  0B81                     u3190:
  1137  0B81  2BA5               	goto	l2944
  1138  0B82                     l2938:
  1139                           
  1140                           ;main.c: 95:             valorSensor = leituraADC(2);
  1141  0B82  3002               	movlw	2
  1142  0B83  120A  158A  2147  120A  158A  	fcall	_leituraADC
  1143  0B88  0871               	movf	?_leituraADC+1,w
  1144  0B89  1283               	bcf	3,5	;RP0=0, select bank0
  1145  0B8A  1303               	bcf	3,6	;RP1=0, select bank0
  1146  0B8B  00EE               	movwf	_valorSensor+1
  1147  0B8C  0870               	movf	?_leituraADC,w
  1148  0B8D  00ED               	movwf	_valorSensor
  1149  0B8E                     l2940:
  1150                           
  1151                           ;main.c: 96:             listaZonas(valorSensor);
  1152  0B8E  086E               	movf	_valorSensor+1,w
  1153  0B8F  00FB               	movwf	listaZonas@valorSensor+1
  1154  0B90  086D               	movf	_valorSensor,w
  1155  0B91  00FA               	movwf	listaZonas@valorSensor
  1156  0B92  120A  118A  2041  120A  158A  	fcall	_listaZonas
  1157  0B97                     l2942:
  1158                           
  1159                           ;main.c: 97:             _delay((unsigned long)((100)*(20000000/4000.0)));
  1160  0B97  3003               	movlw	3
  1161  0B98  1283               	bcf	3,5	;RP0=0, select bank0
  1162  0B99  1303               	bcf	3,6	;RP1=0, select bank0
  1163  0B9A  00C5               	movwf	??_main+2
  1164  0B9B  308A               	movlw	138
  1165  0B9C  00C4               	movwf	??_main+1
  1166  0B9D  3055               	movlw	85
  1167  0B9E  00C3               	movwf	??_main
  1168  0B9F                     u3227:
  1169  0B9F  0BC3               	decfsz	??_main,f
  1170  0BA0  2B9F               	goto	u3227
  1171  0BA1  0BC4               	decfsz	??_main+1,f
  1172  0BA2  2B9F               	goto	u3227
  1173  0BA3  0BC5               	decfsz	??_main+2,f
  1174  0BA4  2B9F               	goto	u3227
  1175  0BA5                     l2944:
  1176                           
  1177                           ;main.c: 94:         while (menu){
  1178  0BA5  1283               	bcf	3,5	;RP0=0, select bank0
  1179  0BA6  1303               	bcf	3,6	;RP1=0, select bank0
  1180  0BA7  0850               	movf	_menu,w
  1181  0BA8  0451               	iorwf	_menu+1,w
  1182  0BA9  1D03               	btfss	3,2
  1183  0BAA  2BAC               	goto	u3201
  1184  0BAB  2BAD               	goto	u3200
  1185  0BAC                     u3201:
  1186  0BAC  2B82               	goto	l2938
  1187  0BAD                     u3200:
  1188  0BAD  2B5D               	goto	l2930
  1189  0BAE  120A  118A  2800   	ljmp	start
  1190  0BB1                     __end_of_main:
  1191                           
  1192                           	psect	text1
  1193  0C53                     __ptext1:	
  1194 ;; *************** function _validaUser *****************
  1195 ;; Defined at:
  1196 ;;		line 327 in file "main.c"
  1197 ;; Parameters:    Size  Location     Type
  1198 ;;		None
  1199 ;; Auto vars:     Size  Location     Type
  1200 ;;  n               2   33[BANK0 ] int 
  1201 ;; Return value:  Size  Location     Type
  1202 ;;                  1    wreg      void 
  1203 ;; Registers used:
  1204 ;;		wreg, fsr0l, fsr0h, status,2, status,0, btemp+1, pclath, cstack
  1205 ;; Tracked objects:
  1206 ;;		On entry : 0/0
  1207 ;;		On exit  : 0/0
  1208 ;;		Unchanged: 0/0
  1209 ;; Data sizes:     COMMON   BANK0   BANK1   BANK3   BANK2
  1210 ;;      Params:         0       0       0       0       0
  1211 ;;      Locals:         0       2       0       0       0
  1212 ;;      Temps:          0       3       0       0       0
  1213 ;;      Totals:         0       5       0       0       0
  1214 ;;Total ram usage:        5 bytes
  1215 ;; Hardware stack levels used: 1
  1216 ;; Hardware stack levels required when called: 4
  1217 ;; This function calls:
  1218 ;;		_LCD_limpa
  1219 ;;		_LCD_linha1
  1220 ;;		_escreveMesagem
  1221 ;;		_strcmp
  1222 ;;		_teclado
  1223 ;; This function is called by:
  1224 ;;		_main
  1225 ;; This function uses a non-reentrant model
  1226 ;;
  1227                           
  1228                           
  1229                           ;psect for function _validaUser
  1230  0C53                     _validaUser:
  1231  0C53                     l2784:	
  1232                           ;incstack = 0
  1233                           ; Regs used in _validaUser: [wreg-fsr0h+status,2+status,0+btemp+1+pclath+cstack]
  1234                           
  1235                           
  1236                           ;main.c: 328:     while(userFalse){
  1237  0C53  2D5F               	goto	l2860
  1238  0C54                     l2786:
  1239                           
  1240                           ;main.c: 329:         for(int n = 0; n < 8; n++){
  1241  0C54  01C1               	clrf	validaUser@n
  1242  0C55  01C2               	clrf	validaUser@n+1
  1243  0C56                     l2792:
  1244                           
  1245                           ;main.c: 330:             input = 10;
  1246  0C56  300A               	movlw	10
  1247  0C57  1283               	bcf	3,5	;RP0=0, select bank0
  1248  0C58  1303               	bcf	3,6	;RP1=0, select bank0
  1249  0C59  00D6               	movwf	_input
  1250  0C5A  3000               	movlw	0
  1251  0C5B  00D7               	movwf	_input+1
  1252                           
  1253                           ;main.c: 331:             while (input == 10){
  1254  0C5C  2C62               	goto	l2796
  1255  0C5D                     l2794:
  1256                           
  1257                           ;main.c: 332:                 teclado();
  1258  0C5D  120A  118A  2162  120A  158A  	fcall	_teclado
  1259  0C62                     l2796:
  1260                           
  1261                           ;main.c: 331:             while (input == 10){
  1262  0C62  300A               	movlw	10
  1263  0C63  1283               	bcf	3,5	;RP0=0, select bank0
  1264  0C64  1303               	bcf	3,6	;RP1=0, select bank0
  1265  0C65  0656               	xorwf	_input,w
  1266  0C66  0457               	iorwf	_input+1,w
  1267  0C67  1903               	btfsc	3,2
  1268  0C68  2C6A               	goto	u3061
  1269  0C69  2C6B               	goto	u3060
  1270  0C6A                     u3061:
  1271  0C6A  2C5D               	goto	l2794
  1272  0C6B                     u3060:
  1273  0C6B  2C9E               	goto	l2820
  1274  0C6C                     l2798:
  1275                           
  1276                           ;main.c: 336:                     aux = '1';
  1277  0C6C  3031               	movlw	49
  1278  0C6D  00E9               	movwf	_aux
  1279  0C6E  3000               	movlw	0
  1280  0C6F  00EA               	movwf	_aux+1
  1281                           
  1282                           ;main.c: 337:                 break;
  1283  0C70  2CC3               	goto	l2822
  1284  0C71                     l2800:
  1285                           
  1286                           ;main.c: 339:                     aux = '2';
  1287  0C71  3032               	movlw	50
  1288  0C72  00E9               	movwf	_aux
  1289  0C73  3000               	movlw	0
  1290  0C74  00EA               	movwf	_aux+1
  1291                           
  1292                           ;main.c: 340:                 break;
  1293  0C75  2CC3               	goto	l2822
  1294  0C76                     l2802:
  1295                           
  1296                           ;main.c: 342:                     aux = '3';
  1297  0C76  3033               	movlw	51
  1298  0C77  00E9               	movwf	_aux
  1299  0C78  3000               	movlw	0
  1300  0C79  00EA               	movwf	_aux+1
  1301                           
  1302                           ;main.c: 343:                 break;
  1303  0C7A  2CC3               	goto	l2822
  1304  0C7B                     l2804:
  1305                           
  1306                           ;main.c: 345:                     aux = '4';
  1307  0C7B  3034               	movlw	52
  1308  0C7C  00E9               	movwf	_aux
  1309  0C7D  3000               	movlw	0
  1310  0C7E  00EA               	movwf	_aux+1
  1311                           
  1312                           ;main.c: 346:                 break;
  1313  0C7F  2CC3               	goto	l2822
  1314  0C80                     l2806:
  1315                           
  1316                           ;main.c: 348:                     aux = '5';
  1317  0C80  3035               	movlw	53
  1318  0C81  00E9               	movwf	_aux
  1319  0C82  3000               	movlw	0
  1320  0C83  00EA               	movwf	_aux+1
  1321                           
  1322                           ;main.c: 349:                 break;
  1323  0C84  2CC3               	goto	l2822
  1324  0C85                     l2808:
  1325                           
  1326                           ;main.c: 351:                     aux = '6';
  1327  0C85  3036               	movlw	54
  1328  0C86  00E9               	movwf	_aux
  1329  0C87  3000               	movlw	0
  1330  0C88  00EA               	movwf	_aux+1
  1331                           
  1332                           ;main.c: 352:                 break;
  1333  0C89  2CC3               	goto	l2822
  1334  0C8A                     l2810:
  1335                           
  1336                           ;main.c: 354:                     aux = '7';
  1337  0C8A  3037               	movlw	55
  1338  0C8B  00E9               	movwf	_aux
  1339  0C8C  3000               	movlw	0
  1340  0C8D  00EA               	movwf	_aux+1
  1341                           
  1342                           ;main.c: 355:                 break;
  1343  0C8E  2CC3               	goto	l2822
  1344  0C8F                     l2812:
  1345                           
  1346                           ;main.c: 357:                     aux = '8';
  1347  0C8F  3038               	movlw	56
  1348  0C90  00E9               	movwf	_aux
  1349  0C91  3000               	movlw	0
  1350  0C92  00EA               	movwf	_aux+1
  1351                           
  1352                           ;main.c: 358:                 break;
  1353  0C93  2CC3               	goto	l2822
  1354  0C94                     l2814:
  1355                           
  1356                           ;main.c: 360:                     aux = '9';
  1357  0C94  3039               	movlw	57
  1358  0C95  00E9               	movwf	_aux
  1359  0C96  3000               	movlw	0
  1360  0C97  00EA               	movwf	_aux+1
  1361                           
  1362                           ;main.c: 361:                 break;
  1363  0C98  2CC3               	goto	l2822
  1364  0C99                     l2816:
  1365                           
  1366                           ;main.c: 363:                     aux = '0';
  1367  0C99  3030               	movlw	48
  1368  0C9A  00E9               	movwf	_aux
  1369  0C9B  3000               	movlw	0
  1370  0C9C  00EA               	movwf	_aux+1
  1371                           
  1372                           ;main.c: 364:                 break;
  1373  0C9D  2CC3               	goto	l2822
  1374  0C9E                     l2820:
  1375                           
  1376                           ; Switch on 2 bytes has been partitioned into a top level switch of size 1, and 1 sub-sw
      +                          itches
  1377                           ; Switch size 1, requested type "simple"
  1378                           ; Number of cases is 1, Range of values is 0 to 0
  1379                           ; switch strategies available:
  1380                           ; Name         Instructions Cycles
  1381                           ; simple_byte            4     3 (average)
  1382                           ; direct_byte           11     8 (fixed)
  1383                           ; jumptable            260     6 (fixed)
  1384                           ;	Chosen strategy is simple_byte
  1385  0C9E  0857               	movf	_input+1,w
  1386  0C9F  3A00               	xorlw	0	; case 0
  1387  0CA0  1903               	skipnz
  1388  0CA1  2CA3               	goto	l2966
  1389  0CA2  2CC3               	goto	l2822
  1390  0CA3                     l2966:
  1391                           
  1392                           ; Switch size 1, requested type "simple"
  1393                           ; Number of cases is 10, Range of values is 0 to 9
  1394                           ; switch strategies available:
  1395                           ; Name         Instructions Cycles
  1396                           ; simple_byte           31    16 (average)
  1397                           ; direct_byte           38     8 (fixed)
  1398                           ; jumptable            260     6 (fixed)
  1399                           ;	Chosen strategy is simple_byte
  1400  0CA3  0856               	movf	_input,w
  1401  0CA4  3A00               	xorlw	0	; case 0
  1402  0CA5  1903               	skipnz
  1403  0CA6  2C99               	goto	l2816
  1404  0CA7  3A01               	xorlw	1	; case 1
  1405  0CA8  1903               	skipnz
  1406  0CA9  2C6C               	goto	l2798
  1407  0CAA  3A03               	xorlw	3	; case 2
  1408  0CAB  1903               	skipnz
  1409  0CAC  2C71               	goto	l2800
  1410  0CAD  3A01               	xorlw	1	; case 3
  1411  0CAE  1903               	skipnz
  1412  0CAF  2C76               	goto	l2802
  1413  0CB0  3A07               	xorlw	7	; case 4
  1414  0CB1  1903               	skipnz
  1415  0CB2  2C7B               	goto	l2804
  1416  0CB3  3A01               	xorlw	1	; case 5
  1417  0CB4  1903               	skipnz
  1418  0CB5  2C80               	goto	l2806
  1419  0CB6  3A03               	xorlw	3	; case 6
  1420  0CB7  1903               	skipnz
  1421  0CB8  2C85               	goto	l2808
  1422  0CB9  3A01               	xorlw	1	; case 7
  1423  0CBA  1903               	skipnz
  1424  0CBB  2C8A               	goto	l2810
  1425  0CBC  3A0F               	xorlw	15	; case 8
  1426  0CBD  1903               	skipnz
  1427  0CBE  2C8F               	goto	l2812
  1428  0CBF  3A01               	xorlw	1	; case 9
  1429  0CC0  1903               	skipnz
  1430  0CC1  2C94               	goto	l2814
  1431  0CC2  2CC3               	goto	l2822
  1432  0CC3                     l2822:
  1433                           
  1434                           ;main.c: 366:             senhaUserConfere[n] = aux;
  1435  0CC3  0869               	movf	_aux,w
  1436  0CC4  00BE               	movwf	??_validaUser
  1437  0CC5  0841               	movf	validaUser@n,w
  1438  0CC6  3E5F               	addlw	(low (_senhaUserConfere| 0))& (0+255)
  1439  0CC7  0084               	movwf	4
  1440  0CC8  083E               	movf	??_validaUser,w
  1441  0CC9  1383               	bcf	3,7	;select IRP bank0
  1442  0CCA  0080               	movwf	0
  1443  0CCB                     l2824:
  1444                           
  1445                           ;main.c: 367:             if (n == 3){
  1446  0CCB  3003               	movlw	3
  1447  0CCC  0641               	xorwf	validaUser@n,w
  1448  0CCD  0442               	iorwf	validaUser@n+1,w
  1449  0CCE  1D03               	btfss	3,2
  1450  0CCF  2CD1               	goto	u3071
  1451  0CD0  2CD2               	goto	u3070
  1452  0CD1                     u3071:
  1453  0CD1  2D0B               	goto	l2840
  1454  0CD2                     u3070:
  1455  0CD2                     l2826:
  1456                           
  1457                           ;main.c: 368:                 if (strcmp(senhaUser, senhaUserConfere) != 0){
  1458  0CD2  305F               	movlw	(low (_senhaUserConfere| 0))& (0+255)
  1459  0CD3  00BE               	movwf	??_validaUser
  1460  0CD4  083E               	movf	??_validaUser,w
  1461  0CD5  00F0               	movwf	strcmp@s2
  1462  0CD6  3064               	movlw	(low (_senhaUser| 0))& (0+255)
  1463  0CD7  120A  158A  20EF  120A  158A  	fcall	_strcmp
  1464  0CDC  0870               	movf	?_strcmp,w
  1465  0CDD  0471               	iorwf	?_strcmp+1,w
  1466  0CDE  1903               	btfsc	3,2
  1467  0CDF  2CE1               	goto	u3081
  1468  0CE0  2CE2               	goto	u3080
  1469  0CE1                     u3081:
  1470  0CE1  2D0B               	goto	l2840
  1471  0CE2                     u3080:
  1472  0CE2                     l2828:
  1473                           
  1474                           ;main.c: 369:                     userFalse = 1;
  1475  0CE2  3001               	movlw	1
  1476  0CE3  1283               	bcf	3,5	;RP0=0, select bank0
  1477  0CE4  1303               	bcf	3,6	;RP1=0, select bank0
  1478  0CE5  00D2               	movwf	_userFalse
  1479  0CE6  3000               	movlw	0
  1480  0CE7  00D3               	movwf	_userFalse+1
  1481  0CE8                     l2830:
  1482                           
  1483                           ;main.c: 370:                     menu = 0;
  1484  0CE8  01D0               	clrf	_menu
  1485  0CE9  01D1               	clrf	_menu+1
  1486  0CEA                     l2832:
  1487                           
  1488                           ;main.c: 371:                     LCD_limpa();
  1489  0CEA  160A  118A  27E0  120A  158A  	fcall	_LCD_limpa
  1490  0CEF                     l2834:
  1491                           
  1492                           ;main.c: 372:                     LCD_linha1();
  1493  0CEF  160A  118A  27F0  120A  158A  	fcall	_LCD_linha1
  1494  0CF4                     l2836:
  1495                           
  1496                           ;main.c: 373:                     escreveMesagem(msgSenhaErrada);
  1497  0CF4  30C9               	movlw	(low (_msgSenhaErrada| 0))& (0+255)
  1498  0CF5  00F3               	movwf	escreveMesagem@texto
  1499  0CF6  3000               	movlw	0
  1500  0CF7  00F4               	movwf	escreveMesagem@texto+1
  1501  0CF8  120A  158A  21A9  120A  158A  	fcall	_escreveMesagem
  1502  0CFD                     l2838:
  1503                           
  1504                           ;main.c: 374:                     _delay((unsigned long)((2000)*(20000000/4000.0)));
  1505  0CFD  3033               	movlw	51
  1506  0CFE  1283               	bcf	3,5	;RP0=0, select bank0
  1507  0CFF  1303               	bcf	3,6	;RP1=0, select bank0
  1508  0D00  00C0               	movwf	??_validaUser+2
  1509  0D01  30BB               	movlw	187
  1510  0D02  00BF               	movwf	??_validaUser+1
  1511  0D03  30DF               	movlw	223
  1512  0D04  00BE               	movwf	??_validaUser
  1513  0D05                     u3237:
  1514  0D05  0BBE               	decfsz	??_validaUser,f
  1515  0D06  2D05               	goto	u3237
  1516  0D07  0BBF               	decfsz	??_validaUser+1,f
  1517  0D08  2D05               	goto	u3237
  1518  0D09  0BC0               	decfsz	??_validaUser+2,f
  1519  0D0A  2D05               	goto	u3237
  1520  0D0B                     l2840:
  1521                           
  1522                           ;main.c: 377:             if (strcmp(senhaUser, senhaUserConfere)==0){
  1523  0D0B  305F               	movlw	(low (_senhaUserConfere| 0))& (0+255)
  1524  0D0C  1283               	bcf	3,5	;RP0=0, select bank0
  1525  0D0D  1303               	bcf	3,6	;RP1=0, select bank0
  1526  0D0E  00BE               	movwf	??_validaUser
  1527  0D0F  083E               	movf	??_validaUser,w
  1528  0D10  00F0               	movwf	strcmp@s2
  1529  0D11  3064               	movlw	(low (_senhaUser| 0))& (0+255)
  1530  0D12  120A  158A  20EF  120A  158A  	fcall	_strcmp
  1531  0D17  0870               	movf	?_strcmp,w
  1532  0D18  0471               	iorwf	?_strcmp+1,w
  1533  0D19  1D03               	btfss	3,2
  1534  0D1A  2D1C               	goto	u3091
  1535  0D1B  2D1D               	goto	u3090
  1536  0D1C                     u3091:
  1537  0D1C  2D4A               	goto	l2856
  1538  0D1D                     u3090:
  1539  0D1D                     l2842:
  1540                           
  1541                           ;main.c: 378:                 userFalse = 0;
  1542  0D1D  1283               	bcf	3,5	;RP0=0, select bank0
  1543  0D1E  1303               	bcf	3,6	;RP1=0, select bank0
  1544  0D1F  01D2               	clrf	_userFalse
  1545  0D20  01D3               	clrf	_userFalse+1
  1546  0D21                     l2844:
  1547                           
  1548                           ;main.c: 379:                 menu = 1;
  1549  0D21  3001               	movlw	1
  1550  0D22  00D0               	movwf	_menu
  1551  0D23  3000               	movlw	0
  1552  0D24  00D1               	movwf	_menu+1
  1553  0D25                     l2846:
  1554                           
  1555                           ;main.c: 380:                 n = 10;
  1556  0D25  300A               	movlw	10
  1557  0D26  00C1               	movwf	validaUser@n
  1558  0D27  3000               	movlw	0
  1559  0D28  00C2               	movwf	validaUser@n+1
  1560  0D29                     l2848:
  1561                           
  1562                           ;main.c: 381:                 LCD_limpa();
  1563  0D29  160A  118A  27E0  120A  158A  	fcall	_LCD_limpa
  1564  0D2E                     l2850:
  1565                           
  1566                           ;main.c: 382:                 LCD_linha1();
  1567  0D2E  160A  118A  27F0  120A  158A  	fcall	_LCD_linha1
  1568  0D33                     l2852:
  1569                           
  1570                           ;main.c: 383:                 escreveMesagem(msgSenhaCorreta);
  1571  0D33  30D7               	movlw	(low (_msgSenhaCorreta| (0+256)))& (0+255)
  1572  0D34  00F3               	movwf	escreveMesagem@texto
  1573  0D35  3001               	movlw	1
  1574  0D36  00F4               	movwf	escreveMesagem@texto+1
  1575  0D37  120A  158A  21A9  120A  158A  	fcall	_escreveMesagem
  1576  0D3C                     l2854:
  1577                           
  1578                           ;main.c: 384:                 _delay((unsigned long)((2000)*(20000000/4000.0)));
  1579  0D3C  3033               	movlw	51
  1580  0D3D  1283               	bcf	3,5	;RP0=0, select bank0
  1581  0D3E  1303               	bcf	3,6	;RP1=0, select bank0
  1582  0D3F  00C0               	movwf	??_validaUser+2
  1583  0D40  30BB               	movlw	187
  1584  0D41  00BF               	movwf	??_validaUser+1
  1585  0D42  30DF               	movlw	223
  1586  0D43  00BE               	movwf	??_validaUser
  1587  0D44                     u3247:
  1588  0D44  0BBE               	decfsz	??_validaUser,f
  1589  0D45  2D44               	goto	u3247
  1590  0D46  0BBF               	decfsz	??_validaUser+1,f
  1591  0D47  2D44               	goto	u3247
  1592  0D48  0BC0               	decfsz	??_validaUser+2,f
  1593  0D49  2D44               	goto	u3247
  1594  0D4A                     l2856:
  1595                           
  1596                           ;main.c: 386:         }
  1597  0D4A  3001               	movlw	1
  1598  0D4B  1283               	bcf	3,5	;RP0=0, select bank0
  1599  0D4C  1303               	bcf	3,6	;RP1=0, select bank0
  1600  0D4D  07C1               	addwf	validaUser@n,f
  1601  0D4E  1803               	skipnc
  1602  0D4F  0AC2               	incf	validaUser@n+1,f
  1603  0D50  3000               	movlw	0
  1604  0D51  07C2               	addwf	validaUser@n+1,f
  1605  0D52                     l2858:
  1606  0D52  0842               	movf	validaUser@n+1,w
  1607  0D53  3A80               	xorlw	128
  1608  0D54  00FF               	movwf	btemp+1
  1609  0D55  3080               	movlw	128
  1610  0D56  027F               	subwf	btemp+1,w
  1611  0D57  1D03               	skipz
  1612  0D58  2D5B               	goto	u3105
  1613  0D59  3008               	movlw	8
  1614  0D5A  0241               	subwf	validaUser@n,w
  1615  0D5B                     u3105:
  1616  0D5B  1C03               	skipc
  1617  0D5C  2D5E               	goto	u3101
  1618  0D5D  2D5F               	goto	u3100
  1619  0D5E                     u3101:
  1620  0D5E  2C56               	goto	l2792
  1621  0D5F                     u3100:
  1622  0D5F                     l2860:
  1623                           
  1624                           ;main.c: 328:     while(userFalse){
  1625  0D5F  1283               	bcf	3,5	;RP0=0, select bank0
  1626  0D60  1303               	bcf	3,6	;RP1=0, select bank0
  1627  0D61  0852               	movf	_userFalse,w
  1628  0D62  0453               	iorwf	_userFalse+1,w
  1629  0D63  1D03               	btfss	3,2
  1630  0D64  2D66               	goto	u3111
  1631  0D65  2D67               	goto	u3110
  1632  0D66                     u3111:
  1633  0D66  2C54               	goto	l2786
  1634  0D67                     u3110:
  1635  0D67                     l249:
  1636  0D67  0008               	return
  1637  0D68                     __end_of_validaUser:
  1638                           
  1639                           	psect	text2
  1640  0162                     __ptext2:	
  1641 ;; *************** function _teclado *****************
  1642 ;; Defined at:
  1643 ;;		line 117 in file "main.c"
  1644 ;; Parameters:    Size  Location     Type
  1645 ;;		None
  1646 ;; Auto vars:     Size  Location     Type
  1647 ;;		None
  1648 ;; Return value:  Size  Location     Type
  1649 ;;                  1    wreg      void 
  1650 ;; Registers used:
  1651 ;;		wreg, status,2, status,0, btemp+1, pclath, cstack
  1652 ;; Tracked objects:
  1653 ;;		On entry : 0/0
  1654 ;;		On exit  : 0/0
  1655 ;;		Unchanged: 0/0
  1656 ;; Data sizes:     COMMON   BANK0   BANK1   BANK3   BANK2
  1657 ;;      Params:         0       0       0       0       0
  1658 ;;      Locals:         0       0       0       0       0
  1659 ;;      Temps:          0       3       0       0       0
  1660 ;;      Totals:         0       3       0       0       0
  1661 ;;Total ram usage:        3 bytes
  1662 ;; Hardware stack levels used: 1
  1663 ;; Hardware stack levels required when called: 3
  1664 ;; This function calls:
  1665 ;;		_LCD_escreve
  1666 ;;		_liga_buzzer
  1667 ;; This function is called by:
  1668 ;;		_validaUser
  1669 ;; This function uses a non-reentrant model
  1670 ;;
  1671                           
  1672                           
  1673                           ;psect for function _teclado
  1674  0162                     _teclado:
  1675  0162                     l2320:	
  1676                           ;incstack = 0
  1677                           ; Regs used in _teclado: [wreg+status,2+status,0+btemp+1+pclath+cstack]
  1678                           
  1679                           
  1680                           ;main.c: 118:     PORTE = 0x01;
  1681  0162  3001               	movlw	1
  1682  0163  1283               	bcf	3,5	;RP0=0, select bank0
  1683  0164  1303               	bcf	3,6	;RP1=0, select bank0
  1684  0165  0089               	movwf	9	;volatile
  1685                           
  1686                           ;main.c: 122:     PORTB = 0b11101111;
  1687  0166  30EF               	movlw	239
  1688  0167  0086               	movwf	6	;volatile
  1689  0168                     l2322:
  1690                           
  1691                           ;main.c: 126:     if (RB0 == 0){
  1692  0168  1806               	btfsc	6,0	;volatile
  1693  0169  296B               	goto	u2461
  1694  016A  296C               	goto	u2460
  1695  016B                     u2461:
  1696  016B  2999               	goto	l2334
  1697  016C                     u2460:
  1698  016C                     l2324:
  1699                           
  1700                           ;main.c: 127:         _delay((unsigned long)((200)*(20000000/4000.0)));
  1701  016C  3006               	movlw	6
  1702  016D  1283               	bcf	3,5	;RP0=0, select bank0
  1703  016E  1303               	bcf	3,6	;RP1=0, select bank0
  1704  016F  00BD               	movwf	??_teclado+2
  1705  0170  3013               	movlw	19
  1706  0171  00BC               	movwf	??_teclado+1
  1707  0172  30AD               	movlw	173
  1708  0173  00BB               	movwf	??_teclado
  1709  0174                     u3257:
  1710  0174  0BBB               	decfsz	??_teclado,f
  1711  0175  2974               	goto	u3257
  1712  0176  0BBC               	decfsz	??_teclado+1,f
  1713  0177  2974               	goto	u3257
  1714  0178  0BBD               	decfsz	??_teclado+2,f
  1715  0179  2974               	goto	u3257
  1716  017A                     l2326:
  1717                           
  1718                           ;main.c: 128:         liga_buzzer(0.1);
  1719  017A  303D               	movlw	61
  1720  017B  1283               	bcf	3,5	;RP0=0, select bank0
  1721  017C  1303               	bcf	3,6	;RP1=0, select bank0
  1722  017D  00B8               	movwf	liga_buzzer@tempoSegundos+3
  1723  017E  30CC               	movlw	204
  1724  017F  00B7               	movwf	liga_buzzer@tempoSegundos+2
  1725  0180  30CC               	movlw	204
  1726  0181  00B6               	movwf	liga_buzzer@tempoSegundos+1
  1727  0182  30CD               	movlw	205
  1728  0183  00B5               	movwf	liga_buzzer@tempoSegundos
  1729  0184  120A  158A  22B9  120A  118A  	fcall	_liga_buzzer
  1730  0189                     l2328:
  1731                           
  1732                           ;main.c: 129:         LCD_escreve('0');
  1733  0189  3030               	movlw	48
  1734  018A  120A  158A  200D  120A  118A  	fcall	_LCD_escreve
  1735  018F                     l2330:
  1736                           
  1737                           ;main.c: 130:         if(userFalse == 1){
  1738  018F  1283               	bcf	3,5	;RP0=0, select bank0
  1739  0190  1303               	bcf	3,6	;RP1=0, select bank0
  1740  0191  0352               	decf	_userFalse,w
  1741  0192  0453               	iorwf	_userFalse+1,w
  1742  0193  1D03               	btfss	3,2
  1743  0194  2996               	goto	u2471
  1744  0195  2997               	goto	u2470
  1745  0196                     u2471:
  1746  0196  2999               	goto	l2334
  1747  0197                     u2470:
  1748  0197                     l2332:
  1749                           
  1750                           ;main.c: 131:             input = 0;
  1751  0197  01D6               	clrf	_input
  1752  0198  01D7               	clrf	_input+1
  1753  0199                     l2334:
  1754                           
  1755                           ;main.c: 137:     if (RB1 == 0){
  1756  0199  1886               	btfsc	6,1	;volatile
  1757  019A  299C               	goto	u2481
  1758  019B  299D               	goto	u2480
  1759  019C                     u2481:
  1760  019C  29CC               	goto	l2346
  1761  019D                     u2480:
  1762  019D                     l2336:
  1763                           
  1764                           ;main.c: 138:         _delay((unsigned long)((200)*(20000000/4000.0)));
  1765  019D  3006               	movlw	6
  1766  019E  1283               	bcf	3,5	;RP0=0, select bank0
  1767  019F  1303               	bcf	3,6	;RP1=0, select bank0
  1768  01A0  00BD               	movwf	??_teclado+2
  1769  01A1  3013               	movlw	19
  1770  01A2  00BC               	movwf	??_teclado+1
  1771  01A3  30AD               	movlw	173
  1772  01A4  00BB               	movwf	??_teclado
  1773  01A5                     u3267:
  1774  01A5  0BBB               	decfsz	??_teclado,f
  1775  01A6  29A5               	goto	u3267
  1776  01A7  0BBC               	decfsz	??_teclado+1,f
  1777  01A8  29A5               	goto	u3267
  1778  01A9  0BBD               	decfsz	??_teclado+2,f
  1779  01AA  29A5               	goto	u3267
  1780  01AB                     l2338:
  1781                           
  1782                           ;main.c: 139:         liga_buzzer(0.1);
  1783  01AB  303D               	movlw	61
  1784  01AC  1283               	bcf	3,5	;RP0=0, select bank0
  1785  01AD  1303               	bcf	3,6	;RP1=0, select bank0
  1786  01AE  00B8               	movwf	liga_buzzer@tempoSegundos+3
  1787  01AF  30CC               	movlw	204
  1788  01B0  00B7               	movwf	liga_buzzer@tempoSegundos+2
  1789  01B1  30CC               	movlw	204
  1790  01B2  00B6               	movwf	liga_buzzer@tempoSegundos+1
  1791  01B3  30CD               	movlw	205
  1792  01B4  00B5               	movwf	liga_buzzer@tempoSegundos
  1793  01B5  120A  158A  22B9  120A  118A  	fcall	_liga_buzzer
  1794  01BA                     l2340:
  1795                           
  1796                           ;main.c: 140:         LCD_escreve('1');
  1797  01BA  3031               	movlw	49
  1798  01BB  120A  158A  200D  120A  118A  	fcall	_LCD_escreve
  1799  01C0                     l2342:
  1800                           
  1801                           ;main.c: 141:         if(userFalse == 1){
  1802  01C0  1283               	bcf	3,5	;RP0=0, select bank0
  1803  01C1  1303               	bcf	3,6	;RP1=0, select bank0
  1804  01C2  0352               	decf	_userFalse,w
  1805  01C3  0453               	iorwf	_userFalse+1,w
  1806  01C4  1D03               	btfss	3,2
  1807  01C5  29C7               	goto	u2491
  1808  01C6  29C8               	goto	u2490
  1809  01C7                     u2491:
  1810  01C7  29CC               	goto	l2346
  1811  01C8                     u2490:
  1812  01C8                     l2344:
  1813                           
  1814                           ;main.c: 142:             input = 1;
  1815  01C8  3001               	movlw	1
  1816  01C9  00D6               	movwf	_input
  1817  01CA  3000               	movlw	0
  1818  01CB  00D7               	movwf	_input+1
  1819  01CC                     l2346:
  1820                           
  1821                           ;main.c: 148:     if (RB2 == 0){
  1822  01CC  1906               	btfsc	6,2	;volatile
  1823  01CD  29CF               	goto	u2501
  1824  01CE  29D0               	goto	u2500
  1825  01CF                     u2501:
  1826  01CF  29FF               	goto	l2358
  1827  01D0                     u2500:
  1828  01D0                     l2348:
  1829                           
  1830                           ;main.c: 149:         _delay((unsigned long)((200)*(20000000/4000.0)));
  1831  01D0  3006               	movlw	6
  1832  01D1  1283               	bcf	3,5	;RP0=0, select bank0
  1833  01D2  1303               	bcf	3,6	;RP1=0, select bank0
  1834  01D3  00BD               	movwf	??_teclado+2
  1835  01D4  3013               	movlw	19
  1836  01D5  00BC               	movwf	??_teclado+1
  1837  01D6  30AD               	movlw	173
  1838  01D7  00BB               	movwf	??_teclado
  1839  01D8                     u3277:
  1840  01D8  0BBB               	decfsz	??_teclado,f
  1841  01D9  29D8               	goto	u3277
  1842  01DA  0BBC               	decfsz	??_teclado+1,f
  1843  01DB  29D8               	goto	u3277
  1844  01DC  0BBD               	decfsz	??_teclado+2,f
  1845  01DD  29D8               	goto	u3277
  1846  01DE                     l2350:
  1847                           
  1848                           ;main.c: 150:         liga_buzzer(0.1);
  1849  01DE  303D               	movlw	61
  1850  01DF  1283               	bcf	3,5	;RP0=0, select bank0
  1851  01E0  1303               	bcf	3,6	;RP1=0, select bank0
  1852  01E1  00B8               	movwf	liga_buzzer@tempoSegundos+3
  1853  01E2  30CC               	movlw	204
  1854  01E3  00B7               	movwf	liga_buzzer@tempoSegundos+2
  1855  01E4  30CC               	movlw	204
  1856  01E5  00B6               	movwf	liga_buzzer@tempoSegundos+1
  1857  01E6  30CD               	movlw	205
  1858  01E7  00B5               	movwf	liga_buzzer@tempoSegundos
  1859  01E8  120A  158A  22B9  120A  118A  	fcall	_liga_buzzer
  1860  01ED                     l2352:
  1861                           
  1862                           ;main.c: 151:         LCD_escreve('2');
  1863  01ED  3032               	movlw	50
  1864  01EE  120A  158A  200D  120A  118A  	fcall	_LCD_escreve
  1865  01F3                     l2354:
  1866                           
  1867                           ;main.c: 152:         if(userFalse == 1){
  1868  01F3  1283               	bcf	3,5	;RP0=0, select bank0
  1869  01F4  1303               	bcf	3,6	;RP1=0, select bank0
  1870  01F5  0352               	decf	_userFalse,w
  1871  01F6  0453               	iorwf	_userFalse+1,w
  1872  01F7  1D03               	btfss	3,2
  1873  01F8  29FA               	goto	u2511
  1874  01F9  29FB               	goto	u2510
  1875  01FA                     u2511:
  1876  01FA  29FF               	goto	l2358
  1877  01FB                     u2510:
  1878  01FB                     l2356:
  1879                           
  1880                           ;main.c: 153:             input = 2;
  1881  01FB  3002               	movlw	2
  1882  01FC  00D6               	movwf	_input
  1883  01FD  3000               	movlw	0
  1884  01FE  00D7               	movwf	_input+1
  1885  01FF                     l2358:
  1886                           
  1887                           ;main.c: 159:     if (RB3 == 0){
  1888  01FF  1986               	btfsc	6,3	;volatile
  1889  0200  2A02               	goto	u2521
  1890  0201  2A03               	goto	u2520
  1891  0202                     u2521:
  1892  0202  2A32               	goto	l186
  1893  0203                     u2520:
  1894  0203                     l2360:
  1895                           
  1896                           ;main.c: 160:         _delay((unsigned long)((200)*(20000000/4000.0)));
  1897  0203  3006               	movlw	6
  1898  0204  1283               	bcf	3,5	;RP0=0, select bank0
  1899  0205  1303               	bcf	3,6	;RP1=0, select bank0
  1900  0206  00BD               	movwf	??_teclado+2
  1901  0207  3013               	movlw	19
  1902  0208  00BC               	movwf	??_teclado+1
  1903  0209  30AD               	movlw	173
  1904  020A  00BB               	movwf	??_teclado
  1905  020B                     u3287:
  1906  020B  0BBB               	decfsz	??_teclado,f
  1907  020C  2A0B               	goto	u3287
  1908  020D  0BBC               	decfsz	??_teclado+1,f
  1909  020E  2A0B               	goto	u3287
  1910  020F  0BBD               	decfsz	??_teclado+2,f
  1911  0210  2A0B               	goto	u3287
  1912  0211                     l2362:
  1913                           
  1914                           ;main.c: 161:         liga_buzzer(0.1);
  1915  0211  303D               	movlw	61
  1916  0212  1283               	bcf	3,5	;RP0=0, select bank0
  1917  0213  1303               	bcf	3,6	;RP1=0, select bank0
  1918  0214  00B8               	movwf	liga_buzzer@tempoSegundos+3
  1919  0215  30CC               	movlw	204
  1920  0216  00B7               	movwf	liga_buzzer@tempoSegundos+2
  1921  0217  30CC               	movlw	204
  1922  0218  00B6               	movwf	liga_buzzer@tempoSegundos+1
  1923  0219  30CD               	movlw	205
  1924  021A  00B5               	movwf	liga_buzzer@tempoSegundos
  1925  021B  120A  158A  22B9  120A  118A  	fcall	_liga_buzzer
  1926  0220                     l2364:
  1927                           
  1928                           ;main.c: 162:         LCD_escreve('3');
  1929  0220  3033               	movlw	51
  1930  0221  120A  158A  200D  120A  118A  	fcall	_LCD_escreve
  1931  0226                     l2366:
  1932                           
  1933                           ;main.c: 163:         if(userFalse == 1){
  1934  0226  1283               	bcf	3,5	;RP0=0, select bank0
  1935  0227  1303               	bcf	3,6	;RP1=0, select bank0
  1936  0228  0352               	decf	_userFalse,w
  1937  0229  0453               	iorwf	_userFalse+1,w
  1938  022A  1D03               	btfss	3,2
  1939  022B  2A2D               	goto	u2531
  1940  022C  2A2E               	goto	u2530
  1941  022D                     u2531:
  1942  022D  2A32               	goto	l186
  1943  022E                     u2530:
  1944  022E                     l2368:
  1945                           
  1946                           ;main.c: 164:             input = 3;
  1947  022E  3003               	movlw	3
  1948  022F  00D6               	movwf	_input
  1949  0230  3000               	movlw	0
  1950  0231  00D7               	movwf	_input+1
  1951  0232                     l186:	
  1952                           ;main.c: 166:     }
  1953                           
  1954                           
  1955                           ;main.c: 170:     PORTB = 0b11011111;
  1956  0232  30DF               	movlw	223
  1957  0233  0086               	movwf	6	;volatile
  1958  0234                     l2370:
  1959                           
  1960                           ;main.c: 174:     if (RB0 == 0){
  1961  0234  1806               	btfsc	6,0	;volatile
  1962  0235  2A37               	goto	u2541
  1963  0236  2A38               	goto	u2540
  1964  0237                     u2541:
  1965  0237  2A67               	goto	l2382
  1966  0238                     u2540:
  1967  0238                     l2372:
  1968                           
  1969                           ;main.c: 175:         _delay((unsigned long)((200)*(20000000/4000.0)));
  1970  0238  3006               	movlw	6
  1971  0239  1283               	bcf	3,5	;RP0=0, select bank0
  1972  023A  1303               	bcf	3,6	;RP1=0, select bank0
  1973  023B  00BD               	movwf	??_teclado+2
  1974  023C  3013               	movlw	19
  1975  023D  00BC               	movwf	??_teclado+1
  1976  023E  30AD               	movlw	173
  1977  023F  00BB               	movwf	??_teclado
  1978  0240                     u3297:
  1979  0240  0BBB               	decfsz	??_teclado,f
  1980  0241  2A40               	goto	u3297
  1981  0242  0BBC               	decfsz	??_teclado+1,f
  1982  0243  2A40               	goto	u3297
  1983  0244  0BBD               	decfsz	??_teclado+2,f
  1984  0245  2A40               	goto	u3297
  1985  0246                     l2374:
  1986                           
  1987                           ;main.c: 176:         liga_buzzer(0.1);
  1988  0246  303D               	movlw	61
  1989  0247  1283               	bcf	3,5	;RP0=0, select bank0
  1990  0248  1303               	bcf	3,6	;RP1=0, select bank0
  1991  0249  00B8               	movwf	liga_buzzer@tempoSegundos+3
  1992  024A  30CC               	movlw	204
  1993  024B  00B7               	movwf	liga_buzzer@tempoSegundos+2
  1994  024C  30CC               	movlw	204
  1995  024D  00B6               	movwf	liga_buzzer@tempoSegundos+1
  1996  024E  30CD               	movlw	205
  1997  024F  00B5               	movwf	liga_buzzer@tempoSegundos
  1998  0250  120A  158A  22B9  120A  118A  	fcall	_liga_buzzer
  1999  0255                     l2376:
  2000                           
  2001                           ;main.c: 177:         LCD_escreve('4');
  2002  0255  3034               	movlw	52
  2003  0256  120A  158A  200D  120A  118A  	fcall	_LCD_escreve
  2004  025B                     l2378:
  2005                           
  2006                           ;main.c: 178:         if(userFalse == 1){
  2007  025B  1283               	bcf	3,5	;RP0=0, select bank0
  2008  025C  1303               	bcf	3,6	;RP1=0, select bank0
  2009  025D  0352               	decf	_userFalse,w
  2010  025E  0453               	iorwf	_userFalse+1,w
  2011  025F  1D03               	btfss	3,2
  2012  0260  2A62               	goto	u2551
  2013  0261  2A63               	goto	u2550
  2014  0262                     u2551:
  2015  0262  2A67               	goto	l2382
  2016  0263                     u2550:
  2017  0263                     l2380:
  2018                           
  2019                           ;main.c: 179:             input = 4;
  2020  0263  3004               	movlw	4
  2021  0264  00D6               	movwf	_input
  2022  0265  3000               	movlw	0
  2023  0266  00D7               	movwf	_input+1
  2024  0267                     l2382:
  2025                           
  2026                           ;main.c: 185:     if (RB1 == 0){
  2027  0267  1886               	btfsc	6,1	;volatile
  2028  0268  2A6A               	goto	u2561
  2029  0269  2A6B               	goto	u2560
  2030  026A                     u2561:
  2031  026A  2A9A               	goto	l2394
  2032  026B                     u2560:
  2033  026B                     l2384:
  2034                           
  2035                           ;main.c: 186:         _delay((unsigned long)((200)*(20000000/4000.0)));
  2036  026B  3006               	movlw	6
  2037  026C  1283               	bcf	3,5	;RP0=0, select bank0
  2038  026D  1303               	bcf	3,6	;RP1=0, select bank0
  2039  026E  00BD               	movwf	??_teclado+2
  2040  026F  3013               	movlw	19
  2041  0270  00BC               	movwf	??_teclado+1
  2042  0271  30AD               	movlw	173
  2043  0272  00BB               	movwf	??_teclado
  2044  0273                     u3307:
  2045  0273  0BBB               	decfsz	??_teclado,f
  2046  0274  2A73               	goto	u3307
  2047  0275  0BBC               	decfsz	??_teclado+1,f
  2048  0276  2A73               	goto	u3307
  2049  0277  0BBD               	decfsz	??_teclado+2,f
  2050  0278  2A73               	goto	u3307
  2051  0279                     l2386:
  2052                           
  2053                           ;main.c: 187:         liga_buzzer(0.1);
  2054  0279  303D               	movlw	61
  2055  027A  1283               	bcf	3,5	;RP0=0, select bank0
  2056  027B  1303               	bcf	3,6	;RP1=0, select bank0
  2057  027C  00B8               	movwf	liga_buzzer@tempoSegundos+3
  2058  027D  30CC               	movlw	204
  2059  027E  00B7               	movwf	liga_buzzer@tempoSegundos+2
  2060  027F  30CC               	movlw	204
  2061  0280  00B6               	movwf	liga_buzzer@tempoSegundos+1
  2062  0281  30CD               	movlw	205
  2063  0282  00B5               	movwf	liga_buzzer@tempoSegundos
  2064  0283  120A  158A  22B9  120A  118A  	fcall	_liga_buzzer
  2065  0288                     l2388:
  2066                           
  2067                           ;main.c: 188:         LCD_escreve('5');
  2068  0288  3035               	movlw	53
  2069  0289  120A  158A  200D  120A  118A  	fcall	_LCD_escreve
  2070  028E                     l2390:
  2071                           
  2072                           ;main.c: 189:         if(userFalse == 1){
  2073  028E  1283               	bcf	3,5	;RP0=0, select bank0
  2074  028F  1303               	bcf	3,6	;RP1=0, select bank0
  2075  0290  0352               	decf	_userFalse,w
  2076  0291  0453               	iorwf	_userFalse+1,w
  2077  0292  1D03               	btfss	3,2
  2078  0293  2A95               	goto	u2571
  2079  0294  2A96               	goto	u2570
  2080  0295                     u2571:
  2081  0295  2A9A               	goto	l2394
  2082  0296                     u2570:
  2083  0296                     l2392:
  2084                           
  2085                           ;main.c: 190:             input = 5;
  2086  0296  3005               	movlw	5
  2087  0297  00D6               	movwf	_input
  2088  0298  3000               	movlw	0
  2089  0299  00D7               	movwf	_input+1
  2090  029A                     l2394:
  2091                           
  2092                           ;main.c: 196:     if (RB2 == 0){
  2093  029A  1906               	btfsc	6,2	;volatile
  2094  029B  2A9D               	goto	u2581
  2095  029C  2A9E               	goto	u2580
  2096  029D                     u2581:
  2097  029D  2ACD               	goto	l2406
  2098  029E                     u2580:
  2099  029E                     l2396:
  2100                           
  2101                           ;main.c: 197:         _delay((unsigned long)((200)*(20000000/4000.0)));
  2102  029E  3006               	movlw	6
  2103  029F  1283               	bcf	3,5	;RP0=0, select bank0
  2104  02A0  1303               	bcf	3,6	;RP1=0, select bank0
  2105  02A1  00BD               	movwf	??_teclado+2
  2106  02A2  3013               	movlw	19
  2107  02A3  00BC               	movwf	??_teclado+1
  2108  02A4  30AD               	movlw	173
  2109  02A5  00BB               	movwf	??_teclado
  2110  02A6                     u3317:
  2111  02A6  0BBB               	decfsz	??_teclado,f
  2112  02A7  2AA6               	goto	u3317
  2113  02A8  0BBC               	decfsz	??_teclado+1,f
  2114  02A9  2AA6               	goto	u3317
  2115  02AA  0BBD               	decfsz	??_teclado+2,f
  2116  02AB  2AA6               	goto	u3317
  2117  02AC                     l2398:
  2118                           
  2119                           ;main.c: 198:         liga_buzzer(0.1);
  2120  02AC  303D               	movlw	61
  2121  02AD  1283               	bcf	3,5	;RP0=0, select bank0
  2122  02AE  1303               	bcf	3,6	;RP1=0, select bank0
  2123  02AF  00B8               	movwf	liga_buzzer@tempoSegundos+3
  2124  02B0  30CC               	movlw	204
  2125  02B1  00B7               	movwf	liga_buzzer@tempoSegundos+2
  2126  02B2  30CC               	movlw	204
  2127  02B3  00B6               	movwf	liga_buzzer@tempoSegundos+1
  2128  02B4  30CD               	movlw	205
  2129  02B5  00B5               	movwf	liga_buzzer@tempoSegundos
  2130  02B6  120A  158A  22B9  120A  118A  	fcall	_liga_buzzer
  2131  02BB                     l2400:
  2132                           
  2133                           ;main.c: 199:         LCD_escreve('6');
  2134  02BB  3036               	movlw	54
  2135  02BC  120A  158A  200D  120A  118A  	fcall	_LCD_escreve
  2136  02C1                     l2402:
  2137                           
  2138                           ;main.c: 200:         if(userFalse == 1){
  2139  02C1  1283               	bcf	3,5	;RP0=0, select bank0
  2140  02C2  1303               	bcf	3,6	;RP1=0, select bank0
  2141  02C3  0352               	decf	_userFalse,w
  2142  02C4  0453               	iorwf	_userFalse+1,w
  2143  02C5  1D03               	btfss	3,2
  2144  02C6  2AC8               	goto	u2591
  2145  02C7  2AC9               	goto	u2590
  2146  02C8                     u2591:
  2147  02C8  2ACD               	goto	l2406
  2148  02C9                     u2590:
  2149  02C9                     l2404:
  2150                           
  2151                           ;main.c: 201:             input = 6;
  2152  02C9  3006               	movlw	6
  2153  02CA  00D6               	movwf	_input
  2154  02CB  3000               	movlw	0
  2155  02CC  00D7               	movwf	_input+1
  2156  02CD                     l2406:
  2157                           
  2158                           ;main.c: 207:     if (RB3 == 0){
  2159  02CD  1986               	btfsc	6,3	;volatile
  2160  02CE  2AD0               	goto	u2601
  2161  02CF  2AD1               	goto	u2600
  2162  02D0                     u2601:
  2163  02D0  2B00               	goto	l194
  2164  02D1                     u2600:
  2165  02D1                     l2408:
  2166                           
  2167                           ;main.c: 208:         _delay((unsigned long)((200)*(20000000/4000.0)));
  2168  02D1  3006               	movlw	6
  2169  02D2  1283               	bcf	3,5	;RP0=0, select bank0
  2170  02D3  1303               	bcf	3,6	;RP1=0, select bank0
  2171  02D4  00BD               	movwf	??_teclado+2
  2172  02D5  3013               	movlw	19
  2173  02D6  00BC               	movwf	??_teclado+1
  2174  02D7  30AD               	movlw	173
  2175  02D8  00BB               	movwf	??_teclado
  2176  02D9                     u3327:
  2177  02D9  0BBB               	decfsz	??_teclado,f
  2178  02DA  2AD9               	goto	u3327
  2179  02DB  0BBC               	decfsz	??_teclado+1,f
  2180  02DC  2AD9               	goto	u3327
  2181  02DD  0BBD               	decfsz	??_teclado+2,f
  2182  02DE  2AD9               	goto	u3327
  2183  02DF                     l2410:
  2184                           
  2185                           ;main.c: 209:         liga_buzzer(0.1);
  2186  02DF  303D               	movlw	61
  2187  02E0  1283               	bcf	3,5	;RP0=0, select bank0
  2188  02E1  1303               	bcf	3,6	;RP1=0, select bank0
  2189  02E2  00B8               	movwf	liga_buzzer@tempoSegundos+3
  2190  02E3  30CC               	movlw	204
  2191  02E4  00B7               	movwf	liga_buzzer@tempoSegundos+2
  2192  02E5  30CC               	movlw	204
  2193  02E6  00B6               	movwf	liga_buzzer@tempoSegundos+1
  2194  02E7  30CD               	movlw	205
  2195  02E8  00B5               	movwf	liga_buzzer@tempoSegundos
  2196  02E9  120A  158A  22B9  120A  118A  	fcall	_liga_buzzer
  2197  02EE                     l2412:
  2198                           
  2199                           ;main.c: 210:         LCD_escreve('7');
  2200  02EE  3037               	movlw	55
  2201  02EF  120A  158A  200D  120A  118A  	fcall	_LCD_escreve
  2202  02F4                     l2414:
  2203                           
  2204                           ;main.c: 211:         if(userFalse == 1){
  2205  02F4  1283               	bcf	3,5	;RP0=0, select bank0
  2206  02F5  1303               	bcf	3,6	;RP1=0, select bank0
  2207  02F6  0352               	decf	_userFalse,w
  2208  02F7  0453               	iorwf	_userFalse+1,w
  2209  02F8  1D03               	btfss	3,2
  2210  02F9  2AFB               	goto	u2611
  2211  02FA  2AFC               	goto	u2610
  2212  02FB                     u2611:
  2213  02FB  2B00               	goto	l194
  2214  02FC                     u2610:
  2215  02FC                     l2416:
  2216                           
  2217                           ;main.c: 212:             input = 7;
  2218  02FC  3007               	movlw	7
  2219  02FD  00D6               	movwf	_input
  2220  02FE  3000               	movlw	0
  2221  02FF  00D7               	movwf	_input+1
  2222  0300                     l194:	
  2223                           ;main.c: 214:     }
  2224                           
  2225                           
  2226                           ;main.c: 218:     PORTB = 0b10111111;
  2227  0300  30BF               	movlw	191
  2228  0301  0086               	movwf	6	;volatile
  2229  0302                     l2418:
  2230                           
  2231                           ;main.c: 222:     if (RB0 == 0){
  2232  0302  1806               	btfsc	6,0	;volatile
  2233  0303  2B05               	goto	u2621
  2234  0304  2B06               	goto	u2620
  2235  0305                     u2621:
  2236  0305  2B35               	goto	l2430
  2237  0306                     u2620:
  2238  0306                     l2420:
  2239                           
  2240                           ;main.c: 223:         _delay((unsigned long)((200)*(20000000/4000.0)));
  2241  0306  3006               	movlw	6
  2242  0307  1283               	bcf	3,5	;RP0=0, select bank0
  2243  0308  1303               	bcf	3,6	;RP1=0, select bank0
  2244  0309  00BD               	movwf	??_teclado+2
  2245  030A  3013               	movlw	19
  2246  030B  00BC               	movwf	??_teclado+1
  2247  030C  30AD               	movlw	173
  2248  030D  00BB               	movwf	??_teclado
  2249  030E                     u3337:
  2250  030E  0BBB               	decfsz	??_teclado,f
  2251  030F  2B0E               	goto	u3337
  2252  0310  0BBC               	decfsz	??_teclado+1,f
  2253  0311  2B0E               	goto	u3337
  2254  0312  0BBD               	decfsz	??_teclado+2,f
  2255  0313  2B0E               	goto	u3337
  2256  0314                     l2422:
  2257                           
  2258                           ;main.c: 224:         liga_buzzer(0.1);
  2259  0314  303D               	movlw	61
  2260  0315  1283               	bcf	3,5	;RP0=0, select bank0
  2261  0316  1303               	bcf	3,6	;RP1=0, select bank0
  2262  0317  00B8               	movwf	liga_buzzer@tempoSegundos+3
  2263  0318  30CC               	movlw	204
  2264  0319  00B7               	movwf	liga_buzzer@tempoSegundos+2
  2265  031A  30CC               	movlw	204
  2266  031B  00B6               	movwf	liga_buzzer@tempoSegundos+1
  2267  031C  30CD               	movlw	205
  2268  031D  00B5               	movwf	liga_buzzer@tempoSegundos
  2269  031E  120A  158A  22B9  120A  118A  	fcall	_liga_buzzer
  2270  0323                     l2424:
  2271                           
  2272                           ;main.c: 225:         LCD_escreve('8');
  2273  0323  3038               	movlw	56
  2274  0324  120A  158A  200D  120A  118A  	fcall	_LCD_escreve
  2275  0329                     l2426:
  2276                           
  2277                           ;main.c: 226:         if(userFalse == 1){
  2278  0329  1283               	bcf	3,5	;RP0=0, select bank0
  2279  032A  1303               	bcf	3,6	;RP1=0, select bank0
  2280  032B  0352               	decf	_userFalse,w
  2281  032C  0453               	iorwf	_userFalse+1,w
  2282  032D  1D03               	btfss	3,2
  2283  032E  2B30               	goto	u2631
  2284  032F  2B31               	goto	u2630
  2285  0330                     u2631:
  2286  0330  2B35               	goto	l2430
  2287  0331                     u2630:
  2288  0331                     l2428:
  2289                           
  2290                           ;main.c: 227:             input = 8;
  2291  0331  3008               	movlw	8
  2292  0332  00D6               	movwf	_input
  2293  0333  3000               	movlw	0
  2294  0334  00D7               	movwf	_input+1
  2295  0335                     l2430:
  2296                           
  2297                           ;main.c: 233:     if (RB1 == 0){
  2298  0335  1886               	btfsc	6,1	;volatile
  2299  0336  2B38               	goto	u2641
  2300  0337  2B39               	goto	u2640
  2301  0338                     u2641:
  2302  0338  2B68               	goto	l2442
  2303  0339                     u2640:
  2304  0339                     l2432:
  2305                           
  2306                           ;main.c: 234:         _delay((unsigned long)((200)*(20000000/4000.0)));
  2307  0339  3006               	movlw	6
  2308  033A  1283               	bcf	3,5	;RP0=0, select bank0
  2309  033B  1303               	bcf	3,6	;RP1=0, select bank0
  2310  033C  00BD               	movwf	??_teclado+2
  2311  033D  3013               	movlw	19
  2312  033E  00BC               	movwf	??_teclado+1
  2313  033F  30AD               	movlw	173
  2314  0340  00BB               	movwf	??_teclado
  2315  0341                     u3347:
  2316  0341  0BBB               	decfsz	??_teclado,f
  2317  0342  2B41               	goto	u3347
  2318  0343  0BBC               	decfsz	??_teclado+1,f
  2319  0344  2B41               	goto	u3347
  2320  0345  0BBD               	decfsz	??_teclado+2,f
  2321  0346  2B41               	goto	u3347
  2322  0347                     l2434:
  2323                           
  2324                           ;main.c: 235:         liga_buzzer(0.1);
  2325  0347  303D               	movlw	61
  2326  0348  1283               	bcf	3,5	;RP0=0, select bank0
  2327  0349  1303               	bcf	3,6	;RP1=0, select bank0
  2328  034A  00B8               	movwf	liga_buzzer@tempoSegundos+3
  2329  034B  30CC               	movlw	204
  2330  034C  00B7               	movwf	liga_buzzer@tempoSegundos+2
  2331  034D  30CC               	movlw	204
  2332  034E  00B6               	movwf	liga_buzzer@tempoSegundos+1
  2333  034F  30CD               	movlw	205
  2334  0350  00B5               	movwf	liga_buzzer@tempoSegundos
  2335  0351  120A  158A  22B9  120A  118A  	fcall	_liga_buzzer
  2336  0356                     l2436:
  2337                           
  2338                           ;main.c: 236:         LCD_escreve('9');
  2339  0356  3039               	movlw	57
  2340  0357  120A  158A  200D  120A  118A  	fcall	_LCD_escreve
  2341  035C                     l2438:
  2342                           
  2343                           ;main.c: 237:         if(userFalse == 1){
  2344  035C  1283               	bcf	3,5	;RP0=0, select bank0
  2345  035D  1303               	bcf	3,6	;RP1=0, select bank0
  2346  035E  0352               	decf	_userFalse,w
  2347  035F  0453               	iorwf	_userFalse+1,w
  2348  0360  1D03               	btfss	3,2
  2349  0361  2B63               	goto	u2651
  2350  0362  2B64               	goto	u2650
  2351  0363                     u2651:
  2352  0363  2B68               	goto	l2442
  2353  0364                     u2650:
  2354  0364                     l2440:
  2355                           
  2356                           ;main.c: 238:             input = 9;
  2357  0364  3009               	movlw	9
  2358  0365  00D6               	movwf	_input
  2359  0366  3000               	movlw	0
  2360  0367  00D7               	movwf	_input+1
  2361  0368                     l2442:
  2362                           
  2363                           ;main.c: 244:     if (RB2 == 0){
  2364  0368  1906               	btfsc	6,2	;volatile
  2365  0369  2B6B               	goto	u2661
  2366  036A  2B6C               	goto	u2660
  2367  036B                     u2661:
  2368  036B  2B8F               	goto	l2450
  2369  036C                     u2660:
  2370  036C                     l2444:
  2371                           
  2372                           ;main.c: 245:         _delay((unsigned long)((200)*(20000000/4000.0)));
  2373  036C  3006               	movlw	6
  2374  036D  1283               	bcf	3,5	;RP0=0, select bank0
  2375  036E  1303               	bcf	3,6	;RP1=0, select bank0
  2376  036F  00BD               	movwf	??_teclado+2
  2377  0370  3013               	movlw	19
  2378  0371  00BC               	movwf	??_teclado+1
  2379  0372  30AD               	movlw	173
  2380  0373  00BB               	movwf	??_teclado
  2381  0374                     u3357:
  2382  0374  0BBB               	decfsz	??_teclado,f
  2383  0375  2B74               	goto	u3357
  2384  0376  0BBC               	decfsz	??_teclado+1,f
  2385  0377  2B74               	goto	u3357
  2386  0378  0BBD               	decfsz	??_teclado+2,f
  2387  0379  2B74               	goto	u3357
  2388  037A                     l2446:
  2389                           
  2390                           ;main.c: 246:         liga_buzzer(0.1);
  2391  037A  303D               	movlw	61
  2392  037B  1283               	bcf	3,5	;RP0=0, select bank0
  2393  037C  1303               	bcf	3,6	;RP1=0, select bank0
  2394  037D  00B8               	movwf	liga_buzzer@tempoSegundos+3
  2395  037E  30CC               	movlw	204
  2396  037F  00B7               	movwf	liga_buzzer@tempoSegundos+2
  2397  0380  30CC               	movlw	204
  2398  0381  00B6               	movwf	liga_buzzer@tempoSegundos+1
  2399  0382  30CD               	movlw	205
  2400  0383  00B5               	movwf	liga_buzzer@tempoSegundos
  2401  0384  120A  158A  22B9  120A  118A  	fcall	_liga_buzzer
  2402  0389                     l2448:
  2403                           
  2404                           ;main.c: 247:         LCD_escreve('A');
  2405  0389  3041               	movlw	65
  2406  038A  120A  158A  200D  120A  118A  	fcall	_LCD_escreve
  2407  038F                     l2450:
  2408                           
  2409                           ;main.c: 252:     if (RB3 == 0){
  2410  038F  1283               	bcf	3,5	;RP0=0, select bank0
  2411  0390  1303               	bcf	3,6	;RP1=0, select bank0
  2412  0391  1986               	btfsc	6,3	;volatile
  2413  0392  2B94               	goto	u2671
  2414  0393  2B95               	goto	u2670
  2415  0394                     u2671:
  2416  0394  2BB8               	goto	l201
  2417  0395                     u2670:
  2418  0395                     l2452:
  2419                           
  2420                           ;main.c: 253:         _delay((unsigned long)((200)*(20000000/4000.0)));
  2421  0395  3006               	movlw	6
  2422  0396  1283               	bcf	3,5	;RP0=0, select bank0
  2423  0397  1303               	bcf	3,6	;RP1=0, select bank0
  2424  0398  00BD               	movwf	??_teclado+2
  2425  0399  3013               	movlw	19
  2426  039A  00BC               	movwf	??_teclado+1
  2427  039B  30AD               	movlw	173
  2428  039C  00BB               	movwf	??_teclado
  2429  039D                     u3367:
  2430  039D  0BBB               	decfsz	??_teclado,f
  2431  039E  2B9D               	goto	u3367
  2432  039F  0BBC               	decfsz	??_teclado+1,f
  2433  03A0  2B9D               	goto	u3367
  2434  03A1  0BBD               	decfsz	??_teclado+2,f
  2435  03A2  2B9D               	goto	u3367
  2436  03A3                     l2454:
  2437                           
  2438                           ;main.c: 254:         liga_buzzer(0.1);
  2439  03A3  303D               	movlw	61
  2440  03A4  1283               	bcf	3,5	;RP0=0, select bank0
  2441  03A5  1303               	bcf	3,6	;RP1=0, select bank0
  2442  03A6  00B8               	movwf	liga_buzzer@tempoSegundos+3
  2443  03A7  30CC               	movlw	204
  2444  03A8  00B7               	movwf	liga_buzzer@tempoSegundos+2
  2445  03A9  30CC               	movlw	204
  2446  03AA  00B6               	movwf	liga_buzzer@tempoSegundos+1
  2447  03AB  30CD               	movlw	205
  2448  03AC  00B5               	movwf	liga_buzzer@tempoSegundos
  2449  03AD  120A  158A  22B9  120A  118A  	fcall	_liga_buzzer
  2450  03B2                     l2456:
  2451                           
  2452                           ;main.c: 255:         LCD_escreve('B');
  2453  03B2  3042               	movlw	66
  2454  03B3  120A  158A  200D  120A  118A  	fcall	_LCD_escreve
  2455  03B8                     l201:	
  2456                           ;main.c: 256:     }
  2457                           
  2458                           
  2459                           ;main.c: 260:     PORTB = 0b01111111;
  2460  03B8  307F               	movlw	127
  2461  03B9  1283               	bcf	3,5	;RP0=0, select bank0
  2462  03BA  1303               	bcf	3,6	;RP1=0, select bank0
  2463  03BB  0086               	movwf	6	;volatile
  2464  03BC                     l2458:
  2465                           
  2466                           ;main.c: 264:     if (RB0 == 0){
  2467  03BC  1806               	btfsc	6,0	;volatile
  2468  03BD  2BBF               	goto	u2681
  2469  03BE  2BC0               	goto	u2680
  2470  03BF                     u2681:
  2471  03BF  2BE3               	goto	l2466
  2472  03C0                     u2680:
  2473  03C0                     l2460:
  2474                           
  2475                           ;main.c: 265:         _delay((unsigned long)((200)*(20000000/4000.0)));
  2476  03C0  3006               	movlw	6
  2477  03C1  1283               	bcf	3,5	;RP0=0, select bank0
  2478  03C2  1303               	bcf	3,6	;RP1=0, select bank0
  2479  03C3  00BD               	movwf	??_teclado+2
  2480  03C4  3013               	movlw	19
  2481  03C5  00BC               	movwf	??_teclado+1
  2482  03C6  30AD               	movlw	173
  2483  03C7  00BB               	movwf	??_teclado
  2484  03C8                     u3377:
  2485  03C8  0BBB               	decfsz	??_teclado,f
  2486  03C9  2BC8               	goto	u3377
  2487  03CA  0BBC               	decfsz	??_teclado+1,f
  2488  03CB  2BC8               	goto	u3377
  2489  03CC  0BBD               	decfsz	??_teclado+2,f
  2490  03CD  2BC8               	goto	u3377
  2491  03CE                     l2462:
  2492                           
  2493                           ;main.c: 266:         liga_buzzer(0.1);
  2494  03CE  303D               	movlw	61
  2495  03CF  1283               	bcf	3,5	;RP0=0, select bank0
  2496  03D0  1303               	bcf	3,6	;RP1=0, select bank0
  2497  03D1  00B8               	movwf	liga_buzzer@tempoSegundos+3
  2498  03D2  30CC               	movlw	204
  2499  03D3  00B7               	movwf	liga_buzzer@tempoSegundos+2
  2500  03D4  30CC               	movlw	204
  2501  03D5  00B6               	movwf	liga_buzzer@tempoSegundos+1
  2502  03D6  30CD               	movlw	205
  2503  03D7  00B5               	movwf	liga_buzzer@tempoSegundos
  2504  03D8  120A  158A  22B9  120A  118A  	fcall	_liga_buzzer
  2505  03DD                     l2464:
  2506                           
  2507                           ;main.c: 267:         LCD_escreve('C');
  2508  03DD  3043               	movlw	67
  2509  03DE  120A  158A  200D  120A  118A  	fcall	_LCD_escreve
  2510  03E3                     l2466:
  2511                           
  2512                           ;main.c: 272:     if (RB1 == 0){
  2513  03E3  1283               	bcf	3,5	;RP0=0, select bank0
  2514  03E4  1303               	bcf	3,6	;RP1=0, select bank0
  2515  03E5  1886               	btfsc	6,1	;volatile
  2516  03E6  2BE8               	goto	u2691
  2517  03E7  2BE9               	goto	u2690
  2518  03E8                     u2691:
  2519  03E8  2C0C               	goto	l2474
  2520  03E9                     u2690:
  2521  03E9                     l2468:
  2522                           
  2523                           ;main.c: 273:         _delay((unsigned long)((200)*(20000000/4000.0)));
  2524  03E9  3006               	movlw	6
  2525  03EA  1283               	bcf	3,5	;RP0=0, select bank0
  2526  03EB  1303               	bcf	3,6	;RP1=0, select bank0
  2527  03EC  00BD               	movwf	??_teclado+2
  2528  03ED  3013               	movlw	19
  2529  03EE  00BC               	movwf	??_teclado+1
  2530  03EF  30AD               	movlw	173
  2531  03F0  00BB               	movwf	??_teclado
  2532  03F1                     u3387:
  2533  03F1  0BBB               	decfsz	??_teclado,f
  2534  03F2  2BF1               	goto	u3387
  2535  03F3  0BBC               	decfsz	??_teclado+1,f
  2536  03F4  2BF1               	goto	u3387
  2537  03F5  0BBD               	decfsz	??_teclado+2,f
  2538  03F6  2BF1               	goto	u3387
  2539  03F7                     l2470:
  2540                           
  2541                           ;main.c: 274:         liga_buzzer(0.1);
  2542  03F7  303D               	movlw	61
  2543  03F8  1283               	bcf	3,5	;RP0=0, select bank0
  2544  03F9  1303               	bcf	3,6	;RP1=0, select bank0
  2545  03FA  00B8               	movwf	liga_buzzer@tempoSegundos+3
  2546  03FB  30CC               	movlw	204
  2547  03FC  00B7               	movwf	liga_buzzer@tempoSegundos+2
  2548  03FD  30CC               	movlw	204
  2549  03FE  00B6               	movwf	liga_buzzer@tempoSegundos+1
  2550  03FF  30CD               	movlw	205
  2551  0400  00B5               	movwf	liga_buzzer@tempoSegundos
  2552  0401  120A  158A  22B9  120A  118A  	fcall	_liga_buzzer
  2553  0406                     l2472:
  2554                           
  2555                           ;main.c: 275:         LCD_escreve('D');
  2556  0406  3044               	movlw	68
  2557  0407  120A  158A  200D  120A  118A  	fcall	_LCD_escreve
  2558  040C                     l2474:
  2559                           
  2560                           ;main.c: 280:     if (RB2 == 0){
  2561  040C  1283               	bcf	3,5	;RP0=0, select bank0
  2562  040D  1303               	bcf	3,6	;RP1=0, select bank0
  2563  040E  1906               	btfsc	6,2	;volatile
  2564  040F  2C11               	goto	u2701
  2565  0410  2C12               	goto	u2700
  2566  0411                     u2701:
  2567  0411  2C35               	goto	l2482
  2568  0412                     u2700:
  2569  0412                     l2476:
  2570                           
  2571                           ;main.c: 281:         _delay((unsigned long)((200)*(20000000/4000.0)));
  2572  0412  3006               	movlw	6
  2573  0413  1283               	bcf	3,5	;RP0=0, select bank0
  2574  0414  1303               	bcf	3,6	;RP1=0, select bank0
  2575  0415  00BD               	movwf	??_teclado+2
  2576  0416  3013               	movlw	19
  2577  0417  00BC               	movwf	??_teclado+1
  2578  0418  30AD               	movlw	173
  2579  0419  00BB               	movwf	??_teclado
  2580  041A                     u3397:
  2581  041A  0BBB               	decfsz	??_teclado,f
  2582  041B  2C1A               	goto	u3397
  2583  041C  0BBC               	decfsz	??_teclado+1,f
  2584  041D  2C1A               	goto	u3397
  2585  041E  0BBD               	decfsz	??_teclado+2,f
  2586  041F  2C1A               	goto	u3397
  2587  0420                     l2478:
  2588                           
  2589                           ;main.c: 282:         liga_buzzer(0.1);
  2590  0420  303D               	movlw	61
  2591  0421  1283               	bcf	3,5	;RP0=0, select bank0
  2592  0422  1303               	bcf	3,6	;RP1=0, select bank0
  2593  0423  00B8               	movwf	liga_buzzer@tempoSegundos+3
  2594  0424  30CC               	movlw	204
  2595  0425  00B7               	movwf	liga_buzzer@tempoSegundos+2
  2596  0426  30CC               	movlw	204
  2597  0427  00B6               	movwf	liga_buzzer@tempoSegundos+1
  2598  0428  30CD               	movlw	205
  2599  0429  00B5               	movwf	liga_buzzer@tempoSegundos
  2600  042A  120A  158A  22B9  120A  118A  	fcall	_liga_buzzer
  2601  042F                     l2480:
  2602                           
  2603                           ;main.c: 283:         LCD_escreve('E');
  2604  042F  3045               	movlw	69
  2605  0430  120A  158A  200D  120A  118A  	fcall	_LCD_escreve
  2606  0435                     l2482:
  2607                           
  2608                           ;main.c: 288:     if (RB3 == 0){
  2609  0435  1283               	bcf	3,5	;RP0=0, select bank0
  2610  0436  1303               	bcf	3,6	;RP1=0, select bank0
  2611  0437  1986               	btfsc	6,3	;volatile
  2612  0438  2C3A               	goto	u2711
  2613  0439  2C3B               	goto	u2710
  2614  043A                     u2711:
  2615  043A  2C5E               	goto	l206
  2616  043B                     u2710:
  2617  043B                     l2484:
  2618                           
  2619                           ;main.c: 289:         _delay((unsigned long)((200)*(20000000/4000.0)));
  2620  043B  3006               	movlw	6
  2621  043C  1283               	bcf	3,5	;RP0=0, select bank0
  2622  043D  1303               	bcf	3,6	;RP1=0, select bank0
  2623  043E  00BD               	movwf	??_teclado+2
  2624  043F  3013               	movlw	19
  2625  0440  00BC               	movwf	??_teclado+1
  2626  0441  30AD               	movlw	173
  2627  0442  00BB               	movwf	??_teclado
  2628  0443                     u3407:
  2629  0443  0BBB               	decfsz	??_teclado,f
  2630  0444  2C43               	goto	u3407
  2631  0445  0BBC               	decfsz	??_teclado+1,f
  2632  0446  2C43               	goto	u3407
  2633  0447  0BBD               	decfsz	??_teclado+2,f
  2634  0448  2C43               	goto	u3407
  2635  0449                     l2486:
  2636                           
  2637                           ;main.c: 290:         liga_buzzer(0.1);
  2638  0449  303D               	movlw	61
  2639  044A  1283               	bcf	3,5	;RP0=0, select bank0
  2640  044B  1303               	bcf	3,6	;RP1=0, select bank0
  2641  044C  00B8               	movwf	liga_buzzer@tempoSegundos+3
  2642  044D  30CC               	movlw	204
  2643  044E  00B7               	movwf	liga_buzzer@tempoSegundos+2
  2644  044F  30CC               	movlw	204
  2645  0450  00B6               	movwf	liga_buzzer@tempoSegundos+1
  2646  0451  30CD               	movlw	205
  2647  0452  00B5               	movwf	liga_buzzer@tempoSegundos
  2648  0453  120A  158A  22B9  120A  118A  	fcall	_liga_buzzer
  2649  0458                     l2488:
  2650                           
  2651                           ;main.c: 291:         LCD_escreve('F');
  2652  0458  3046               	movlw	70
  2653  0459  120A  158A  200D  120A  118A  	fcall	_LCD_escreve
  2654  045E                     l206:
  2655  045E  0008               	return
  2656  045F                     __end_of_teclado:
  2657                           
  2658                           	psect	text3
  2659  0AB9                     __ptext3:	
  2660 ;; *************** function _liga_buzzer *****************
  2661 ;; Defined at:
  2662 ;;		line 104 in file "main.c"
  2663 ;; Parameters:    Size  Location     Type
  2664 ;;  tempoSegundo    4   21[BANK0 ] float 
  2665 ;; Auto vars:     Size  Location     Type
  2666 ;;		None
  2667 ;; Return value:  Size  Location     Type
  2668 ;;                  1    wreg      void 
  2669 ;; Registers used:
  2670 ;;		wreg, status,2, status,0, btemp+1, pclath, cstack
  2671 ;; Tracked objects:
  2672 ;;		On entry : 0/0
  2673 ;;		On exit  : 0/0
  2674 ;;		Unchanged: 0/0
  2675 ;; Data sizes:     COMMON   BANK0   BANK1   BANK3   BANK2
  2676 ;;      Params:         0       4       0       0       0
  2677 ;;      Locals:         0       0       0       0       0
  2678 ;;      Temps:          0       2       0       0       0
  2679 ;;      Totals:         0       6       0       0       0
  2680 ;;Total ram usage:        6 bytes
  2681 ;; Hardware stack levels used: 1
  2682 ;; Hardware stack levels required when called: 2
  2683 ;; This function calls:
  2684 ;;		___flge
  2685 ;;		___flmul
  2686 ;;		___flsub
  2687 ;; This function is called by:
  2688 ;;		_teclado
  2689 ;; This function uses a non-reentrant model
  2690 ;;
  2691                           
  2692                           
  2693                           ;psect for function _liga_buzzer
  2694  0AB9                     _liga_buzzer:
  2695  0AB9                     l2260:	
  2696                           ;incstack = 0
  2697                           ; Regs used in _liga_buzzer: [wreg+status,2+status,0+btemp+1+pclath+cstack]
  2698                           
  2699                           
  2700                           ;main.c: 105:     tempoSegundos = tempoSegundos * 1000;
  2701  0AB9  3044               	movlw	68
  2702  0ABA  1283               	bcf	3,5	;RP0=0, select bank0
  2703  0ABB  1303               	bcf	3,6	;RP1=0, select bank0
  2704  0ABC  00A3               	movwf	___flmul@b+3
  2705  0ABD  307A               	movlw	122
  2706  0ABE  00A2               	movwf	___flmul@b+2
  2707  0ABF  3000               	movlw	0
  2708  0AC0  00A1               	movwf	___flmul@b+1
  2709  0AC1  3000               	movlw	0
  2710  0AC2  00A0               	movwf	___flmul@b
  2711  0AC3  0838               	movf	liga_buzzer@tempoSegundos+3,w
  2712  0AC4  00A7               	movwf	___flmul@a+3
  2713  0AC5  0837               	movf	liga_buzzer@tempoSegundos+2,w
  2714  0AC6  00A6               	movwf	___flmul@a+2
  2715  0AC7  0836               	movf	liga_buzzer@tempoSegundos+1,w
  2716  0AC8  00A5               	movwf	___flmul@a+1
  2717  0AC9  0835               	movf	liga_buzzer@tempoSegundos,w
  2718  0ACA  00A4               	movwf	___flmul@a
  2719  0ACB  120A  118A  245F  120A  158A  	fcall	___flmul
  2720  0AD0  1283               	bcf	3,5	;RP0=0, select bank0
  2721  0AD1  1303               	bcf	3,6	;RP1=0, select bank0
  2722  0AD2  0823               	movf	?___flmul+3,w
  2723  0AD3  00B8               	movwf	liga_buzzer@tempoSegundos+3
  2724  0AD4  0822               	movf	?___flmul+2,w
  2725  0AD5  00B7               	movwf	liga_buzzer@tempoSegundos+2
  2726  0AD6  0821               	movf	?___flmul+1,w
  2727  0AD7  00B6               	movwf	liga_buzzer@tempoSegundos+1
  2728  0AD8  0820               	movf	?___flmul,w
  2729  0AD9  00B5               	movwf	liga_buzzer@tempoSegundos
  2730  0ADA                     l2262:
  2731                           
  2732                           ;main.c: 106:     _delay((unsigned long)((10)*(20000000/4000.0)));
  2733  0ADA  3041               	movlw	65
  2734  0ADB  1283               	bcf	3,5	;RP0=0, select bank0
  2735  0ADC  1303               	bcf	3,6	;RP1=0, select bank0
  2736  0ADD  00BA               	movwf	??_liga_buzzer+1
  2737  0ADE  30ED               	movlw	237
  2738  0ADF  00B9               	movwf	??_liga_buzzer
  2739  0AE0                     u3417:
  2740  0AE0  0BB9               	decfsz	??_liga_buzzer,f
  2741  0AE1  2AE0               	goto	u3417
  2742  0AE2  0BBA               	decfsz	??_liga_buzzer+1,f
  2743  0AE3  2AE0               	goto	u3417
  2744  0AE4  2AE5               	nop2
  2745                           
  2746                           ;main.c: 108:     while(tempoSegundos > 0){
  2747  0AE5  2B15               	goto	l2270
  2748  0AE6                     l2264:
  2749                           
  2750                           ;main.c: 109:        PORTE = 0;
  2751  0AE6  1283               	bcf	3,5	;RP0=0, select bank0
  2752  0AE7  1303               	bcf	3,6	;RP1=0, select bank0
  2753  0AE8  0189               	clrf	9	;volatile
  2754  0AE9                     l2266:
  2755                           
  2756                           ;main.c: 110:         _delay((unsigned long)((1)*(20000000/4000.0)));
  2757  0AE9  3007               	movlw	7
  2758  0AEA  1283               	bcf	3,5	;RP0=0, select bank0
  2759  0AEB  1303               	bcf	3,6	;RP1=0, select bank0
  2760  0AEC  00BA               	movwf	??_liga_buzzer+1
  2761  0AED  307C               	movlw	124
  2762  0AEE  00B9               	movwf	??_liga_buzzer
  2763  0AEF                     u3427:
  2764  0AEF  0BB9               	decfsz	??_liga_buzzer,f
  2765  0AF0  2AEF               	goto	u3427
  2766  0AF1  0BBA               	decfsz	??_liga_buzzer+1,f
  2767  0AF2  2AEF               	goto	u3427
  2768  0AF3  0000               	nop
  2769  0AF4                     l2268:
  2770                           
  2771                           ;main.c: 111:         tempoSegundos--;
  2772  0AF4  303F               	movlw	63
  2773  0AF5  1283               	bcf	3,5	;RP0=0, select bank0
  2774  0AF6  1303               	bcf	3,6	;RP1=0, select bank0
  2775  0AF7  00AB               	movwf	___flsub@a+3
  2776  0AF8  3080               	movlw	128
  2777  0AF9  00AA               	movwf	___flsub@a+2
  2778  0AFA  3000               	movlw	0
  2779  0AFB  00A9               	movwf	___flsub@a+1
  2780  0AFC  3000               	movlw	0
  2781  0AFD  00A8               	movwf	___flsub@a
  2782  0AFE  0838               	movf	liga_buzzer@tempoSegundos+3,w
  2783  0AFF  00AF               	movwf	___flsub@b+3
  2784  0B00  0837               	movf	liga_buzzer@tempoSegundos+2,w
  2785  0B01  00AE               	movwf	___flsub@b+2
  2786  0B02  0836               	movf	liga_buzzer@tempoSegundos+1,w
  2787  0B03  00AD               	movwf	___flsub@b+1
  2788  0B04  0835               	movf	liga_buzzer@tempoSegundos,w
  2789  0B05  00AC               	movwf	___flsub@b
  2790  0B06  120A  158A  20A4  120A  158A  	fcall	___flsub
  2791  0B0B  1283               	bcf	3,5	;RP0=0, select bank0
  2792  0B0C  1303               	bcf	3,6	;RP1=0, select bank0
  2793  0B0D  082B               	movf	?___flsub+3,w
  2794  0B0E  00B8               	movwf	liga_buzzer@tempoSegundos+3
  2795  0B0F  082A               	movf	?___flsub+2,w
  2796  0B10  00B7               	movwf	liga_buzzer@tempoSegundos+2
  2797  0B11  0829               	movf	?___flsub+1,w
  2798  0B12  00B6               	movwf	liga_buzzer@tempoSegundos+1
  2799  0B13  0828               	movf	?___flsub,w
  2800  0B14  00B5               	movwf	liga_buzzer@tempoSegundos
  2801  0B15                     l2270:
  2802                           
  2803                           ;main.c: 108:     while(tempoSegundos > 0){
  2804  0B15  3000               	movlw	0
  2805  0B16  00F3               	movwf	___flge@ff1+3
  2806  0B17  3000               	movlw	0
  2807  0B18  00F2               	movwf	___flge@ff1+2
  2808  0B19  3000               	movlw	0
  2809  0B1A  00F1               	movwf	___flge@ff1+1
  2810  0B1B  3000               	movlw	0
  2811  0B1C  00F0               	movwf	___flge@ff1
  2812  0B1D  1283               	bcf	3,5	;RP0=0, select bank0
  2813  0B1E  1303               	bcf	3,6	;RP1=0, select bank0
  2814  0B1F  0838               	movf	liga_buzzer@tempoSegundos+3,w
  2815  0B20  00F7               	movwf	___flge@ff2+3
  2816  0B21  0837               	movf	liga_buzzer@tempoSegundos+2,w
  2817  0B22  00F6               	movwf	___flge@ff2+2
  2818  0B23  0836               	movf	liga_buzzer@tempoSegundos+1,w
  2819  0B24  00F5               	movwf	___flge@ff2+1
  2820  0B25  0835               	movf	liga_buzzer@tempoSegundos,w
  2821  0B26  00F4               	movwf	___flge@ff2
  2822  0B27  120A  158A  23B1  120A  158A  	fcall	___flge
  2823  0B2C  1C03               	btfss	3,0
  2824  0B2D  2B2F               	goto	u2451
  2825  0B2E  2B30               	goto	u2450
  2826  0B2F                     u2451:
  2827  0B2F  2AE6               	goto	l2264
  2828  0B30                     u2450:
  2829  0B30                     l2272:
  2830                           
  2831                           ;main.c: 113:     PORTE = 0x0F;
  2832  0B30  300F               	movlw	15
  2833  0B31  1283               	bcf	3,5	;RP0=0, select bank0
  2834  0B32  1303               	bcf	3,6	;RP1=0, select bank0
  2835  0B33  0089               	movwf	9	;volatile
  2836  0B34                     l177:
  2837  0B34  0008               	return
  2838  0B35                     __end_of_liga_buzzer:
  2839                           
  2840                           	psect	text4
  2841  08A4                     __ptext4:	
  2842 ;; *************** function ___flsub *****************
  2843 ;; Defined at:
  2844 ;;		line 242 in file "C:\Program Files\Microchip\xc8\v2.32\pic\sources\c90\common\sprcadd.c"
  2845 ;; Parameters:    Size  Location     Type
  2846 ;;  a               4    8[BANK0 ] void 
  2847 ;;  b               4   12[BANK0 ] void 
  2848 ;; Auto vars:     Size  Location     Type
  2849 ;;		None
  2850 ;; Return value:  Size  Location     Type
  2851 ;;                  4    8[BANK0 ] void 
  2852 ;; Registers used:
  2853 ;;		wreg, status,2, status,0, btemp+1, pclath, cstack
  2854 ;; Tracked objects:
  2855 ;;		On entry : 0/0
  2856 ;;		On exit  : 0/0
  2857 ;;		Unchanged: 0/0
  2858 ;; Data sizes:     COMMON   BANK0   BANK1   BANK3   BANK2
  2859 ;;      Params:         0       8       0       0       0
  2860 ;;      Locals:         0       0       0       0       0
  2861 ;;      Temps:          0       0       0       0       0
  2862 ;;      Totals:         0       8       0       0       0
  2863 ;;Total ram usage:        8 bytes
  2864 ;; Hardware stack levels used: 1
  2865 ;; Hardware stack levels required when called: 1
  2866 ;; This function calls:
  2867 ;;		___fladd
  2868 ;; This function is called by:
  2869 ;;		_liga_buzzer
  2870 ;; This function uses a non-reentrant model
  2871 ;;
  2872                           
  2873                           
  2874                           ;psect for function ___flsub
  2875  08A4                     ___flsub:
  2876  08A4                     l2076:	
  2877                           ;incstack = 0
  2878                           ; Regs used in ___flsub: [wreg+status,2+status,0+btemp+1+pclath+cstack]
  2879                           
  2880  08A4  3080               	movlw	128
  2881  08A5  1283               	bcf	3,5	;RP0=0, select bank0
  2882  08A6  1303               	bcf	3,6	;RP1=0, select bank0
  2883  08A7  06AB               	xorwf	___flsub@a+3,f
  2884  08A8                     l2078:
  2885  08A8  082F               	movf	___flsub@b+3,w
  2886  08A9  00F3               	movwf	___fladd@b+3
  2887  08AA  082E               	movf	___flsub@b+2,w
  2888  08AB  00F2               	movwf	___fladd@b+2
  2889  08AC  082D               	movf	___flsub@b+1,w
  2890  08AD  00F1               	movwf	___fladd@b+1
  2891  08AE  082C               	movf	___flsub@b,w
  2892  08AF  00F0               	movwf	___fladd@b
  2893  08B0  082B               	movf	___flsub@a+3,w
  2894  08B1  00F7               	movwf	___fladd@a+3
  2895  08B2  082A               	movf	___flsub@a+2,w
  2896  08B3  00F6               	movwf	___fladd@a+2
  2897  08B4  0829               	movf	___flsub@a+1,w
  2898  08B5  00F5               	movwf	___fladd@a+1
  2899  08B6  0828               	movf	___flsub@a,w
  2900  08B7  00F4               	movwf	___fladd@a
  2901  08B8  120A  158A  2568  120A  158A  	fcall	___fladd
  2902  08BD  0873               	movf	?___fladd+3,w
  2903  08BE  1283               	bcf	3,5	;RP0=0, select bank0
  2904  08BF  1303               	bcf	3,6	;RP1=0, select bank0
  2905  08C0  00AB               	movwf	?___flsub+3
  2906  08C1  0872               	movf	?___fladd+2,w
  2907  08C2  00AA               	movwf	?___flsub+2
  2908  08C3  0871               	movf	?___fladd+1,w
  2909  08C4  00A9               	movwf	?___flsub+1
  2910  08C5  0870               	movf	?___fladd,w
  2911  08C6  00A8               	movwf	?___flsub
  2912  08C7                     l703:
  2913  08C7  0008               	return
  2914  08C8                     __end_of___flsub:
  2915                           
  2916                           	psect	text5
  2917  0D68                     __ptext5:	
  2918 ;; *************** function ___fladd *****************
  2919 ;; Defined at:
  2920 ;;		line 10 in file "C:\Program Files\Microchip\xc8\v2.32\pic\sources\c90\common\sprcadd.c"
  2921 ;; Parameters:    Size  Location     Type
  2922 ;;  b               4    0[COMMON] void 
  2923 ;;  a               4    4[COMMON] void 
  2924 ;; Auto vars:     Size  Location     Type
  2925 ;;  grs             1   11[COMMON] unsigned char 
  2926 ;;  bexp            1   10[COMMON] unsigned char 
  2927 ;;  aexp            1    9[COMMON] unsigned char 
  2928 ;;  signs           1    8[COMMON] unsigned char 
  2929 ;; Return value:  Size  Location     Type
  2930 ;;                  4    0[COMMON] unsigned char 
  2931 ;; Registers used:
  2932 ;;		wreg, status,2, status,0, btemp+1
  2933 ;; Tracked objects:
  2934 ;;		On entry : 0/0
  2935 ;;		On exit  : 0/0
  2936 ;;		Unchanged: 0/0
  2937 ;; Data sizes:     COMMON   BANK0   BANK1   BANK3   BANK2
  2938 ;;      Params:         8       0       0       0       0
  2939 ;;      Locals:         4       0       0       0       0
  2940 ;;      Temps:          0       8       0       0       0
  2941 ;;      Totals:        12       8       0       0       0
  2942 ;;Total ram usage:       20 bytes
  2943 ;; Hardware stack levels used: 1
  2944 ;; This function calls:
  2945 ;;		Nothing
  2946 ;; This function is called by:
  2947 ;;		___flsub
  2948 ;; This function uses a non-reentrant model
  2949 ;;
  2950                           
  2951                           
  2952                           ;psect for function ___fladd
  2953  0D68                     ___fladd:
  2954  0D68                     l1838:	
  2955                           ;incstack = 0
  2956                           ; Regs used in ___fladd: [wreg+status,2+status,0+btemp+1]
  2957                           
  2958  0D68  0873               	movf	___fladd@b+3,w
  2959  0D69  3980               	andlw	128
  2960  0D6A  1283               	bcf	3,5	;RP0=0, select bank0
  2961  0D6B  1303               	bcf	3,6	;RP1=0, select bank0
  2962  0D6C  00A0               	movwf	??___fladd
  2963  0D6D  0820               	movf	??___fladd,w
  2964  0D6E  00F8               	movwf	___fladd@signs
  2965  0D6F                     l1840:
  2966  0D6F  0873               	movf	___fladd@b+3,w
  2967  0D70  00A0               	movwf	??___fladd
  2968  0D71  0720               	addwf	??___fladd,w
  2969  0D72  00A1               	movwf	??___fladd+1
  2970  0D73  0821               	movf	??___fladd+1,w
  2971  0D74  00FA               	movwf	___fladd@bexp
  2972  0D75                     l1842:
  2973  0D75  1FF2               	btfss	___fladd@b+2,7
  2974  0D76  2D78               	goto	u1511
  2975  0D77  2D79               	goto	u1510
  2976  0D78                     u1511:
  2977  0D78  2D7A               	goto	l1846
  2978  0D79                     u1510:
  2979  0D79                     l1844:
  2980  0D79  147A               	bsf	___fladd@bexp,0
  2981  0D7A                     l1846:
  2982  0D7A  087A               	movf	___fladd@bexp,w
  2983  0D7B  1903               	btfsc	3,2
  2984  0D7C  2D7E               	goto	u1521
  2985  0D7D  2D7F               	goto	u1520
  2986  0D7E                     u1521:
  2987  0D7E  2D8F               	goto	l1856
  2988  0D7F                     u1520:
  2989  0D7F                     l1848:
  2990  0D7F  0A7A               	incf	___fladd@bexp,w
  2991  0D80  1D03               	btfss	3,2
  2992  0D81  2D83               	goto	u1531
  2993  0D82  2D84               	goto	u1530
  2994  0D83                     u1531:
  2995  0D83  2D8C               	goto	l1852
  2996  0D84                     u1530:
  2997  0D84                     l1850:
  2998  0D84  3000               	movlw	0
  2999  0D85  00F3               	movwf	___fladd@b+3
  3000  0D86  3000               	movlw	0
  3001  0D87  00F2               	movwf	___fladd@b+2
  3002  0D88  3000               	movlw	0
  3003  0D89  00F1               	movwf	___fladd@b+1
  3004  0D8A  3000               	movlw	0
  3005  0D8B  00F0               	movwf	___fladd@b
  3006  0D8C                     l1852:
  3007  0D8C  17F2               	bsf	___fladd@b+2,7
  3008  0D8D                     l1854:
  3009  0D8D  01F3               	clrf	___fladd@b+3
  3010  0D8E  2D97               	goto	l1858
  3011  0D8F                     l1856:
  3012  0D8F  3000               	movlw	0
  3013  0D90  00F3               	movwf	___fladd@b+3
  3014  0D91  3000               	movlw	0
  3015  0D92  00F2               	movwf	___fladd@b+2
  3016  0D93  3000               	movlw	0
  3017  0D94  00F1               	movwf	___fladd@b+1
  3018  0D95  3000               	movlw	0
  3019  0D96  00F0               	movwf	___fladd@b
  3020  0D97                     l1858:
  3021  0D97  0877               	movf	___fladd@a+3,w
  3022  0D98  3980               	andlw	128
  3023  0D99  00A0               	movwf	??___fladd
  3024  0D9A  0820               	movf	??___fladd,w
  3025  0D9B  00F9               	movwf	___fladd@aexp
  3026  0D9C                     l1860:
  3027  0D9C  0879               	movf	___fladd@aexp,w
  3028  0D9D  0678               	xorwf	___fladd@signs,w
  3029  0D9E  1903               	skipnz
  3030  0D9F  2DA1               	goto	u1541
  3031  0DA0  2DA2               	goto	u1540
  3032  0DA1                     u1541:
  3033  0DA1  2DA3               	goto	l1864
  3034  0DA2                     u1540:
  3035  0DA2                     l1862:
  3036  0DA2  1778               	bsf	___fladd@signs,6
  3037  0DA3                     l1864:
  3038  0DA3  0877               	movf	___fladd@a+3,w
  3039  0DA4  00A0               	movwf	??___fladd
  3040  0DA5  0720               	addwf	??___fladd,w
  3041  0DA6  00A1               	movwf	??___fladd+1
  3042  0DA7  0821               	movf	??___fladd+1,w
  3043  0DA8  00F9               	movwf	___fladd@aexp
  3044  0DA9                     l1866:
  3045  0DA9  1FF6               	btfss	___fladd@a+2,7
  3046  0DAA  2DAC               	goto	u1551
  3047  0DAB  2DAD               	goto	u1550
  3048  0DAC                     u1551:
  3049  0DAC  2DAE               	goto	l1870
  3050  0DAD                     u1550:
  3051  0DAD                     l1868:
  3052  0DAD  1479               	bsf	___fladd@aexp,0
  3053  0DAE                     l1870:
  3054  0DAE  0879               	movf	___fladd@aexp,w
  3055  0DAF  1903               	btfsc	3,2
  3056  0DB0  2DB2               	goto	u1561
  3057  0DB1  2DB3               	goto	u1560
  3058  0DB2                     u1561:
  3059  0DB2  2DC3               	goto	l1880
  3060  0DB3                     u1560:
  3061  0DB3                     l1872:
  3062  0DB3  0A79               	incf	___fladd@aexp,w
  3063  0DB4  1D03               	btfss	3,2
  3064  0DB5  2DB7               	goto	u1571
  3065  0DB6  2DB8               	goto	u1570
  3066  0DB7                     u1571:
  3067  0DB7  2DC0               	goto	l1876
  3068  0DB8                     u1570:
  3069  0DB8                     l1874:
  3070  0DB8  3000               	movlw	0
  3071  0DB9  00F7               	movwf	___fladd@a+3
  3072  0DBA  3000               	movlw	0
  3073  0DBB  00F6               	movwf	___fladd@a+2
  3074  0DBC  3000               	movlw	0
  3075  0DBD  00F5               	movwf	___fladd@a+1
  3076  0DBE  3000               	movlw	0
  3077  0DBF  00F4               	movwf	___fladd@a
  3078  0DC0                     l1876:
  3079  0DC0  17F6               	bsf	___fladd@a+2,7
  3080  0DC1                     l1878:
  3081  0DC1  01F7               	clrf	___fladd@a+3
  3082  0DC2  2DCB               	goto	l657
  3083  0DC3                     l1880:
  3084  0DC3  3000               	movlw	0
  3085  0DC4  00F7               	movwf	___fladd@a+3
  3086  0DC5  3000               	movlw	0
  3087  0DC6  00F6               	movwf	___fladd@a+2
  3088  0DC7  3000               	movlw	0
  3089  0DC8  00F5               	movwf	___fladd@a+1
  3090  0DC9  3000               	movlw	0
  3091  0DCA  00F4               	movwf	___fladd@a
  3092  0DCB                     l657:
  3093  0DCB  087A               	movf	___fladd@bexp,w
  3094  0DCC  0279               	subwf	___fladd@aexp,w
  3095  0DCD  1803               	skipnc
  3096  0DCE  2DD0               	goto	u1581
  3097  0DCF  2DD1               	goto	u1580
  3098  0DD0                     u1581:
  3099  0DD0  2E15               	goto	l1916
  3100  0DD1                     u1580:
  3101  0DD1                     l1882:
  3102  0DD1  1F78               	btfss	___fladd@signs,6
  3103  0DD2  2DD4               	goto	u1591
  3104  0DD3  2DD5               	goto	u1590
  3105  0DD4                     u1591:
  3106  0DD4  2DD9               	goto	l1886
  3107  0DD5                     u1590:
  3108  0DD5                     l1884:
  3109  0DD5  3080               	movlw	128
  3110  0DD6  00A0               	movwf	??___fladd
  3111  0DD7  0820               	movf	??___fladd,w
  3112  0DD8  06F8               	xorwf	___fladd@signs,f
  3113  0DD9                     l1886:
  3114  0DD9  087A               	movf	___fladd@bexp,w
  3115  0DDA  00A0               	movwf	??___fladd
  3116  0DDB  0820               	movf	??___fladd,w
  3117  0DDC  00FB               	movwf	___fladd@grs
  3118  0DDD                     l1888:
  3119  0DDD  0879               	movf	___fladd@aexp,w
  3120  0DDE  00A0               	movwf	??___fladd
  3121  0DDF  0820               	movf	??___fladd,w
  3122  0DE0  00FA               	movwf	___fladd@bexp
  3123  0DE1                     l1890:
  3124  0DE1  087B               	movf	___fladd@grs,w
  3125  0DE2  00A0               	movwf	??___fladd
  3126  0DE3  0820               	movf	??___fladd,w
  3127  0DE4  00F9               	movwf	___fladd@aexp
  3128  0DE5                     l1892:
  3129  0DE5  0870               	movf	___fladd@b,w
  3130  0DE6  00A0               	movwf	??___fladd
  3131  0DE7  0820               	movf	??___fladd,w
  3132  0DE8  00FB               	movwf	___fladd@grs
  3133  0DE9                     l1894:
  3134  0DE9  0874               	movf	___fladd@a,w
  3135  0DEA  00A0               	movwf	??___fladd
  3136  0DEB  0820               	movf	??___fladd,w
  3137  0DEC  00F0               	movwf	___fladd@b
  3138  0DED                     l1896:
  3139  0DED  087B               	movf	___fladd@grs,w
  3140  0DEE  00A0               	movwf	??___fladd
  3141  0DEF  0820               	movf	??___fladd,w
  3142  0DF0  00F4               	movwf	___fladd@a
  3143  0DF1                     l1898:
  3144  0DF1  0871               	movf	___fladd@b+1,w
  3145  0DF2  00A0               	movwf	??___fladd
  3146  0DF3  0820               	movf	??___fladd,w
  3147  0DF4  00FB               	movwf	___fladd@grs
  3148  0DF5                     l1900:
  3149  0DF5  0875               	movf	___fladd@a+1,w
  3150  0DF6  00A0               	movwf	??___fladd
  3151  0DF7  0820               	movf	??___fladd,w
  3152  0DF8  00F1               	movwf	___fladd@b+1
  3153  0DF9                     l1902:
  3154  0DF9  087B               	movf	___fladd@grs,w
  3155  0DFA  00A0               	movwf	??___fladd
  3156  0DFB  0820               	movf	??___fladd,w
  3157  0DFC  00F5               	movwf	___fladd@a+1
  3158  0DFD                     l1904:
  3159  0DFD  0872               	movf	___fladd@b+2,w
  3160  0DFE  00A0               	movwf	??___fladd
  3161  0DFF  0820               	movf	??___fladd,w
  3162  0E00  00FB               	movwf	___fladd@grs
  3163  0E01                     l1906:
  3164  0E01  0876               	movf	___fladd@a+2,w
  3165  0E02  00A0               	movwf	??___fladd
  3166  0E03  0820               	movf	??___fladd,w
  3167  0E04  00F2               	movwf	___fladd@b+2
  3168  0E05                     l1908:
  3169  0E05  087B               	movf	___fladd@grs,w
  3170  0E06  00A0               	movwf	??___fladd
  3171  0E07  0820               	movf	??___fladd,w
  3172  0E08  00F6               	movwf	___fladd@a+2
  3173  0E09                     l1910:
  3174  0E09  0873               	movf	___fladd@b+3,w
  3175  0E0A  00A0               	movwf	??___fladd
  3176  0E0B  0820               	movf	??___fladd,w
  3177  0E0C  00FB               	movwf	___fladd@grs
  3178  0E0D                     l1912:
  3179  0E0D  0877               	movf	___fladd@a+3,w
  3180  0E0E  00A0               	movwf	??___fladd
  3181  0E0F  0820               	movf	??___fladd,w
  3182  0E10  00F3               	movwf	___fladd@b+3
  3183  0E11                     l1914:
  3184  0E11  087B               	movf	___fladd@grs,w
  3185  0E12  00A0               	movwf	??___fladd
  3186  0E13  0820               	movf	??___fladd,w
  3187  0E14  00F7               	movwf	___fladd@a+3
  3188  0E15                     l1916:
  3189  0E15  01FB               	clrf	___fladd@grs
  3190  0E16                     l1918:
  3191  0E16  0879               	movf	___fladd@aexp,w
  3192  0E17  00A0               	movwf	??___fladd
  3193  0E18  01A1               	clrf	??___fladd+1
  3194  0E19  0821               	movf	??___fladd+1,w
  3195  0E1A  00A3               	movwf	??___fladd+3
  3196  0E1B  087A               	movf	___fladd@bexp,w
  3197  0E1C  0220               	subwf	??___fladd,w
  3198  0E1D  00A2               	movwf	??___fladd+2
  3199  0E1E  1C03               	skipc
  3200  0E1F  03A3               	decf	??___fladd+3,f
  3201  0E20  0823               	movf	??___fladd+3,w
  3202  0E21  3A80               	xorlw	128
  3203  0E22  00FF               	movwf	btemp+1
  3204  0E23  3080               	movlw	128
  3205  0E24  027F               	subwf	btemp+1,w
  3206  0E25  1D03               	skipz
  3207  0E26  2E29               	goto	u1605
  3208  0E27  301A               	movlw	26
  3209  0E28  0222               	subwf	??___fladd+2,w
  3210  0E29                     u1605:
  3211  0E29  1C03               	skipc
  3212  0E2A  2E2C               	goto	u1601
  3213  0E2B  2E2D               	goto	u1600
  3214  0E2C                     u1601:
  3215  0E2C  2E6E               	goto	l1934
  3216  0E2D                     u1600:
  3217  0E2D                     l1920:
  3218  0E2D  0873               	movf	___fladd@b+3,w
  3219  0E2E  0472               	iorwf	___fladd@b+2,w
  3220  0E2F  0471               	iorwf	___fladd@b+1,w
  3221  0E30  0470               	iorwf	___fladd@b,w
  3222  0E31  1D03               	skipz
  3223  0E32  2E34               	goto	u1611
  3224  0E33  2E36               	goto	u1610
  3225  0E34                     u1611:
  3226  0E34  3001               	movlw	1
  3227  0E35  2E37               	goto	u1620
  3228  0E36                     u1610:
  3229  0E36  3000               	movlw	0
  3230  0E37                     u1620:
  3231  0E37  1283               	bcf	3,5	;RP0=0, select bank0
  3232  0E38  1303               	bcf	3,6	;RP1=0, select bank0
  3233  0E39  00A0               	movwf	??___fladd
  3234  0E3A  0820               	movf	??___fladd,w
  3235  0E3B  00FB               	movwf	___fladd@grs
  3236  0E3C  3000               	movlw	0
  3237  0E3D  00F3               	movwf	___fladd@b+3
  3238  0E3E  3000               	movlw	0
  3239  0E3F  00F2               	movwf	___fladd@b+2
  3240  0E40  3000               	movlw	0
  3241  0E41  00F1               	movwf	___fladd@b+1
  3242  0E42  3000               	movlw	0
  3243  0E43  00F0               	movwf	___fladd@b
  3244  0E44  0879               	movf	___fladd@aexp,w
  3245  0E45  00A0               	movwf	??___fladd
  3246  0E46  0820               	movf	??___fladd,w
  3247  0E47  00FA               	movwf	___fladd@bexp
  3248  0E48  2E74               	goto	l661
  3249  0E49                     l663:
  3250  0E49  1C7B               	btfss	___fladd@grs,0
  3251  0E4A  2E4C               	goto	u1631
  3252  0E4B  2E4D               	goto	u1630
  3253  0E4C                     u1631:
  3254  0E4C  2E58               	goto	l1924
  3255  0E4D                     u1630:
  3256  0E4D                     l1922:
  3257  0E4D  087B               	movf	___fladd@grs,w
  3258  0E4E  1283               	bcf	3,5	;RP0=0, select bank0
  3259  0E4F  1303               	bcf	3,6	;RP1=0, select bank0
  3260  0E50  00A0               	movwf	??___fladd
  3261  0E51  1003               	clrc
  3262  0E52  0C20               	rrf	??___fladd,w
  3263  0E53  3801               	iorlw	1
  3264  0E54  00A1               	movwf	??___fladd+1
  3265  0E55  0821               	movf	??___fladd+1,w
  3266  0E56  00FB               	movwf	___fladd@grs
  3267  0E57  2E5A               	goto	l1926
  3268  0E58                     l1924:
  3269  0E58  1003               	clrc
  3270  0E59  0CFB               	rrf	___fladd@grs,f
  3271  0E5A                     l1926:
  3272  0E5A  1C70               	btfss	___fladd@b,0
  3273  0E5B  2E5D               	goto	u1641
  3274  0E5C  2E5E               	goto	u1640
  3275  0E5D                     u1641:
  3276  0E5D  2E5F               	goto	l1930
  3277  0E5E                     u1640:
  3278  0E5E                     l1928:
  3279  0E5E  17FB               	bsf	___fladd@grs,7
  3280  0E5F                     l1930:
  3281  0E5F  3001               	movlw	1
  3282  0E60  1283               	bcf	3,5	;RP0=0, select bank0
  3283  0E61  1303               	bcf	3,6	;RP1=0, select bank0
  3284  0E62  00A0               	movwf	??___fladd
  3285  0E63                     u1655:
  3286  0E63  0D73               	rlf	___fladd@b+3,w
  3287  0E64  0CF3               	rrf	___fladd@b+3,f
  3288  0E65  0CF2               	rrf	___fladd@b+2,f
  3289  0E66  0CF1               	rrf	___fladd@b+1,f
  3290  0E67  0CF0               	rrf	___fladd@b,f
  3291  0E68  0BA0               	decfsz	??___fladd& (0+127),f
  3292  0E69  2E63               	goto	u1655
  3293  0E6A                     l1932:
  3294  0E6A  3001               	movlw	1
  3295  0E6B  00A0               	movwf	??___fladd
  3296  0E6C  0820               	movf	??___fladd,w
  3297  0E6D  07FA               	addwf	___fladd@bexp,f
  3298  0E6E                     l1934:
  3299  0E6E  0879               	movf	___fladd@aexp,w
  3300  0E6F  027A               	subwf	___fladd@bexp,w
  3301  0E70  1C03               	skipc
  3302  0E71  2E73               	goto	u1661
  3303  0E72  2E74               	goto	u1660
  3304  0E73                     u1661:
  3305  0E73  2E49               	goto	l663
  3306  0E74                     u1660:
  3307  0E74                     l661:
  3308  0E74  1B78               	btfsc	___fladd@signs,6
  3309  0E75  2E77               	goto	u1671
  3310  0E76  2E78               	goto	u1670
  3311  0E77                     u1671:
  3312  0E77  2EC7               	goto	l1960
  3313  0E78                     u1670:
  3314  0E78                     l1936:
  3315  0E78  087A               	movf	___fladd@bexp,w
  3316  0E79  1D03               	btfss	3,2
  3317  0E7A  2E7C               	goto	u1681
  3318  0E7B  2E7D               	goto	u1680
  3319  0E7C                     u1681:
  3320  0E7C  2E86               	goto	l1942
  3321  0E7D                     u1680:
  3322  0E7D                     l1938:
  3323  0E7D  3000               	movlw	0
  3324  0E7E  00F3               	movwf	?___fladd+3
  3325  0E7F  3000               	movlw	0
  3326  0E80  00F2               	movwf	?___fladd+2
  3327  0E81  3000               	movlw	0
  3328  0E82  00F1               	movwf	?___fladd+1
  3329  0E83  3000               	movlw	0
  3330  0E84  00F0               	movwf	?___fladd
  3331  0E85  2FFF               	goto	l670
  3332  0E86                     l1942:
  3333  0E86  0874               	movf	___fladd@a,w
  3334  0E87  07F0               	addwf	___fladd@b,f
  3335  0E88  0875               	movf	___fladd@a+1,w
  3336  0E89  1103               	clrz
  3337  0E8A  1803               	skipnc
  3338  0E8B  3E01               	addlw	1
  3339  0E8C  1903               	skipnz
  3340  0E8D  2E8F               	goto	u1691
  3341  0E8E  07F1               	addwf	___fladd@b+1,f
  3342  0E8F                     u1691:
  3343  0E8F  0876               	movf	___fladd@a+2,w
  3344  0E90  1103               	clrz
  3345  0E91  1803               	skipnc
  3346  0E92  3E01               	addlw	1
  3347  0E93  1903               	skipnz
  3348  0E94  2E96               	goto	u1692
  3349  0E95  07F2               	addwf	___fladd@b+2,f
  3350  0E96                     u1692:
  3351  0E96  0877               	movf	___fladd@a+3,w
  3352  0E97  1103               	clrz
  3353  0E98  1803               	skipnc
  3354  0E99  3E01               	addlw	1
  3355  0E9A  1903               	skipnz
  3356  0E9B  2E9D               	goto	u1693
  3357  0E9C  07F3               	addwf	___fladd@b+3,f
  3358  0E9D                     u1693:
  3359  0E9D                     l1944:
  3360  0E9D  1C73               	btfss	___fladd@b+3,0
  3361  0E9E  2EA0               	goto	u1701
  3362  0E9F  2EA1               	goto	u1700
  3363  0EA0                     u1701:
  3364  0EA0  2F7F               	goto	l1994
  3365  0EA1                     u1700:
  3366  0EA1                     l1946:
  3367  0EA1  1C7B               	btfss	___fladd@grs,0
  3368  0EA2  2EA4               	goto	u1711
  3369  0EA3  2EA5               	goto	u1710
  3370  0EA4                     u1711:
  3371  0EA4  2EB0               	goto	l1950
  3372  0EA5                     u1710:
  3373  0EA5                     l1948:
  3374  0EA5  087B               	movf	___fladd@grs,w
  3375  0EA6  1283               	bcf	3,5	;RP0=0, select bank0
  3376  0EA7  1303               	bcf	3,6	;RP1=0, select bank0
  3377  0EA8  00A0               	movwf	??___fladd
  3378  0EA9  1003               	clrc
  3379  0EAA  0C20               	rrf	??___fladd,w
  3380  0EAB  3801               	iorlw	1
  3381  0EAC  00A1               	movwf	??___fladd+1
  3382  0EAD  0821               	movf	??___fladd+1,w
  3383  0EAE  00FB               	movwf	___fladd@grs
  3384  0EAF  2EB2               	goto	l1952
  3385  0EB0                     l1950:
  3386  0EB0  1003               	clrc
  3387  0EB1  0CFB               	rrf	___fladd@grs,f
  3388  0EB2                     l1952:
  3389  0EB2  1C70               	btfss	___fladd@b,0
  3390  0EB3  2EB5               	goto	u1721
  3391  0EB4  2EB6               	goto	u1720
  3392  0EB5                     u1721:
  3393  0EB5  2EB7               	goto	l1956
  3394  0EB6                     u1720:
  3395  0EB6                     l1954:
  3396  0EB6  17FB               	bsf	___fladd@grs,7
  3397  0EB7                     l1956:
  3398  0EB7  3001               	movlw	1
  3399  0EB8  1283               	bcf	3,5	;RP0=0, select bank0
  3400  0EB9  1303               	bcf	3,6	;RP1=0, select bank0
  3401  0EBA  00A0               	movwf	??___fladd
  3402  0EBB                     u1735:
  3403  0EBB  0D73               	rlf	___fladd@b+3,w
  3404  0EBC  0CF3               	rrf	___fladd@b+3,f
  3405  0EBD  0CF2               	rrf	___fladd@b+2,f
  3406  0EBE  0CF1               	rrf	___fladd@b+1,f
  3407  0EBF  0CF0               	rrf	___fladd@b,f
  3408  0EC0  0BA0               	decfsz	??___fladd& (0+127),f
  3409  0EC1  2EBB               	goto	u1735
  3410  0EC2                     l1958:
  3411  0EC2  3001               	movlw	1
  3412  0EC3  00A0               	movwf	??___fladd
  3413  0EC4  0820               	movf	??___fladd,w
  3414  0EC5  07FA               	addwf	___fladd@bexp,f
  3415  0EC6  2F7F               	goto	l1994
  3416  0EC7                     l1960:
  3417  0EC7  0873               	movf	___fladd@b+3,w
  3418  0EC8  3A80               	xorlw	128
  3419  0EC9  00FF               	movwf	btemp+1
  3420  0ECA  0877               	movf	___fladd@a+3,w
  3421  0ECB  3A80               	xorlw	128
  3422  0ECC  027F               	subwf	btemp+1,w
  3423  0ECD  1D03               	skipz
  3424  0ECE  2ED9               	goto	u1743
  3425  0ECF  0876               	movf	___fladd@a+2,w
  3426  0ED0  0272               	subwf	___fladd@b+2,w
  3427  0ED1  1D03               	skipz
  3428  0ED2  2ED9               	goto	u1743
  3429  0ED3  0875               	movf	___fladd@a+1,w
  3430  0ED4  0271               	subwf	___fladd@b+1,w
  3431  0ED5  1D03               	skipz
  3432  0ED6  2ED9               	goto	u1743
  3433  0ED7  0874               	movf	___fladd@a,w
  3434  0ED8  0270               	subwf	___fladd@b,w
  3435  0ED9                     u1743:
  3436  0ED9  1803               	skipnc
  3437  0EDA  2EDC               	goto	u1741
  3438  0EDB  2EDD               	goto	u1740
  3439  0EDC                     u1741:
  3440  0EDC  2F37               	goto	l1970
  3441  0EDD                     u1740:
  3442  0EDD                     l1962:
  3443  0EDD  30FF               	movlw	255
  3444  0EDE  1283               	bcf	3,5	;RP0=0, select bank0
  3445  0EDF  1303               	bcf	3,6	;RP1=0, select bank0
  3446  0EE0  00A0               	movwf	??___fladd
  3447  0EE1  30FF               	movlw	255
  3448  0EE2  00A1               	movwf	??___fladd+1
  3449  0EE3  30FF               	movlw	255
  3450  0EE4  00A2               	movwf	??___fladd+2
  3451  0EE5  30FF               	movlw	255
  3452  0EE6  00A3               	movwf	??___fladd+3
  3453  0EE7  0874               	movf	___fladd@a,w
  3454  0EE8  00A4               	movwf	??___fladd+4
  3455  0EE9  0875               	movf	___fladd@a+1,w
  3456  0EEA  00A5               	movwf	??___fladd+5
  3457  0EEB  0876               	movf	___fladd@a+2,w
  3458  0EEC  00A6               	movwf	??___fladd+6
  3459  0EED  0877               	movf	___fladd@a+3,w
  3460  0EEE  00A7               	movwf	??___fladd+7
  3461  0EEF  0870               	movf	___fladd@b,w
  3462  0EF0  02A4               	subwf	??___fladd+4,f
  3463  0EF1  0871               	movf	___fladd@b+1,w
  3464  0EF2  1C03               	skipc
  3465  0EF3  0F71               	incfsz	___fladd@b+1,w
  3466  0EF4  2EF6               	goto	u1751
  3467  0EF5  2EF7               	goto	u1752
  3468  0EF6                     u1751:
  3469  0EF6  02A5               	subwf	??___fladd+5,f
  3470  0EF7                     u1752:
  3471  0EF7  0872               	movf	___fladd@b+2,w
  3472  0EF8  1C03               	skipc
  3473  0EF9  0F72               	incfsz	___fladd@b+2,w
  3474  0EFA  2EFC               	goto	u1753
  3475  0EFB  2EFD               	goto	u1754
  3476  0EFC                     u1753:
  3477  0EFC  02A6               	subwf	??___fladd+6,f
  3478  0EFD                     u1754:
  3479  0EFD  0873               	movf	___fladd@b+3,w
  3480  0EFE  1C03               	skipc
  3481  0EFF  0F73               	incfsz	___fladd@b+3,w
  3482  0F00  2F02               	goto	u1755
  3483  0F01  2F03               	goto	u1756
  3484  0F02                     u1755:
  3485  0F02  02A7               	subwf	??___fladd+7,f
  3486  0F03                     u1756:
  3487  0F03  0824               	movf	??___fladd+4,w
  3488  0F04  07A0               	addwf	??___fladd,f
  3489  0F05  0825               	movf	??___fladd+5,w
  3490  0F06  1803               	skipnc
  3491  0F07  0F25               	incfsz	??___fladd+5,w
  3492  0F08  2F0A               	goto	u1760
  3493  0F09  2F0B               	goto	u1761
  3494  0F0A                     u1760:
  3495  0F0A  07A1               	addwf	??___fladd+1,f
  3496  0F0B                     u1761:
  3497  0F0B  0826               	movf	??___fladd+6,w
  3498  0F0C  1803               	skipnc
  3499  0F0D  0F26               	incfsz	??___fladd+6,w
  3500  0F0E  2F10               	goto	u1762
  3501  0F0F  2F11               	goto	u1763
  3502  0F10                     u1762:
  3503  0F10  07A2               	addwf	??___fladd+2,f
  3504  0F11                     u1763:
  3505  0F11  0827               	movf	??___fladd+7,w
  3506  0F12  1803               	skipnc
  3507  0F13  0A27               	incf	??___fladd+7,w
  3508  0F14  07A3               	addwf	??___fladd+3,f
  3509  0F15  0823               	movf	??___fladd+3,w
  3510  0F16  00F3               	movwf	___fladd@b+3
  3511  0F17  0822               	movf	??___fladd+2,w
  3512  0F18  00F2               	movwf	___fladd@b+2
  3513  0F19  0821               	movf	??___fladd+1,w
  3514  0F1A  00F1               	movwf	___fladd@b+1
  3515  0F1B  0820               	movf	??___fladd,w
  3516  0F1C  00F0               	movwf	___fladd@b
  3517  0F1D                     l1964:
  3518  0F1D  3080               	movlw	128
  3519  0F1E  00A0               	movwf	??___fladd
  3520  0F1F  0820               	movf	??___fladd,w
  3521  0F20  06F8               	xorwf	___fladd@signs,f
  3522  0F21  09FB               	comf	___fladd@grs,f
  3523  0F22  0AFB               	incf	___fladd@grs,f
  3524  0F23                     l1966:
  3525  0F23  087B               	movf	___fladd@grs,w
  3526  0F24  1D03               	btfss	3,2
  3527  0F25  2F27               	goto	u1771
  3528  0F26  2F28               	goto	u1770
  3529  0F27                     u1771:
  3530  0F27  2F45               	goto	l678
  3531  0F28                     u1770:
  3532  0F28                     l1968:
  3533  0F28  3001               	movlw	1
  3534  0F29  07F0               	addwf	___fladd@b,f
  3535  0F2A  3000               	movlw	0
  3536  0F2B  1803               	skipnc
  3537  0F2C  3001               	movlw	1
  3538  0F2D  07F1               	addwf	___fladd@b+1,f
  3539  0F2E  3000               	movlw	0
  3540  0F2F  1803               	skipnc
  3541  0F30  3001               	movlw	1
  3542  0F31  07F2               	addwf	___fladd@b+2,f
  3543  0F32  3000               	movlw	0
  3544  0F33  1803               	skipnc
  3545  0F34  3001               	movlw	1
  3546  0F35  07F3               	addwf	___fladd@b+3,f
  3547  0F36  2F45               	goto	l678
  3548  0F37                     l1970:
  3549  0F37  0874               	movf	___fladd@a,w
  3550  0F38  02F0               	subwf	___fladd@b,f
  3551  0F39  0875               	movf	___fladd@a+1,w
  3552  0F3A  1C03               	skipc
  3553  0F3B  0F75               	incfsz	___fladd@a+1,w
  3554  0F3C  02F1               	subwf	___fladd@b+1,f
  3555  0F3D  0876               	movf	___fladd@a+2,w
  3556  0F3E  1C03               	skipc
  3557  0F3F  0F76               	incfsz	___fladd@a+2,w
  3558  0F40  02F2               	subwf	___fladd@b+2,f
  3559  0F41  0877               	movf	___fladd@a+3,w
  3560  0F42  1C03               	skipc
  3561  0F43  0F77               	incfsz	___fladd@a+3,w
  3562  0F44  02F3               	subwf	___fladd@b+3,f
  3563  0F45                     l678:
  3564  0F45  0873               	movf	___fladd@b+3,w
  3565  0F46  0472               	iorwf	___fladd@b+2,w
  3566  0F47  0471               	iorwf	___fladd@b+1,w
  3567  0F48  0470               	iorwf	___fladd@b,w
  3568  0F49  1D03               	skipz
  3569  0F4A  2F4C               	goto	u1781
  3570  0F4B  2F4D               	goto	u1780
  3571  0F4C                     u1781:
  3572  0F4C  2F7B               	goto	l1992
  3573  0F4D                     u1780:
  3574  0F4D                     l1972:
  3575  0F4D  087B               	movf	___fladd@grs,w
  3576  0F4E  1D03               	btfss	3,2
  3577  0F4F  2F51               	goto	u1791
  3578  0F50  2F52               	goto	u1790
  3579  0F51                     u1791:
  3580  0F51  2F7B               	goto	l1992
  3581  0F52                     u1790:
  3582  0F52                     l1974:
  3583  0F52  3000               	movlw	0
  3584  0F53  00F3               	movwf	?___fladd+3
  3585  0F54  3000               	movlw	0
  3586  0F55  00F2               	movwf	?___fladd+2
  3587  0F56  3000               	movlw	0
  3588  0F57  00F1               	movwf	?___fladd+1
  3589  0F58  3000               	movlw	0
  3590  0F59  00F0               	movwf	?___fladd
  3591  0F5A  2FFF               	goto	l670
  3592  0F5B                     l1978:
  3593  0F5B  3001               	movlw	1
  3594  0F5C  1283               	bcf	3,5	;RP0=0, select bank0
  3595  0F5D  1303               	bcf	3,6	;RP1=0, select bank0
  3596  0F5E  00A0               	movwf	??___fladd
  3597  0F5F                     u1805:
  3598  0F5F  1003               	clrc
  3599  0F60  0DF0               	rlf	___fladd@b,f
  3600  0F61  0DF1               	rlf	___fladd@b+1,f
  3601  0F62  0DF2               	rlf	___fladd@b+2,f
  3602  0F63  0DF3               	rlf	___fladd@b+3,f
  3603  0F64  0BA0               	decfsz	??___fladd,f
  3604  0F65  2F5F               	goto	u1805
  3605  0F66                     l1980:
  3606  0F66  1FFB               	btfss	___fladd@grs,7
  3607  0F67  2F69               	goto	u1811
  3608  0F68  2F6A               	goto	u1810
  3609  0F69                     u1811:
  3610  0F69  2F6B               	goto	l682
  3611  0F6A                     u1810:
  3612  0F6A                     l1982:
  3613  0F6A  1470               	bsf	___fladd@b,0
  3614  0F6B                     l682:
  3615  0F6B  1C7B               	btfss	___fladd@grs,0
  3616  0F6C  2F6E               	goto	u1821
  3617  0F6D  2F6F               	goto	u1820
  3618  0F6E                     u1821:
  3619  0F6E  2F72               	goto	l1986
  3620  0F6F                     u1820:
  3621  0F6F                     l1984:
  3622  0F6F  1403               	setc
  3623  0F70  0DFB               	rlf	___fladd@grs,f
  3624  0F71  2F74               	goto	l1988
  3625  0F72                     l1986:
  3626  0F72  1003               	clrc
  3627  0F73  0DFB               	rlf	___fladd@grs,f
  3628  0F74                     l1988:
  3629  0F74  087A               	movf	___fladd@bexp,w
  3630  0F75  1903               	btfsc	3,2
  3631  0F76  2F78               	goto	u1831
  3632  0F77  2F79               	goto	u1830
  3633  0F78                     u1831:
  3634  0F78  2F7B               	goto	l1992
  3635  0F79                     u1830:
  3636  0F79                     l1990:
  3637  0F79  3001               	movlw	1
  3638  0F7A  02FA               	subwf	___fladd@bexp,f
  3639  0F7B                     l1992:
  3640  0F7B  1FF2               	btfss	___fladd@b+2,7
  3641  0F7C  2F7E               	goto	u1841
  3642  0F7D  2F7F               	goto	u1840
  3643  0F7E                     u1841:
  3644  0F7E  2F5B               	goto	l1978
  3645  0F7F                     u1840:
  3646  0F7F                     l1994:
  3647  0F7F  01F9               	clrf	___fladd@aexp
  3648  0F80                     l1996:
  3649  0F80  1FFB               	btfss	___fladd@grs,7
  3650  0F81  2F83               	goto	u1851
  3651  0F82  2F84               	goto	u1850
  3652  0F83                     u1851:
  3653  0F83  2F92               	goto	l2004
  3654  0F84                     u1850:
  3655  0F84                     l1998:
  3656  0F84  087B               	movf	___fladd@grs,w
  3657  0F85  397F               	andlw	127
  3658  0F86  1903               	btfsc	3,2
  3659  0F87  2F89               	goto	u1861
  3660  0F88  2F8A               	goto	u1860
  3661  0F89                     u1861:
  3662  0F89  2F8D               	goto	l688
  3663  0F8A                     u1860:
  3664  0F8A                     l2000:
  3665  0F8A  01F9               	clrf	___fladd@aexp
  3666  0F8B  0AF9               	incf	___fladd@aexp,f
  3667  0F8C  2F92               	goto	l2004
  3668  0F8D                     l688:
  3669  0F8D  1C70               	btfss	___fladd@b,0
  3670  0F8E  2F90               	goto	u1871
  3671  0F8F  2F91               	goto	u1870
  3672  0F90                     u1871:
  3673  0F90  2F92               	goto	l2004
  3674  0F91                     u1870:
  3675  0F91  2F8A               	goto	l2000
  3676  0F92                     l2004:
  3677  0F92  0879               	movf	___fladd@aexp,w
  3678  0F93  1903               	btfsc	3,2
  3679  0F94  2F96               	goto	u1881
  3680  0F95  2F97               	goto	u1880
  3681  0F96                     u1881:
  3682  0F96  2FCD               	goto	l691
  3683  0F97                     u1880:
  3684  0F97                     l2006:
  3685  0F97  3001               	movlw	1
  3686  0F98  07F0               	addwf	___fladd@b,f
  3687  0F99  3000               	movlw	0
  3688  0F9A  1803               	skipnc
  3689  0F9B  3001               	movlw	1
  3690  0F9C  07F1               	addwf	___fladd@b+1,f
  3691  0F9D  3000               	movlw	0
  3692  0F9E  1803               	skipnc
  3693  0F9F  3001               	movlw	1
  3694  0FA0  07F2               	addwf	___fladd@b+2,f
  3695  0FA1  3000               	movlw	0
  3696  0FA2  1803               	skipnc
  3697  0FA3  3001               	movlw	1
  3698  0FA4  07F3               	addwf	___fladd@b+3,f
  3699  0FA5                     l2008:
  3700  0FA5  1C73               	btfss	___fladd@b+3,0
  3701  0FA6  2FA8               	goto	u1891
  3702  0FA7  2FA9               	goto	u1890
  3703  0FA8                     u1891:
  3704  0FA8  2FCD               	goto	l691
  3705  0FA9                     u1890:
  3706  0FA9                     l2010:
  3707  0FA9  0870               	movf	___fladd@b,w
  3708  0FAA  1283               	bcf	3,5	;RP0=0, select bank0
  3709  0FAB  1303               	bcf	3,6	;RP1=0, select bank0
  3710  0FAC  00A0               	movwf	??___fladd
  3711  0FAD  0871               	movf	___fladd@b+1,w
  3712  0FAE  00A1               	movwf	??___fladd+1
  3713  0FAF  0872               	movf	___fladd@b+2,w
  3714  0FB0  00A2               	movwf	??___fladd+2
  3715  0FB1  0873               	movf	___fladd@b+3,w
  3716  0FB2  00A3               	movwf	??___fladd+3
  3717  0FB3  3001               	movlw	1
  3718  0FB4  00A4               	movwf	??___fladd+4
  3719  0FB5                     u1905:
  3720  0FB5  0D23               	rlf	??___fladd+3,w
  3721  0FB6  0CA3               	rrf	??___fladd+3,f
  3722  0FB7  0CA2               	rrf	??___fladd+2,f
  3723  0FB8  0CA1               	rrf	??___fladd+1,f
  3724  0FB9  0CA0               	rrf	??___fladd,f
  3725  0FBA                     u1900:
  3726  0FBA  0BA4               	decfsz	??___fladd+4,f
  3727  0FBB  2FB5               	goto	u1905
  3728  0FBC  0823               	movf	??___fladd+3,w
  3729  0FBD  00F3               	movwf	___fladd@b+3
  3730  0FBE  0822               	movf	??___fladd+2,w
  3731  0FBF  00F2               	movwf	___fladd@b+2
  3732  0FC0  0821               	movf	??___fladd+1,w
  3733  0FC1  00F1               	movwf	___fladd@b+1
  3734  0FC2  0820               	movf	??___fladd,w
  3735  0FC3  00F0               	movwf	___fladd@b
  3736  0FC4  0A7A               	incf	___fladd@bexp,w
  3737  0FC5  1903               	btfsc	3,2
  3738  0FC6  2FC8               	goto	u1911
  3739  0FC7  2FC9               	goto	u1910
  3740  0FC8                     u1911:
  3741  0FC8  2FCD               	goto	l691
  3742  0FC9                     u1910:
  3743  0FC9                     l2012:
  3744  0FC9  3001               	movlw	1
  3745  0FCA  00A0               	movwf	??___fladd
  3746  0FCB  0820               	movf	??___fladd,w
  3747  0FCC  07FA               	addwf	___fladd@bexp,f
  3748  0FCD                     l691:
  3749  0FCD  0A7A               	incf	___fladd@bexp,w
  3750  0FCE  1903               	btfsc	3,2
  3751  0FCF  2FD1               	goto	u1921
  3752  0FD0  2FD2               	goto	u1920
  3753  0FD1                     u1921:
  3754  0FD1  2FD7               	goto	l2016
  3755  0FD2                     u1920:
  3756  0FD2                     l2014:
  3757  0FD2  087A               	movf	___fladd@bexp,w
  3758  0FD3  1D03               	btfss	3,2
  3759  0FD4  2FD6               	goto	u1931
  3760  0FD5  2FD7               	goto	u1930
  3761  0FD6                     u1931:
  3762  0FD6  2FE5               	goto	l2022
  3763  0FD7                     u1930:
  3764  0FD7                     l2016:
  3765  0FD7  3000               	movlw	0
  3766  0FD8  00F3               	movwf	___fladd@b+3
  3767  0FD9  3000               	movlw	0
  3768  0FDA  00F2               	movwf	___fladd@b+2
  3769  0FDB  3000               	movlw	0
  3770  0FDC  00F1               	movwf	___fladd@b+1
  3771  0FDD  3000               	movlw	0
  3772  0FDE  00F0               	movwf	___fladd@b
  3773  0FDF                     l2018:
  3774  0FDF  087A               	movf	___fladd@bexp,w
  3775  0FE0  1D03               	btfss	3,2
  3776  0FE1  2FE3               	goto	u1941
  3777  0FE2  2FE4               	goto	u1940
  3778  0FE3                     u1941:
  3779  0FE3  2FE5               	goto	l2022
  3780  0FE4                     u1940:
  3781  0FE4                     l2020:
  3782  0FE4  01F8               	clrf	___fladd@signs
  3783  0FE5                     l2022:
  3784  0FE5  1C7A               	btfss	___fladd@bexp,0
  3785  0FE6  2FE8               	goto	u1951
  3786  0FE7  2FE9               	goto	u1950
  3787  0FE8                     u1951:
  3788  0FE8  2FEB               	goto	l2026
  3789  0FE9                     u1950:
  3790  0FE9                     l2024:
  3791  0FE9  17F2               	bsf	___fladd@b+2,7
  3792  0FEA  2FF1               	goto	l699
  3793  0FEB                     l2026:
  3794  0FEB  307F               	movlw	127
  3795  0FEC  1283               	bcf	3,5	;RP0=0, select bank0
  3796  0FED  1303               	bcf	3,6	;RP1=0, select bank0
  3797  0FEE  00A0               	movwf	??___fladd
  3798  0FEF  0820               	movf	??___fladd,w
  3799  0FF0  05F2               	andwf	___fladd@b+2,f
  3800  0FF1                     l699:
  3801  0FF1  087A               	movf	___fladd@bexp,w
  3802  0FF2  1283               	bcf	3,5	;RP0=0, select bank0
  3803  0FF3  1303               	bcf	3,6	;RP1=0, select bank0
  3804  0FF4  00A0               	movwf	??___fladd
  3805  0FF5  1003               	clrc
  3806  0FF6  0C20               	rrf	??___fladd,w
  3807  0FF7  00A1               	movwf	??___fladd+1
  3808  0FF8  0821               	movf	??___fladd+1,w
  3809  0FF9  00F3               	movwf	___fladd@b+3
  3810  0FFA                     l2028:
  3811  0FFA  1FF8               	btfss	___fladd@signs,7
  3812  0FFB  2FFD               	goto	u1961
  3813  0FFC  2FFE               	goto	u1960
  3814  0FFD                     u1961:
  3815  0FFD  2FFF               	goto	l700
  3816  0FFE                     u1960:
  3817  0FFE                     l2030:
  3818  0FFE  17F3               	bsf	___fladd@b+3,7
  3819  0FFF                     l700:
  3820  0FFF                     l670:
  3821  0FFF  0008               	return
  3822  1000                     __end_of___fladd:
  3823                           
  3824                           	psect	text6
  3825  045F                     __ptext6:	
  3826 ;; *************** function ___flmul *****************
  3827 ;; Defined at:
  3828 ;;		line 8 in file "C:\Program Files\Microchip\xc8\v2.32\pic\sources\c90\common\sprcmul.c"
  3829 ;; Parameters:    Size  Location     Type
  3830 ;;  b               4    0[BANK0 ] unsigned char 
  3831 ;;  a               4    4[BANK0 ] unsigned char 
  3832 ;; Auto vars:     Size  Location     Type
  3833 ;;  prod            4   15[BANK0 ] struct .
  3834 ;;  grs             4    9[BANK0 ] unsigned long 
  3835 ;;  temp            2   19[BANK0 ] struct .
  3836 ;;  bexp            1   14[BANK0 ] unsigned char 
  3837 ;;  aexp            1   13[BANK0 ] unsigned char 
  3838 ;;  sign            1    8[BANK0 ] unsigned char 
  3839 ;; Return value:  Size  Location     Type
  3840 ;;                  4    0[BANK0 ] unsigned char 
  3841 ;; Registers used:
  3842 ;;		wreg, status,2, status,0, btemp+1, pclath, cstack
  3843 ;; Tracked objects:
  3844 ;;		On entry : 0/0
  3845 ;;		On exit  : 0/0
  3846 ;;		Unchanged: 0/0
  3847 ;; Data sizes:     COMMON   BANK0   BANK1   BANK3   BANK2
  3848 ;;      Params:         0       8       0       0       0
  3849 ;;      Locals:         0      13       0       0       0
  3850 ;;      Temps:          5       0       0       0       0
  3851 ;;      Totals:         5      21       0       0       0
  3852 ;;Total ram usage:       26 bytes
  3853 ;; Hardware stack levels used: 1
  3854 ;; Hardware stack levels required when called: 1
  3855 ;; This function calls:
  3856 ;;		__Umul8_16
  3857 ;; This function is called by:
  3858 ;;		_liga_buzzer
  3859 ;; This function uses a non-reentrant model
  3860 ;;
  3861                           
  3862                           
  3863                           ;psect for function ___flmul
  3864  045F                     ___flmul:
  3865  045F                     l2082:	
  3866                           ;incstack = 0
  3867                           ; Regs used in ___flmul: [wreg+status,2+status,0+btemp+1+pclath+cstack]
  3868                           
  3869  045F  1283               	bcf	3,5	;RP0=0, select bank0
  3870  0460  1303               	bcf	3,6	;RP1=0, select bank0
  3871  0461  0823               	movf	___flmul@b+3,w
  3872  0462  3980               	andlw	128
  3873  0463  00F9               	movwf	??___flmul
  3874  0464  0879               	movf	??___flmul,w
  3875  0465  00A8               	movwf	___flmul@sign
  3876  0466                     l2084:
  3877  0466  0823               	movf	___flmul@b+3,w
  3878  0467  00F9               	movwf	??___flmul
  3879  0468  0779               	addwf	??___flmul,w
  3880  0469  00FA               	movwf	??___flmul+1
  3881  046A  087A               	movf	??___flmul+1,w
  3882  046B  00AE               	movwf	___flmul@bexp
  3883  046C                     l2086:
  3884  046C  1FA2               	btfss	___flmul@b+2,7
  3885  046D  2C6F               	goto	u2081
  3886  046E  2C70               	goto	u2080
  3887  046F                     u2081:
  3888  046F  2C71               	goto	l2090
  3889  0470                     u2080:
  3890  0470                     l2088:
  3891  0470  142E               	bsf	___flmul@bexp,0
  3892  0471                     l2090:
  3893  0471  082E               	movf	___flmul@bexp,w
  3894  0472  1903               	btfsc	3,2
  3895  0473  2C75               	goto	u2091
  3896  0474  2C76               	goto	u2090
  3897  0475                     u2091:
  3898  0475  2C85               	goto	l2098
  3899  0476                     u2090:
  3900  0476                     l2092:
  3901  0476  0A2E               	incf	___flmul@bexp,w
  3902  0477  1D03               	btfss	3,2
  3903  0478  2C7A               	goto	u2101
  3904  0479  2C7B               	goto	u2100
  3905  047A                     u2101:
  3906  047A  2C83               	goto	l2096
  3907  047B                     u2100:
  3908  047B                     l2094:
  3909  047B  3000               	movlw	0
  3910  047C  00A3               	movwf	___flmul@b+3
  3911  047D  3000               	movlw	0
  3912  047E  00A2               	movwf	___flmul@b+2
  3913  047F  3000               	movlw	0
  3914  0480  00A1               	movwf	___flmul@b+1
  3915  0481  3000               	movlw	0
  3916  0482  00A0               	movwf	___flmul@b
  3917  0483                     l2096:
  3918  0483  17A2               	bsf	___flmul@b+2,7
  3919  0484  2C8D               	goto	l2100
  3920  0485                     l2098:
  3921  0485  3000               	movlw	0
  3922  0486  00A3               	movwf	___flmul@b+3
  3923  0487  3000               	movlw	0
  3924  0488  00A2               	movwf	___flmul@b+2
  3925  0489  3000               	movlw	0
  3926  048A  00A1               	movwf	___flmul@b+1
  3927  048B  3000               	movlw	0
  3928  048C  00A0               	movwf	___flmul@b
  3929  048D                     l2100:
  3930  048D  0827               	movf	___flmul@a+3,w
  3931  048E  3980               	andlw	128
  3932  048F  00F9               	movwf	??___flmul
  3933  0490  0879               	movf	??___flmul,w
  3934  0491  06A8               	xorwf	___flmul@sign,f
  3935  0492                     l2102:
  3936  0492  0827               	movf	___flmul@a+3,w
  3937  0493  00F9               	movwf	??___flmul
  3938  0494  0779               	addwf	??___flmul,w
  3939  0495  00FA               	movwf	??___flmul+1
  3940  0496  087A               	movf	??___flmul+1,w
  3941  0497  00AD               	movwf	___flmul@aexp
  3942  0498                     l2104:
  3943  0498  1FA6               	btfss	___flmul@a+2,7
  3944  0499  2C9B               	goto	u2111
  3945  049A  2C9C               	goto	u2110
  3946  049B                     u2111:
  3947  049B  2C9D               	goto	l2108
  3948  049C                     u2110:
  3949  049C                     l2106:
  3950  049C  142D               	bsf	___flmul@aexp,0
  3951  049D                     l2108:
  3952  049D  082D               	movf	___flmul@aexp,w
  3953  049E  1903               	btfsc	3,2
  3954  049F  2CA1               	goto	u2121
  3955  04A0  2CA2               	goto	u2120
  3956  04A1                     u2121:
  3957  04A1  2CB1               	goto	l2116
  3958  04A2                     u2120:
  3959  04A2                     l2110:
  3960  04A2  0A2D               	incf	___flmul@aexp,w
  3961  04A3  1D03               	btfss	3,2
  3962  04A4  2CA6               	goto	u2131
  3963  04A5  2CA7               	goto	u2130
  3964  04A6                     u2131:
  3965  04A6  2CAF               	goto	l2114
  3966  04A7                     u2130:
  3967  04A7                     l2112:
  3968  04A7  3000               	movlw	0
  3969  04A8  00A7               	movwf	___flmul@a+3
  3970  04A9  3000               	movlw	0
  3971  04AA  00A6               	movwf	___flmul@a+2
  3972  04AB  3000               	movlw	0
  3973  04AC  00A5               	movwf	___flmul@a+1
  3974  04AD  3000               	movlw	0
  3975  04AE  00A4               	movwf	___flmul@a
  3976  04AF                     l2114:
  3977  04AF  17A6               	bsf	___flmul@a+2,7
  3978  04B0  2CB9               	goto	l2118
  3979  04B1                     l2116:
  3980  04B1  3000               	movlw	0
  3981  04B2  00A7               	movwf	___flmul@a+3
  3982  04B3  3000               	movlw	0
  3983  04B4  00A6               	movwf	___flmul@a+2
  3984  04B5  3000               	movlw	0
  3985  04B6  00A5               	movwf	___flmul@a+1
  3986  04B7  3000               	movlw	0
  3987  04B8  00A4               	movwf	___flmul@a
  3988  04B9                     l2118:
  3989  04B9  082D               	movf	___flmul@aexp,w
  3990  04BA  1903               	btfsc	3,2
  3991  04BB  2CBD               	goto	u2141
  3992  04BC  2CBE               	goto	u2140
  3993  04BD                     u2141:
  3994  04BD  2CC3               	goto	l2122
  3995  04BE                     u2140:
  3996  04BE                     l2120:
  3997  04BE  082E               	movf	___flmul@bexp,w
  3998  04BF  1D03               	btfss	3,2
  3999  04C0  2CC2               	goto	u2151
  4000  04C1  2CC3               	goto	u2150
  4001  04C2                     u2151:
  4002  04C2  2CCC               	goto	l2126
  4003  04C3                     u2150:
  4004  04C3                     l2122:
  4005  04C3  3000               	movlw	0
  4006  04C4  00A3               	movwf	?___flmul+3
  4007  04C5  3000               	movlw	0
  4008  04C6  00A2               	movwf	?___flmul+2
  4009  04C7  3000               	movlw	0
  4010  04C8  00A1               	movwf	?___flmul+1
  4011  04C9  3000               	movlw	0
  4012  04CA  00A0               	movwf	?___flmul
  4013  04CB  2FBF               	goto	l753
  4014  04CC                     l2126:
  4015  04CC  0820               	movf	___flmul@b,w
  4016  04CD  00F9               	movwf	??___flmul
  4017  04CE  0879               	movf	??___flmul,w
  4018  04CF  00F0               	movwf	__Umul8_16@multiplicand
  4019  04D0  0826               	movf	___flmul@a+2,w
  4020  04D1  120A  158A  20C8  120A  118A  	fcall	__Umul8_16
  4021  04D6  0871               	movf	?__Umul8_16+1,w
  4022  04D7  1283               	bcf	3,5	;RP0=0, select bank0
  4023  04D8  1303               	bcf	3,6	;RP1=0, select bank0
  4024  04D9  00B4               	movwf	___flmul@temp+1
  4025  04DA  0870               	movf	?__Umul8_16,w
  4026  04DB  00B3               	movwf	___flmul@temp
  4027  04DC                     l2128:
  4028  04DC  0833               	movf	___flmul@temp,w
  4029  04DD  00F9               	movwf	??___flmul
  4030  04DE  01FA               	clrf	??___flmul+1
  4031  04DF  01FB               	clrf	??___flmul+2
  4032  04E0  01FC               	clrf	??___flmul+3
  4033  04E1  087C               	movf	??___flmul+3,w
  4034  04E2  00AC               	movwf	___flmul@grs+3
  4035  04E3  087B               	movf	??___flmul+2,w
  4036  04E4  00AB               	movwf	___flmul@grs+2
  4037  04E5  087A               	movf	??___flmul+1,w
  4038  04E6  00AA               	movwf	___flmul@grs+1
  4039  04E7  0879               	movf	??___flmul,w
  4040  04E8  00A9               	movwf	___flmul@grs
  4041  04E9                     l2130:
  4042  04E9  0834               	movf	___flmul@temp+1,w
  4043  04EA  00F9               	movwf	??___flmul
  4044  04EB  01FA               	clrf	??___flmul+1
  4045  04EC  01FB               	clrf	??___flmul+2
  4046  04ED  01FC               	clrf	??___flmul+3
  4047  04EE  087C               	movf	??___flmul+3,w
  4048  04EF  00B2               	movwf	___flmul@prod+3
  4049  04F0  087B               	movf	??___flmul+2,w
  4050  04F1  00B1               	movwf	___flmul@prod+2
  4051  04F2  087A               	movf	??___flmul+1,w
  4052  04F3  00B0               	movwf	___flmul@prod+1
  4053  04F4  0879               	movf	??___flmul,w
  4054  04F5  00AF               	movwf	___flmul@prod
  4055  04F6  0821               	movf	___flmul@b+1,w
  4056  04F7  00F9               	movwf	??___flmul
  4057  04F8  0879               	movf	??___flmul,w
  4058  04F9  00F0               	movwf	__Umul8_16@multiplicand
  4059  04FA  0825               	movf	___flmul@a+1,w
  4060  04FB  120A  158A  20C8  120A  118A  	fcall	__Umul8_16
  4061  0500  0871               	movf	?__Umul8_16+1,w
  4062  0501  1283               	bcf	3,5	;RP0=0, select bank0
  4063  0502  1303               	bcf	3,6	;RP1=0, select bank0
  4064  0503  00B4               	movwf	___flmul@temp+1
  4065  0504  0870               	movf	?__Umul8_16,w
  4066  0505  00B3               	movwf	___flmul@temp
  4067  0506                     l2132:
  4068  0506  0833               	movf	___flmul@temp,w
  4069  0507  00F9               	movwf	??___flmul
  4070  0508  01FA               	clrf	??___flmul+1
  4071  0509  01FB               	clrf	??___flmul+2
  4072  050A  01FC               	clrf	??___flmul+3
  4073  050B  0879               	movf	??___flmul,w
  4074  050C  07A9               	addwf	___flmul@grs,f
  4075  050D  087A               	movf	??___flmul+1,w
  4076  050E  1103               	clrz
  4077  050F  1803               	skipnc
  4078  0510  3E01               	addlw	1
  4079  0511  1903               	skipnz
  4080  0512  2D14               	goto	u2161
  4081  0513  07AA               	addwf	___flmul@grs+1,f
  4082  0514                     u2161:
  4083  0514  087B               	movf	??___flmul+2,w
  4084  0515  1103               	clrz
  4085  0516  1803               	skipnc
  4086  0517  3E01               	addlw	1
  4087  0518  1903               	skipnz
  4088  0519  2D1B               	goto	u2162
  4089  051A  07AB               	addwf	___flmul@grs+2,f
  4090  051B                     u2162:
  4091  051B  087C               	movf	??___flmul+3,w
  4092  051C  1103               	clrz
  4093  051D  1803               	skipnc
  4094  051E  3E01               	addlw	1
  4095  051F  1903               	skipnz
  4096  0520  2D22               	goto	u2163
  4097  0521  07AC               	addwf	___flmul@grs+3,f
  4098  0522                     u2163:
  4099  0522                     l2134:
  4100  0522  0834               	movf	___flmul@temp+1,w
  4101  0523  00F9               	movwf	??___flmul
  4102  0524  01FA               	clrf	??___flmul+1
  4103  0525  01FB               	clrf	??___flmul+2
  4104  0526  01FC               	clrf	??___flmul+3
  4105  0527  0879               	movf	??___flmul,w
  4106  0528  07AF               	addwf	___flmul@prod,f
  4107  0529  087A               	movf	??___flmul+1,w
  4108  052A  1103               	clrz
  4109  052B  1803               	skipnc
  4110  052C  3E01               	addlw	1
  4111  052D  1903               	skipnz
  4112  052E  2D30               	goto	u2171
  4113  052F  07B0               	addwf	___flmul@prod+1,f
  4114  0530                     u2171:
  4115  0530  087B               	movf	??___flmul+2,w
  4116  0531  1103               	clrz
  4117  0532  1803               	skipnc
  4118  0533  3E01               	addlw	1
  4119  0534  1903               	skipnz
  4120  0535  2D37               	goto	u2172
  4121  0536  07B1               	addwf	___flmul@prod+2,f
  4122  0537                     u2172:
  4123  0537  087C               	movf	??___flmul+3,w
  4124  0538  1103               	clrz
  4125  0539  1803               	skipnc
  4126  053A  3E01               	addlw	1
  4127  053B  1903               	skipnz
  4128  053C  2D3E               	goto	u2173
  4129  053D  07B2               	addwf	___flmul@prod+3,f
  4130  053E                     u2173:
  4131  053E  0822               	movf	___flmul@b+2,w
  4132  053F  00F9               	movwf	??___flmul
  4133  0540  0879               	movf	??___flmul,w
  4134  0541  00F0               	movwf	__Umul8_16@multiplicand
  4135  0542  0824               	movf	___flmul@a,w
  4136  0543  120A  158A  20C8  120A  118A  	fcall	__Umul8_16
  4137  0548  0871               	movf	?__Umul8_16+1,w
  4138  0549  1283               	bcf	3,5	;RP0=0, select bank0
  4139  054A  1303               	bcf	3,6	;RP1=0, select bank0
  4140  054B  00B4               	movwf	___flmul@temp+1
  4141  054C  0870               	movf	?__Umul8_16,w
  4142  054D  00B3               	movwf	___flmul@temp
  4143  054E                     l2136:
  4144  054E  0833               	movf	___flmul@temp,w
  4145  054F  00F9               	movwf	??___flmul
  4146  0550  01FA               	clrf	??___flmul+1
  4147  0551  01FB               	clrf	??___flmul+2
  4148  0552  01FC               	clrf	??___flmul+3
  4149  0553  0879               	movf	??___flmul,w
  4150  0554  07A9               	addwf	___flmul@grs,f
  4151  0555  087A               	movf	??___flmul+1,w
  4152  0556  1103               	clrz
  4153  0557  1803               	skipnc
  4154  0558  3E01               	addlw	1
  4155  0559  1903               	skipnz
  4156  055A  2D5C               	goto	u2181
  4157  055B  07AA               	addwf	___flmul@grs+1,f
  4158  055C                     u2181:
  4159  055C  087B               	movf	??___flmul+2,w
  4160  055D  1103               	clrz
  4161  055E  1803               	skipnc
  4162  055F  3E01               	addlw	1
  4163  0560  1903               	skipnz
  4164  0561  2D63               	goto	u2182
  4165  0562  07AB               	addwf	___flmul@grs+2,f
  4166  0563                     u2182:
  4167  0563  087C               	movf	??___flmul+3,w
  4168  0564  1103               	clrz
  4169  0565  1803               	skipnc
  4170  0566  3E01               	addlw	1
  4171  0567  1903               	skipnz
  4172  0568  2D6A               	goto	u2183
  4173  0569  07AC               	addwf	___flmul@grs+3,f
  4174  056A                     u2183:
  4175  056A                     l2138:
  4176  056A  0834               	movf	___flmul@temp+1,w
  4177  056B  00F9               	movwf	??___flmul
  4178  056C  01FA               	clrf	??___flmul+1
  4179  056D  01FB               	clrf	??___flmul+2
  4180  056E  01FC               	clrf	??___flmul+3
  4181  056F  0879               	movf	??___flmul,w
  4182  0570  07AF               	addwf	___flmul@prod,f
  4183  0571  087A               	movf	??___flmul+1,w
  4184  0572  1103               	clrz
  4185  0573  1803               	skipnc
  4186  0574  3E01               	addlw	1
  4187  0575  1903               	skipnz
  4188  0576  2D78               	goto	u2191
  4189  0577  07B0               	addwf	___flmul@prod+1,f
  4190  0578                     u2191:
  4191  0578  087B               	movf	??___flmul+2,w
  4192  0579  1103               	clrz
  4193  057A  1803               	skipnc
  4194  057B  3E01               	addlw	1
  4195  057C  1903               	skipnz
  4196  057D  2D7F               	goto	u2192
  4197  057E  07B1               	addwf	___flmul@prod+2,f
  4198  057F                     u2192:
  4199  057F  087C               	movf	??___flmul+3,w
  4200  0580  1103               	clrz
  4201  0581  1803               	skipnc
  4202  0582  3E01               	addlw	1
  4203  0583  1903               	skipnz
  4204  0584  2D86               	goto	u2193
  4205  0585  07B2               	addwf	___flmul@prod+3,f
  4206  0586                     u2193:
  4207  0586                     l2140:
  4208  0586  3008               	movlw	8
  4209  0587  00F9               	movwf	??___flmul
  4210  0588                     u2205:
  4211  0588  1003               	clrc
  4212  0589  0DA9               	rlf	___flmul@grs,f
  4213  058A  0DAA               	rlf	___flmul@grs+1,f
  4214  058B  0DAB               	rlf	___flmul@grs+2,f
  4215  058C  0DAC               	rlf	___flmul@grs+3,f
  4216  058D  0BF9               	decfsz	??___flmul,f
  4217  058E  2D88               	goto	u2205
  4218  058F                     l2142:
  4219  058F  0821               	movf	___flmul@b+1,w
  4220  0590  00F9               	movwf	??___flmul
  4221  0591  0879               	movf	??___flmul,w
  4222  0592  00F0               	movwf	__Umul8_16@multiplicand
  4223  0593  0824               	movf	___flmul@a,w
  4224  0594  120A  158A  20C8  120A  118A  	fcall	__Umul8_16
  4225  0599  0871               	movf	?__Umul8_16+1,w
  4226  059A  1283               	bcf	3,5	;RP0=0, select bank0
  4227  059B  1303               	bcf	3,6	;RP1=0, select bank0
  4228  059C  00B4               	movwf	___flmul@temp+1
  4229  059D  0870               	movf	?__Umul8_16,w
  4230  059E  00B3               	movwf	___flmul@temp
  4231  059F                     l2144:
  4232  059F  0833               	movf	___flmul@temp,w
  4233  05A0  00F9               	movwf	??___flmul
  4234  05A1  0834               	movf	___flmul@temp+1,w
  4235  05A2  00FA               	movwf	??___flmul+1
  4236  05A3  01FB               	clrf	??___flmul+2
  4237  05A4  01FC               	clrf	??___flmul+3
  4238  05A5  0879               	movf	??___flmul,w
  4239  05A6  07A9               	addwf	___flmul@grs,f
  4240  05A7  087A               	movf	??___flmul+1,w
  4241  05A8  1103               	clrz
  4242  05A9  1803               	skipnc
  4243  05AA  3E01               	addlw	1
  4244  05AB  1903               	skipnz
  4245  05AC  2DAE               	goto	u2211
  4246  05AD  07AA               	addwf	___flmul@grs+1,f
  4247  05AE                     u2211:
  4248  05AE  087B               	movf	??___flmul+2,w
  4249  05AF  1103               	clrz
  4250  05B0  1803               	skipnc
  4251  05B1  3E01               	addlw	1
  4252  05B2  1903               	skipnz
  4253  05B3  2DB5               	goto	u2212
  4254  05B4  07AB               	addwf	___flmul@grs+2,f
  4255  05B5                     u2212:
  4256  05B5  087C               	movf	??___flmul+3,w
  4257  05B6  1103               	clrz
  4258  05B7  1803               	skipnc
  4259  05B8  3E01               	addlw	1
  4260  05B9  1903               	skipnz
  4261  05BA  2DBC               	goto	u2213
  4262  05BB  07AC               	addwf	___flmul@grs+3,f
  4263  05BC                     u2213:
  4264  05BC                     l2146:
  4265  05BC  0820               	movf	___flmul@b,w
  4266  05BD  00F9               	movwf	??___flmul
  4267  05BE  0879               	movf	??___flmul,w
  4268  05BF  00F0               	movwf	__Umul8_16@multiplicand
  4269  05C0  0825               	movf	___flmul@a+1,w
  4270  05C1  120A  158A  20C8  120A  118A  	fcall	__Umul8_16
  4271  05C6  0871               	movf	?__Umul8_16+1,w
  4272  05C7  1283               	bcf	3,5	;RP0=0, select bank0
  4273  05C8  1303               	bcf	3,6	;RP1=0, select bank0
  4274  05C9  00B4               	movwf	___flmul@temp+1
  4275  05CA  0870               	movf	?__Umul8_16,w
  4276  05CB  00B3               	movwf	___flmul@temp
  4277  05CC                     l2148:
  4278  05CC  0833               	movf	___flmul@temp,w
  4279  05CD  00F9               	movwf	??___flmul
  4280  05CE  0834               	movf	___flmul@temp+1,w
  4281  05CF  00FA               	movwf	??___flmul+1
  4282  05D0  01FB               	clrf	??___flmul+2
  4283  05D1  01FC               	clrf	??___flmul+3
  4284  05D2  0879               	movf	??___flmul,w
  4285  05D3  07A9               	addwf	___flmul@grs,f
  4286  05D4  087A               	movf	??___flmul+1,w
  4287  05D5  1103               	clrz
  4288  05D6  1803               	skipnc
  4289  05D7  3E01               	addlw	1
  4290  05D8  1903               	skipnz
  4291  05D9  2DDB               	goto	u2221
  4292  05DA  07AA               	addwf	___flmul@grs+1,f
  4293  05DB                     u2221:
  4294  05DB  087B               	movf	??___flmul+2,w
  4295  05DC  1103               	clrz
  4296  05DD  1803               	skipnc
  4297  05DE  3E01               	addlw	1
  4298  05DF  1903               	skipnz
  4299  05E0  2DE2               	goto	u2222
  4300  05E1  07AB               	addwf	___flmul@grs+2,f
  4301  05E2                     u2222:
  4302  05E2  087C               	movf	??___flmul+3,w
  4303  05E3  1103               	clrz
  4304  05E4  1803               	skipnc
  4305  05E5  3E01               	addlw	1
  4306  05E6  1903               	skipnz
  4307  05E7  2DE9               	goto	u2223
  4308  05E8  07AC               	addwf	___flmul@grs+3,f
  4309  05E9                     u2223:
  4310  05E9                     l2150:
  4311  05E9  3008               	movlw	8
  4312  05EA  00F9               	movwf	??___flmul
  4313  05EB                     u2235:
  4314  05EB  1003               	clrc
  4315  05EC  0DA9               	rlf	___flmul@grs,f
  4316  05ED  0DAA               	rlf	___flmul@grs+1,f
  4317  05EE  0DAB               	rlf	___flmul@grs+2,f
  4318  05EF  0DAC               	rlf	___flmul@grs+3,f
  4319  05F0  0BF9               	decfsz	??___flmul,f
  4320  05F1  2DEB               	goto	u2235
  4321  05F2  0820               	movf	___flmul@b,w
  4322  05F3  00F9               	movwf	??___flmul
  4323  05F4  0879               	movf	??___flmul,w
  4324  05F5  00F0               	movwf	__Umul8_16@multiplicand
  4325  05F6  0824               	movf	___flmul@a,w
  4326  05F7  120A  158A  20C8  120A  118A  	fcall	__Umul8_16
  4327  05FC  0871               	movf	?__Umul8_16+1,w
  4328  05FD  1283               	bcf	3,5	;RP0=0, select bank0
  4329  05FE  1303               	bcf	3,6	;RP1=0, select bank0
  4330  05FF  00B4               	movwf	___flmul@temp+1
  4331  0600  0870               	movf	?__Umul8_16,w
  4332  0601  00B3               	movwf	___flmul@temp
  4333  0602                     l2152:
  4334  0602  0833               	movf	___flmul@temp,w
  4335  0603  00F9               	movwf	??___flmul
  4336  0604  0834               	movf	___flmul@temp+1,w
  4337  0605  00FA               	movwf	??___flmul+1
  4338  0606  01FB               	clrf	??___flmul+2
  4339  0607  01FC               	clrf	??___flmul+3
  4340  0608  0879               	movf	??___flmul,w
  4341  0609  07A9               	addwf	___flmul@grs,f
  4342  060A  087A               	movf	??___flmul+1,w
  4343  060B  1103               	clrz
  4344  060C  1803               	skipnc
  4345  060D  3E01               	addlw	1
  4346  060E  1903               	skipnz
  4347  060F  2E11               	goto	u2241
  4348  0610  07AA               	addwf	___flmul@grs+1,f
  4349  0611                     u2241:
  4350  0611  087B               	movf	??___flmul+2,w
  4351  0612  1103               	clrz
  4352  0613  1803               	skipnc
  4353  0614  3E01               	addlw	1
  4354  0615  1903               	skipnz
  4355  0616  2E18               	goto	u2242
  4356  0617  07AB               	addwf	___flmul@grs+2,f
  4357  0618                     u2242:
  4358  0618  087C               	movf	??___flmul+3,w
  4359  0619  1103               	clrz
  4360  061A  1803               	skipnc
  4361  061B  3E01               	addlw	1
  4362  061C  1903               	skipnz
  4363  061D  2E1F               	goto	u2243
  4364  061E  07AC               	addwf	___flmul@grs+3,f
  4365  061F                     u2243:
  4366  061F                     l2154:
  4367  061F  0821               	movf	___flmul@b+1,w
  4368  0620  00F9               	movwf	??___flmul
  4369  0621  0879               	movf	??___flmul,w
  4370  0622  00F0               	movwf	__Umul8_16@multiplicand
  4371  0623  0826               	movf	___flmul@a+2,w
  4372  0624  120A  158A  20C8  120A  118A  	fcall	__Umul8_16
  4373  0629  0871               	movf	?__Umul8_16+1,w
  4374  062A  1283               	bcf	3,5	;RP0=0, select bank0
  4375  062B  1303               	bcf	3,6	;RP1=0, select bank0
  4376  062C  00B4               	movwf	___flmul@temp+1
  4377  062D  0870               	movf	?__Umul8_16,w
  4378  062E  00B3               	movwf	___flmul@temp
  4379  062F  0833               	movf	___flmul@temp,w
  4380  0630  00F9               	movwf	??___flmul
  4381  0631  0834               	movf	___flmul@temp+1,w
  4382  0632  00FA               	movwf	??___flmul+1
  4383  0633  01FB               	clrf	??___flmul+2
  4384  0634  01FC               	clrf	??___flmul+3
  4385  0635  0879               	movf	??___flmul,w
  4386  0636  07AF               	addwf	___flmul@prod,f
  4387  0637  087A               	movf	??___flmul+1,w
  4388  0638  1103               	clrz
  4389  0639  1803               	skipnc
  4390  063A  3E01               	addlw	1
  4391  063B  1903               	skipnz
  4392  063C  2E3E               	goto	u2251
  4393  063D  07B0               	addwf	___flmul@prod+1,f
  4394  063E                     u2251:
  4395  063E  087B               	movf	??___flmul+2,w
  4396  063F  1103               	clrz
  4397  0640  1803               	skipnc
  4398  0641  3E01               	addlw	1
  4399  0642  1903               	skipnz
  4400  0643  2E45               	goto	u2252
  4401  0644  07B1               	addwf	___flmul@prod+2,f
  4402  0645                     u2252:
  4403  0645  087C               	movf	??___flmul+3,w
  4404  0646  1103               	clrz
  4405  0647  1803               	skipnc
  4406  0648  3E01               	addlw	1
  4407  0649  1903               	skipnz
  4408  064A  2E4C               	goto	u2253
  4409  064B  07B2               	addwf	___flmul@prod+3,f
  4410  064C                     u2253:
  4411  064C                     l2156:
  4412  064C  0822               	movf	___flmul@b+2,w
  4413  064D  00F9               	movwf	??___flmul
  4414  064E  0879               	movf	??___flmul,w
  4415  064F  00F0               	movwf	__Umul8_16@multiplicand
  4416  0650  0825               	movf	___flmul@a+1,w
  4417  0651  120A  158A  20C8  120A  118A  	fcall	__Umul8_16
  4418  0656  0871               	movf	?__Umul8_16+1,w
  4419  0657  1283               	bcf	3,5	;RP0=0, select bank0
  4420  0658  1303               	bcf	3,6	;RP1=0, select bank0
  4421  0659  00B4               	movwf	___flmul@temp+1
  4422  065A  0870               	movf	?__Umul8_16,w
  4423  065B  00B3               	movwf	___flmul@temp
  4424  065C                     l2158:
  4425  065C  0833               	movf	___flmul@temp,w
  4426  065D  00F9               	movwf	??___flmul
  4427  065E  0834               	movf	___flmul@temp+1,w
  4428  065F  00FA               	movwf	??___flmul+1
  4429  0660  01FB               	clrf	??___flmul+2
  4430  0661  01FC               	clrf	??___flmul+3
  4431  0662  0879               	movf	??___flmul,w
  4432  0663  07AF               	addwf	___flmul@prod,f
  4433  0664  087A               	movf	??___flmul+1,w
  4434  0665  1103               	clrz
  4435  0666  1803               	skipnc
  4436  0667  3E01               	addlw	1
  4437  0668  1903               	skipnz
  4438  0669  2E6B               	goto	u2261
  4439  066A  07B0               	addwf	___flmul@prod+1,f
  4440  066B                     u2261:
  4441  066B  087B               	movf	??___flmul+2,w
  4442  066C  1103               	clrz
  4443  066D  1803               	skipnc
  4444  066E  3E01               	addlw	1
  4445  066F  1903               	skipnz
  4446  0670  2E72               	goto	u2262
  4447  0671  07B1               	addwf	___flmul@prod+2,f
  4448  0672                     u2262:
  4449  0672  087C               	movf	??___flmul+3,w
  4450  0673  1103               	clrz
  4451  0674  1803               	skipnc
  4452  0675  3E01               	addlw	1
  4453  0676  1903               	skipnz
  4454  0677  2E79               	goto	u2263
  4455  0678  07B2               	addwf	___flmul@prod+3,f
  4456  0679                     u2263:
  4457  0679  0822               	movf	___flmul@b+2,w
  4458  067A  00F9               	movwf	??___flmul
  4459  067B  0879               	movf	??___flmul,w
  4460  067C  00F0               	movwf	__Umul8_16@multiplicand
  4461  067D  0826               	movf	___flmul@a+2,w
  4462  067E  120A  158A  20C8  120A  118A  	fcall	__Umul8_16
  4463  0683  0871               	movf	?__Umul8_16+1,w
  4464  0684  1283               	bcf	3,5	;RP0=0, select bank0
  4465  0685  1303               	bcf	3,6	;RP1=0, select bank0
  4466  0686  00B4               	movwf	___flmul@temp+1
  4467  0687  0870               	movf	?__Umul8_16,w
  4468  0688  00B3               	movwf	___flmul@temp
  4469  0689                     l2160:
  4470  0689  0833               	movf	___flmul@temp,w
  4471  068A  00F9               	movwf	??___flmul
  4472  068B  0834               	movf	___flmul@temp+1,w
  4473  068C  00FA               	movwf	??___flmul+1
  4474  068D  01FB               	clrf	??___flmul+2
  4475  068E  01FC               	clrf	??___flmul+3
  4476  068F  3008               	movlw	8
  4477  0690                     u2275:
  4478  0690  1003               	clrc
  4479  0691  0DF9               	rlf	??___flmul,f
  4480  0692  0DFA               	rlf	??___flmul+1,f
  4481  0693  0DFB               	rlf	??___flmul+2,f
  4482  0694  0DFC               	rlf	??___flmul+3,f
  4483  0695                     u2270:
  4484  0695  3EFF               	addlw	-1
  4485  0696  1D03               	skipz
  4486  0697  2E90               	goto	u2275
  4487  0698  0879               	movf	??___flmul,w
  4488  0699  07AF               	addwf	___flmul@prod,f
  4489  069A  087A               	movf	??___flmul+1,w
  4490  069B  1103               	clrz
  4491  069C  1803               	skipnc
  4492  069D  3E01               	addlw	1
  4493  069E  1903               	skipnz
  4494  069F  2EA1               	goto	u2281
  4495  06A0  07B0               	addwf	___flmul@prod+1,f
  4496  06A1                     u2281:
  4497  06A1  087B               	movf	??___flmul+2,w
  4498  06A2  1103               	clrz
  4499  06A3  1803               	skipnc
  4500  06A4  3E01               	addlw	1
  4501  06A5  1903               	skipnz
  4502  06A6  2EA8               	goto	u2282
  4503  06A7  07B1               	addwf	___flmul@prod+2,f
  4504  06A8                     u2282:
  4505  06A8  087C               	movf	??___flmul+3,w
  4506  06A9  1103               	clrz
  4507  06AA  1803               	skipnc
  4508  06AB  3E01               	addlw	1
  4509  06AC  1903               	skipnz
  4510  06AD  2EAF               	goto	u2283
  4511  06AE  07B2               	addwf	___flmul@prod+3,f
  4512  06AF                     u2283:
  4513  06AF                     l2162:
  4514  06AF  0829               	movf	___flmul@grs,w
  4515  06B0  00F9               	movwf	??___flmul
  4516  06B1  082A               	movf	___flmul@grs+1,w
  4517  06B2  00FA               	movwf	??___flmul+1
  4518  06B3  082B               	movf	___flmul@grs+2,w
  4519  06B4  00FB               	movwf	??___flmul+2
  4520  06B5  082C               	movf	___flmul@grs+3,w
  4521  06B6  00FC               	movwf	??___flmul+3
  4522  06B7  3018               	movlw	24
  4523  06B8                     u2295:
  4524  06B8  1003               	clrc
  4525  06B9  0CFC               	rrf	??___flmul+3,f
  4526  06BA  0CFB               	rrf	??___flmul+2,f
  4527  06BB  0CFA               	rrf	??___flmul+1,f
  4528  06BC  0CF9               	rrf	??___flmul,f
  4529  06BD                     u2290:
  4530  06BD  3EFF               	addlw	-1
  4531  06BE  1D03               	skipz
  4532  06BF  2EB8               	goto	u2295
  4533  06C0  0879               	movf	??___flmul,w
  4534  06C1  07AF               	addwf	___flmul@prod,f
  4535  06C2  087A               	movf	??___flmul+1,w
  4536  06C3  1103               	clrz
  4537  06C4  1803               	skipnc
  4538  06C5  3E01               	addlw	1
  4539  06C6  1903               	skipnz
  4540  06C7  2EC9               	goto	u2301
  4541  06C8  07B0               	addwf	___flmul@prod+1,f
  4542  06C9                     u2301:
  4543  06C9  087B               	movf	??___flmul+2,w
  4544  06CA  1103               	clrz
  4545  06CB  1803               	skipnc
  4546  06CC  3E01               	addlw	1
  4547  06CD  1903               	skipnz
  4548  06CE  2ED0               	goto	u2302
  4549  06CF  07B1               	addwf	___flmul@prod+2,f
  4550  06D0                     u2302:
  4551  06D0  087C               	movf	??___flmul+3,w
  4552  06D1  1103               	clrz
  4553  06D2  1803               	skipnc
  4554  06D3  3E01               	addlw	1
  4555  06D4  1903               	skipnz
  4556  06D5  2ED7               	goto	u2303
  4557  06D6  07B2               	addwf	___flmul@prod+3,f
  4558  06D7                     u2303:
  4559  06D7                     l2164:
  4560  06D7  3008               	movlw	8
  4561  06D8  00F9               	movwf	??___flmul
  4562  06D9                     u2315:
  4563  06D9  1003               	clrc
  4564  06DA  0DA9               	rlf	___flmul@grs,f
  4565  06DB  0DAA               	rlf	___flmul@grs+1,f
  4566  06DC  0DAB               	rlf	___flmul@grs+2,f
  4567  06DD  0DAC               	rlf	___flmul@grs+3,f
  4568  06DE  0BF9               	decfsz	??___flmul,f
  4569  06DF  2ED9               	goto	u2315
  4570  06E0                     l2166:
  4571  06E0  082E               	movf	___flmul@bexp,w
  4572  06E1  072D               	addwf	___flmul@aexp,w
  4573  06E2  00F9               	movwf	??___flmul
  4574  06E3  01FA               	clrf	??___flmul+1
  4575  06E4  0DFA               	rlf	??___flmul+1,f
  4576  06E5  0879               	movf	??___flmul,w
  4577  06E6  3E82               	addlw	130
  4578  06E7  00B3               	movwf	___flmul@temp
  4579  06E8  087A               	movf	??___flmul+1,w
  4580  06E9  1803               	skipnc
  4581  06EA  3E01               	addlw	1
  4582  06EB  3EFF               	addlw	255
  4583  06EC  00B4               	movwf	___flmul@temp+1
  4584  06ED  2F0B               	goto	l2178
  4585  06EE                     l2168:
  4586  06EE  3001               	movlw	1
  4587  06EF  00F9               	movwf	??___flmul
  4588  06F0                     u2325:
  4589  06F0  1003               	clrc
  4590  06F1  0DAF               	rlf	___flmul@prod,f
  4591  06F2  0DB0               	rlf	___flmul@prod+1,f
  4592  06F3  0DB1               	rlf	___flmul@prod+2,f
  4593  06F4  0DB2               	rlf	___flmul@prod+3,f
  4594  06F5  0BF9               	decfsz	??___flmul,f
  4595  06F6  2EF0               	goto	u2325
  4596  06F7                     l2170:
  4597  06F7  1FAC               	btfss	___flmul@grs+3,7
  4598  06F8  2EFA               	goto	u2331
  4599  06F9  2EFB               	goto	u2330
  4600  06FA                     u2331:
  4601  06FA  2EFC               	goto	l2174
  4602  06FB                     u2330:
  4603  06FB                     l2172:
  4604  06FB  142F               	bsf	___flmul@prod,0
  4605  06FC                     l2174:
  4606  06FC  3001               	movlw	1
  4607  06FD  00F9               	movwf	??___flmul
  4608  06FE                     u2345:
  4609  06FE  1003               	clrc
  4610  06FF  0DA9               	rlf	___flmul@grs,f
  4611  0700  0DAA               	rlf	___flmul@grs+1,f
  4612  0701  0DAB               	rlf	___flmul@grs+2,f
  4613  0702  0DAC               	rlf	___flmul@grs+3,f
  4614  0703  0BF9               	decfsz	??___flmul,f
  4615  0704  2EFE               	goto	u2345
  4616  0705                     l2176:
  4617  0705  30FF               	movlw	255
  4618  0706  07B3               	addwf	___flmul@temp,f
  4619  0707  1803               	skipnc
  4620  0708  0AB4               	incf	___flmul@temp+1,f
  4621  0709  30FF               	movlw	255
  4622  070A  07B4               	addwf	___flmul@temp+1,f
  4623  070B                     l2178:
  4624  070B  1FB1               	btfss	___flmul@prod+2,7
  4625  070C  2F0E               	goto	u2351
  4626  070D  2F0F               	goto	u2350
  4627  070E                     u2351:
  4628  070E  2EEE               	goto	l2168
  4629  070F                     u2350:
  4630  070F                     l2180:
  4631  070F  01AD               	clrf	___flmul@aexp
  4632  0710                     l2182:
  4633  0710  1FAC               	btfss	___flmul@grs+3,7
  4634  0711  2F13               	goto	u2361
  4635  0712  2F14               	goto	u2360
  4636  0713                     u2361:
  4637  0713  2F30               	goto	l2190
  4638  0714                     u2360:
  4639  0714                     l2184:
  4640  0714  30FF               	movlw	255
  4641  0715  0529               	andwf	___flmul@grs,w
  4642  0716  00F9               	movwf	??___flmul
  4643  0717  30FF               	movlw	255
  4644  0718  052A               	andwf	___flmul@grs+1,w
  4645  0719  00FA               	movwf	??___flmul+1
  4646  071A  30FF               	movlw	255
  4647  071B  052B               	andwf	___flmul@grs+2,w
  4648  071C  00FB               	movwf	??___flmul+2
  4649  071D  307F               	movlw	127
  4650  071E  052C               	andwf	___flmul@grs+3,w
  4651  071F  00FC               	movwf	??___flmul+3
  4652  0720  087C               	movf	??___flmul+3,w
  4653  0721  047B               	iorwf	??___flmul+2,w
  4654  0722  047A               	iorwf	??___flmul+1,w
  4655  0723  0479               	iorwf	??___flmul,w
  4656  0724  1903               	skipnz
  4657  0725  2F27               	goto	u2371
  4658  0726  2F28               	goto	u2370
  4659  0727                     u2371:
  4660  0727  2F2B               	goto	l759
  4661  0728                     u2370:
  4662  0728                     l2186:
  4663  0728  01AD               	clrf	___flmul@aexp
  4664  0729  0AAD               	incf	___flmul@aexp,f
  4665  072A  2F30               	goto	l2190
  4666  072B                     l759:
  4667  072B  1C2F               	btfss	___flmul@prod,0
  4668  072C  2F2E               	goto	u2381
  4669  072D  2F2F               	goto	u2380
  4670  072E                     u2381:
  4671  072E  2F30               	goto	l2190
  4672  072F                     u2380:
  4673  072F  2F28               	goto	l2186
  4674  0730                     l2190:
  4675  0730  082D               	movf	___flmul@aexp,w
  4676  0731  1903               	btfsc	3,2
  4677  0732  2F34               	goto	u2391
  4678  0733  2F35               	goto	u2390
  4679  0734                     u2391:
  4680  0734  2F66               	goto	l2200
  4681  0735                     u2390:
  4682  0735                     l2192:
  4683  0735  3001               	movlw	1
  4684  0736  07AF               	addwf	___flmul@prod,f
  4685  0737  3000               	movlw	0
  4686  0738  1803               	skipnc
  4687  0739  3001               	movlw	1
  4688  073A  07B0               	addwf	___flmul@prod+1,f
  4689  073B  3000               	movlw	0
  4690  073C  1803               	skipnc
  4691  073D  3001               	movlw	1
  4692  073E  07B1               	addwf	___flmul@prod+2,f
  4693  073F  3000               	movlw	0
  4694  0740  1803               	skipnc
  4695  0741  3001               	movlw	1
  4696  0742  07B2               	addwf	___flmul@prod+3,f
  4697  0743                     l2194:
  4698  0743  1C32               	btfss	___flmul@prod+3,0
  4699  0744  2F46               	goto	u2401
  4700  0745  2F47               	goto	u2400
  4701  0746                     u2401:
  4702  0746  2F66               	goto	l2200
  4703  0747                     u2400:
  4704  0747                     l2196:
  4705  0747  082F               	movf	___flmul@prod,w
  4706  0748  00F9               	movwf	??___flmul
  4707  0749  0830               	movf	___flmul@prod+1,w
  4708  074A  00FA               	movwf	??___flmul+1
  4709  074B  0831               	movf	___flmul@prod+2,w
  4710  074C  00FB               	movwf	??___flmul+2
  4711  074D  0832               	movf	___flmul@prod+3,w
  4712  074E  00FC               	movwf	??___flmul+3
  4713  074F  3001               	movlw	1
  4714  0750  00FD               	movwf	??___flmul+4
  4715  0751                     u2415:
  4716  0751  0D7C               	rlf	??___flmul+3,w
  4717  0752  0CFC               	rrf	??___flmul+3,f
  4718  0753  0CFB               	rrf	??___flmul+2,f
  4719  0754  0CFA               	rrf	??___flmul+1,f
  4720  0755  0CF9               	rrf	??___flmul,f
  4721  0756                     u2410:
  4722  0756  0BFD               	decfsz	??___flmul+4,f
  4723  0757  2F51               	goto	u2415
  4724  0758  087C               	movf	??___flmul+3,w
  4725  0759  00B2               	movwf	___flmul@prod+3
  4726  075A  087B               	movf	??___flmul+2,w
  4727  075B  00B1               	movwf	___flmul@prod+2
  4728  075C  087A               	movf	??___flmul+1,w
  4729  075D  00B0               	movwf	___flmul@prod+1
  4730  075E  0879               	movf	??___flmul,w
  4731  075F  00AF               	movwf	___flmul@prod
  4732  0760                     l2198:
  4733  0760  3001               	movlw	1
  4734  0761  07B3               	addwf	___flmul@temp,f
  4735  0762  1803               	skipnc
  4736  0763  0AB4               	incf	___flmul@temp+1,f
  4737  0764  3000               	movlw	0
  4738  0765  07B4               	addwf	___flmul@temp+1,f
  4739  0766                     l2200:
  4740  0766  0834               	movf	___flmul@temp+1,w
  4741  0767  3A80               	xorlw	128
  4742  0768  00FF               	movwf	btemp+1
  4743  0769  3080               	movlw	128
  4744  076A  027F               	subwf	btemp+1,w
  4745  076B  1D03               	skipz
  4746  076C  2F6F               	goto	u2425
  4747  076D  30FF               	movlw	255
  4748  076E  0233               	subwf	___flmul@temp,w
  4749  076F                     u2425:
  4750  076F  1C03               	skipc
  4751  0770  2F72               	goto	u2421
  4752  0771  2F73               	goto	u2420
  4753  0772                     u2421:
  4754  0772  2F7E               	goto	l2204
  4755  0773                     u2420:
  4756  0773                     l2202:
  4757  0773  307F               	movlw	127
  4758  0774  1283               	bcf	3,5	;RP0=0, select bank0
  4759  0775  1303               	bcf	3,6	;RP1=0, select bank0
  4760  0776  00B2               	movwf	___flmul@prod+3
  4761  0777  3080               	movlw	128
  4762  0778  00B1               	movwf	___flmul@prod+2
  4763  0779  3000               	movlw	0
  4764  077A  00B0               	movwf	___flmul@prod+1
  4765  077B  3000               	movlw	0
  4766  077C  00AF               	movwf	___flmul@prod
  4767  077D  2FB3               	goto	l765
  4768  077E                     l2204:
  4769  077E  1283               	bcf	3,5	;RP0=0, select bank0
  4770  077F  1303               	bcf	3,6	;RP1=0, select bank0
  4771  0780  0834               	movf	___flmul@temp+1,w
  4772  0781  3A80               	xorlw	128
  4773  0782  00FF               	movwf	btemp+1
  4774  0783  3080               	movlw	128
  4775  0784  027F               	subwf	btemp+1,w
  4776  0785  1D03               	skipz
  4777  0786  2F89               	goto	u2435
  4778  0787  3001               	movlw	1
  4779  0788  0233               	subwf	___flmul@temp,w
  4780  0789                     u2435:
  4781  0789  1803               	skipnc
  4782  078A  2F8C               	goto	u2431
  4783  078B  2F8D               	goto	u2430
  4784  078C                     u2431:
  4785  078C  2F99               	goto	l2210
  4786  078D                     u2430:
  4787  078D                     l2206:
  4788  078D  3000               	movlw	0
  4789  078E  1283               	bcf	3,5	;RP0=0, select bank0
  4790  078F  1303               	bcf	3,6	;RP1=0, select bank0
  4791  0790  00B2               	movwf	___flmul@prod+3
  4792  0791  3000               	movlw	0
  4793  0792  00B1               	movwf	___flmul@prod+2
  4794  0793  3000               	movlw	0
  4795  0794  00B0               	movwf	___flmul@prod+1
  4796  0795  3000               	movlw	0
  4797  0796  00AF               	movwf	___flmul@prod
  4798  0797                     l2208:
  4799  0797  01A8               	clrf	___flmul@sign
  4800  0798  2FB3               	goto	l765
  4801  0799                     l2210:
  4802  0799  1283               	bcf	3,5	;RP0=0, select bank0
  4803  079A  1303               	bcf	3,6	;RP1=0, select bank0
  4804  079B  0833               	movf	___flmul@temp,w
  4805  079C  00F9               	movwf	??___flmul
  4806  079D  0879               	movf	??___flmul,w
  4807  079E  00AE               	movwf	___flmul@bexp
  4808  079F  30FF               	movlw	255
  4809  07A0  05AF               	andwf	___flmul@prod,f
  4810  07A1  30FF               	movlw	255
  4811  07A2  05B0               	andwf	___flmul@prod+1,f
  4812  07A3  307F               	movlw	127
  4813  07A4  05B1               	andwf	___flmul@prod+2,f
  4814  07A5  3000               	movlw	0
  4815  07A6  05B2               	andwf	___flmul@prod+3,f
  4816  07A7                     l2212:
  4817  07A7  1C2E               	btfss	___flmul@bexp,0
  4818  07A8  2FAA               	goto	u2441
  4819  07A9  2FAB               	goto	u2440
  4820  07AA                     u2441:
  4821  07AA  2FAC               	goto	l2216
  4822  07AB                     u2440:
  4823  07AB                     l2214:
  4824  07AB  17B1               	bsf	___flmul@prod+2,7
  4825  07AC                     l2216:
  4826  07AC  082E               	movf	___flmul@bexp,w
  4827  07AD  00F9               	movwf	??___flmul
  4828  07AE  1003               	clrc
  4829  07AF  0C79               	rrf	??___flmul,w
  4830  07B0  00FA               	movwf	??___flmul+1
  4831  07B1  087A               	movf	??___flmul+1,w
  4832  07B2  00B2               	movwf	___flmul@prod+3
  4833  07B3                     l765:
  4834  07B3  0828               	movf	___flmul@sign,w
  4835  07B4  00F9               	movwf	??___flmul
  4836  07B5  0879               	movf	??___flmul,w
  4837  07B6  04B2               	iorwf	___flmul@prod+3,f
  4838  07B7                     l2218:
  4839  07B7  0832               	movf	___flmul@prod+3,w
  4840  07B8  00A3               	movwf	?___flmul+3
  4841  07B9  0831               	movf	___flmul@prod+2,w
  4842  07BA  00A2               	movwf	?___flmul+2
  4843  07BB  0830               	movf	___flmul@prod+1,w
  4844  07BC  00A1               	movwf	?___flmul+1
  4845  07BD  082F               	movf	___flmul@prod,w
  4846  07BE  00A0               	movwf	?___flmul
  4847  07BF                     l753:
  4848  07BF  0008               	return
  4849  07C0                     __end_of___flmul:
  4850                           
  4851                           	psect	text7
  4852  08C8                     __ptext7:	
  4853 ;; *************** function __Umul8_16 *****************
  4854 ;; Defined at:
  4855 ;;		line 4 in file "C:\Program Files\Microchip\xc8\v2.32\pic\sources\c90\common\Umul8_16.c"
  4856 ;; Parameters:    Size  Location     Type
  4857 ;;  multiplier      1    wreg     unsigned char 
  4858 ;;  multiplicand    1    0[COMMON] unsigned char 
  4859 ;; Auto vars:     Size  Location     Type
  4860 ;;  multiplier      1    8[COMMON] unsigned char 
  4861 ;;  word_mpld       2    6[COMMON] unsigned int 
  4862 ;;  product         2    4[COMMON] unsigned int 
  4863 ;; Return value:  Size  Location     Type
  4864 ;;                  2    0[COMMON] unsigned int 
  4865 ;; Registers used:
  4866 ;;		wreg, status,2, status,0
  4867 ;; Tracked objects:
  4868 ;;		On entry : 0/0
  4869 ;;		On exit  : 0/0
  4870 ;;		Unchanged: 0/0
  4871 ;; Data sizes:     COMMON   BANK0   BANK1   BANK3   BANK2
  4872 ;;      Params:         2       0       0       0       0
  4873 ;;      Locals:         5       0       0       0       0
  4874 ;;      Temps:          2       0       0       0       0
  4875 ;;      Totals:         9       0       0       0       0
  4876 ;;Total ram usage:        9 bytes
  4877 ;; Hardware stack levels used: 1
  4878 ;; This function calls:
  4879 ;;		Nothing
  4880 ;; This function is called by:
  4881 ;;		___flmul
  4882 ;; This function uses a non-reentrant model
  4883 ;;
  4884                           
  4885                           
  4886                           ;psect for function __Umul8_16
  4887  08C8                     __Umul8_16:
  4888                           
  4889                           ;incstack = 0
  4890                           ; Regs used in __Umul8_16: [wreg+status,2+status,0]
  4891                           ;__Umul8_16@multiplier stored from wreg
  4892  08C8  00F8               	movwf	__Umul8_16@multiplier
  4893  08C9                     l2032:
  4894  08C9  01F4               	clrf	__Umul8_16@product
  4895  08CA  01F5               	clrf	__Umul8_16@product+1
  4896  08CB                     l2034:
  4897  08CB  0870               	movf	__Umul8_16@multiplicand,w
  4898  08CC  00F2               	movwf	??__Umul8_16
  4899  08CD  01F3               	clrf	??__Umul8_16+1
  4900  08CE  0872               	movf	??__Umul8_16,w
  4901  08CF  00F6               	movwf	__Umul8_16@word_mpld
  4902  08D0  0873               	movf	??__Umul8_16+1,w
  4903  08D1  00F7               	movwf	__Umul8_16@word_mpld+1
  4904  08D2                     l2036:
  4905  08D2  1C78               	btfss	__Umul8_16@multiplier,0
  4906  08D3  28D5               	goto	u1971
  4907  08D4  28D6               	goto	u1970
  4908  08D5                     u1971:
  4909  08D5  28DC               	goto	l772
  4910  08D6                     u1970:
  4911  08D6                     l2038:
  4912  08D6  0876               	movf	__Umul8_16@word_mpld,w
  4913  08D7  07F4               	addwf	__Umul8_16@product,f
  4914  08D8  1803               	skipnc
  4915  08D9  0AF5               	incf	__Umul8_16@product+1,f
  4916  08DA  0877               	movf	__Umul8_16@word_mpld+1,w
  4917  08DB  07F5               	addwf	__Umul8_16@product+1,f
  4918  08DC                     l772:
  4919  08DC  3001               	movlw	1
  4920  08DD                     u1985:
  4921  08DD  1003               	clrc
  4922  08DE  0DF6               	rlf	__Umul8_16@word_mpld,f
  4923  08DF  0DF7               	rlf	__Umul8_16@word_mpld+1,f
  4924  08E0  3EFF               	addlw	-1
  4925  08E1  1D03               	skipz
  4926  08E2  28DD               	goto	u1985
  4927  08E3  1003               	clrc
  4928  08E4  0CF8               	rrf	__Umul8_16@multiplier,f
  4929  08E5                     l2040:
  4930  08E5  0878               	movf	__Umul8_16@multiplier,w
  4931  08E6  1D03               	btfss	3,2
  4932  08E7  28E9               	goto	u1991
  4933  08E8  28EA               	goto	u1990
  4934  08E9                     u1991:
  4935  08E9  28D2               	goto	l2036
  4936  08EA                     u1990:
  4937  08EA                     l2042:
  4938  08EA  0875               	movf	__Umul8_16@product+1,w
  4939  08EB  00F1               	movwf	?__Umul8_16+1
  4940  08EC  0874               	movf	__Umul8_16@product,w
  4941  08ED  00F0               	movwf	?__Umul8_16
  4942  08EE                     l774:
  4943  08EE  0008               	return
  4944  08EF                     __end_of__Umul8_16:
  4945                           
  4946                           	psect	text8
  4947  0BB1                     __ptext8:	
  4948 ;; *************** function ___flge *****************
  4949 ;; Defined at:
  4950 ;;		line 4 in file "C:\Program Files\Microchip\xc8\v2.32\pic\sources\c90\common\flge.c"
  4951 ;; Parameters:    Size  Location     Type
  4952 ;;  ff1             4    0[COMMON] unsigned int 
  4953 ;;  ff2             4    4[COMMON] unsigned int 
  4954 ;; Auto vars:     Size  Location     Type
  4955 ;;		None
  4956 ;; Return value:  Size  Location     Type
  4957 ;;		None               void
  4958 ;; Registers used:
  4959 ;;		wreg, status,2, status,0
  4960 ;; Tracked objects:
  4961 ;;		On entry : 0/0
  4962 ;;		On exit  : 0/0
  4963 ;;		Unchanged: 0/0
  4964 ;; Data sizes:     COMMON   BANK0   BANK1   BANK3   BANK2
  4965 ;;      Params:         8       0       0       0       0
  4966 ;;      Locals:         0       0       0       0       0
  4967 ;;      Temps:          4       0       0       0       0
  4968 ;;      Totals:        12       0       0       0       0
  4969 ;;Total ram usage:       12 bytes
  4970 ;; Hardware stack levels used: 1
  4971 ;; This function calls:
  4972 ;;		Nothing
  4973 ;; This function is called by:
  4974 ;;		_liga_buzzer
  4975 ;; This function uses a non-reentrant model
  4976 ;;
  4977                           
  4978                           
  4979                           ;psect for function ___flge
  4980  0BB1                     ___flge:
  4981  0BB1                     l2056:	
  4982                           ;incstack = 0
  4983                           ; Regs used in ___flge: [wreg+status,2+status,0]
  4984                           
  4985  0BB1  3000               	movlw	0
  4986  0BB2  0570               	andwf	___flge@ff1,w
  4987  0BB3  00F8               	movwf	??___flge
  4988  0BB4  3000               	movlw	0
  4989  0BB5  0571               	andwf	___flge@ff1+1,w
  4990  0BB6  00F9               	movwf	??___flge+1
  4991  0BB7  3080               	movlw	128
  4992  0BB8  0572               	andwf	___flge@ff1+2,w
  4993  0BB9  00FA               	movwf	??___flge+2
  4994  0BBA  307F               	movlw	127
  4995  0BBB  0573               	andwf	___flge@ff1+3,w
  4996  0BBC  00FB               	movwf	??___flge+3
  4997  0BBD  087B               	movf	??___flge+3,w
  4998  0BBE  047A               	iorwf	??___flge+2,w
  4999  0BBF  0479               	iorwf	??___flge+1,w
  5000  0BC0  0478               	iorwf	??___flge,w
  5001  0BC1  1D03               	skipz
  5002  0BC2  2BC4               	goto	u2011
  5003  0BC3  2BC5               	goto	u2010
  5004  0BC4                     u2011:
  5005  0BC4  2BCD               	goto	l538
  5006  0BC5                     u2010:
  5007  0BC5                     l2058:
  5008  0BC5  3000               	movlw	0
  5009  0BC6  00F3               	movwf	___flge@ff1+3
  5010  0BC7  3000               	movlw	0
  5011  0BC8  00F2               	movwf	___flge@ff1+2
  5012  0BC9  3000               	movlw	0
  5013  0BCA  00F1               	movwf	___flge@ff1+1
  5014  0BCB  3000               	movlw	0
  5015  0BCC  00F0               	movwf	___flge@ff1
  5016  0BCD                     l538:
  5017  0BCD  3000               	movlw	0
  5018  0BCE  0574               	andwf	___flge@ff2,w
  5019  0BCF  00F8               	movwf	??___flge
  5020  0BD0  3000               	movlw	0
  5021  0BD1  0575               	andwf	___flge@ff2+1,w
  5022  0BD2  00F9               	movwf	??___flge+1
  5023  0BD3  3080               	movlw	128
  5024  0BD4  0576               	andwf	___flge@ff2+2,w
  5025  0BD5  00FA               	movwf	??___flge+2
  5026  0BD6  307F               	movlw	127
  5027  0BD7  0577               	andwf	___flge@ff2+3,w
  5028  0BD8  00FB               	movwf	??___flge+3
  5029  0BD9  087B               	movf	??___flge+3,w
  5030  0BDA  047A               	iorwf	??___flge+2,w
  5031  0BDB  0479               	iorwf	??___flge+1,w
  5032  0BDC  0478               	iorwf	??___flge,w
  5033  0BDD  1D03               	skipz
  5034  0BDE  2BE0               	goto	u2021
  5035  0BDF  2BE1               	goto	u2020
  5036  0BE0                     u2021:
  5037  0BE0  2BE9               	goto	l2062
  5038  0BE1                     u2020:
  5039  0BE1                     l2060:
  5040  0BE1  3000               	movlw	0
  5041  0BE2  00F7               	movwf	___flge@ff2+3
  5042  0BE3  3000               	movlw	0
  5043  0BE4  00F6               	movwf	___flge@ff2+2
  5044  0BE5  3000               	movlw	0
  5045  0BE6  00F5               	movwf	___flge@ff2+1
  5046  0BE7  3000               	movlw	0
  5047  0BE8  00F4               	movwf	___flge@ff2
  5048  0BE9                     l2062:
  5049  0BE9  1FF3               	btfss	___flge@ff1+3,7
  5050  0BEA  2BEC               	goto	u2031
  5051  0BEB  2BED               	goto	u2030
  5052  0BEC                     u2031:
  5053  0BEC  2C11               	goto	l2066
  5054  0BED                     u2030:
  5055  0BED                     l2064:
  5056  0BED  3000               	movlw	0
  5057  0BEE  00F8               	movwf	??___flge
  5058  0BEF  3000               	movlw	0
  5059  0BF0  00F9               	movwf	??___flge+1
  5060  0BF1  3000               	movlw	0
  5061  0BF2  00FA               	movwf	??___flge+2
  5062  0BF3  3080               	movlw	128
  5063  0BF4  00FB               	movwf	??___flge+3
  5064  0BF5  0870               	movf	___flge@ff1,w
  5065  0BF6  02F8               	subwf	??___flge,f
  5066  0BF7  0871               	movf	___flge@ff1+1,w
  5067  0BF8  1C03               	skipc
  5068  0BF9  0F71               	incfsz	___flge@ff1+1,w
  5069  0BFA  2BFC               	goto	u2041
  5070  0BFB  2BFD               	goto	u2042
  5071  0BFC                     u2041:
  5072  0BFC  02F9               	subwf	??___flge+1,f
  5073  0BFD                     u2042:
  5074  0BFD  0872               	movf	___flge@ff1+2,w
  5075  0BFE  1C03               	skipc
  5076  0BFF  0F72               	incfsz	___flge@ff1+2,w
  5077  0C00  2C02               	goto	u2043
  5078  0C01  2C03               	goto	u2044
  5079  0C02                     u2043:
  5080  0C02  02FA               	subwf	??___flge+2,f
  5081  0C03                     u2044:
  5082  0C03  0873               	movf	___flge@ff1+3,w
  5083  0C04  1C03               	skipc
  5084  0C05  0F73               	incfsz	___flge@ff1+3,w
  5085  0C06  2C08               	goto	u2045
  5086  0C07  2C09               	goto	u2046
  5087  0C08                     u2045:
  5088  0C08  02FB               	subwf	??___flge+3,f
  5089  0C09                     u2046:
  5090  0C09  087B               	movf	??___flge+3,w
  5091  0C0A  00F3               	movwf	___flge@ff1+3
  5092  0C0B  087A               	movf	??___flge+2,w
  5093  0C0C  00F2               	movwf	___flge@ff1+2
  5094  0C0D  0879               	movf	??___flge+1,w
  5095  0C0E  00F1               	movwf	___flge@ff1+1
  5096  0C0F  0878               	movf	??___flge,w
  5097  0C10  00F0               	movwf	___flge@ff1
  5098  0C11                     l2066:
  5099  0C11  1FF7               	btfss	___flge@ff2+3,7
  5100  0C12  2C14               	goto	u2051
  5101  0C13  2C15               	goto	u2050
  5102  0C14                     u2051:
  5103  0C14  2C39               	goto	l541
  5104  0C15                     u2050:
  5105  0C15                     l2068:
  5106  0C15  3000               	movlw	0
  5107  0C16  00F8               	movwf	??___flge
  5108  0C17  3000               	movlw	0
  5109  0C18  00F9               	movwf	??___flge+1
  5110  0C19  3000               	movlw	0
  5111  0C1A  00FA               	movwf	??___flge+2
  5112  0C1B  3080               	movlw	128
  5113  0C1C  00FB               	movwf	??___flge+3
  5114  0C1D  0874               	movf	___flge@ff2,w
  5115  0C1E  02F8               	subwf	??___flge,f
  5116  0C1F  0875               	movf	___flge@ff2+1,w
  5117  0C20  1C03               	skipc
  5118  0C21  0F75               	incfsz	___flge@ff2+1,w
  5119  0C22  2C24               	goto	u2061
  5120  0C23  2C25               	goto	u2062
  5121  0C24                     u2061:
  5122  0C24  02F9               	subwf	??___flge+1,f
  5123  0C25                     u2062:
  5124  0C25  0876               	movf	___flge@ff2+2,w
  5125  0C26  1C03               	skipc
  5126  0C27  0F76               	incfsz	___flge@ff2+2,w
  5127  0C28  2C2A               	goto	u2063
  5128  0C29  2C2B               	goto	u2064
  5129  0C2A                     u2063:
  5130  0C2A  02FA               	subwf	??___flge+2,f
  5131  0C2B                     u2064:
  5132  0C2B  0877               	movf	___flge@ff2+3,w
  5133  0C2C  1C03               	skipc
  5134  0C2D  0F77               	incfsz	___flge@ff2+3,w
  5135  0C2E  2C30               	goto	u2065
  5136  0C2F  2C31               	goto	u2066
  5137  0C30                     u2065:
  5138  0C30  02FB               	subwf	??___flge+3,f
  5139  0C31                     u2066:
  5140  0C31  087B               	movf	??___flge+3,w
  5141  0C32  00F7               	movwf	___flge@ff2+3
  5142  0C33  087A               	movf	??___flge+2,w
  5143  0C34  00F6               	movwf	___flge@ff2+2
  5144  0C35  0879               	movf	??___flge+1,w
  5145  0C36  00F5               	movwf	___flge@ff2+1
  5146  0C37  0878               	movf	??___flge,w
  5147  0C38  00F4               	movwf	___flge@ff2
  5148  0C39                     l541:
  5149  0C39  3080               	movlw	128
  5150  0C3A  06F3               	xorwf	___flge@ff1+3,f
  5151  0C3B  3080               	movlw	128
  5152  0C3C  06F7               	xorwf	___flge@ff2+3,f
  5153  0C3D  0877               	movf	___flge@ff2+3,w
  5154  0C3E  0273               	subwf	___flge@ff1+3,w
  5155  0C3F  1D03               	skipz
  5156  0C40  2C4B               	goto	u2075
  5157  0C41  0876               	movf	___flge@ff2+2,w
  5158  0C42  0272               	subwf	___flge@ff1+2,w
  5159  0C43  1D03               	skipz
  5160  0C44  2C4B               	goto	u2075
  5161  0C45  0875               	movf	___flge@ff2+1,w
  5162  0C46  0271               	subwf	___flge@ff1+1,w
  5163  0C47  1D03               	skipz
  5164  0C48  2C4B               	goto	u2075
  5165  0C49  0874               	movf	___flge@ff2,w
  5166  0C4A  0270               	subwf	___flge@ff1,w
  5167  0C4B                     u2075:
  5168  0C4B  1803               	skipnc
  5169  0C4C  2C4E               	goto	u2071
  5170  0C4D  2C4F               	goto	u2070
  5171  0C4E                     u2071:
  5172  0C4E  2C51               	goto	l2072
  5173  0C4F                     u2070:
  5174  0C4F                     l2070:
  5175  0C4F  1003               	clrc
  5176  0C50  2C52               	goto	l542
  5177  0C51                     l2072:
  5178  0C51  1403               	setc
  5179  0C52                     l542:
  5180  0C52  0008               	return
  5181  0C53                     __end_of___flge:
  5182                           
  5183                           	psect	text9
  5184  08EF                     __ptext9:	
  5185 ;; *************** function _strcmp *****************
  5186 ;; Defined at:
  5187 ;;		line 33 in file "C:\Program Files\Microchip\xc8\v2.32\pic\sources\c90\common\strcmp.c"
  5188 ;; Parameters:    Size  Location     Type
  5189 ;;  s1              1    wreg     PTR const unsigned char 
  5190 ;;		 -> senhaUser(5), 
  5191 ;;  s2              1    0[COMMON] PTR const unsigned char 
  5192 ;;		 -> senhaUserConfere(5), 
  5193 ;; Auto vars:     Size  Location     Type
  5194 ;;  s1              1    6[COMMON] PTR const unsigned char 
  5195 ;;		 -> senhaUser(5), 
  5196 ;;  r               1    5[COMMON] char 
  5197 ;; Return value:  Size  Location     Type
  5198 ;;                  2    0[COMMON] int 
  5199 ;; Registers used:
  5200 ;;		wreg, fsr0l, fsr0h, status,2, status,0
  5201 ;; Tracked objects:
  5202 ;;		On entry : 0/0
  5203 ;;		On exit  : 0/0
  5204 ;;		Unchanged: 0/0
  5205 ;; Data sizes:     COMMON   BANK0   BANK1   BANK3   BANK2
  5206 ;;      Params:         2       0       0       0       0
  5207 ;;      Locals:         2       0       0       0       0
  5208 ;;      Temps:          3       0       0       0       0
  5209 ;;      Totals:         7       0       0       0       0
  5210 ;;Total ram usage:        7 bytes
  5211 ;; Hardware stack levels used: 1
  5212 ;; This function calls:
  5213 ;;		Nothing
  5214 ;; This function is called by:
  5215 ;;		_validaUser
  5216 ;; This function uses a non-reentrant model
  5217 ;;
  5218                           
  5219                           
  5220                           ;psect for function _strcmp
  5221  08EF                     _strcmp:
  5222                           
  5223                           ;incstack = 0
  5224                           ; Regs used in _strcmp: [wreg-fsr0h+status,2+status,0]
  5225                           ;strcmp@s1 stored from wreg
  5226  08EF  00F6               	movwf	strcmp@s1
  5227  08F0                     l2514:
  5228  08F0  28F9               	goto	l2520
  5229  08F1                     l2516:
  5230  08F1  3001               	movlw	1
  5231  08F2  00F2               	movwf	??_strcmp
  5232  08F3  0872               	movf	??_strcmp,w
  5233  08F4  07F6               	addwf	strcmp@s1,f
  5234  08F5                     l2518:
  5235  08F5  3001               	movlw	1
  5236  08F6  00F2               	movwf	??_strcmp
  5237  08F7  0872               	movf	??_strcmp,w
  5238  08F8  07F0               	addwf	strcmp@s2,f
  5239  08F9                     l2520:
  5240  08F9  0870               	movf	strcmp@s2,w
  5241  08FA  0084               	movwf	4
  5242  08FB  1383               	bcf	3,7	;select IRP bank0
  5243  08FC  0800               	movf	0,w
  5244  08FD  00F2               	movwf	??_strcmp
  5245  08FE  0876               	movf	strcmp@s1,w
  5246  08FF  0084               	movwf	4
  5247  0900  0800               	movf	0,w
  5248  0901  00F3               	movwf	??_strcmp+1
  5249  0902  0872               	movf	??_strcmp,w
  5250  0903  0273               	subwf	??_strcmp+1,w
  5251  0904  00F4               	movwf	??_strcmp+2
  5252  0905  0874               	movf	??_strcmp+2,w
  5253  0906  00F5               	movwf	strcmp@r
  5254  0907  0875               	movf	strcmp@r,w
  5255  0908  1D03               	btfss	3,2
  5256  0909  290B               	goto	u2741
  5257  090A  290C               	goto	u2740
  5258  090B                     u2741:
  5259  090B  2913               	goto	l2524
  5260  090C                     u2740:
  5261  090C                     l2522:
  5262  090C  0876               	movf	strcmp@s1,w
  5263  090D  0084               	movwf	4
  5264  090E  0800               	movf	0,w
  5265  090F  1D03               	btfss	3,2
  5266  0910  2912               	goto	u2751
  5267  0911  2913               	goto	u2750
  5268  0912                     u2751:
  5269  0912  28F1               	goto	l2516
  5270  0913                     u2750:
  5271  0913                     l2524:
  5272  0913  0875               	movf	strcmp@r,w
  5273  0914  00F0               	movwf	?_strcmp
  5274  0915  01F1               	clrf	?_strcmp+1
  5275  0916  1BF0               	btfsc	?_strcmp,7
  5276  0917  03F1               	decf	?_strcmp+1,f
  5277  0918                     l820:
  5278  0918  0008               	return
  5279  0919                     __end_of_strcmp:
  5280                           
  5281                           	psect	text10
  5282  0004                     __ptext10:	
  5283 ;; *************** function _telaInicial *****************
  5284 ;; Defined at:
  5285 ;;		line 296 in file "main.c"
  5286 ;; Parameters:    Size  Location     Type
  5287 ;;		None
  5288 ;; Auto vars:     Size  Location     Type
  5289 ;;  i               2    7[COMMON] int 
  5290 ;; Return value:  Size  Location     Type
  5291 ;;                  1    wreg      void 
  5292 ;; Registers used:
  5293 ;;		wreg, fsr0l, fsr0h, status,2, status,0, btemp+1, pclath, cstack
  5294 ;; Tracked objects:
  5295 ;;		On entry : 0/0
  5296 ;;		On exit  : 0/0
  5297 ;;		Unchanged: 0/0
  5298 ;; Data sizes:     COMMON   BANK0   BANK1   BANK3   BANK2
  5299 ;;      Params:         0       0       0       0       0
  5300 ;;      Locals:         2       0       0       0       0
  5301 ;;      Temps:          2       0       0       0       0
  5302 ;;      Totals:         4       0       0       0       0
  5303 ;;Total ram usage:        4 bytes
  5304 ;; Hardware stack levels used: 1
  5305 ;; Hardware stack levels required when called: 2
  5306 ;; This function calls:
  5307 ;;		_LCD_escreve
  5308 ;;		_LCD_linha1
  5309 ;;		_strlen
  5310 ;; This function is called by:
  5311 ;;		_main
  5312 ;; This function uses a non-reentrant model
  5313 ;;
  5314                           
  5315                           
  5316                           ;psect for function _telaInicial
  5317  0004                     _telaInicial:
  5318  0004                     l2538:	
  5319                           ;incstack = 0
  5320                           ; Regs used in _telaInicial: [wreg-fsr0h+status,2+status,0+btemp+1+pclath+cstack]
  5321                           
  5322                           
  5323                           ;main.c: 297:     LCD_linha1();
  5324  0004  160A  118A  27F0  120A  118A  	fcall	_LCD_linha1
  5325                           
  5326                           ;main.c: 298:     LCD_escreve(' ');
  5327  0009  3020               	movlw	32
  5328  000A  120A  158A  200D  120A  118A  	fcall	_LCD_escreve
  5329  000F                     l2540:
  5330                           
  5331                           ;main.c: 299:     for (int i = 0; i <= strlen(msgDigiteSenha)-1; i++){
  5332  000F  01F7               	clrf	telaInicial@i
  5333  0010  01F8               	clrf	telaInicial@i+1
  5334  0011  2822               	goto	l2546
  5335  0012                     l2542:
  5336                           
  5337                           ;main.c: 300:         LCD_escreve(msgDigiteSenha[i]);
  5338  0012  0877               	movf	telaInicial@i,w
  5339  0013  3EA0               	addlw	(low (_msgDigiteSenha| 0))& (0+255)
  5340  0014  0084               	movwf	4
  5341  0015  1383               	bcf	3,7	;select IRP bank1
  5342  0016  0800               	movf	0,w
  5343  0017  120A  158A  200D  120A  118A  	fcall	_LCD_escreve
  5344  001C                     l2544:
  5345                           
  5346                           ;main.c: 301:     }
  5347  001C  3001               	movlw	1
  5348  001D  07F7               	addwf	telaInicial@i,f
  5349  001E  1803               	skipnc
  5350  001F  0AF8               	incf	telaInicial@i+1,f
  5351  0020  3000               	movlw	0
  5352  0021  07F8               	addwf	telaInicial@i+1,f
  5353  0022                     l2546:
  5354  0022  30A0               	movlw	(low (_msgDigiteSenha| 0))& (0+255)
  5355  0023  120A  158A  2047  120A  118A  	fcall	_strlen
  5356  0028  0870               	movf	?_strlen,w
  5357  0029  3EFF               	addlw	255
  5358  002A  00F5               	movwf	??_telaInicial
  5359  002B  0871               	movf	?_strlen+1,w
  5360  002C  1803               	skipnc
  5361  002D  3E01               	addlw	1
  5362  002E  3EFF               	addlw	255
  5363  002F  00F6               	movwf	??_telaInicial+1
  5364  0030  0878               	movf	telaInicial@i+1,w
  5365  0031  0276               	subwf	??_telaInicial+1,w
  5366  0032  1D03               	skipz
  5367  0033  2836               	goto	u2795
  5368  0034  0877               	movf	telaInicial@i,w
  5369  0035  0275               	subwf	??_telaInicial,w
  5370  0036                     u2795:
  5371  0036  1803               	skipnc
  5372  0037  2839               	goto	u2791
  5373  0038  283A               	goto	u2790
  5374  0039                     u2791:
  5375  0039  2812               	goto	l2542
  5376  003A                     u2790:
  5377  003A                     l2548:
  5378                           
  5379                           ;main.c: 302:     LCD_escreve(' ');
  5380  003A  3020               	movlw	32
  5381  003B  120A  158A  200D  120A  118A  	fcall	_LCD_escreve
  5382  0040                     l212:
  5383  0040  0008               	return
  5384  0041                     __end_of_telaInicial:
  5385                           
  5386                           	psect	text11
  5387  0041                     __ptext11:	
  5388 ;; *************** function _listaZonas *****************
  5389 ;; Defined at:
  5390 ;;		line 391 in file "main.c"
  5391 ;; Parameters:    Size  Location     Type
  5392 ;;  valorSensor     2   10[COMMON] unsigned int 
  5393 ;; Auto vars:     Size  Location     Type
  5394 ;;		None
  5395 ;; Return value:  Size  Location     Type
  5396 ;;                  1    wreg      void 
  5397 ;; Registers used:
  5398 ;;		wreg, fsr0l, fsr0h, status,2, status,0, btemp+1, pclath, cstack
  5399 ;; Tracked objects:
  5400 ;;		On entry : 0/0
  5401 ;;		On exit  : 0/0
  5402 ;;		Unchanged: 0/0
  5403 ;; Data sizes:     COMMON   BANK0   BANK1   BANK3   BANK2
  5404 ;;      Params:         2       0       0       0       0
  5405 ;;      Locals:         0       0       0       0       0
  5406 ;;      Temps:          0       0       0       0       0
  5407 ;;      Totals:         2       0       0       0       0
  5408 ;;Total ram usage:        2 bytes
  5409 ;; Hardware stack levels used: 1
  5410 ;; Hardware stack levels required when called: 3
  5411 ;; This function calls:
  5412 ;;		_LCD_init
  5413 ;;		_LCD_limpa
  5414 ;;		_LCD_linha1
  5415 ;;		_LCD_linha2
  5416 ;;		_escreveMesagem
  5417 ;; This function is called by:
  5418 ;;		_main
  5419 ;; This function uses a non-reentrant model
  5420 ;;
  5421                           
  5422                           
  5423                           ;psect for function _listaZonas
  5424  0041                     _listaZonas:
  5425  0041                     l2866:	
  5426                           ;incstack = 0
  5427                           ; Regs used in _listaZonas: [wreg-fsr0h+status,2+status,0+btemp+1+pclath+cstack]
  5428                           
  5429                           
  5430                           ;main.c: 392:     if (valorSensor <= auxSensor){
  5431  0041  3000               	movlw	0
  5432  0042  027B               	subwf	listaZonas@valorSensor+1,w
  5433  0043  30CD               	movlw	205
  5434  0044  1903               	skipnz
  5435  0045  027A               	subwf	listaZonas@valorSensor,w
  5436  0046  1803               	skipnc
  5437  0047  2849               	goto	u3121
  5438  0048  284A               	goto	u3120
  5439  0049                     u3121:
  5440  0049  2871               	goto	l2874
  5441  004A                     u3120:
  5442  004A                     l2868:
  5443                           
  5444                           ;main.c: 393:         LCD_init();
  5445  004A  120A  158A  2176  120A  118A  	fcall	_LCD_init
  5446                           
  5447                           ;main.c: 394:         LCD_limpa();
  5448  004F  160A  118A  27E0  120A  118A  	fcall	_LCD_limpa
  5449                           
  5450                           ;main.c: 395:         LCD_linha1();
  5451  0054  160A  118A  27F0  120A  118A  	fcall	_LCD_linha1
  5452  0059                     l2870:
  5453                           
  5454                           ;main.c: 396:         escreveMesagem(msgSenhaConfigActive);
  5455  0059  30C9               	movlw	(low (_msgSenhaConfigActive| (0+256)))& (0+255)
  5456  005A  00F3               	movwf	escreveMesagem@texto
  5457  005B  3001               	movlw	1
  5458  005C  00F4               	movwf	escreveMesagem@texto+1
  5459  005D  120A  158A  21A9  120A  118A  	fcall	_escreveMesagem
  5460  0062                     l2872:
  5461                           
  5462                           ;main.c: 397:         LCD_linha2();
  5463  0062  160A  118A  27D0  120A  118A  	fcall	_LCD_linha2
  5464                           
  5465                           ;main.c: 398:         escreveMesagem(msgSenhaUsuario);
  5466  0067  30BB               	movlw	(low (_msgSenhaUsuario| (0+256)))& (0+255)
  5467  0068  00F3               	movwf	escreveMesagem@texto
  5468  0069  3001               	movlw	1
  5469  006A  00F4               	movwf	escreveMesagem@texto+1
  5470  006B  120A  158A  21A9  120A  118A  	fcall	_escreveMesagem
  5471                           
  5472                           ;main.c: 399:     }
  5473  0070  2961               	goto	l263
  5474  0071                     l2874:
  5475  0071  3001               	movlw	1
  5476  0072  027B               	subwf	listaZonas@valorSensor+1,w
  5477  0073  3099               	movlw	153
  5478  0074  1903               	skipnz
  5479  0075  027A               	subwf	listaZonas@valorSensor,w
  5480  0076  1803               	skipnc
  5481  0077  2879               	goto	u3131
  5482  0078  287A               	goto	u3130
  5483  0079                     u3131:
  5484  0079  28A1               	goto	l2882
  5485  007A                     u3130:
  5486  007A                     l2876:
  5487                           
  5488                           ;main.c: 401:         LCD_init();
  5489  007A  120A  158A  2176  120A  118A  	fcall	_LCD_init
  5490                           
  5491                           ;main.c: 402:         LCD_limpa();
  5492  007F  160A  118A  27E0  120A  118A  	fcall	_LCD_limpa
  5493                           
  5494                           ;main.c: 403:         LCD_linha1();
  5495  0084  160A  118A  27F0  120A  118A  	fcall	_LCD_linha1
  5496  0089                     l2878:
  5497                           
  5498                           ;main.c: 404:         escreveMesagem(msgSenhaConfig);
  5499  0089  30BC               	movlw	(low (_msgSenhaConfig| 0))& (0+255)
  5500  008A  00F3               	movwf	escreveMesagem@texto
  5501  008B  3000               	movlw	0
  5502  008C  00F4               	movwf	escreveMesagem@texto+1
  5503  008D  120A  158A  21A9  120A  118A  	fcall	_escreveMesagem
  5504  0092                     l2880:
  5505                           
  5506                           ;main.c: 405:         LCD_linha2();
  5507  0092  160A  118A  27D0  120A  118A  	fcall	_LCD_linha2
  5508                           
  5509                           ;main.c: 406:         escreveMesagem(msgSenhaUsuarioActive);
  5510  0097  3090               	movlw	(low (_msgSenhaUsuarioActive| (0+256)))& (0+255)
  5511  0098  00F3               	movwf	escreveMesagem@texto
  5512  0099  3001               	movlw	1
  5513  009A  00F4               	movwf	escreveMesagem@texto+1
  5514  009B  120A  158A  21A9  120A  118A  	fcall	_escreveMesagem
  5515                           
  5516                           ;main.c: 407:     }
  5517  00A0  2961               	goto	l263
  5518  00A1                     l2882:
  5519  00A1  3002               	movlw	2
  5520  00A2  027B               	subwf	listaZonas@valorSensor+1,w
  5521  00A3  3065               	movlw	101
  5522  00A4  1903               	skipnz
  5523  00A5  027A               	subwf	listaZonas@valorSensor,w
  5524  00A6  1803               	skipnc
  5525  00A7  28A9               	goto	u3141
  5526  00A8  28AA               	goto	u3140
  5527  00A9                     u3141:
  5528  00A9  28D1               	goto	l2890
  5529  00AA                     u3140:
  5530  00AA                     l2884:
  5531                           
  5532                           ;main.c: 409:         LCD_init();
  5533  00AA  120A  158A  2176  120A  118A  	fcall	_LCD_init
  5534                           
  5535                           ;main.c: 410:         LCD_limpa();
  5536  00AF  160A  118A  27E0  120A  118A  	fcall	_LCD_limpa
  5537                           
  5538                           ;main.c: 411:         LCD_linha1();
  5539  00B4  160A  118A  27F0  120A  118A  	fcall	_LCD_linha1
  5540  00B9                     l2886:
  5541                           
  5542                           ;main.c: 412:         escreveMesagem(msgSenhaCoacaoActive);
  5543  00B9  30AD               	movlw	(low (_msgSenhaCoacaoActive| (0+256)))& (0+255)
  5544  00BA  00F3               	movwf	escreveMesagem@texto
  5545  00BB  3001               	movlw	1
  5546  00BC  00F4               	movwf	escreveMesagem@texto+1
  5547  00BD  120A  158A  21A9  120A  118A  	fcall	_escreveMesagem
  5548  00C2                     l2888:
  5549                           
  5550                           ;main.c: 413:         LCD_linha2();
  5551  00C2  160A  118A  27D0  120A  118A  	fcall	_LCD_linha2
  5552                           
  5553                           ;main.c: 414:         escreveMesagem(msgSenhaDisparo);
  5554  00C7  309F               	movlw	(low (_msgSenhaDisparo| (0+256)))& (0+255)
  5555  00C8  00F3               	movwf	escreveMesagem@texto
  5556  00C9  3001               	movlw	1
  5557  00CA  00F4               	movwf	escreveMesagem@texto+1
  5558  00CB  120A  158A  21A9  120A  118A  	fcall	_escreveMesagem
  5559                           
  5560                           ;main.c: 415:     }
  5561  00D0  2961               	goto	l263
  5562  00D1                     l2890:
  5563  00D1  3003               	movlw	3
  5564  00D2  027B               	subwf	listaZonas@valorSensor+1,w
  5565  00D3  3031               	movlw	49
  5566  00D4  1903               	skipnz
  5567  00D5  027A               	subwf	listaZonas@valorSensor,w
  5568  00D6  1803               	skipnc
  5569  00D7  28D9               	goto	u3151
  5570  00D8  28DA               	goto	u3150
  5571  00D9                     u3151:
  5572  00D9  2901               	goto	l2898
  5573  00DA                     u3150:
  5574  00DA                     l2892:
  5575                           
  5576                           ;main.c: 417:         LCD_init();
  5577  00DA  120A  158A  2176  120A  118A  	fcall	_LCD_init
  5578                           
  5579                           ;main.c: 418:         LCD_limpa();
  5580  00DF  160A  118A  27E0  120A  118A  	fcall	_LCD_limpa
  5581                           
  5582                           ;main.c: 419:         LCD_linha1();
  5583  00E4  160A  118A  27F0  120A  118A  	fcall	_LCD_linha1
  5584  00E9                     l2894:
  5585                           
  5586                           ;main.c: 420:         escreveMesagem(msgSenhaCoacao);
  5587  00E9  30AF               	movlw	(low (_msgSenhaCoacao| 0))& (0+255)
  5588  00EA  00F3               	movwf	escreveMesagem@texto
  5589  00EB  3000               	movlw	0
  5590  00EC  00F4               	movwf	escreveMesagem@texto+1
  5591  00ED  120A  158A  21A9  120A  118A  	fcall	_escreveMesagem
  5592  00F2                     l2896:
  5593                           
  5594                           ;main.c: 421:         LCD_linha2();
  5595  00F2  160A  118A  27D0  120A  118A  	fcall	_LCD_linha2
  5596                           
  5597                           ;main.c: 422:         escreveMesagem(msgSenhaDisparoActive);
  5598  00F7  302F               	movlw	(low (_msgSenhaDisparoActive| (0+256)))& (0+255)
  5599  00F8  00F3               	movwf	escreveMesagem@texto
  5600  00F9  3001               	movlw	1
  5601  00FA  00F4               	movwf	escreveMesagem@texto+1
  5602  00FB  120A  158A  21A9  120A  118A  	fcall	_escreveMesagem
  5603                           
  5604                           ;main.c: 423:     }
  5605  0100  2961               	goto	l263
  5606  0101                     l2898:
  5607  0101  3003               	movlw	3
  5608  0102  027B               	subwf	listaZonas@valorSensor+1,w
  5609  0103  30FD               	movlw	253
  5610  0104  1903               	skipnz
  5611  0105  027A               	subwf	listaZonas@valorSensor,w
  5612  0106  1803               	skipnc
  5613  0107  2909               	goto	u3161
  5614  0108  290A               	goto	u3160
  5615  0109                     u3161:
  5616  0109  2931               	goto	l2906
  5617  010A                     u3160:
  5618  010A                     l2900:
  5619                           
  5620                           ;main.c: 425:         LCD_init();
  5621  010A  120A  158A  2176  120A  118A  	fcall	_LCD_init
  5622                           
  5623                           ;main.c: 426:         LCD_limpa();
  5624  010F  160A  118A  27E0  120A  118A  	fcall	_LCD_limpa
  5625                           
  5626                           ;main.c: 427:         LCD_linha1();
  5627  0114  160A  118A  27F0  120A  118A  	fcall	_LCD_linha1
  5628  0119                     l2902:
  5629                           
  5630                           ;main.c: 428:         escreveMesagem(msgDesativarZonaActive);
  5631  0119  3010               	movlw	(low (_msgDesativarZonaActive| (0+256)))& (0+255)
  5632  011A  00F3               	movwf	escreveMesagem@texto
  5633  011B  3001               	movlw	1
  5634  011C  00F4               	movwf	escreveMesagem@texto+1
  5635  011D  120A  158A  21A9  120A  118A  	fcall	_escreveMesagem
  5636  0122                     l2904:
  5637                           
  5638                           ;main.c: 429:         LCD_linha2();
  5639  0122  160A  118A  27D0  120A  118A  	fcall	_LCD_linha2
  5640                           
  5641                           ;main.c: 430:         escreveMesagem(msgReativar);
  5642  0127  30E0               	movlw	(low (_msgReativar| 0))& (0+255)
  5643  0128  00F3               	movwf	escreveMesagem@texto
  5644  0129  3000               	movlw	0
  5645  012A  00F4               	movwf	escreveMesagem@texto+1
  5646  012B  120A  158A  21A9  120A  118A  	fcall	_escreveMesagem
  5647                           
  5648                           ;main.c: 431:     }
  5649  0130  2961               	goto	l263
  5650  0131                     l2906:
  5651  0131  3004               	movlw	4
  5652  0132  027B               	subwf	listaZonas@valorSensor+1,w
  5653  0133  30C9               	movlw	201
  5654  0134  1903               	skipnz
  5655  0135  027A               	subwf	listaZonas@valorSensor,w
  5656  0136  1803               	skipnc
  5657  0137  2939               	goto	u3171
  5658  0138  293A               	goto	u3170
  5659  0139                     u3171:
  5660  0139  2961               	goto	l257
  5661  013A                     u3170:
  5662  013A                     l2908:
  5663                           
  5664                           ;main.c: 433:         LCD_init();
  5665  013A  120A  158A  2176  120A  118A  	fcall	_LCD_init
  5666                           
  5667                           ;main.c: 434:         LCD_limpa();
  5668  013F  160A  118A  27E0  120A  118A  	fcall	_LCD_limpa
  5669                           
  5670                           ;main.c: 435:         LCD_linha1();
  5671  0144  160A  118A  27F0  120A  118A  	fcall	_LCD_linha1
  5672  0149                     l2910:
  5673                           
  5674                           ;main.c: 436:         escreveMesagem(msgDesativarZona);
  5675  0149  3020               	movlw	(low (_msgDesativarZona| (0+256)))& (0+255)
  5676  014A  00F3               	movwf	escreveMesagem@texto
  5677  014B  3001               	movlw	1
  5678  014C  00F4               	movwf	escreveMesagem@texto+1
  5679  014D  120A  158A  21A9  120A  118A  	fcall	_escreveMesagem
  5680  0152                     l2912:
  5681                           
  5682                           ;main.c: 437:         LCD_linha2();
  5683  0152  160A  118A  27D0  120A  118A  	fcall	_LCD_linha2
  5684                           
  5685                           ;main.c: 438:         escreveMesagem(msgReativarActive);
  5686  0157  30D6               	movlw	(low (_msgReativarActive| 0))& (0+255)
  5687  0158  00F3               	movwf	escreveMesagem@texto
  5688  0159  3000               	movlw	0
  5689  015A  00F4               	movwf	escreveMesagem@texto+1
  5690  015B  120A  158A  21A9  120A  118A  	fcall	_escreveMesagem
  5691  0160  2961               	goto	l263
  5692  0161                     l257:
  5693  0161                     l263:
  5694  0161  0008               	return
  5695  0162                     __end_of_listaZonas:
  5696                           
  5697                           	psect	text12
  5698  09A9                     __ptext12:	
  5699 ;; *************** function _escreveMesagem *****************
  5700 ;; Defined at:
  5701 ;;		line 442 in file "main.c"
  5702 ;; Parameters:    Size  Location     Type
  5703 ;;  texto           2    3[COMMON] PTR unsigned char 
  5704 ;;		 -> msgReativarActive(10), msgDesativarZona(15), msgReativar(9), msgDesativarZonaActive(16), 
  5705 ;;		 -> msgSenhaDisparoActive(15), msgSenhaCoacao(13), msgSenhaDisparo(14), msgSenhaCoacaoActive(14), 
  5706 ;;		 -> msgSenhaUsuarioActive(15), msgSenhaConfig(13), msgSenhaUsuario(14), msgSenhaConfigActive(14), 
  5707 ;;		 -> msgSenhaCorreta(14), msgSenhaErrada(13), 
  5708 ;; Auto vars:     Size  Location     Type
  5709 ;;  i               2    8[COMMON] int 
  5710 ;; Return value:  Size  Location     Type
  5711 ;;                  1    wreg      void 
  5712 ;; Registers used:
  5713 ;;		wreg, fsr0l, fsr0h, status,2, status,0, btemp+1, pclath, cstack
  5714 ;; Tracked objects:
  5715 ;;		On entry : 0/0
  5716 ;;		On exit  : 0/0
  5717 ;;		Unchanged: 0/0
  5718 ;; Data sizes:     COMMON   BANK0   BANK1   BANK3   BANK2
  5719 ;;      Params:         2       0       0       0       0
  5720 ;;      Locals:         2       0       0       0       0
  5721 ;;      Temps:          3       0       0       0       0
  5722 ;;      Totals:         7       0       0       0       0
  5723 ;;Total ram usage:        7 bytes
  5724 ;; Hardware stack levels used: 1
  5725 ;; Hardware stack levels required when called: 2
  5726 ;; This function calls:
  5727 ;;		_LCD_escreve
  5728 ;; This function is called by:
  5729 ;;		_validaUser
  5730 ;;		_listaZonas
  5731 ;; This function uses a non-reentrant model
  5732 ;;
  5733                           
  5734                           
  5735                           ;psect for function _escreveMesagem
  5736  09A9                     _escreveMesagem:
  5737  09A9                     l2776:	
  5738                           ;incstack = 0
  5739                           ; Regs used in _escreveMesagem: [wreg-fsr0h+status,2+status,0+btemp+1+pclath+cstack]
  5740                           
  5741                           
  5742                           ;main.c: 443:     for (int i = 0; texto[i] != '\0'; i++){
  5743  09A9  01F8               	clrf	escreveMesagem@i
  5744  09AA  01F9               	clrf	escreveMesagem@i+1
  5745  09AB  29C9               	goto	l2782
  5746  09AC                     l2778:
  5747                           
  5748                           ;main.c: 444:         LCD_escreve(texto[i]);
  5749  09AC  0878               	movf	escreveMesagem@i,w
  5750  09AD  0773               	addwf	escreveMesagem@texto,w
  5751  09AE  00F6               	movwf	??_escreveMesagem+1
  5752  09AF  0874               	movf	escreveMesagem@texto+1,w
  5753  09B0  00F5               	movwf	??_escreveMesagem
  5754  09B1  1803               	skipnc
  5755  09B2  0AF5               	incf	??_escreveMesagem,f
  5756  09B3  1FF8               	btfss	escreveMesagem@i,7
  5757  09B4  29B6               	goto	u3030
  5758  09B5  03F5               	decf	??_escreveMesagem,f
  5759  09B6                     u3030:
  5760  09B6  0875               	movf	??_escreveMesagem,w
  5761  09B7  00F7               	movwf	??_escreveMesagem+2
  5762  09B8  0876               	movf	??_escreveMesagem+1,w
  5763  09B9  0084               	movwf	4
  5764  09BA  1783               	bsf	3,7
  5765  09BB  1C77               	btfss	??_escreveMesagem+2,0
  5766  09BC  1383               	bcf	3,7
  5767  09BD  0800               	movf	0,w
  5768  09BE  120A  158A  200D  120A  158A  	fcall	_LCD_escreve
  5769  09C3                     l2780:
  5770                           
  5771                           ;main.c: 445:     }
  5772  09C3  3001               	movlw	1
  5773  09C4  07F8               	addwf	escreveMesagem@i,f
  5774  09C5  1803               	skipnc
  5775  09C6  0AF9               	incf	escreveMesagem@i+1,f
  5776  09C7  3000               	movlw	0
  5777  09C8  07F9               	addwf	escreveMesagem@i+1,f
  5778  09C9                     l2782:
  5779  09C9  0878               	movf	escreveMesagem@i,w
  5780  09CA  0773               	addwf	escreveMesagem@texto,w
  5781  09CB  00F6               	movwf	??_escreveMesagem+1
  5782  09CC  0874               	movf	escreveMesagem@texto+1,w
  5783  09CD  00F5               	movwf	??_escreveMesagem
  5784  09CE  1803               	skipnc
  5785  09CF  0AF5               	incf	??_escreveMesagem,f
  5786  09D0  1FF8               	btfss	escreveMesagem@i,7
  5787  09D1  29D3               	goto	u3040
  5788  09D2  03F5               	decf	??_escreveMesagem,f
  5789  09D3                     u3040:
  5790  09D3  0875               	movf	??_escreveMesagem,w
  5791  09D4  00F7               	movwf	??_escreveMesagem+2
  5792  09D5  0876               	movf	??_escreveMesagem+1,w
  5793  09D6  0084               	movwf	4
  5794  09D7  1783               	bsf	3,7
  5795  09D8  1C77               	btfss	??_escreveMesagem+2,0
  5796  09D9  1383               	bcf	3,7
  5797  09DA  0800               	movf	0,w
  5798  09DB  1D03               	btfss	3,2
  5799  09DC  29DE               	goto	u3051
  5800  09DD  29DF               	goto	u3050
  5801  09DE                     u3051:
  5802  09DE  29AC               	goto	l2778
  5803  09DF                     u3050:
  5804  09DF                     l269:
  5805  09DF  0008               	return
  5806  09E0                     __end_of_escreveMesagem:
  5807                           
  5808                           	psect	text13
  5809  17F0                     __ptext13:	
  5810 ;; *************** function _LCD_linha1 *****************
  5811 ;; Defined at:
  5812 ;;		line 65 in file "./lcd.h"
  5813 ;; Parameters:    Size  Location     Type
  5814 ;;		None
  5815 ;; Auto vars:     Size  Location     Type
  5816 ;;		None
  5817 ;; Return value:  Size  Location     Type
  5818 ;;                  1    wreg      void 
  5819 ;; Registers used:
  5820 ;;		wreg, status,2, status,0, btemp+1, pclath, cstack
  5821 ;; Tracked objects:
  5822 ;;		On entry : 0/0
  5823 ;;		On exit  : 0/0
  5824 ;;		Unchanged: 0/0
  5825 ;; Data sizes:     COMMON   BANK0   BANK1   BANK3   BANK2
  5826 ;;      Params:         0       0       0       0       0
  5827 ;;      Locals:         0       0       0       0       0
  5828 ;;      Temps:          0       0       0       0       0
  5829 ;;      Totals:         0       0       0       0       0
  5830 ;;Total ram usage:        0 bytes
  5831 ;; Hardware stack levels used: 1
  5832 ;; Hardware stack levels required when called: 1
  5833 ;; This function calls:
  5834 ;;		_delay
  5835 ;; This function is called by:
  5836 ;;		_telaInicial
  5837 ;;		_validaUser
  5838 ;;		_listaZonas
  5839 ;; This function uses a non-reentrant model
  5840 ;;
  5841                           
  5842                           
  5843                           ;psect for function _LCD_linha1
  5844  17F0                     _LCD_linha1:
  5845  17F0                     l2308:	
  5846                           ;incstack = 0
  5847                           ; Regs used in _LCD_linha1: [wreg+status,2+status,0+btemp+1+pclath+cstack]
  5848                           
  5849                           
  5850                           ;./lcd.h: 66:     PORTD = 0x02;
  5851  17F0  3002               	movlw	2
  5852  17F1  1283               	bcf	3,5	;RP0=0, select bank0
  5853  17F2  1303               	bcf	3,6	;RP1=0, select bank0
  5854  17F3  0088               	movwf	8	;volatile
  5855  17F4                     l2310:
  5856                           
  5857                           ;./lcd.h: 67:     RA5 = 0;
  5858  17F4  1285               	bcf	5,5	;volatile
  5859  17F5                     l2312:
  5860                           
  5861                           ;./lcd.h: 68:     RA4 = 0;
  5862  17F5  1205               	bcf	5,4	;volatile
  5863  17F6                     l2314:
  5864                           
  5865                           ;./lcd.h: 69:     RA3=0;
  5866  17F6  1185               	bcf	5,3	;volatile
  5867  17F7                     l2316:
  5868                           
  5869                           ;./lcd.h: 70:     delay();
  5870  17F7  120A  158A  2031  160A  118A  	fcall	_delay
  5871  17FC                     l2318:
  5872                           
  5873                           ;./lcd.h: 71:  RA3 = 1;
  5874  17FC  1283               	bcf	3,5	;RP0=0, select bank0
  5875  17FD  1303               	bcf	3,6	;RP1=0, select bank0
  5876  17FE  1585               	bsf	5,3	;volatile
  5877  17FF                     l81:
  5878  17FF  0008               	return
  5879  1800                     __end_of_LCD_linha1:
  5880                           
  5881                           	psect	text14
  5882  17E0                     __ptext14:	
  5883 ;; *************** function _LCD_limpa *****************
  5884 ;; Defined at:
  5885 ;;		line 56 in file "./lcd.h"
  5886 ;; Parameters:    Size  Location     Type
  5887 ;;		None
  5888 ;; Auto vars:     Size  Location     Type
  5889 ;;		None
  5890 ;; Return value:  Size  Location     Type
  5891 ;;                  1    wreg      void 
  5892 ;; Registers used:
  5893 ;;		wreg, status,2, status,0, btemp+1, pclath, cstack
  5894 ;; Tracked objects:
  5895 ;;		On entry : 0/0
  5896 ;;		On exit  : 0/0
  5897 ;;		Unchanged: 0/0
  5898 ;; Data sizes:     COMMON   BANK0   BANK1   BANK3   BANK2
  5899 ;;      Params:         0       0       0       0       0
  5900 ;;      Locals:         0       0       0       0       0
  5901 ;;      Temps:          0       0       0       0       0
  5902 ;;      Totals:         0       0       0       0       0
  5903 ;;Total ram usage:        0 bytes
  5904 ;; Hardware stack levels used: 1
  5905 ;; Hardware stack levels required when called: 1
  5906 ;; This function calls:
  5907 ;;		_delay
  5908 ;; This function is called by:
  5909 ;;		_main
  5910 ;;		_validaUser
  5911 ;;		_listaZonas
  5912 ;; This function uses a non-reentrant model
  5913 ;;
  5914                           
  5915                           
  5916                           ;psect for function _LCD_limpa
  5917  17E0                     _LCD_limpa:
  5918  17E0                     l2296:	
  5919                           ;incstack = 0
  5920                           ; Regs used in _LCD_limpa: [wreg+status,2+status,0+btemp+1+pclath+cstack]
  5921                           
  5922                           
  5923                           ;./lcd.h: 57:     PORTD = 0x01;
  5924  17E0  3001               	movlw	1
  5925  17E1  1283               	bcf	3,5	;RP0=0, select bank0
  5926  17E2  1303               	bcf	3,6	;RP1=0, select bank0
  5927  17E3  0088               	movwf	8	;volatile
  5928  17E4                     l2298:
  5929                           
  5930                           ;./lcd.h: 58:     RA5 = 0;
  5931  17E4  1285               	bcf	5,5	;volatile
  5932  17E5                     l2300:
  5933                           
  5934                           ;./lcd.h: 59:     RA4 = 0;
  5935  17E5  1205               	bcf	5,4	;volatile
  5936  17E6                     l2302:
  5937                           
  5938                           ;./lcd.h: 60:     RA3=0;
  5939  17E6  1185               	bcf	5,3	;volatile
  5940  17E7                     l2304:
  5941                           
  5942                           ;./lcd.h: 61:     delay();
  5943  17E7  120A  158A  2031  160A  118A  	fcall	_delay
  5944  17EC                     l2306:
  5945                           
  5946                           ;./lcd.h: 62:  RA3 = 1;
  5947  17EC  1283               	bcf	3,5	;RP0=0, select bank0
  5948  17ED  1303               	bcf	3,6	;RP1=0, select bank0
  5949  17EE  1585               	bsf	5,3	;volatile
  5950  17EF                     l78:
  5951  17EF  0008               	return
  5952  17F0                     __end_of_LCD_limpa:
  5953                           
  5954                           	psect	text15
  5955  0976                     __ptext15:	
  5956 ;; *************** function _LCD_init *****************
  5957 ;; Defined at:
  5958 ;;		line 31 in file "./lcd.h"
  5959 ;; Parameters:    Size  Location     Type
  5960 ;;		None
  5961 ;; Auto vars:     Size  Location     Type
  5962 ;;		None
  5963 ;; Return value:  Size  Location     Type
  5964 ;;                  1    wreg      void 
  5965 ;; Registers used:
  5966 ;;		wreg, status,2, status,0, btemp+1, pclath, cstack
  5967 ;; Tracked objects:
  5968 ;;		On entry : 0/0
  5969 ;;		On exit  : 0/0
  5970 ;;		Unchanged: 0/0
  5971 ;; Data sizes:     COMMON   BANK0   BANK1   BANK3   BANK2
  5972 ;;      Params:         0       0       0       0       0
  5973 ;;      Locals:         0       0       0       0       0
  5974 ;;      Temps:          0       0       0       0       0
  5975 ;;      Totals:         0       0       0       0       0
  5976 ;;Total ram usage:        0 bytes
  5977 ;; Hardware stack levels used: 1
  5978 ;; Hardware stack levels required when called: 2
  5979 ;; This function calls:
  5980 ;;		_LCD_enable
  5981 ;;		_init
  5982 ;; This function is called by:
  5983 ;;		_main
  5984 ;;		_listaZonas
  5985 ;; This function uses a non-reentrant model
  5986 ;;
  5987                           
  5988                           
  5989                           ;psect for function _LCD_init
  5990  0976                     _LCD_init:
  5991  0976                     l2274:	
  5992                           ;incstack = 0
  5993                           ; Regs used in _LCD_init: [wreg+status,2+status,0+btemp+1+pclath+cstack]
  5994                           
  5995                           
  5996                           ;./lcd.h: 33:     init();
  5997  0976  160A  118A  27B6  120A  158A  	fcall	_init
  5998  097B                     l2276:
  5999                           
  6000                           ;./lcd.h: 34:  PORTD = 0X1;
  6001  097B  3001               	movlw	1
  6002  097C  1283               	bcf	3,5	;RP0=0, select bank0
  6003  097D  1303               	bcf	3,6	;RP1=0, select bank0
  6004  097E  0088               	movwf	8	;volatile
  6005  097F                     l2278:
  6006                           
  6007                           ;./lcd.h: 35:  LCD_enable();
  6008  097F  160A  118A  27C2  120A  158A  	fcall	_LCD_enable
  6009  0984                     l2280:
  6010                           
  6011                           ;./lcd.h: 36:  PORTD = 0X38;
  6012  0984  3038               	movlw	56
  6013  0985  1283               	bcf	3,5	;RP0=0, select bank0
  6014  0986  1303               	bcf	3,6	;RP1=0, select bank0
  6015  0987  0088               	movwf	8	;volatile
  6016  0988                     l2282:
  6017                           
  6018                           ;./lcd.h: 37:  LCD_enable();
  6019  0988  160A  118A  27C2  120A  158A  	fcall	_LCD_enable
  6020  098D                     l2284:
  6021                           
  6022                           ;./lcd.h: 38:  PORTD = 0X0e;
  6023  098D  300E               	movlw	14
  6024  098E  1283               	bcf	3,5	;RP0=0, select bank0
  6025  098F  1303               	bcf	3,6	;RP1=0, select bank0
  6026  0990  0088               	movwf	8	;volatile
  6027  0991                     l2286:
  6028                           
  6029                           ;./lcd.h: 39:  LCD_enable();
  6030  0991  160A  118A  27C2  120A  158A  	fcall	_LCD_enable
  6031  0996                     l2288:
  6032                           
  6033                           ;./lcd.h: 40:  PORTD = 0X06;
  6034  0996  3006               	movlw	6
  6035  0997  1283               	bcf	3,5	;RP0=0, select bank0
  6036  0998  1303               	bcf	3,6	;RP1=0, select bank0
  6037  0999  0088               	movwf	8	;volatile
  6038  099A                     l2290:
  6039                           
  6040                           ;./lcd.h: 41:  LCD_enable();
  6041  099A  160A  118A  27C2  120A  158A  	fcall	_LCD_enable
  6042  099F                     l2292:
  6043                           
  6044                           ;./lcd.h: 42:  PORTD = 0X80;
  6045  099F  3080               	movlw	128
  6046  09A0  1283               	bcf	3,5	;RP0=0, select bank0
  6047  09A1  1303               	bcf	3,6	;RP1=0, select bank0
  6048  09A2  0088               	movwf	8	;volatile
  6049  09A3                     l2294:
  6050                           
  6051                           ;./lcd.h: 43:  LCD_enable();
  6052  09A3  160A  118A  27C2  120A  158A  	fcall	_LCD_enable
  6053  09A8                     l72:
  6054  09A8  0008               	return
  6055  09A9                     __end_of_LCD_init:
  6056                           
  6057                           	psect	text16
  6058  17B6                     __ptext16:	
  6059 ;; *************** function _init *****************
  6060 ;; Defined at:
  6061 ;;		line 23 in file "./lcd.h"
  6062 ;; Parameters:    Size  Location     Type
  6063 ;;		None
  6064 ;; Auto vars:     Size  Location     Type
  6065 ;;		None
  6066 ;; Return value:  Size  Location     Type
  6067 ;;                  1    wreg      void 
  6068 ;; Registers used:
  6069 ;;		wreg, status,2
  6070 ;; Tracked objects:
  6071 ;;		On entry : 0/0
  6072 ;;		On exit  : 0/0
  6073 ;;		Unchanged: 0/0
  6074 ;; Data sizes:     COMMON   BANK0   BANK1   BANK3   BANK2
  6075 ;;      Params:         0       0       0       0       0
  6076 ;;      Locals:         0       0       0       0       0
  6077 ;;      Temps:          0       0       0       0       0
  6078 ;;      Totals:         0       0       0       0       0
  6079 ;;Total ram usage:        0 bytes
  6080 ;; Hardware stack levels used: 1
  6081 ;; This function calls:
  6082 ;;		Nothing
  6083 ;; This function is called by:
  6084 ;;		_LCD_init
  6085 ;; This function uses a non-reentrant model
  6086 ;;
  6087                           
  6088                           
  6089                           ;psect for function _init
  6090  17B6                     _init:
  6091  17B6                     l2222:	
  6092                           ;incstack = 0
  6093                           ; Regs used in _init: [wreg+status,2]
  6094                           
  6095                           
  6096                           ;./lcd.h: 25:  ADCON1 = 0X07;
  6097  17B6  3007               	movlw	7
  6098  17B7  1683               	bsf	3,5	;RP0=1, select bank1
  6099  17B8  1303               	bcf	3,6	;RP1=0, select bank1
  6100  17B9  009F               	movwf	31	;volatile
  6101  17BA                     l2224:
  6102                           
  6103                           ;./lcd.h: 26:      RA1=1;
  6104  17BA  1283               	bcf	3,5	;RP0=0, select bank0
  6105  17BB  1303               	bcf	3,6	;RP1=0, select bank0
  6106  17BC  1485               	bsf	5,1	;volatile
  6107  17BD                     l2226:
  6108                           
  6109                           ;./lcd.h: 27:  TRISA = 0X00;
  6110  17BD  1683               	bsf	3,5	;RP0=1, select bank1
  6111  17BE  1303               	bcf	3,6	;RP1=0, select bank1
  6112  17BF  0185               	clrf	5	;volatile
  6113  17C0                     l2228:
  6114                           
  6115                           ;./lcd.h: 28:  TRISD = 0X00;
  6116  17C0  0188               	clrf	8	;volatile
  6117  17C1                     l69:
  6118  17C1  0008               	return
  6119  17C2                     __end_of_init:
  6120                           
  6121                           	psect	text17
  6122  17C2                     __ptext17:	
  6123 ;; *************** function _LCD_enable *****************
  6124 ;; Defined at:
  6125 ;;		line 85 in file "./lcd.h"
  6126 ;; Parameters:    Size  Location     Type
  6127 ;;		None
  6128 ;; Auto vars:     Size  Location     Type
  6129 ;;		None
  6130 ;; Return value:  Size  Location     Type
  6131 ;;                  1    wreg      void 
  6132 ;; Registers used:
  6133 ;;		wreg, status,2, status,0, btemp+1, pclath, cstack
  6134 ;; Tracked objects:
  6135 ;;		On entry : 0/0
  6136 ;;		On exit  : 0/0
  6137 ;;		Unchanged: 0/0
  6138 ;; Data sizes:     COMMON   BANK0   BANK1   BANK3   BANK2
  6139 ;;      Params:         0       0       0       0       0
  6140 ;;      Locals:         0       0       0       0       0
  6141 ;;      Temps:          0       0       0       0       0
  6142 ;;      Totals:         0       0       0       0       0
  6143 ;;Total ram usage:        0 bytes
  6144 ;; Hardware stack levels used: 1
  6145 ;; Hardware stack levels required when called: 1
  6146 ;; This function calls:
  6147 ;;		_delay
  6148 ;; This function is called by:
  6149 ;;		_LCD_init
  6150 ;; This function uses a non-reentrant model
  6151 ;;
  6152                           
  6153                           
  6154                           ;psect for function _LCD_enable
  6155  17C2                     _LCD_enable:
  6156  17C2                     l2230:	
  6157                           ;incstack = 0
  6158                           ; Regs used in _LCD_enable: [wreg+status,2+status,0+btemp+1+pclath+cstack]
  6159                           
  6160                           
  6161                           ;./lcd.h: 87:  RA5 = 0;
  6162  17C2  1283               	bcf	3,5	;RP0=0, select bank0
  6163  17C3  1303               	bcf	3,6	;RP1=0, select bank0
  6164  17C4  1285               	bcf	5,5	;volatile
  6165                           
  6166                           ;./lcd.h: 88:  RA4 = 0;
  6167  17C5  1205               	bcf	5,4	;volatile
  6168                           
  6169                           ;./lcd.h: 89:  RA3 = 0;
  6170  17C6  1185               	bcf	5,3	;volatile
  6171  17C7                     l2232:
  6172                           
  6173                           ;./lcd.h: 90:  delay();
  6174  17C7  120A  158A  2031  160A  118A  	fcall	_delay
  6175  17CC                     l2234:
  6176                           
  6177                           ;./lcd.h: 91:  RA3 = 1;
  6178  17CC  1283               	bcf	3,5	;RP0=0, select bank0
  6179  17CD  1303               	bcf	3,6	;RP1=0, select bank0
  6180  17CE  1585               	bsf	5,3	;volatile
  6181  17CF                     l87:
  6182  17CF  0008               	return
  6183  17D0                     __end_of_LCD_enable:
  6184                           
  6185                           	psect	text18
  6186  0947                     __ptext18:	
  6187 ;; *************** function _leituraADC *****************
  6188 ;; Defined at:
  6189 ;;		line 458 in file "main.c"
  6190 ;; Parameters:    Size  Location     Type
  6191 ;;  canal           1    wreg     unsigned char 
  6192 ;; Auto vars:     Size  Location     Type
  6193 ;;  canal           1    6[COMMON] unsigned char 
  6194 ;;  leitura         2    4[COMMON] unsigned int 
  6195 ;; Return value:  Size  Location     Type
  6196 ;;                  2    0[COMMON] unsigned int 
  6197 ;; Registers used:
  6198 ;;		wreg, status,2, status,0
  6199 ;; Tracked objects:
  6200 ;;		On entry : 0/0
  6201 ;;		On exit  : 0/0
  6202 ;;		Unchanged: 0/0
  6203 ;; Data sizes:     COMMON   BANK0   BANK1   BANK3   BANK2
  6204 ;;      Params:         2       0       0       0       0
  6205 ;;      Locals:         3       0       0       0       0
  6206 ;;      Temps:          2       0       0       0       0
  6207 ;;      Totals:         7       0       0       0       0
  6208 ;;Total ram usage:        7 bytes
  6209 ;; Hardware stack levels used: 1
  6210 ;; This function calls:
  6211 ;;		Nothing
  6212 ;; This function is called by:
  6213 ;;		_main
  6214 ;; This function uses a non-reentrant model
  6215 ;;
  6216                           
  6217                           
  6218                           ;psect for function _leituraADC
  6219  0947                     _leituraADC:
  6220                           
  6221                           ;incstack = 0
  6222                           ; Regs used in _leituraADC: [wreg+status,2+status,0]
  6223                           ;leituraADC@canal stored from wreg
  6224  0947  00F6               	movwf	leituraADC@canal
  6225  0948                     l2644:
  6226                           
  6227                           ;main.c: 459:     unsigned int leitura;;main.c: 461:     ADCON0 &= 0xC5;
  6228  0948  30C5               	movlw	197
  6229  0949  00F2               	movwf	??_leituraADC
  6230  094A  0872               	movf	??_leituraADC,w
  6231  094B  1283               	bcf	3,5	;RP0=0, select bank0
  6232  094C  1303               	bcf	3,6	;RP1=0, select bank0
  6233  094D  059F               	andwf	31,f	;volatile
  6234                           
  6235                           ;main.c: 462:     ADCON0 |= (canal<<3);
  6236  094E  0876               	movf	leituraADC@canal,w	;volatile
  6237  094F  00F2               	movwf	??_leituraADC
  6238  0950  3002               	movlw	2
  6239  0951                     u2875:
  6240  0951  1003               	clrc
  6241  0952  0DF2               	rlf	??_leituraADC,f
  6242  0953  3EFF               	addlw	-1
  6243  0954  1D03               	skipz
  6244  0955  2951               	goto	u2875
  6245  0956  1003               	clrc
  6246  0957  0D72               	rlf	??_leituraADC,w
  6247  0958  00F3               	movwf	??_leituraADC+1
  6248  0959  0873               	movf	??_leituraADC+1,w
  6249  095A  049F               	iorwf	31,f	;volatile
  6250  095B                     l2646:
  6251                           
  6252                           ;main.c: 463:     _delay((unsigned long)((2)*(20000000/4000.0)));
  6253  095B  300D               	movlw	13
  6254  095C  00F3               	movwf	??_leituraADC+1
  6255  095D  30FB               	movlw	251
  6256  095E  00F2               	movwf	??_leituraADC
  6257  095F                     u3437:
  6258  095F  0BF2               	decfsz	??_leituraADC,f
  6259  0960  295F               	goto	u3437
  6260  0961  0BF3               	decfsz	??_leituraADC+1,f
  6261  0962  295F               	goto	u3437
  6262  0963  2964               	nop2
  6263  0964                     l2648:
  6264                           
  6265                           ;main.c: 466:     GO_nDONE = 1;
  6266  0964  1283               	bcf	3,5	;RP0=0, select bank0
  6267  0965  1303               	bcf	3,6	;RP1=0, select bank0
  6268  0966  151F               	bsf	31,2	;volatile
  6269  0967                     l275:	
  6270                           ;main.c: 469:     while (GO_nDONE);
  6271                           
  6272  0967  191F               	btfsc	31,2	;volatile
  6273  0968  296A               	goto	u2881
  6274  0969  296B               	goto	u2880
  6275  096A                     u2881:
  6276  096A  2967               	goto	l275
  6277  096B                     u2880:
  6278  096B                     l2650:
  6279                           
  6280                           ;main.c: 471:     leitura = (ADRESH<<8) + ADRESL;
  6281  096B  081E               	movf	30,w	;volatile
  6282  096C  00F5               	movwf	leituraADC@leitura+1
  6283  096D  1683               	bsf	3,5	;RP0=1, select bank1
  6284  096E  1303               	bcf	3,6	;RP1=0, select bank1
  6285  096F  081E               	movf	30,w	;volatile
  6286  0970  00F4               	movwf	leituraADC@leitura
  6287                           
  6288                           ;main.c: 472:     return leitura;
  6289  0971  0875               	movf	leituraADC@leitura+1,w
  6290  0972  00F1               	movwf	?_leituraADC+1
  6291  0973  0874               	movf	leituraADC@leitura,w
  6292  0974  00F0               	movwf	?_leituraADC
  6293  0975                     l278:
  6294  0975  0008               	return
  6295  0976                     __end_of_leituraADC:
  6296                           
  6297                           	psect	text19
  6298  0800                     __ptext19:	
  6299 ;; *************** function _inicioADC *****************
  6300 ;; Defined at:
  6301 ;;		line 448 in file "main.c"
  6302 ;; Parameters:    Size  Location     Type
  6303 ;;		None
  6304 ;; Auto vars:     Size  Location     Type
  6305 ;;		None
  6306 ;; Return value:  Size  Location     Type
  6307 ;;                  1    wreg      void 
  6308 ;; Registers used:
  6309 ;;		wreg
  6310 ;; Tracked objects:
  6311 ;;		On entry : 0/0
  6312 ;;		On exit  : 0/0
  6313 ;;		Unchanged: 0/0
  6314 ;; Data sizes:     COMMON   BANK0   BANK1   BANK3   BANK2
  6315 ;;      Params:         0       0       0       0       0
  6316 ;;      Locals:         0       0       0       0       0
  6317 ;;      Temps:          0       0       0       0       0
  6318 ;;      Totals:         0       0       0       0       0
  6319 ;;Total ram usage:        0 bytes
  6320 ;; Hardware stack levels used: 1
  6321 ;; This function calls:
  6322 ;;		Nothing
  6323 ;; This function is called by:
  6324 ;;		_main
  6325 ;; This function uses a non-reentrant model
  6326 ;;
  6327                           
  6328                           
  6329                           ;psect for function _inicioADC
  6330  0800                     _inicioADC:
  6331  0800                     l2536:	
  6332                           ;incstack = 0
  6333                           ; Regs used in _inicioADC: [wreg]
  6334                           
  6335                           
  6336                           ;main.c: 449:     TRISA = 0xFF;
  6337  0800  30FF               	movlw	255
  6338  0801  1683               	bsf	3,5	;RP0=1, select bank1
  6339  0802  1303               	bcf	3,6	;RP1=0, select bank1
  6340  0803  0085               	movwf	5	;volatile
  6341                           
  6342                           ;main.c: 451:     ADCON0 = 0x81;
  6343  0804  3081               	movlw	129
  6344  0805  1283               	bcf	3,5	;RP0=0, select bank0
  6345  0806  1303               	bcf	3,6	;RP1=0, select bank0
  6346  0807  009F               	movwf	31	;volatile
  6347                           
  6348                           ;main.c: 455:     ADCON1 = 0x80;
  6349  0808  3080               	movlw	128
  6350  0809  1683               	bsf	3,5	;RP0=1, select bank1
  6351  080A  1303               	bcf	3,6	;RP1=0, select bank1
  6352  080B  009F               	movwf	31	;volatile
  6353  080C                     l272:
  6354  080C  0008               	return
  6355  080D                     __end_of_inicioADC:
  6356                           
  6357                           	psect	text20
  6358  09E0                     __ptext20:	
  6359 ;; *************** function _Linha2 *****************
  6360 ;; Defined at:
  6361 ;;		line 308 in file "main.c"
  6362 ;; Parameters:    Size  Location     Type
  6363 ;;		None
  6364 ;; Auto vars:     Size  Location     Type
  6365 ;;  i               2    7[COMMON] int 
  6366 ;; Return value:  Size  Location     Type
  6367 ;;                  1    wreg      void 
  6368 ;; Registers used:
  6369 ;;		wreg, fsr0l, fsr0h, status,2, status,0, btemp+1, pclath, cstack
  6370 ;; Tracked objects:
  6371 ;;		On entry : 0/0
  6372 ;;		On exit  : 0/0
  6373 ;;		Unchanged: 0/0
  6374 ;; Data sizes:     COMMON   BANK0   BANK1   BANK3   BANK2
  6375 ;;      Params:         0       0       0       0       0
  6376 ;;      Locals:         2       0       0       0       0
  6377 ;;      Temps:          2       0       0       0       0
  6378 ;;      Totals:         4       0       0       0       0
  6379 ;;Total ram usage:        4 bytes
  6380 ;; Hardware stack levels used: 1
  6381 ;; Hardware stack levels required when called: 3
  6382 ;; This function calls:
  6383 ;;		_LCD_escreve
  6384 ;;		_LCD_linha2
  6385 ;;		_espacoLivre
  6386 ;;		_strlen
  6387 ;; This function is called by:
  6388 ;;		_main
  6389 ;; This function uses a non-reentrant model
  6390 ;;
  6391                           
  6392                           
  6393                           ;psect for function _Linha2
  6394  09E0                     _Linha2:
  6395  09E0                     l2550:	
  6396                           ;incstack = 0
  6397                           ; Regs used in _Linha2: [wreg-fsr0h+status,2+status,0+btemp+1+pclath+cstack]
  6398                           
  6399                           
  6400                           ;main.c: 309:     LCD_linha2();
  6401  09E0  160A  118A  27D0  120A  158A  	fcall	_LCD_linha2
  6402                           
  6403                           ;main.c: 310:     espacoLivre();
  6404  09E5  120A  158A  2060  120A  158A  	fcall	_espacoLivre
  6405  09EA                     l2552:
  6406                           
  6407                           ;main.c: 311:     for (int i = 0; i <= strlen(msgMascara)-1; i++){
  6408  09EA  01F7               	clrf	Linha2@i
  6409  09EB  01F8               	clrf	Linha2@i+1
  6410  09EC  29FD               	goto	l2558
  6411  09ED                     l2554:
  6412                           
  6413                           ;main.c: 312:         LCD_escreve(msgMascara[i]);
  6414  09ED  0877               	movf	Linha2@i,w
  6415  09EE  3E5A               	addlw	(low (_msgMascara| 0))& (0+255)
  6416  09EF  0084               	movwf	4
  6417  09F0  1383               	bcf	3,7	;select IRP bank0
  6418  09F1  0800               	movf	0,w
  6419  09F2  120A  158A  200D  120A  158A  	fcall	_LCD_escreve
  6420  09F7                     l2556:
  6421                           
  6422                           ;main.c: 313:     }
  6423  09F7  3001               	movlw	1
  6424  09F8  07F7               	addwf	Linha2@i,f
  6425  09F9  1803               	skipnc
  6426  09FA  0AF8               	incf	Linha2@i+1,f
  6427  09FB  3000               	movlw	0
  6428  09FC  07F8               	addwf	Linha2@i+1,f
  6429  09FD                     l2558:
  6430  09FD  305A               	movlw	(low (_msgMascara| 0))& (0+255)
  6431  09FE  120A  158A  2047  120A  158A  	fcall	_strlen
  6432  0A03  0870               	movf	?_strlen,w
  6433  0A04  3EFF               	addlw	255
  6434  0A05  00F5               	movwf	??_Linha2
  6435  0A06  0871               	movf	?_strlen+1,w
  6436  0A07  1803               	skipnc
  6437  0A08  3E01               	addlw	1
  6438  0A09  3EFF               	addlw	255
  6439  0A0A  00F6               	movwf	??_Linha2+1
  6440  0A0B  0878               	movf	Linha2@i+1,w
  6441  0A0C  0276               	subwf	??_Linha2+1,w
  6442  0A0D  1D03               	skipz
  6443  0A0E  2A11               	goto	u2805
  6444  0A0F  0877               	movf	Linha2@i,w
  6445  0A10  0275               	subwf	??_Linha2,w
  6446  0A11                     u2805:
  6447  0A11  1803               	skipnc
  6448  0A12  2A14               	goto	u2801
  6449  0A13  2A15               	goto	u2800
  6450  0A14                     u2801:
  6451  0A14  29ED               	goto	l2554
  6452  0A15                     u2800:
  6453  0A15                     l2560:
  6454                           
  6455                           ;main.c: 314:     espacoLivre();
  6456  0A15  120A  158A  2060  120A  158A  	fcall	_espacoLivre
  6457  0A1A                     l218:
  6458  0A1A  0008               	return
  6459  0A1B                     __end_of_Linha2:
  6460                           
  6461                           	psect	text21
  6462  0847                     __ptext21:	
  6463 ;; *************** function _strlen *****************
  6464 ;; Defined at:
  6465 ;;		line 4 in file "C:\Program Files\Microchip\xc8\v2.32\pic\sources\c90\common\strlen.c"
  6466 ;; Parameters:    Size  Location     Type
  6467 ;;  s               1    wreg     PTR const unsigned char 
  6468 ;;		 -> msgMascara(5), msgDigiteSenha(15), 
  6469 ;; Auto vars:     Size  Location     Type
  6470 ;;  s               1    4[COMMON] PTR const unsigned char 
  6471 ;;		 -> msgMascara(5), msgDigiteSenha(15), 
  6472 ;;  cp              1    3[COMMON] PTR const unsigned char 
  6473 ;;		 -> msgMascara(5), msgDigiteSenha(15), 
  6474 ;; Return value:  Size  Location     Type
  6475 ;;                  2    0[COMMON] unsigned int 
  6476 ;; Registers used:
  6477 ;;		wreg, fsr0l, fsr0h, status,2, status,0
  6478 ;; Tracked objects:
  6479 ;;		On entry : 0/0
  6480 ;;		On exit  : 0/0
  6481 ;;		Unchanged: 0/0
  6482 ;; Data sizes:     COMMON   BANK0   BANK1   BANK3   BANK2
  6483 ;;      Params:         2       0       0       0       0
  6484 ;;      Locals:         2       0       0       0       0
  6485 ;;      Temps:          1       0       0       0       0
  6486 ;;      Totals:         5       0       0       0       0
  6487 ;;Total ram usage:        5 bytes
  6488 ;; Hardware stack levels used: 1
  6489 ;; This function calls:
  6490 ;;		Nothing
  6491 ;; This function is called by:
  6492 ;;		_telaInicial
  6493 ;;		_Linha2
  6494 ;; This function uses a non-reentrant model
  6495 ;;
  6496                           
  6497                           
  6498                           ;psect for function _strlen
  6499  0847                     _strlen:
  6500                           
  6501                           ;incstack = 0
  6502                           ; Regs used in _strlen: [wreg-fsr0h+status,2+status,0]
  6503                           ;strlen@s stored from wreg
  6504  0847  00F4               	movwf	strlen@s
  6505  0848                     l2490:
  6506  0848  0874               	movf	strlen@s,w
  6507  0849  00F2               	movwf	??_strlen
  6508  084A  0872               	movf	??_strlen,w
  6509  084B  00F3               	movwf	strlen@cp
  6510  084C  2851               	goto	l2494
  6511  084D                     l2492:
  6512  084D  3001               	movlw	1
  6513  084E  00F2               	movwf	??_strlen
  6514  084F  0872               	movf	??_strlen,w
  6515  0850  07F3               	addwf	strlen@cp,f
  6516  0851                     l2494:
  6517  0851  0873               	movf	strlen@cp,w
  6518  0852  0084               	movwf	4
  6519  0853  1383               	bcf	3,7	;select IRP bank0
  6520  0854  0800               	movf	0,w
  6521  0855  1D03               	btfss	3,2
  6522  0856  2858               	goto	u2721
  6523  0857  2859               	goto	u2720
  6524  0858                     u2721:
  6525  0858  284D               	goto	l2492
  6526  0859                     u2720:
  6527  0859                     l2496:
  6528  0859  0874               	movf	strlen@s,w
  6529  085A  0273               	subwf	strlen@cp,w
  6530  085B  00F0               	movwf	?_strlen
  6531  085C  01F1               	clrf	?_strlen+1
  6532  085D  1BF0               	btfsc	?_strlen,7
  6533  085E  03F1               	decf	?_strlen+1,f
  6534  085F                     l826:
  6535  085F  0008               	return
  6536  0860                     __end_of_strlen:
  6537                           
  6538                           	psect	text22
  6539  0860                     __ptext22:	
  6540 ;; *************** function _espacoLivre *****************
  6541 ;; Defined at:
  6542 ;;		line 319 in file "main.c"
  6543 ;; Parameters:    Size  Location     Type
  6544 ;;		None
  6545 ;; Auto vars:     Size  Location     Type
  6546 ;;  i               2    3[COMMON] int 
  6547 ;; Return value:  Size  Location     Type
  6548 ;;                  1    wreg      void 
  6549 ;; Registers used:
  6550 ;;		wreg, status,2, status,0, btemp+1, pclath, cstack
  6551 ;; Tracked objects:
  6552 ;;		On entry : 0/0
  6553 ;;		On exit  : 0/0
  6554 ;;		Unchanged: 0/0
  6555 ;; Data sizes:     COMMON   BANK0   BANK1   BANK3   BANK2
  6556 ;;      Params:         0       0       0       0       0
  6557 ;;      Locals:         2       0       0       0       0
  6558 ;;      Temps:          0       0       0       0       0
  6559 ;;      Totals:         2       0       0       0       0
  6560 ;;Total ram usage:        2 bytes
  6561 ;; Hardware stack levels used: 1
  6562 ;; Hardware stack levels required when called: 2
  6563 ;; This function calls:
  6564 ;;		_LCD_escreve
  6565 ;;		_LCD_linha2
  6566 ;; This function is called by:
  6567 ;;		_Linha2
  6568 ;; This function uses a non-reentrant model
  6569 ;;
  6570                           
  6571                           
  6572                           ;psect for function _espacoLivre
  6573  0860                     _espacoLivre:
  6574  0860                     l2500:	
  6575                           ;incstack = 0
  6576                           ; Regs used in _espacoLivre: [wreg+status,2+status,0+btemp+1+pclath+cstack]
  6577                           
  6578                           
  6579                           ;main.c: 320:     LCD_linha2();
  6580  0860  160A  118A  27D0  120A  158A  	fcall	_LCD_linha2
  6581  0865                     l2502:
  6582                           
  6583                           ;main.c: 321:     for (int i = 0; i < 6; i++){
  6584  0865  01F3               	clrf	espacoLivre@i
  6585  0866  01F4               	clrf	espacoLivre@i+1
  6586  0867                     l2508:
  6587                           
  6588                           ;main.c: 322:         LCD_escreve(' ');
  6589  0867  3020               	movlw	32
  6590  0868  120A  158A  200D  120A  158A  	fcall	_LCD_escreve
  6591  086D                     l2510:
  6592                           
  6593                           ;main.c: 323:     }
  6594  086D  3001               	movlw	1
  6595  086E  07F3               	addwf	espacoLivre@i,f
  6596  086F  1803               	skipnc
  6597  0870  0AF4               	incf	espacoLivre@i+1,f
  6598  0871  3000               	movlw	0
  6599  0872  07F4               	addwf	espacoLivre@i+1,f
  6600  0873                     l2512:
  6601  0873  0874               	movf	espacoLivre@i+1,w
  6602  0874  3A80               	xorlw	128
  6603  0875  00FF               	movwf	btemp+1
  6604  0876  3080               	movlw	128
  6605  0877  027F               	subwf	btemp+1,w
  6606  0878  1D03               	skipz
  6607  0879  287C               	goto	u2735
  6608  087A  3006               	movlw	6
  6609  087B  0273               	subwf	espacoLivre@i,w
  6610  087C                     u2735:
  6611  087C  1C03               	skipc
  6612  087D  287F               	goto	u2731
  6613  087E  2880               	goto	u2730
  6614  087F                     u2731:
  6615  087F  2867               	goto	l2508
  6616  0880                     u2730:
  6617  0880                     l223:
  6618  0880  0008               	return
  6619  0881                     __end_of_espacoLivre:
  6620                           
  6621                           	psect	text23
  6622  17D0                     __ptext23:	
  6623 ;; *************** function _LCD_linha2 *****************
  6624 ;; Defined at:
  6625 ;;		line 73 in file "./lcd.h"
  6626 ;; Parameters:    Size  Location     Type
  6627 ;;		None
  6628 ;; Auto vars:     Size  Location     Type
  6629 ;;		None
  6630 ;; Return value:  Size  Location     Type
  6631 ;;                  1    wreg      void 
  6632 ;; Registers used:
  6633 ;;		wreg, status,2, status,0, btemp+1, pclath, cstack
  6634 ;; Tracked objects:
  6635 ;;		On entry : 0/0
  6636 ;;		On exit  : 0/0
  6637 ;;		Unchanged: 0/0
  6638 ;; Data sizes:     COMMON   BANK0   BANK1   BANK3   BANK2
  6639 ;;      Params:         0       0       0       0       0
  6640 ;;      Locals:         0       0       0       0       0
  6641 ;;      Temps:          0       0       0       0       0
  6642 ;;      Totals:         0       0       0       0       0
  6643 ;;Total ram usage:        0 bytes
  6644 ;; Hardware stack levels used: 1
  6645 ;; Hardware stack levels required when called: 1
  6646 ;; This function calls:
  6647 ;;		_delay
  6648 ;; This function is called by:
  6649 ;;		_Linha2
  6650 ;;		_espacoLivre
  6651 ;;		_listaZonas
  6652 ;; This function uses a non-reentrant model
  6653 ;;
  6654                           
  6655                           
  6656                           ;psect for function _LCD_linha2
  6657  17D0                     _LCD_linha2:
  6658  17D0                     l2248:	
  6659                           ;incstack = 0
  6660                           ; Regs used in _LCD_linha2: [wreg+status,2+status,0+btemp+1+pclath+cstack]
  6661                           
  6662                           
  6663                           ;./lcd.h: 74:     PORTD = 0xC0;
  6664  17D0  30C0               	movlw	192
  6665  17D1  1283               	bcf	3,5	;RP0=0, select bank0
  6666  17D2  1303               	bcf	3,6	;RP1=0, select bank0
  6667  17D3  0088               	movwf	8	;volatile
  6668  17D4                     l2250:
  6669                           
  6670                           ;./lcd.h: 75:     RA5 = 0;
  6671  17D4  1285               	bcf	5,5	;volatile
  6672  17D5                     l2252:
  6673                           
  6674                           ;./lcd.h: 76:     RA4 = 0;
  6675  17D5  1205               	bcf	5,4	;volatile
  6676  17D6                     l2254:
  6677                           
  6678                           ;./lcd.h: 77:     RA3=0;
  6679  17D6  1185               	bcf	5,3	;volatile
  6680  17D7                     l2256:
  6681                           
  6682                           ;./lcd.h: 78:     delay();
  6683  17D7  120A  158A  2031  160A  118A  	fcall	_delay
  6684  17DC                     l2258:
  6685                           
  6686                           ;./lcd.h: 79:  RA3 = 1;
  6687  17DC  1283               	bcf	3,5	;RP0=0, select bank0
  6688  17DD  1303               	bcf	3,6	;RP1=0, select bank0
  6689  17DE  1585               	bsf	5,3	;volatile
  6690  17DF                     l84:
  6691  17DF  0008               	return
  6692  17E0                     __end_of_LCD_linha2:
  6693                           
  6694                           	psect	text24
  6695  080D                     __ptext24:	
  6696 ;; *************** function _LCD_escreve *****************
  6697 ;; Defined at:
  6698 ;;		line 46 in file "./lcd.h"
  6699 ;; Parameters:    Size  Location     Type
  6700 ;;  x               1    wreg     unsigned char 
  6701 ;; Auto vars:     Size  Location     Type
  6702 ;;  x               1    2[COMMON] unsigned char 
  6703 ;; Return value:  Size  Location     Type
  6704 ;;                  1    wreg      void 
  6705 ;; Registers used:
  6706 ;;		wreg, status,2, status,0, btemp+1, pclath, cstack
  6707 ;; Tracked objects:
  6708 ;;		On entry : 0/0
  6709 ;;		On exit  : 0/0
  6710 ;;		Unchanged: 0/0
  6711 ;; Data sizes:     COMMON   BANK0   BANK1   BANK3   BANK2
  6712 ;;      Params:         0       0       0       0       0
  6713 ;;      Locals:         1       0       0       0       0
  6714 ;;      Temps:          0       0       0       0       0
  6715 ;;      Totals:         1       0       0       0       0
  6716 ;;Total ram usage:        1 bytes
  6717 ;; Hardware stack levels used: 1
  6718 ;; Hardware stack levels required when called: 1
  6719 ;; This function calls:
  6720 ;;		_delay
  6721 ;; This function is called by:
  6722 ;;		_teclado
  6723 ;;		_telaInicial
  6724 ;;		_Linha2
  6725 ;;		_espacoLivre
  6726 ;;		_escreveMesagem
  6727 ;;		_LCD_escreveFrase
  6728 ;; This function uses a non-reentrant model
  6729 ;;
  6730                           
  6731                           
  6732                           ;psect for function _LCD_escreve
  6733  080D                     _LCD_escreve:
  6734                           
  6735                           ;incstack = 0
  6736                           ; Regs used in _LCD_escreve: [wreg+status,2+status,0+btemp+1+pclath+cstack]
  6737                           ;LCD_escreve@x stored from wreg
  6738  080D  00F2               	movwf	LCD_escreve@x
  6739  080E                     l2236:
  6740                           
  6741                           ;./lcd.h: 46: void LCD_escreve(char x);./lcd.h: 47: {;./lcd.h: 48:  PORTD = x;
  6742  080E  0872               	movf	LCD_escreve@x,w
  6743  080F  1283               	bcf	3,5	;RP0=0, select bank0
  6744  0810  1303               	bcf	3,6	;RP1=0, select bank0
  6745  0811  0088               	movwf	8	;volatile
  6746  0812                     l2238:
  6747                           
  6748                           ;./lcd.h: 49:  RA5 = 1;
  6749  0812  1685               	bsf	5,5	;volatile
  6750  0813                     l2240:
  6751                           
  6752                           ;./lcd.h: 50:  RA4 = 0;
  6753  0813  1205               	bcf	5,4	;volatile
  6754  0814                     l2242:
  6755                           
  6756                           ;./lcd.h: 51:  RA3 = 0;
  6757  0814  1185               	bcf	5,3	;volatile
  6758  0815                     l2244:
  6759                           
  6760                           ;./lcd.h: 52:  delay();
  6761  0815  120A  158A  2031  120A  158A  	fcall	_delay
  6762  081A                     l2246:
  6763                           
  6764                           ;./lcd.h: 53:  RA3 = 1;
  6765  081A  1283               	bcf	3,5	;RP0=0, select bank0
  6766  081B  1303               	bcf	3,6	;RP1=0, select bank0
  6767  081C  1585               	bsf	5,3	;volatile
  6768  081D                     l75:
  6769  081D  0008               	return
  6770  081E                     __end_of_LCD_escreve:
  6771                           
  6772                           	psect	text25
  6773  0831                     __ptext25:	
  6774 ;; *************** function _delay *****************
  6775 ;; Defined at:
  6776 ;;		line 94 in file "./lcd.h"
  6777 ;; Parameters:    Size  Location     Type
  6778 ;;		None
  6779 ;; Auto vars:     Size  Location     Type
  6780 ;;  i               2    0[COMMON] int 
  6781 ;; Return value:  Size  Location     Type
  6782 ;;                  1    wreg      void 
  6783 ;; Registers used:
  6784 ;;		wreg, status,2, btemp+1
  6785 ;; Tracked objects:
  6786 ;;		On entry : 0/0
  6787 ;;		On exit  : 0/0
  6788 ;;		Unchanged: 0/0
  6789 ;; Data sizes:     COMMON   BANK0   BANK1   BANK3   BANK2
  6790 ;;      Params:         0       0       0       0       0
  6791 ;;      Locals:         2       0       0       0       0
  6792 ;;      Temps:          0       0       0       0       0
  6793 ;;      Totals:         2       0       0       0       0
  6794 ;;Total ram usage:        2 bytes
  6795 ;; Hardware stack levels used: 1
  6796 ;; This function calls:
  6797 ;;		Nothing
  6798 ;; This function is called by:
  6799 ;;		_LCD_escreve
  6800 ;;		_LCD_limpa
  6801 ;;		_LCD_linha1
  6802 ;;		_LCD_linha2
  6803 ;;		_LCD_enable
  6804 ;; This function uses a non-reentrant model
  6805 ;;
  6806                           
  6807                           
  6808                           ;psect for function _delay
  6809  0831                     _delay:
  6810  0831                     l2046:	
  6811                           ;incstack = 0
  6812                           ; Regs used in _delay: [wreg+status,2+btemp+1]
  6813                           
  6814                           
  6815                           ;./lcd.h: 96:  int i;;./lcd.h: 97:  for (i = 0;i < 5000;i++);
  6816  0831  01F0               	clrf	delay@i
  6817  0832  01F1               	clrf	delay@i+1
  6818  0833                     l2052:
  6819  0833  3001               	movlw	1
  6820  0834  07F0               	addwf	delay@i,f
  6821  0835  1803               	skipnc
  6822  0836  0AF1               	incf	delay@i+1,f
  6823  0837  3000               	movlw	0
  6824  0838  07F1               	addwf	delay@i+1,f
  6825  0839                     l2054:
  6826  0839  0871               	movf	delay@i+1,w
  6827  083A  3A80               	xorlw	128
  6828  083B  00FF               	movwf	btemp+1
  6829  083C  3093               	movlw	147
  6830  083D  027F               	subwf	btemp+1,w
  6831  083E  1D03               	skipz
  6832  083F  2842               	goto	u2005
  6833  0840  3088               	movlw	136
  6834  0841  0270               	subwf	delay@i,w
  6835  0842                     u2005:
  6836  0842  1C03               	skipc
  6837  0843  2845               	goto	u2001
  6838  0844  2846               	goto	u2000
  6839  0845                     u2001:
  6840  0845  2833               	goto	l2052
  6841  0846                     u2000:
  6842  0846                     l92:
  6843  0846  0008               	return
  6844  0847                     __end_of_delay:
  6845  007E                     btemp	set	126	;btemp
  6846  007E                     wtemp0	set	126

Data Sizes:
    Strings     0
    Constant    0
    Data        239
    BSS         6
    Persistent  0
    Stack       0

Auto Spaces:
    Space          Size  Autos    Used
    COMMON           14     14      14
    BANK0            80     38      79
    BANK1            80      0      73
    BANK3            96      0      85
    BANK2            96      0      46

Pointer List with Targets:

    strlen@s	PTR const unsigned char  size(1) Largest target is 15
		 -> msgMascara(BANK0[5]), msgDigiteSenha(BANK1[15]), 

    strlen@cp	PTR const unsigned char  size(1) Largest target is 15
		 -> msgMascara(BANK0[5]), msgDigiteSenha(BANK1[15]), 

    strcmp@s2	PTR const unsigned char  size(1) Largest target is 5
		 -> senhaUserConfere(BANK0[5]), 

    strcmp@s1	PTR const unsigned char  size(1) Largest target is 5
		 -> senhaUser(BANK0[5]), 

    escreveMesagem@texto	PTR unsigned char  size(2) Largest target is 16
		 -> msgReativarActive(BANK1[10]), msgDesativarZona(BANK2[15]), msgReativar(BANK1[9]), msgDesativarZonaActive(BANK2[16]), 
		 -> msgSenhaDisparoActive(BANK2[15]), msgSenhaCoacao(BANK1[13]), msgSenhaDisparo(BANK3[14]), msgSenhaCoacaoActive(BANK3[14]), 
		 -> msgSenhaUsuarioActive(BANK3[15]), msgSenhaConfig(BANK1[13]), msgSenhaUsuario(BANK3[14]), msgSenhaConfigActive(BANK3[14]), 
		 -> msgSenhaCorreta(BANK3[14]), msgSenhaErrada(BANK1[13]), 

    aux	PTR unsigned char  size(2) Largest target is 512
		 -> RAM(DATA[512]), RAM(DATA[512]), RAM(DATA[512]), RAM(DATA[512]), 
		 -> RAM(DATA[512]), RAM(DATA[512]), RAM(DATA[512]), RAM(DATA[512]), 
		 -> RAM(DATA[512]), RAM(DATA[512]), NULL(NULL[0]), RAM(DATA[512]), 
		 -> RAM(DATA[512]), RAM(DATA[512]), 


Critical Paths under _main in COMMON

    _liga_buzzer->___flmul
    ___flsub->___fladd
    ___flmul->__Umul8_16
    _telaInicial->_strlen
    _listaZonas->_escreveMesagem
    _escreveMesagem->_LCD_escreve
    _LCD_linha1->_delay
    _LCD_limpa->_delay
    _LCD_enable->_delay
    _Linha2->_espacoLivre
    _Linha2->_strlen
    _espacoLivre->_LCD_escreve
    _LCD_linha2->_delay
    _LCD_escreve->_delay

Critical Paths under _main in BANK0

    _main->_validaUser
    _validaUser->_teclado
    _teclado->_liga_buzzer
    _liga_buzzer->___flmul
    ___flsub->___fladd

Critical Paths under _main in BANK1

    None.

Critical Paths under _main in BANK3

    None.

Critical Paths under _main in BANK2

    None.

Call Graph Tables:

 ---------------------------------------------------------------------------------
 (Depth) Function   	        Calls       Base Space   Used Autos Params    Refs
 ---------------------------------------------------------------------------------
 (0) _main                                                 3     3      0    9875
                                             35 BANK0      3     3      0
                           _LCD_init
                          _LCD_limpa
                             _Linha2
                          _inicioADC
                         _leituraADC
                         _listaZonas
                        _telaInicial
                         _validaUser
 ---------------------------------------------------------------------------------
 (1) _validaUser                                           5     5      0    7728
                                             30 BANK0      5     5      0
                          _LCD_limpa
                         _LCD_linha1
                     _escreveMesagem
                             _strcmp
                            _teclado
 ---------------------------------------------------------------------------------
 (2) _teclado                                              3     3      0    6436
                                             27 BANK0      3     3      0
                        _LCD_escreve
                        _liga_buzzer
 ---------------------------------------------------------------------------------
 (3) _liga_buzzer                                          6     2      4    6368
                                             21 BANK0      6     2      4
                             ___flge
                            ___flmul
                            ___flsub
 ---------------------------------------------------------------------------------
 (4) ___flsub                                              8     0      8    2333
                                              8 BANK0      8     0      8
                            ___fladd
 ---------------------------------------------------------------------------------
 (5) ___fladd                                             20    12      8    2136
                                              0 COMMON    12     4      8
                                              0 BANK0      8     8      0
 ---------------------------------------------------------------------------------
 (4) ___flmul                                             26    18      8    2417
                                              9 COMMON     5     5      0
                                              0 BANK0     21    13      8
                          __Umul8_16
 ---------------------------------------------------------------------------------
 (5) __Umul8_16                                            9     7      2     799
                                              0 COMMON     9     7      2
 ---------------------------------------------------------------------------------
 (4) ___flge                                              12     4      8     334
                                              0 COMMON    12     4      8
 ---------------------------------------------------------------------------------
 (2) _strcmp                                               7     5      2     309
                                              0 COMMON     7     5      2
 ---------------------------------------------------------------------------------
 (1) _telaInicial                                          4     4      0     316
                                              5 COMMON     4     4      0
                        _LCD_escreve
                         _LCD_linha1
                             _strlen
 ---------------------------------------------------------------------------------
 (1) _listaZonas                                           2     0      2    1218
                                             10 COMMON     2     0      2
                           _LCD_init
                          _LCD_limpa
                         _LCD_linha1
                         _LCD_linha2
                     _escreveMesagem
 ---------------------------------------------------------------------------------
 (2) _escreveMesagem                                       7     5      2     758
                                              3 COMMON     7     5      2
                        _LCD_escreve
 ---------------------------------------------------------------------------------
 (2) _LCD_linha1                                           0     0      0      46
                              _delay
 ---------------------------------------------------------------------------------
 (2) _LCD_limpa                                            0     0      0      46
                              _delay
 ---------------------------------------------------------------------------------
 (2) _LCD_init                                             0     0      0      46
                         _LCD_enable
                               _init
 ---------------------------------------------------------------------------------
 (3) _init                                                 0     0      0       0
 ---------------------------------------------------------------------------------
 (3) _LCD_enable                                           0     0      0      46
                              _delay
 ---------------------------------------------------------------------------------
 (1) _leituraADC                                           7     5      2      45
                                              0 COMMON     7     5      2
 ---------------------------------------------------------------------------------
 (1) _inicioADC                                            0     0      0       0
 ---------------------------------------------------------------------------------
 (1) _Linha2                                               4     4      0     476
                                              5 COMMON     4     4      0
                        _LCD_escreve
                         _LCD_linha2
                        _espacoLivre
                             _strlen
 ---------------------------------------------------------------------------------
 (2) _strlen                                               5     3      2     156
                                              0 COMMON     5     3      2
 ---------------------------------------------------------------------------------
 (2) _espacoLivre                                          2     2      0     160
                                              3 COMMON     2     2      0
                        _LCD_escreve
                         _LCD_linha2
 ---------------------------------------------------------------------------------
 (2) _LCD_linha2                                           0     0      0      46
                              _delay
 ---------------------------------------------------------------------------------
 (3) _LCD_escreve                                          1     1      0      68
                                              2 COMMON     1     1      0
                              _delay
 ---------------------------------------------------------------------------------
 (4) _delay                                                2     2      0      46
                                              0 COMMON     2     2      0
 ---------------------------------------------------------------------------------
 Estimated maximum stack depth 5
 ---------------------------------------------------------------------------------

 Call Graph Graphs:

 _main (ROOT)
   _LCD_init
     _LCD_enable
       _delay
     _init
   _LCD_limpa
     _delay
   _Linha2
     _LCD_escreve
       _delay
     _LCD_linha2
       _delay
     _espacoLivre
       _LCD_escreve
       _LCD_linha2
     _strlen
   _inicioADC
   _leituraADC
   _listaZonas
     _LCD_init
     _LCD_limpa
     _LCD_linha1
       _delay
     _LCD_linha2
     _escreveMesagem
       _LCD_escreve
   _telaInicial
     _LCD_escreve
     _LCD_linha1
     _strlen
   _validaUser
     _LCD_limpa
     _LCD_linha1
     _escreveMesagem
     _strcmp
     _teclado
       _LCD_escreve
       _liga_buzzer
         ___flge
         ___flmul
           __Umul8_16
         ___flsub
           ___fladd

 Address spaces:
Name               Size   Autos  Total    Cost      Usage
BANK3               60      0      55       9       88.5%
BITBANK3            60      0       0       8        0.0%
SFR3                 0      0       0       4        0.0%
BITSFR3              0      0       0       4        0.0%
BANK2               60      0      2E      11       47.9%
BITBANK2            60      0       0      10        0.0%
SFR2                 0      0       0       5        0.0%
BITSFR2              0      0       0       5        0.0%
BANK1               50      0      49       7       91.2%
BITBANK1            50      0       0       6        0.0%
SFR1                 0      0       0       2        0.0%
BITSFR1              0      0       0       2        0.0%
BANK0               50     26      4F       5       98.8%
BITBANK0            50      0       0       4        0.0%
SFR0                 0      0       0       1        0.0%
BITSFR0              0      0       0       1        0.0%
COMMON               E      E       E       1      100.0%
BITCOMMON            E      0       0       0        0.0%
CODE                 0      0       0       0        0.0%
DATA                 0      0     129      12        0.0%
ABS                  0      0     129       3        0.0%
NULL                 0      0       0       0        0.0%
STACK                0      0       0       2        0.0%
EEDATA             100      0       0       0        0.0%


Microchip Technology PIC Macro Assembler V2.32 build 20210201212658 
Symbol Table                                                                                   Sun Oct 03 16:46:45 2021

                       pc 0002                        l72 09A8                        l81 17FF  
                      l75 081D                        l92 0846                        l84 17DF  
                      l69 17C1                        l78 17EF                        l87 17CF  
                      fsr 0004       __Umul8_16@word_mpld 0076           escreveMesagem@i 0078  
             ?_LCD_enable 0070                       l201 03B8                       l212 0040  
                     l206 045E                       l223 0880                       l218 0A1A  
                     l263 0161                       l272 080C                       l257 0161  
                     l177 0B34                       l249 0D67                       l194 0300  
                     l186 0232                       l275 0967                       l700 0FFF  
                     l269 09DF                       l541 0C39                       l278 0975  
                     l542 0C52                       l703 08C7                       l538 0BCD  
                     l820 0918                       l661 0E74                       l670 0FFF  
                     l663 0E49                       l753 07BF                       l657 0DCB  
                     l826 085F                       l682 0F6B                       l691 0FCD  
                     l772 08DC                       l765 07B3                       l774 08EE  
                     l678 0F45                       l759 072B                       l688 0F8D  
                     l699 0FF1                       _RA1 0029                       _RB0 0030  
                     _RA3 002B                       _RB1 0031                       _RA4 002C  
                     _RB2 0032                       _RA5 002D                       _RB3 0033  
             ?_LCD_linha1 0070               ?_LCD_linha2 0070                       _aux 0069  
                     fsr0 0004                       indf 0000              ___flmul@aexp 002D  
            ___flmul@bexp 002E              ___flmul@sign 0028              ___flmul@temp 0033  
            ___flmul@prod 002F   __size_of_escreveMesagem 0037                      l2000 0F8A  
                    l2010 0FA9                      l2100 048D                      l2020 0FE4  
                    l2012 0FC9                      l2004 0F92                      l2110 04A2  
                    l2102 0492                      l2030 0FFE                      l2022 0FE5  
                    l2014 0FD2                      l2006 0F97                      l2040 08E5  
                    l2032 08C9                      l2200 0766                      l2120 04BE  
                    l2112 04A7                      l2104 0498                      l2024 0FE9  
                    l2016 0FD7                      l2008 0FA5                      l2042 08EA  
                    l2034 08CB                      l2210 0799                      l2202 0773  
                    l2130 04E9                      l2122 04C3                      l2114 04AF  
                    l2106 049C                      l2026 0FEB                      l2018 0FDF  
                    l2052 0833                      l2300 17E5                      l2060 0BE1  
                    l2036 08D2                      l2212 07A7                      l2204 077E  
                    l2140 0586                      l2132 0506                      l2116 04B1  
                    l2108 049D                      l2028 0FFA                      l2054 0839  
                    l2046 0831                      l2230 17C2                      l2222 17B6  
                    l2302 17E6                      l2310 17F4                      l2070 0C4F  
                    l2062 0BE9                      l2038 08D6                      l2214 07AB  
                    l2206 078D                      l2150 05E9                      l2142 058F  
                    l2134 0522                      l2126 04CC                      l2118 04B9  
                    l2240 0813                      l2232 17C7                      l2224 17BA  
                    l2304 17E7                      l2312 17F5                      l2072 0C51  
                    l2064 0BED                      l2056 0BB1                      l2216 07AC  
                    l2208 0797                      l2160 0689                      l2152 0602  
                    l2144 059F                      l2136 054E                      l2128 04DC  
                    l2400 02BB                      l2320 0162                      l2242 0814  
                    l2250 17D4                      l2234 17CC                      l2226 17BD  
                    l2306 17EC                      l2314 17F6                      l2066 0C11  
                    l2058 0BC5                      l2218 07B7                      l2170 06F7  
                    l2162 06AF                      l2154 061F                      l2146 05BC  
                    l2138 056A                      l2090 0471                      l2082 045F  
                    l2410 02DF                      l2402 02C1                      l2330 018F  
                    l2322 0168                      l2244 0815                      l2236 080E  
                    l2252 17D5                      l2500 0860                      l2228 17C0  
                    l2316 17F7                      l2308 17F0                      l2068 0C15  
                    l2180 070F                      l2172 06FB                      l2164 06D7  
                    l2156 064C                      l2148 05CC                      l2092 0476  
                    l2084 0466                      l2076 08A4                      l2260 0AB9  
                    l2420 0306                      l2412 02EE                      l2404 02C9  
                    l2340 01BA                      l2332 0197                      l2324 016C  
                    l2246 081A                      l2238 0812                      l2254 17D6  
                    l2510 086D                      l2502 0865                      l2318 17FC  
                    l2190 0730                      l2182 0710                      l2174 06FC  
                    l2166 06E0                      l2158 065C                      l2094 047B  
                    l2086 046C                      l2078 08A8                      l2270 0B15  
                    l2262 0ADA                      l2422 0314                      l2430 0335  
                    l2414 02F4                      l2406 02CD                      l2350 01DE  
                    l2342 01C0                      l2326 017A                      l2334 0199  
                    l2256 17D7                      l2248 17D0                      l2512 0873  
                    l2280 0984                      l2520 08F9                      l2192 0735  
                    l2184 0714                      l2176 0705                      l2168 06EE  
                    l2096 0483                      l2088 0470                      l2272 0B30  
                    l2264 0AE6                      l2440 0364                      l2432 0339  
                    l2424 0323                      l2416 02FC                      l2408 02D1  
                    l2360 0203                      l2352 01ED                      l2344 01C8  
                    l2336 019D                      l2328 0189                      l2258 17DC  
                    l2290 099A                      l2282 0988                      l2274 0976  
                    l2522 090C                      l2514 08F0                      l2194 0743  
                    l2186 0728                      l2178 070B                      l2098 0485  
                    l2266 0AE9                      l2450 038F                      l2434 0347  
                    l2442 0368                      l2426 0329                      l2418 0302  
                    l2370 0234                      l2362 0211                      l2354 01F3  
                    l2338 01AB                      l2346 01CC                      l2508 0867  
                    l2292 099F                      l2284 098D                      l2276 097B  
                    l2540 000F                      l2524 0913                      l2516 08F1  
                    l2196 0747                      l1900 0DF5                      l2268 0AF4  
                    l2460 03C0                      l2452 0395                      l2444 036C  
                    l2436 0356                      l2428 0331                      l2380 0263  
                    l2372 0238                      l2364 0220                      l2356 01FB  
                    l2348 01D0                      l2550 09E0                      l2294 09A3  
                    l2286 0991                      l2278 097F                      l2542 0012  
                    l2518 08F5                      l2198 0760                      l1910 0E09  
                    l1902 0DF9                      l2470 03F7                      l2462 03CE  
                    l2454 03A3                      l2446 037A                      l2438 035C  
                    l2390 028E                      l2374 0246                      l2382 0267  
                    l2366 0226                      l2358 01FF                      l2560 0A15  
                    l2552 09EA                      l2536 0800                      l2288 0996  
                    l2296 17E0                      l2544 001C                      l1920 0E2D  
                    l1912 0E0D                      l1904 0DFD                      l1840 0D6F  
                    l2480 042F                      l2472 0406                      l2464 03DD  
                    l2456 03B2                      l2448 0389                      l2392 0296  
                    l2384 026B                      l2376 0255                      l2368 022E  
                    l2800 0C71                      l2490 0848                      l2554 09ED  
                    l2650 096B                      l2298 17E4                      l2546 0022  
                    l2538 0004                      l1930 0E5F                      l1922 0E4D  
                    l1914 0E11                      l1906 0E01                      l1850 0D84  
                    l1842 0D75                      l2482 0435                      l2474 040C  
                    l2466 03E3                      l2458 03BC                      l2386 0279  
                    l2394 029A                      l2378 025B                      l2810 0C8A  
                    l2802 0C76                      l2492 084D                      l2556 09F7  
                    l2644 0948                      l2900 010A                      l2548 003A  
                    l1932 0E6A                      l1924 0E58                      l1908 0E05  
                    l1916 0E15                      l1860 0D9C                      l1852 0D8C  
                    l1844 0D79                      l2484 043B                      l2476 0412  
                    l2468 03E9                      l2396 029E                      l2388 0288  
                    l2812 0C8F                      l2804 0C7B                      l2820 0C9E  
                    l2494 0851                      l2558 09FD                      l2646 095B  
                    l2910 0149                      l2902 0119                      l1950 0EB0  
                    l1942 0E86                      l1926 0E5A                      l1934 0E6E  
                    l1918 0E16                      l1870 0DAE                      l1862 0DA2  
                    l1854 0D8D                      l1846 0D7A                      l1838 0D68  
                    l2486 0449                      l2478 0420                      l2398 02AC  
                    l2830 0CE8                      l2814 0C94                      l2806 0C80  
                    l2822 0CC3                      l2496 0859                      l2648 0964  
                    l2912 0152                      l2904 0122                      l1952 0EB2  
                    l1944 0E9D                      l1936 0E78                      l1960 0EC7  
                    l1928 0E5E                      l1872 0DB3                      l1880 0DC3  
                    l1864 0DA3                      l1848 0D7F                      l1856 0D8F  
                    l2488 0458                      l2832 0CEA                      l2840 0D0B  
                    l2824 0CCB                      l2816 0C99                      l2808 0C85  
                    l2920 0B3F                      l2906 0131                      l1962 0EDD  
                    l1970 0F37                      l1954 0EB6                      l1946 0EA1  
                    l1938 0E7D                      l1890 0DE1                      l1882 0DD1  
                    l1874 0DB8                      l1866 0DA9                      l1858 0D97  
                    l2850 0D2E                      l2842 0D1D                      l2834 0CEF  
                    l2826 0CD2                      l2922 0B45                      l2930 0B5D  
                    l2914 0B35                      l2780 09C3                      l2908 013A  
                    l1980 0F66                      l1972 0F4D                      l1964 0F1D  
                    l1956 0EB7                      l1948 0EA5                      l1892 0DE5  
                    l1884 0DD5                      l1876 0DC0                      l1868 0DAD  
                    l2852 0D33                      l2844 0D21                      l2836 0CF4  
                    l2828 0CE2                      l2860 0D5F                      l2940 0B8E  
                    l2932 0B65                      l2924 0B4F                      l2916 0B39  
                    l2782 09C9                      l2870 0059                      l1990 0F79  
                    l1982 0F6A                      l1974 0F52                      l1966 0F23  
                    l1958 0EC2                      l1894 0DE9                      l1886 0DD9  
                    l1878 0DC1                      l2854 0D3C                      l2846 0D25  
                    l2838 0CFD                      l2942 0B97                      l2934 0B74  
                    l2926 0B54                      l2918 0B3B                      l2776 09A9  
                    l2880 0092                      l2872 0062                      l1984 0F6F  
                    l1992 0F7B                      l1968 0F28                      l1896 0DED  
                    l1888 0DDD                      l2848 0D29                      l2856 0D4A  
                    l2792 0C56                      l2784 0C53                      l2944 0BA5  
                    l2936 0B79                      l2928 0B59                      l2778 09AC  
                    l2890 00D1                      l2882 00A1                      l2874 0071  
                    l2866 0041                      l1986 0F72                      l1978 0F5B  
                    l1994 0F7F                      l1898 0DF1                      l2858 0D52  
                    l2794 0C5D                      l2786 0C54                      l2938 0B82  
                    l2892 00DA                      l2884 00AA                      l2876 007A  
                    l2868 004A                      l1996 0F80                      l1988 0F74  
                    l2796 0C62                      l2894 00E9                      l2886 00B9  
                    l2878 0089                      l1998 0F84                      l2966 0CA3  
                    l2798 0C6C                      l2896 00F2                      l2888 00C2  
                    l2898 0101                      u2000 0846                      u2001 0845  
                    u2010 0BC5                      u2011 0BC4                      u2020 0BE1  
                    u2100 047B                      u2005 0842                      u2021 0BE0  
                    u2101 047A                      u2030 0BED                      u2110 049C  
                    u2031 0BEC                      u2111 049B                      u2120 04A2  
                    u2041 0BFC                      u2121 04A1                      u2050 0C15  
                    u2042 0BFD                      u2130 04A7                      u2051 0C14  
                    u2043 0C02                      u2211 05AE                      u2131 04A6  
                    u2044 0C03                      u2212 05B5                      u2140 04BE  
                    u3100 0D5F                      u2061 0C24                      u2045 0C08  
                    u2301 06C9                      u2221 05DB                      u2213 05BC  
                    u2205 0588                      u2141 04BD                      u3101 0D5E  
                    u3030 09B6                      u2070 0C4F                      u2062 0C25  
                    u2046 0C09                      u2302 06D0                      u2222 05E2  
                    u2150 04C3                      u1510 0D79                      u3110 0D67  
                    u2071 0C4E                      u2063 0C2A                      u2303 06D7  
                    u2223 05E9                      u2151 04C2                      u1511 0D78  
                    u3111 0D66                      u3040 09D3                      u3120 004A  
                    u2064 0C2B                      u2400 0747                      u2080 0470  
                    u1600 0E2D                      u1520 0D7F                      u3200 0BAD  
                    u3121 0049                      u2065 0C30                      u2401 0746  
                    u2241 0611                      u2161 0514                      u2081 046F  
                    u1601 0E2C                      u1521 0D7E                      u3105 0D5B  
                    u3201 0BAC                      u3050 09DF                      u3130 007A  
                    u2066 0C31                      u2410 0756                      u2330 06FB  
                    u2242 0618                      u2162 051B                      u2090 0476  
                    u1610 0E36                      u1530 0D84                      u3051 09DE  
                    u3131 0079                      u2075 0C4B                      u2331 06FA  
                    u2315 06D9                      u2251 063E                      u2243 061F  
                    u2235 05EB                      u2171 0530                      u2163 0522  
                    u2091 0475                      u1611 0E34                      u1531 0D83  
                    u3140 00AA                      u2420 0773                      u2252 0645  
                    u2172 0537                      u1700 0EA1                      u1620 0E37  
                    u1540 0DA2                      u2500 01D0                      u3060 0C6B  
                    u3141 00A9                      u2421 0772                      u2325 06F0  
                    u2261 066B                      u2253 064C                      u2181 055C  
                    u2173 053E                      u1701 0EA0                      u1605 0E29  
                    u1541 0DA1                      u2501 01CF                      u3061 0C6A  
                    u3150 00DA                      u2430 078D                      u2350 070F  
                    u2270 0695                      u2262 0672                      u2182 0563  
                    u1710 0EA5                      u1630 0E4D                      u1550 0DAD  
                    u2510 01FB                      u3070 0CD2                      u3151 00D9  
                    u2431 078C                      u2415 0751                      u2351 070E  
                    u2263 0679                      u2191 0578                      u2183 056A  
                    u1711 0EA4                      u1631 0E4C                      u1551 0DAC  
                    u2511 01FA                      u3071 0CD1                      u3160 010A  
                    u2440 07AB                      u2360 0714                      u2192 057F  
                    u1720 0EB6                      u1640 0E5E                      u1560 0DB3  
                    u2600 02D1                      u2520 0203                      u3080 0CE2  
                    u3161 0109                      u2441 07AA                      u2425 076F  
                    u2361 0713                      u2345 06FE                      u2281 06A1  
                    u2193 0586                      u1721 0EB5                      u1641 0E5D  
                    u1561 0DB2                      u2601 02D0                      u2521 0202  
                    u3081 0CE1                      u3217 0B6D                      u3170 013A  
                    u2370 0728                      u2290 06BD                      u2282 06A8  
                    u1810 0F6A                      u1570 0DB8                      u2450 0B30  
                    u2610 02FC                      u2530 022E                      u3090 0D1D  
                    u3171 0139                      u2435 0789                      u2371 0727  
                    u2283 06AF                      u2275 0690                      u1811 0F69  
                    u1571 0DB7                      u2451 0B2F                      u2611 02FB  
                    u3307 0273                      u2531 022D                      u3091 0D1C  
                    u3227 0B9F                      u2380 072F                      u1900 0FBA  
                    u1820 0F6F                      u1740 0EDD                      u1660 0E74  
                    u1580 0DD1                      u2700 0412                      u2620 0306  
                    u2540 0238                      u2460 016C                      u3180 0B65  
                    u2381 072E                      u1821 0F6E                      u1805 0F5F  
                    u1741 0EDC                      u1661 0E73                      u1581 0DD0  
                    u2701 0411                      u2621 0305                      u3317 02A6  
                    u2541 0237                      u2461 016B                      u3237 0D05  
                    u3181 0B64                      u2390 0735                      u1910 0FC9  
                    u1830 0F79                      u1670 0E78                      u1590 0DD5  
                    u2710 043B                      u2630 0331                      u2550 0263  
                    u2470 0197                      u3190 0B81                      u2391 0734  
                    u2295 06B8                      u1911 0FC8                      u1831 0F78  
                    u1751 0EF6                      u1743 0ED9                      u1735 0EBB  
                    u1671 0E77                      u1655 0E63                      u1591 0DD4  
                    u3407 0443                      u2711 043A                      u2631 0330  
                    u3327 02D9                      u2551 0262                      u2471 0196  
                    u3247 0D44                      u3191 0B80                      u2720 0859  
                    u2800 0A15                      u1920 0FD2                      u1840 0F7F  
                    u1760 0F0A                      u1752 0EF7                      u1680 0E7D  
                    u2640 0339                      u2560 026B                      u2480 019D  
                    u2721 0858                      u2801 0A14                      u1921 0FD1  
                    u1905 0FB5                      u1841 0F7E                      u1761 0F0B  
                    u1753 0EFC                      u1681 0E7C                      u3417 0AE0  
                    u2641 0338                      u3337 030E                      u2561 026A  
                    u2481 019C                      u3257 0174                      u2730 0880  
                    u1930 0FD7                      u1850 0F84                      u1770 0F28  
                    u1762 0F10                      u1754 0EFD                      u2650 0364  
                    u2570 0296                      u2490 01C8                      u2731 087F  
                    u1931 0FD6                      u1851 0F83                      u1771 0F27  
                    u1763 0F11                      u1755 0F02                      u1691 0E8F  
                    u3427 0AEF                      u2651 0363                      u3347 0341  
                    u2571 0295                      u2491 01C7                      u3267 01A5  
                    u2740 090C                      u1940 0FE4                      u1860 0F8A  
                    u1780 0F4D                      u1756 0F03                      u1692 0E96  
                    u2660 036C                      u2580 029E                      u2805 0A11  
                    u3437 095F                      u2741 090B                      u1941 0FE3  
                    u1861 0F89                      u1781 0F4C                      u1693 0E9D  
                    u3357 0374                      u2661 036B                      u2581 029D  
                    u3277 01D8                      u2750 0913                      u1950 0FE9  
                    u1870 0F91                      u1790 0F52                      u2670 0395  
                    u2590 02C9                      u2735 087C                      u2751 0912  
                    u1951 0FE8                      u1871 0F90                      u1791 0F51  
                    u3367 039D                      u2671 0394                      u2591 02C8  
                    u3287 020B                      u1960 0FFE                      u1880 0F97  
                    u2680 03C0                      u1961 0FFD                      u1881 0F96  
                    u3377 03C8                      u2681 03BF                      u3297 0240  
                    u1970 08D6                      u1890 0FA9                      u2690 03E9  
                    u1971 08D5                      u1891 0FA8                      u3387 03F1  
                    u2691 03E8                      u3397 041A                      u2790 003A  
                    u1990 08EA                      u2791 0039                      u1991 08E9  
                    u2880 096B                      u2881 096A                      u1985 08DD  
                    u2875 0951                      u2795 0036              ?_LCD_escreve 0070  
                    _main 0B35                      _init 17B6                      _menu 0050  
            ?_liga_buzzer 0035                      btemp 007E              ?_espacoLivre 0070  
        _senhaUserConfere 005F                      start 0000        __size_of_LCD_limpa 0010  
        __end_of_LCD_init 09A9           __end_of___fladd 1000                     ?_main 0070  
                   ?_init 0070           __end_of___flmul 07C0           __end_of___flsub 08C8  
                   _PORTB 0006                     _PORTD 0008                     _PORTE 0009  
                   _TRISA 0085                     _TRISB 0086                     _TRISD 0088  
                   _TRISE 0089                     _delay 0831                     _input 0056  
         __end_of_teclado 045F         _msgReativarActive 00D6                     pclath 000A  
                   status 0003                     wtemp0 007E       __size_of_LCD_enable 000E  
     __size_of_LCD_linha1 0010       __size_of_LCD_linha2 0010           __initialization 07C0  
            __end_of_main 0BB1              __end_of_init 17C2              ?_telaInicial 0070  
                  ??_main 0043                    ??_init 0070         __end_of_LCD_limpa 17F0  
                  ?_delay 0070                    _ADCON0 001F                    _ADCON1 009F  
                  _ADRESH 001E                    _ADRESL 009E                    _Linha2 09E0  
                  ___flge 0BB1                 ??___fladd 0020                 ??___flmul 0079  
               ??___flsub 007C                    _painel 0054                    delay@i 0070  
         leituraADC@canal 0076                    _strcmp 08EF                    _strlen 0847  
      __size_of__Umul8_16 0027                 ??_teclado 003B            _escreveMesagem 09A9  
              ___flge@ff1 0070                ___flge@ff2 0074   __end_of__initialization 07FC  
               ?_LCD_init 0070      __size_of_LCD_escreve 0011              LCD_escreve@x 0072  
    __size_of_liga_buzzer 007C      __size_of_espacoLivre 0021            __pcstackCOMMON 0070  
            __pidataBANK0 0881              __pidataBANK1 0A1B              __pidataBANK2 0919  
            __pidataBANK3 0A64             __end_of_delay 0847              ??_LCD_enable 0072  
            ??_LCD_linha1 0072              ??_LCD_linha2 0072    __end_of_escreveMesagem 09E0  
            espacoLivre@i 0073                   ??_delay 0070                __pbssBANK0 0069  
      __size_of_inicioADC 000D       escreveMesagem@texto 0073                ??_LCD_init 0072  
                 ?_Linha2 0070        __end_of_LCD_enable 17D0         __end_of__Umul8_16 08EF  
      __end_of_LCD_linha1 1800        __end_of_LCD_linha2 17E0                __pmaintext 0B35  
                 ?___flge 0070                   ?_strcmp 0070                   ?_strlen 0070  
         ?_escreveMesagem 0073      __size_of_telaInicial 003D     _msgSenhaUsuarioActive 0190  
                 Linha2@i 0077  liga_buzzer@tempoSegundos 0035           __size_of_Linha2 003B  
         __size_of___flge 00A2                   ___fladd 0D68                   ___flmul 045F  
                 ___flsub 08A4                _leituraADC 0947               validaUser@n 0041  
       __end_of_inicioADC 080D                   __ptext1 0C53                   __ptext2 0162  
                 __ptext3 0AB9                   __ptext4 08A4                   __ptext5 0D68  
                 __ptext6 045F                   __ptext7 08C8                   __ptext8 0BB1  
                 __ptext9 08EF           __size_of_strcmp 002A           __size_of_strlen 0019  
              _msgMascara 005A                   _teclado 0162                _listaZonas 0041  
    end_of_initialization 07FC                 _LCD_limpa 17E0                _validaUser 0C53  
                 strcmp@r 0075                   strlen@s 0074               ___fladd@grs 007B  
              ?_LCD_limpa 0070               ___flmul@grs 0029         __size_of_LCD_init 0033  
          __end_of_Linha2 0A1B               ?_leituraADC 0070            __end_of___flge 0C53  
          __end_of_strcmp 0919            __end_of_strlen 0860       start_initialization 07C0  
             ?_listaZonas 007A            _valorSensorAux 006B             ??_LCD_escreve 0072  
           ??_liga_buzzer 0039             ??_espacoLivre 0073               ?_validaUser 0070  
                ??_Linha2 0075                  ??___flge 0078                init_fetch0 081E  
               __Umul8_16 08C8               __pdataBANK0 0046               __pdataBANK1 00A0  
             __pdataBANK2 0110               __pdataBANK3 0190          ??_escreveMesagem 0075  
                ??_strcmp 0072                  ??_strlen 0072                 ___fladd@a 0074  
               ___fladd@b 0070                 ___flmul@a 0024                 ___flmul@b 0020  
               ___flsub@a 0028                 ___flsub@b 002C                 ___latbits 0002  
           __pcstackBANK0 0020               ??_LCD_limpa 0072       __size_of_leituraADC 002F  
     __end_of_LCD_escreve 081E       __end_of_liga_buzzer 0B35                  ?___fladd 0070  
     __end_of_espacoLivre 0881       __size_of_listaZonas 0121                  ?___flmul 0020  
                ?___flsub 0028                ?__Umul8_16 0070              telaInicial@i 0077  
           ??_telaInicial 0075            _msgDigiteSenha 00A0                 _auxSensor 0058  
               _inicioADC 0800                  ?_teclado 0070       __size_of_validaUser 0115  
          __size_of_delay 0016                  _LCD_init 0976                 _senhaUser 0064  
                _GO_nDONE 00FA                 _userFalse 0052                ?_inicioADC 0070  
     __end_of_telaInicial 0041               _LCD_escreve 080D               _liga_buzzer 0AB9  
             _espacoLivre 0860          _msgDesativarZona 0120      _msgSenhaCoacaoActive 01AD  
            ??_leituraADC 0072               ??__Umul8_16 0072          __size_of___fladd 0298  
         _msgSenhaDisparo 019F          __size_of___flmul 0361          __size_of___flsub 0024  
         _msgSenhaCorreta 01D7           _msgSenhaUsuario 01BB              ??_listaZonas 007C  
        __size_of_teclado 02FD                  __ptext10 0004                  __ptext11 0041  
                __ptext20 09E0                  __ptext12 09A9                  __ptext21 0847  
                __ptext13 17F0                  __ptext22 0860                  __ptext14 17E0  
                __ptext23 17D0                  __ptext15 0976                  __ptext24 080D  
                __ptext16 17B6                  __ptext25 0831                  __ptext17 17C2  
                __ptext18 0947                  __ptext19 0800        __end_of_leituraADC 0976  
           __size_of_main 007C             __size_of_init 000C              ??_validaUser 003E  
             _msgReativar 00E0                  _senhaCoa 004B    _msgDesativarZonaActive 0110  
      __end_of_listaZonas 0162               _telaInicial 0004                _LCD_enable 17C2  
       leituraADC@leitura 0074                _LCD_linha1 17F0                _LCD_linha2 17D0  
             ??_inicioADC 0070               _senhaConfig 0046                  init_ram0 0822  
      __end_of_validaUser 0D68            _msgSenhaCoacao 00AF            _msgSenhaConfig 00BC  
          _msgSenhaErrada 00C9     _msgSenhaDisparoActive 012F      _msgSenhaConfigActive 01C9  
             _valorSensor 006D    __Umul8_16@multiplicand 0070     listaZonas@valorSensor 007A  
                strcmp@s1 0076                  strcmp@s2 0070                  strlen@cp 0073  
           ___fladd@signs 0078              ___fladd@aexp 0079              ___fladd@bexp 007A  
    __Umul8_16@multiplier 0078         __Umul8_16@product 0074  
