

Microchip MPLAB XC8 Assembler V2.32 build 20210201212658 
                                                                                               Wed Sep 29 15:53:10 2021

Microchip MPLAB XC8 C Compiler v2.32 (Free license) build 20210201212658 Og1 
     1                           	processor	16F877A
     2                           	pagewidth 120
     3                           	opt	flic
     4                           	psect	idataBANK0,global,class=CODE,delta=2,noexec
     5                           	psect	idataBANK1,global,class=CODE,delta=2,noexec
     6                           	psect	strings,global,class=STRING,delta=2,noexec
     7                           	psect	cinit,global,class=CODE,merge=1,delta=2
     8                           	psect	bssBANK0,global,class=BANK0,space=1,delta=1,noexec
     9                           	psect	dataBANK0,global,class=BANK0,space=1,delta=1,noexec
    10                           	psect	dataBANK1,global,class=BANK1,space=1,delta=1,noexec
    11                           	psect	inittext,global,class=CODE,delta=2
    12                           	psect	clrtext,global,class=CODE,delta=2
    13                           	psect	cstackCOMMON,global,class=COMMON,space=1,delta=1,noexec
    14                           	psect	cstackBANK0,global,class=BANK0,space=1,delta=1,noexec
    15                           	psect	maintext,global,class=CODE,split=1,delta=2
    16                           	psect	text1,local,class=CODE,merge=1,delta=2
    17                           	psect	text2,local,class=CODE,merge=1,delta=2
    18                           	psect	text3,local,class=CODE,merge=1,delta=2
    19                           	psect	text4,local,class=CODE,merge=1,delta=2,group=1
    20                           	psect	text5,local,class=CODE,merge=1,delta=2,group=1
    21                           	psect	text6,local,class=CODE,merge=1,delta=2,group=1
    22                           	psect	text7,local,class=CODE,merge=1,delta=2,group=1
    23                           	psect	text8,local,class=CODE,merge=1,delta=2,group=1
    24                           	psect	text9,local,class=CODE,merge=1,delta=2,group=2
    25                           	psect	text10,local,class=CODE,merge=1,delta=2,group=2
    26                           	psect	text11,local,class=CODE,merge=1,delta=2,group=2
    27                           	psect	text12,local,class=CODE,merge=1,delta=2
    28                           	psect	text13,local,class=CODE,merge=1,delta=2
    29                           	psect	text14,local,class=CODE,merge=1,delta=2
    30                           	psect	text15,local,class=CODE,merge=1,delta=2,group=2
    31                           	psect	text16,local,class=CODE,merge=1,delta=2
    32                           	psect	text17,local,class=CODE,merge=1,delta=2
    33                           	psect	text18,local,class=CODE,merge=1,delta=2
    34                           	psect	text19,local,class=CODE,merge=1,delta=2
    35                           	psect	text20,local,class=CODE,merge=1,delta=2
    36                           	psect	text21,local,class=CODE,merge=1,delta=2
    37                           	psect	text22,local,class=CODE,merge=1,delta=2
    38                           	psect	text23,local,class=CODE,merge=1,delta=2
    39                           	dabs	1,0x7E,2
    40  0000                     
    41                           ; Version 2.20
    42                           ; Generated 12/02/2020 GMT
    43                           ; 
    44                           ; Copyright © 2020, Microchip Technology Inc. and its subsidiaries ("Microchip")
    45                           ; All rights reserved.
    46                           ; 
    47                           ; This software is developed by Microchip Technology Inc. and its subsidiaries ("Microch
      +                          ip").
    48                           ; 
    49                           ; Redistribution and use in source and binary forms, with or without modification, are
    50                           ; permitted provided that the following conditions are met:
    51                           ; 
    52                           ;     1. Redistributions of source code must retain the above copyright notice, this lis
      +                          t of
    53                           ;        conditions and the following disclaimer.
    54                           ; 
    55                           ;     2. Redistributions in binary form must reproduce the above copyright notice, this 
      +                          list
    56                           ;        of conditions and the following disclaimer in the documentation and/or other
    57                           ;        materials provided with the distribution.
    58                           ; 
    59                           ;     3. Microchip's name may not be used to endorse or promote products derived from th
      +                          is
    60                           ;        software without specific prior written permission.
    61                           ; 
    62                           ; THIS SOFTWARE IS PROVIDED BY MICROCHIP "AS IS" AND ANY EXPRESS OR IMPLIED WARRANTIES,
    63                           ; INCLUDING, BUT NOT LIMITED TO, THE IMPLIED WARRANTIES OF MERCHANTABILITY AND FITNESS F
      +                          OR
    64                           ; PURPOSE ARE DISCLAIMED.  IN NO EVENT SHALL MICROCHIP BE LIABLE FOR ANY DIRECT, INDIREC
      +                          T,
    65                           ; INCIDENTAL, SPECIAL, EXEMPLARY, OR CONSEQUENTIAL DAMAGES (INCLUDING BUT NOT LIMITED TO
    66                           ; PROCUREMENT OF SUBSTITUTE GOODS OR SERVICES; LOSS OF USE, DATA OR PROFITS; OR BUSINESS
    67                           ; INTERRUPTION) HOWSOEVER CAUSED AND ON ANY THEORY OF LIABILITY, WHETHER IN CONTRACT, ST
      +                          RICT
    68                           ; LIABILITY, OR TORT (INCLUDING NEGLIGENCE OR OTHERWISE) ARISING IN ANY WAY OUT OF THE U
      +                          SE OF
    69                           ; THIS SOFTWARE, EVEN IF ADVISED OF THE POSSIBILITY OF SUCH DAMAGE.
    70                           ; 
    71                           ; 
    72                           ; Code-generator required, PIC16F877A Definitions
    73                           ; 
    74                           ; SFR Addresses
    75  0000                     	;# 
    76  0001                     	;# 
    77  0002                     	;# 
    78  0003                     	;# 
    79  0004                     	;# 
    80  0005                     	;# 
    81  0006                     	;# 
    82  0007                     	;# 
    83  0008                     	;# 
    84  0009                     	;# 
    85  000A                     	;# 
    86  000B                     	;# 
    87  000C                     	;# 
    88  000D                     	;# 
    89  000E                     	;# 
    90  000E                     	;# 
    91  000F                     	;# 
    92  0010                     	;# 
    93  0011                     	;# 
    94  0012                     	;# 
    95  0013                     	;# 
    96  0014                     	;# 
    97  0015                     	;# 
    98  0015                     	;# 
    99  0016                     	;# 
   100  0017                     	;# 
   101  0018                     	;# 
   102  0019                     	;# 
   103  001A                     	;# 
   104  001B                     	;# 
   105  001B                     	;# 
   106  001C                     	;# 
   107  001D                     	;# 
   108  001E                     	;# 
   109  001F                     	;# 
   110  0081                     	;# 
   111  0085                     	;# 
   112  0086                     	;# 
   113  0087                     	;# 
   114  0088                     	;# 
   115  0089                     	;# 
   116  008C                     	;# 
   117  008D                     	;# 
   118  008E                     	;# 
   119  0091                     	;# 
   120  0092                     	;# 
   121  0093                     	;# 
   122  0094                     	;# 
   123  0098                     	;# 
   124  0099                     	;# 
   125  009C                     	;# 
   126  009D                     	;# 
   127  009E                     	;# 
   128  009F                     	;# 
   129  010C                     	;# 
   130  010D                     	;# 
   131  010E                     	;# 
   132  010F                     	;# 
   133  018C                     	;# 
   134  018D                     	;# 
   135  0000                     	;# 
   136  0001                     	;# 
   137  0002                     	;# 
   138  0003                     	;# 
   139  0004                     	;# 
   140  0005                     	;# 
   141  0006                     	;# 
   142  0007                     	;# 
   143  0008                     	;# 
   144  0009                     	;# 
   145  000A                     	;# 
   146  000B                     	;# 
   147  000C                     	;# 
   148  000D                     	;# 
   149  000E                     	;# 
   150  000E                     	;# 
   151  000F                     	;# 
   152  0010                     	;# 
   153  0011                     	;# 
   154  0012                     	;# 
   155  0013                     	;# 
   156  0014                     	;# 
   157  0015                     	;# 
   158  0015                     	;# 
   159  0016                     	;# 
   160  0017                     	;# 
   161  0018                     	;# 
   162  0019                     	;# 
   163  001A                     	;# 
   164  001B                     	;# 
   165  001B                     	;# 
   166  001C                     	;# 
   167  001D                     	;# 
   168  001E                     	;# 
   169  001F                     	;# 
   170  0081                     	;# 
   171  0085                     	;# 
   172  0086                     	;# 
   173  0087                     	;# 
   174  0088                     	;# 
   175  0089                     	;# 
   176  008C                     	;# 
   177  008D                     	;# 
   178  008E                     	;# 
   179  0091                     	;# 
   180  0092                     	;# 
   181  0093                     	;# 
   182  0094                     	;# 
   183  0098                     	;# 
   184  0099                     	;# 
   185  009C                     	;# 
   186  009D                     	;# 
   187  009E                     	;# 
   188  009F                     	;# 
   189  010C                     	;# 
   190  010D                     	;# 
   191  010E                     	;# 
   192  010F                     	;# 
   193  018C                     	;# 
   194  018D                     	;# 
   195                           
   196                           	psect	idataBANK0
   197  09DC                     __pidataBANK0:
   198                           
   199                           ;initializer for _userFalse
   200  09DC  3401               	retlw	1
   201  09DD  3400               	retlw	0
   202                           
   203                           ;initializer for _painel
   204  09DE  3401               	retlw	1
   205  09DF  3400               	retlw	0
   206                           
   207                           ;initializer for _input
   208  09E0  340A               	retlw	10
   209  09E1  3400               	retlw	0
   210                           
   211                           ;initializer for _msg2
   212  09E2  345F               	retlw	95
   213  09E3  345F               	retlw	95
   214  09E4  345F               	retlw	95
   215  09E5  345F               	retlw	95
   216  09E6  3400               	retlw	0
   217                           
   218                           ;initializer for _senhaUser
   219  09E7  3431               	retlw	49
   220  09E8  3432               	retlw	50
   221  09E9  3431               	retlw	49
   222  09EA  3432               	retlw	50
   223  09EB  3400               	retlw	0
   224                           
   225                           	psect	idataBANK1
   226  099D                     __pidataBANK1:
   227                           
   228                           ;initializer for _msg
   229  099D  3444               	retlw	68
   230  099E  3469               	retlw	105
   231  099F  3467               	retlw	103
   232  09A0  3469               	retlw	105
   233  09A1  3474               	retlw	116
   234  09A2  3465               	retlw	101
   235  09A3  3420               	retlw	32
   236  09A4  3461               	retlw	97
   237  09A5  3420               	retlw	32
   238  09A6  3473               	retlw	115
   239  09A7  3465               	retlw	101
   240  09A8  346E               	retlw	110
   241  09A9  3468               	retlw	104
   242  09AA  3461               	retlw	97
   243  09AB  3400               	retlw	0
   244  0006                     _PORTB	set	6
   245  0009                     _PORTE	set	9
   246  0008                     _PORTD	set	8
   247  0033                     _RB3	set	51
   248  0032                     _RB2	set	50
   249  0031                     _RB1	set	49
   250  0030                     _RB0	set	48
   251  002B                     _RA3	set	43
   252  002C                     _RA4	set	44
   253  002D                     _RA5	set	45
   254  0029                     _RA1	set	41
   255  0086                     _TRISB	set	134
   256  0089                     _TRISE	set	137
   257  0088                     _TRISD	set	136
   258  0085                     _TRISA	set	133
   259  009F                     _ADCON1	set	159
   260                           
   261                           	psect	strings
   262  0800                     __pstrings:
   263  0800                     stringtab:
   264  0800                     __stringtab:
   265  0800                     stringcode:	
   266                           ;	String table - string pointers are 1 byte each
   267                           
   268  0800                     stringdir:
   269  0800  3008               	movlw	high stringdir
   270  0801  008A               	movwf	10
   271  0802  0804               	movf	4,w
   272  0803  0A84               	incf	4,f
   273  0804  0782               	addwf	2,f
   274  0805                     __stringbase:
   275  0805  3400               	retlw	0
   276  0806                     __end_of__stringtab:
   277  0806                     STR_10:
   278  0806  3430               	retlw	48	;'0'
   279  0807  3400               	retlw	0
   280  0808                     STR_1:
   281  0808  3431               	retlw	49	;'1'
   282  0809  3400               	retlw	0
   283  080A                     STR_2:
   284  080A  3432               	retlw	50	;'2'
   285  080B  3400               	retlw	0
   286  080C                     STR_3:
   287  080C  3433               	retlw	51	;'3'
   288  080D  3400               	retlw	0
   289  080E                     STR_4:
   290  080E  3434               	retlw	52	;'4'
   291  080F  3400               	retlw	0
   292  0810                     STR_5:
   293  0810  3435               	retlw	53	;'5'
   294  0811  3400               	retlw	0
   295  0812                     STR_6:
   296  0812  3436               	retlw	54	;'6'
   297  0813  3400               	retlw	0
   298  0814                     STR_7:
   299  0814  3437               	retlw	55	;'7'
   300  0815  3400               	retlw	0
   301  0816                     STR_8:
   302  0816  3438               	retlw	56	;'8'
   303  0817  3400               	retlw	0
   304  0818                     STR_9:
   305  0818  3439               	retlw	57	;'9'
   306  0819  3400               	retlw	0
   307                           
   308                           	psect	cinit
   309  07D9                     start_initialization:	
   310                           ; #config settings
   311                           
   312  07D9                     __initialization:
   313                           
   314                           ; Initialize objects allocated to BANK1
   315  07D9  1383               	bcf	3,7	;select IRP bank0
   316  07DA  30AF               	movlw	low (__pdataBANK1+15)
   317  07DB  00FD               	movwf	btemp+-1
   318  07DC  3009               	movlw	high __pidataBANK1
   319  07DD  00FE               	movwf	btemp
   320  07DE  309D               	movlw	low __pidataBANK1
   321  07DF  00FF               	movwf	btemp+1
   322  07E0  30A0               	movlw	low __pdataBANK1
   323  07E1  0084               	movwf	4
   324  07E2  120A  158A  2201  120A  118A  	fcall	init_ram0
   325                           
   326                           ; Initialize objects allocated to BANK0
   327  07E7  3067               	movlw	low (__pdataBANK0+16)
   328  07E8  00FD               	movwf	btemp+-1
   329  07E9  3009               	movlw	high __pidataBANK0
   330  07EA  00FE               	movwf	btemp
   331  07EB  30DC               	movlw	low __pidataBANK0
   332  07EC  00FF               	movwf	btemp+1
   333  07ED  3057               	movlw	low __pdataBANK0
   334  07EE  0084               	movwf	4
   335  07EF  120A  158A  2201  120A  118A  	fcall	init_ram0
   336                           
   337                           ; Clear objects allocated to BANK0
   338  07F4  3045               	movlw	low __pbssBANK0
   339  07F5  0084               	movwf	4
   340  07F6  3057               	movlw	low (__pbssBANK0+18)
   341  07F7  120A  158A  217B  120A  118A  	fcall	clear_ram0
   342  07FC                     end_of_initialization:	
   343                           ;End of C runtime variable initialization code
   344                           
   345  07FC                     __end_of__initialization:
   346  07FC  0183               	clrf	3
   347  07FD  120A  158A  2B97   	ljmp	_main	;jump to C main() function
   348                           
   349                           	psect	bssBANK0
   350  0045                     __pbssBANK0:
   351  0045                     _senhaConfig:
   352  0045                     	ds	5
   353  004A                     _senhaCoa:
   354  004A                     	ds	5
   355  004F                     _config:
   356  004F                     	ds	2
   357  0051                     _aux:
   358  0051                     	ds	1
   359  0052                     _senhaUserConfere:
   360  0052                     	ds	5
   361                           
   362                           	psect	dataBANK0
   363  0057                     __pdataBANK0:
   364  0057                     _userFalse:
   365  0057                     	ds	2
   366  0059                     _painel:
   367  0059                     	ds	2
   368  005B                     _input:
   369  005B                     	ds	2
   370  005D                     _msg2:
   371  005D                     	ds	5
   372  0062                     _senhaUser:
   373  0062                     	ds	5
   374                           
   375                           	psect	dataBANK1
   376  00A0                     __pdataBANK1:
   377  00A0                     _msg:
   378  00A0                     	ds	15
   379                           
   380                           	psect	inittext
   381  09FD                     init_fetch0:	
   382                           ;	Called with low address in FSR and high address in W
   383                           
   384  09FD  087E               	movf	btemp,w
   385  09FE  008A               	movwf	10
   386  09FF  087F               	movf	btemp+1,w
   387  0A00  0082               	movwf	2
   388  0A01                     init_ram0:	
   389                           ;Called with:
   390                           ;	high address of idata address in btemp 
   391                           ;	low address of idata address in btemp+1 
   392                           ;	low address of data in FSR
   393                           ;	high address + 1 of data in btemp-1
   394                           
   395  0A01  120A  158A  21FD  120A  158A  	fcall	init_fetch0
   396  0A06  0080               	movwf	0
   397  0A07  0A84               	incf	4,f
   398  0A08  0804               	movf	4,w
   399  0A09  067D               	xorwf	btemp+-1,w
   400  0A0A  1903               	btfsc	3,2
   401  0A0B  3400               	retlw	0
   402  0A0C  0AFF               	incf	btemp+1,f
   403  0A0D  1903               	btfsc	3,2
   404  0A0E  0AFE               	incf	btemp,f
   405  0A0F  2A01               	goto	init_ram0
   406                           
   407                           	psect	clrtext
   408  097B                     clear_ram0:	
   409                           ;	Called with FSR containing the base address, and
   410                           ;	W with the last address+1
   411                           
   412  097B  0064               	clrwdt	;clear the watchdog before getting into this loop
   413  097C                     clrloop0:
   414  097C  0180               	clrf	0	;clear RAM location pointed to by FSR
   415  097D  0A84               	incf	4,f	;increment pointer
   416  097E  0604               	xorwf	4,w	;XOR with final address
   417  097F  1903               	btfsc	3,2	;have we reached the end yet?
   418  0980  3400               	retlw	0	;all done for this memory range, return
   419  0981  0604               	xorwf	4,w	;XOR again to restore value
   420  0982  297C               	goto	clrloop0	;do the next byte
   421                           
   422                           	psect	cstackCOMMON
   423  0070                     __pcstackCOMMON:
   424  0070                     ?___flge:
   425  0070                     ?_LCD_enable:	
   426                           ; 1 bit 
   427                           
   428  0070                     ?_delay:	
   429                           ; 1 bytes @ 0x0
   430                           
   431  0070                     ??_delay:	
   432                           ; 1 bytes @ 0x0
   433                           
   434  0070                     ?_telaInicial:	
   435                           ; 1 bytes @ 0x0
   436                           
   437  0070                     ?_Linha2:	
   438                           ; 1 bytes @ 0x0
   439                           
   440  0070                     ?_validaUser:	
   441                           ; 1 bytes @ 0x0
   442                           
   443  0070                     ?_espacoLivre:	
   444                           ; 1 bytes @ 0x0
   445                           
   446  0070                     ?_strcpy:	
   447                           ; 1 bytes @ 0x0
   448                           
   449  0070                     ?_init:	
   450                           ; 1 bytes @ 0x0
   451                           
   452  0070                     ??_init:	
   453                           ; 1 bytes @ 0x0
   454                           
   455  0070                     ?_LCD_init:	
   456                           ; 1 bytes @ 0x0
   457                           
   458  0070                     ?_LCD_escreve:	
   459                           ; 1 bytes @ 0x0
   460                           
   461  0070                     ?_LCD_limpa:	
   462                           ; 1 bytes @ 0x0
   463                           
   464  0070                     ?_LCD_linha1:	
   465                           ; 1 bytes @ 0x0
   466                           
   467  0070                     ?_LCD_linha2:	
   468                           ; 1 bytes @ 0x0
   469                           
   470  0070                     ?_main:	
   471                           ; 1 bytes @ 0x0
   472                           
   473  0070                     ?_teclado:	
   474                           ; 1 bytes @ 0x0
   475                           
   476  0070                     ?_strlen:	
   477                           ; 1 bytes @ 0x0
   478                           
   479  0070                     ?_strcmp:	
   480                           ; 2 bytes @ 0x0
   481                           
   482  0070                     ?__Umul8_16:	
   483                           ; 2 bytes @ 0x0
   484                           
   485  0070                     ?___fladd:	
   486                           ; 2 bytes @ 0x0
   487                           
   488  0070                     __Umul8_16@multiplicand:	
   489                           ; 4 bytes @ 0x0
   490                           
   491  0070                     strcmp@s2:	
   492                           ; 1 bytes @ 0x0
   493                           
   494  0070                     strcpy@from:	
   495                           ; 1 bytes @ 0x0
   496                           
   497  0070                     delay@i:	
   498                           ; 1 bytes @ 0x0
   499                           
   500  0070                     ___flge@ff1:	
   501                           ; 2 bytes @ 0x0
   502                           
   503  0070                     ___fladd@b:	
   504                           ; 4 bytes @ 0x0
   505                           
   506                           
   507                           ; 4 bytes @ 0x0
   508  0070                     	ds	1
   509  0071                     ??_strcpy:
   510                           
   511                           ; 1 bytes @ 0x1
   512  0071                     	ds	1
   513  0072                     ??_LCD_enable:
   514  0072                     ??_strlen:	
   515                           ; 1 bytes @ 0x2
   516                           
   517  0072                     ??_strcmp:	
   518                           ; 1 bytes @ 0x2
   519                           
   520  0072                     ??__Umul8_16:	
   521                           ; 1 bytes @ 0x2
   522                           
   523  0072                     ??_LCD_init:	
   524                           ; 1 bytes @ 0x2
   525                           
   526  0072                     ??_LCD_escreve:	
   527                           ; 1 bytes @ 0x2
   528                           
   529  0072                     ??_LCD_limpa:	
   530                           ; 1 bytes @ 0x2
   531                           
   532  0072                     ??_LCD_linha1:	
   533                           ; 1 bytes @ 0x2
   534                           
   535  0072                     ??_LCD_linha2:	
   536                           ; 1 bytes @ 0x2
   537                           
   538  0072                     LCD_escreve@x:	
   539                           ; 1 bytes @ 0x2
   540                           
   541  0072                     strcpy@cp:	
   542                           ; 1 bytes @ 0x2
   543                           
   544                           
   545                           ; 1 bytes @ 0x2
   546  0072                     	ds	1
   547  0073                     ??_espacoLivre:
   548  0073                     strcpy@to:	
   549                           ; 1 bytes @ 0x3
   550                           
   551  0073                     strlen@cp:	
   552                           ; 1 bytes @ 0x3
   553                           
   554                           
   555                           ; 1 bytes @ 0x3
   556  0073                     	ds	1
   557  0074                     ?_strcat:
   558  0074                     strcat@from:	
   559                           ; 1 bytes @ 0x4
   560                           
   561  0074                     strlen@s:	
   562                           ; 1 bytes @ 0x4
   563                           
   564  0074                     __Umul8_16@product:	
   565                           ; 1 bytes @ 0x4
   566                           
   567  0074                     ___flge@ff2:	
   568                           ; 2 bytes @ 0x4
   569                           
   570  0074                     ___fladd@a:	
   571                           ; 4 bytes @ 0x4
   572                           
   573                           
   574                           ; 4 bytes @ 0x4
   575  0074                     	ds	1
   576  0075                     ??_telaInicial:
   577  0075                     ??_Linha2:	
   578                           ; 1 bytes @ 0x5
   579                           
   580  0075                     ??_strcat:	
   581                           ; 1 bytes @ 0x5
   582                           
   583  0075                     strcmp@r:	
   584                           ; 1 bytes @ 0x5
   585                           
   586                           
   587                           ; 1 bytes @ 0x5
   588  0075                     	ds	1
   589  0076                     strcat@to:
   590  0076                     strcmp@s1:	
   591                           ; 1 bytes @ 0x6
   592                           
   593  0076                     __Umul8_16@word_mpld:	
   594                           ; 1 bytes @ 0x6
   595                           
   596                           
   597                           ; 2 bytes @ 0x6
   598  0076                     	ds	1
   599  0077                     strcat@cp:
   600  0077                     telaInicial@i:	
   601                           ; 1 bytes @ 0x7
   602                           
   603  0077                     Linha2@i:	
   604                           ; 2 bytes @ 0x7
   605                           
   606                           
   607                           ; 2 bytes @ 0x7
   608  0077                     	ds	1
   609  0078                     ??___flge:
   610  0078                     ___fladd@signs:	
   611                           ; 1 bytes @ 0x8
   612                           
   613  0078                     __Umul8_16@multiplier:	
   614                           ; 1 bytes @ 0x8
   615                           
   616                           
   617                           ; 1 bytes @ 0x8
   618  0078                     	ds	1
   619  0079                     ??___flmul:
   620  0079                     ___fladd@aexp:	
   621                           ; 1 bytes @ 0x9
   622                           
   623                           
   624                           ; 1 bytes @ 0x9
   625  0079                     	ds	1
   626  007A                     ___fladd@bexp:
   627                           
   628                           ; 1 bytes @ 0xA
   629  007A                     	ds	1
   630  007B                     ___fladd@grs:
   631                           
   632                           ; 1 bytes @ 0xB
   633  007B                     	ds	1
   634  007C                     ??___flsub:
   635                           
   636                           ; 1 bytes @ 0xC
   637  007C                     	ds	2
   638  007E                     ??_main:
   639                           
   640                           	psect	cstackBANK0
   641  0020                     __pcstackBANK0:	
   642                           ; 1 bytes @ 0xE
   643                           
   644  0020                     ??___fladd:
   645  0020                     ?___flmul:	
   646                           ; 1 bytes @ 0x0
   647                           
   648  0020                     ___flmul@b:	
   649                           ; 4 bytes @ 0x0
   650                           
   651                           
   652                           ; 4 bytes @ 0x0
   653  0020                     	ds	4
   654  0024                     ___flmul@a:
   655                           
   656                           ; 4 bytes @ 0x4
   657  0024                     	ds	4
   658  0028                     ?___flsub:
   659  0028                     ___flmul@sign:	
   660                           ; 4 bytes @ 0x8
   661                           
   662  0028                     ___flsub@a:	
   663                           ; 1 bytes @ 0x8
   664                           
   665                           
   666                           ; 4 bytes @ 0x8
   667  0028                     	ds	1
   668  0029                     ___flmul@grs:
   669                           
   670                           ; 4 bytes @ 0x9
   671  0029                     	ds	3
   672  002C                     ___flsub@b:
   673                           
   674                           ; 4 bytes @ 0xC
   675  002C                     	ds	1
   676  002D                     ___flmul@aexp:
   677                           
   678                           ; 1 bytes @ 0xD
   679  002D                     	ds	1
   680  002E                     ___flmul@bexp:
   681                           
   682                           ; 1 bytes @ 0xE
   683  002E                     	ds	1
   684  002F                     ___flmul@prod:
   685                           
   686                           ; 4 bytes @ 0xF
   687  002F                     	ds	4
   688  0033                     ___flmul@temp:
   689                           
   690                           ; 2 bytes @ 0x13
   691  0033                     	ds	2
   692  0035                     ?_liga_buzzer:
   693  0035                     liga_buzzer@tempoSegundos:	
   694                           ; 1 bytes @ 0x15
   695                           
   696                           
   697                           ; 4 bytes @ 0x15
   698  0035                     	ds	4
   699  0039                     ??_liga_buzzer:
   700                           
   701                           ; 1 bytes @ 0x19
   702  0039                     	ds	2
   703  003B                     ??_teclado:
   704                           
   705                           ; 1 bytes @ 0x1B
   706  003B                     	ds	3
   707  003E                     ??_validaUser:
   708                           
   709                           ; 1 bytes @ 0x1E
   710  003E                     	ds	3
   711  0041                     validaUser@n:
   712                           
   713                           ; 2 bytes @ 0x21
   714  0041                     	ds	2
   715  0043                     main@a:
   716                           
   717                           ; 2 bytes @ 0x23
   718  0043                     	ds	2
   719                           
   720                           	psect	maintext
   721  0B97                     __pmaintext:	
   722 ;;
   723 ;;Main: autosize = 0, tempsize = 0, incstack = 0, save=0
   724 ;;
   725 ;; *************** function _main *****************
   726 ;; Defined at:
   727 ;;		line 39 in file "main.c"
   728 ;; Parameters:    Size  Location     Type
   729 ;;		None
   730 ;; Auto vars:     Size  Location     Type
   731 ;;  a               2   35[BANK0 ] int 
   732 ;; Return value:  Size  Location     Type
   733 ;;                  1    wreg      void 
   734 ;; Registers used:
   735 ;;		wreg, fsr0l, fsr0h, status,2, status,0, btemp+1, pclath, cstack
   736 ;; Tracked objects:
   737 ;;		On entry : B00/0
   738 ;;		On exit  : 0/0
   739 ;;		Unchanged: 0/0
   740 ;; Data sizes:     COMMON   BANK0   BANK1   BANK3   BANK2
   741 ;;      Params:         0       0       0       0       0
   742 ;;      Locals:         0       2       0       0       0
   743 ;;      Temps:          0       0       0       0       0
   744 ;;      Totals:         0       2       0       0       0
   745 ;;Total ram usage:        2 bytes
   746 ;; Hardware stack levels required when called: 5
   747 ;; This function calls:
   748 ;;		_LCD_escreve
   749 ;;		_LCD_init
   750 ;;		_LCD_limpa
   751 ;;		_Linha2
   752 ;;		_telaInicial
   753 ;;		_validaUser
   754 ;; This function is called by:
   755 ;;		Startup code after reset
   756 ;; This function uses a non-reentrant model
   757 ;;
   758                           
   759                           
   760                           ;psect for function _main
   761  0B97                     _main:
   762  0B97                     l2510:	
   763                           ;incstack = 0
   764                           ; Regs used in _main: [wreg-fsr0h+status,2+status,0+btemp+1+pclath+cstack]
   765                           
   766                           
   767                           ;main.c: 40:     TRISE = 0;
   768  0B97  1683               	bsf	3,5	;RP0=1, select bank1
   769  0B98  1303               	bcf	3,6	;RP1=0, select bank1
   770  0B99  0189               	clrf	9	;volatile
   771                           
   772                           ;main.c: 41:     TRISD = 0;
   773  0B9A  0188               	clrf	8	;volatile
   774  0B9B                     l2512:
   775                           
   776                           ;main.c: 42:     TRISB = 0x0F;
   777  0B9B  300F               	movlw	15
   778  0B9C  0086               	movwf	6	;volatile
   779  0B9D                     l2514:
   780                           
   781                           ;main.c: 44:     PORTE = 0x01;
   782  0B9D  3001               	movlw	1
   783  0B9E  1283               	bcf	3,5	;RP0=0, select bank0
   784  0B9F  1303               	bcf	3,6	;RP1=0, select bank0
   785  0BA0  0089               	movwf	9	;volatile
   786  0BA1                     l2516:
   787                           
   788                           ;main.c: 47:     LCD_init();
   789  0BA1  120A  158A  2329  120A  158A  	fcall	_LCD_init
   790  0BA6                     l2518:
   791                           
   792                           ;main.c: 48:     LCD_limpa();
   793  0BA6  120A  158A  21AC  120A  158A  	fcall	_LCD_limpa
   794  0BAB                     l2520:
   795                           
   796                           ;main.c: 53:         if (painel){
   797  0BAB  1283               	bcf	3,5	;RP0=0, select bank0
   798  0BAC  1303               	bcf	3,6	;RP1=0, select bank0
   799  0BAD  0859               	movf	_painel,w
   800  0BAE  045A               	iorwf	_painel+1,w
   801  0BAF  1903               	btfsc	3,2
   802  0BB0  2BB2               	goto	u2741
   803  0BB1  2BB3               	goto	u2740
   804  0BB2                     u2741:
   805  0BB2  2BC1               	goto	l2526
   806  0BB3                     u2740:
   807  0BB3                     l2522:
   808                           
   809                           ;main.c: 54:             telaInicial();
   810  0BB3  120A  118A  2006  120A  158A  	fcall	_telaInicial
   811                           
   812                           ;main.c: 55:             Linha2();
   813  0BB8  120A  158A  235C  120A  158A  	fcall	_Linha2
   814  0BBD                     l2524:
   815                           
   816                           ;main.c: 56:             painel = 0;
   817  0BBD  1283               	bcf	3,5	;RP0=0, select bank0
   818  0BBE  1303               	bcf	3,6	;RP1=0, select bank0
   819  0BBF  01D9               	clrf	_painel
   820  0BC0  01DA               	clrf	_painel+1
   821  0BC1                     l2526:
   822                           
   823                           ;main.c: 59:         if (userFalse == 1){
   824  0BC1  0357               	decf	_userFalse,w
   825  0BC2  0458               	iorwf	_userFalse+1,w
   826  0BC3  1D03               	btfss	3,2
   827  0BC4  2BC6               	goto	u2751
   828  0BC5  2BC7               	goto	u2750
   829  0BC6                     u2751:
   830  0BC6  2BCC               	goto	l2530
   831  0BC7                     u2750:
   832  0BC7                     l2528:
   833                           
   834                           ;main.c: 60:             validaUser();
   835  0BC7  120A  158A  23F2  120A  158A  	fcall	_validaUser
   836  0BCC                     l2530:
   837                           
   838                           ;main.c: 62:         int a = 3;
   839  0BCC  3003               	movlw	3
   840  0BCD  1283               	bcf	3,5	;RP0=0, select bank0
   841  0BCE  1303               	bcf	3,6	;RP1=0, select bank0
   842  0BCF  00C3               	movwf	main@a
   843  0BD0  3000               	movlw	0
   844  0BD1  00C4               	movwf	main@a+1
   845                           
   846                           ;main.c: 63:         while (a > 0){
   847  0BD2  2BE1               	goto	l2536
   848  0BD3                     l2532:
   849                           
   850                           ;main.c: 64:             LCD_escreve('E');
   851  0BD3  3045               	movlw	69
   852  0BD4  120A  158A  21EC  120A  158A  	fcall	_LCD_escreve
   853  0BD9                     l2534:
   854                           
   855                           ;main.c: 65:             a--;
   856  0BD9  30FF               	movlw	255
   857  0BDA  1283               	bcf	3,5	;RP0=0, select bank0
   858  0BDB  1303               	bcf	3,6	;RP1=0, select bank0
   859  0BDC  07C3               	addwf	main@a,f
   860  0BDD  1803               	skipnc
   861  0BDE  0AC4               	incf	main@a+1,f
   862  0BDF  30FF               	movlw	255
   863  0BE0  07C4               	addwf	main@a+1,f
   864  0BE1                     l2536:
   865                           
   866                           ;main.c: 63:         while (a > 0){
   867  0BE1  0844               	movf	main@a+1,w
   868  0BE2  3A80               	xorlw	128
   869  0BE3  00FF               	movwf	btemp+1
   870  0BE4  3080               	movlw	128
   871  0BE5  027F               	subwf	btemp+1,w
   872  0BE6  1D03               	skipz
   873  0BE7  2BEA               	goto	u2765
   874  0BE8  3001               	movlw	1
   875  0BE9  0243               	subwf	main@a,w
   876  0BEA                     u2765:
   877  0BEA  1803               	skipnc
   878  0BEB  2BED               	goto	u2761
   879  0BEC  2BEE               	goto	u2760
   880  0BED                     u2761:
   881  0BED  2BD3               	goto	l2532
   882  0BEE                     u2760:
   883  0BEE  2BAB               	goto	l2520
   884  0BEF  120A  118A  2800   	ljmp	start
   885  0BF2                     __end_of_main:
   886                           
   887                           	psect	text1
   888  0BF2                     __ptext1:	
   889 ;; *************** function _validaUser *****************
   890 ;; Defined at:
   891 ;;		line 367 in file "main.c"
   892 ;; Parameters:    Size  Location     Type
   893 ;;		None
   894 ;; Auto vars:     Size  Location     Type
   895 ;;  n               2   33[BANK0 ] int 
   896 ;; Return value:  Size  Location     Type
   897 ;;                  1    wreg      void 
   898 ;; Registers used:
   899 ;;		wreg, fsr0l, fsr0h, status,2, status,0, btemp+1, pclath, cstack
   900 ;; Tracked objects:
   901 ;;		On entry : 0/0
   902 ;;		On exit  : 0/0
   903 ;;		Unchanged: 0/0
   904 ;; Data sizes:     COMMON   BANK0   BANK1   BANK3   BANK2
   905 ;;      Params:         0       0       0       0       0
   906 ;;      Locals:         0       2       0       0       0
   907 ;;      Temps:          0       3       0       0       0
   908 ;;      Totals:         0       5       0       0       0
   909 ;;Total ram usage:        5 bytes
   910 ;; Hardware stack levels used: 1
   911 ;; Hardware stack levels required when called: 4
   912 ;; This function calls:
   913 ;;		_LCD_escreve
   914 ;;		_liga_buzzer
   915 ;;		_strcat
   916 ;;		_strcmp
   917 ;;		_strcpy
   918 ;;		_teclado
   919 ;; This function is called by:
   920 ;;		_main
   921 ;; This function uses a non-reentrant model
   922 ;;
   923                           
   924                           
   925                           ;psect for function _validaUser
   926  0BF2                     _validaUser:
   927  0BF2                     l2426:	
   928                           ;incstack = 0
   929                           ; Regs used in _validaUser: [wreg-fsr0h+status,2+status,0+btemp+1+pclath+cstack]
   930                           
   931                           
   932                           ;main.c: 368:     int n = 3;
   933  0BF2  3003               	movlw	3
   934  0BF3  1283               	bcf	3,5	;RP0=0, select bank0
   935  0BF4  1303               	bcf	3,6	;RP1=0, select bank0
   936  0BF5  00C1               	movwf	validaUser@n
   937  0BF6  3000               	movlw	0
   938  0BF7  00C2               	movwf	validaUser@n+1
   939                           
   940                           ;main.c: 369:     while( userFalse == 1 ){
   941  0BF8  2D5F               	goto	l2496
   942  0BF9                     l2428:
   943                           
   944                           ;main.c: 372:             if(n == 1){
   945  0BF9  1283               	bcf	3,5	;RP0=0, select bank0
   946  0BFA  1303               	bcf	3,6	;RP1=0, select bank0
   947  0BFB  0341               	decf	validaUser@n,w
   948  0BFC  0442               	iorwf	validaUser@n+1,w
   949  0BFD  1D03               	btfss	3,2
   950  0BFE  2C00               	goto	u2681
   951  0BFF  2C01               	goto	u2680
   952  0C00                     u2681:
   953  0C00  2C64               	goto	l2434
   954  0C01                     u2680:
   955  0C01                     l2430:
   956                           
   957                           ;main.c: 373:                 LCD_escreve('U');
   958  0C01  3055               	movlw	85
   959  0C02  120A  158A  21EC  120A  158A  	fcall	_LCD_escreve
   960                           
   961                           ;main.c: 374:                 LCD_escreve('l');
   962  0C07  306C               	movlw	108
   963  0C08  120A  158A  21EC  120A  158A  	fcall	_LCD_escreve
   964                           
   965                           ;main.c: 375:                 LCD_escreve('t');
   966  0C0D  3074               	movlw	116
   967  0C0E  120A  158A  21EC  120A  158A  	fcall	_LCD_escreve
   968                           
   969                           ;main.c: 376:                 LCD_escreve('i');
   970  0C13  3069               	movlw	105
   971  0C14  120A  158A  21EC  120A  158A  	fcall	_LCD_escreve
   972                           
   973                           ;main.c: 377:                 LCD_escreve('m');
   974  0C19  306D               	movlw	109
   975  0C1A  120A  158A  21EC  120A  158A  	fcall	_LCD_escreve
   976                           
   977                           ;main.c: 378:                 LCD_escreve('a');
   978  0C1F  3061               	movlw	97
   979  0C20  120A  158A  21EC  120A  158A  	fcall	_LCD_escreve
   980                           
   981                           ;main.c: 379:                 LCD_escreve(' ');
   982  0C25  3020               	movlw	32
   983  0C26  120A  158A  21EC  120A  158A  	fcall	_LCD_escreve
   984                           
   985                           ;main.c: 380:                 LCD_escreve('C');
   986  0C2B  3043               	movlw	67
   987  0C2C  120A  158A  21EC  120A  158A  	fcall	_LCD_escreve
   988                           
   989                           ;main.c: 381:                 LCD_escreve('h');
   990  0C31  3068               	movlw	104
   991  0C32  120A  158A  21EC  120A  158A  	fcall	_LCD_escreve
   992                           
   993                           ;main.c: 382:                 LCD_escreve('a');
   994  0C37  3061               	movlw	97
   995  0C38  120A  158A  21EC  120A  158A  	fcall	_LCD_escreve
   996                           
   997                           ;main.c: 383:                 LCD_escreve('n');
   998  0C3D  306E               	movlw	110
   999  0C3E  120A  158A  21EC  120A  158A  	fcall	_LCD_escreve
  1000                           
  1001                           ;main.c: 384:                 LCD_escreve('c');
  1002  0C43  3063               	movlw	99
  1003  0C44  120A  158A  21EC  120A  158A  	fcall	_LCD_escreve
  1004                           
  1005                           ;main.c: 385:                 LCD_escreve('e');
  1006  0C49  3065               	movlw	101
  1007  0C4A  120A  158A  21EC  120A  158A  	fcall	_LCD_escreve
  1008                           
  1009                           ;main.c: 386:                 liga_buzzer(2);
  1010  0C4F  3040               	movlw	64
  1011  0C50  1283               	bcf	3,5	;RP0=0, select bank0
  1012  0C51  1303               	bcf	3,6	;RP1=0, select bank0
  1013  0C52  00B8               	movwf	liga_buzzer@tempoSegundos+3
  1014  0C53  3000               	movlw	0
  1015  0C54  00B7               	movwf	liga_buzzer@tempoSegundos+2
  1016  0C55  3000               	movlw	0
  1017  0C56  00B6               	movwf	liga_buzzer@tempoSegundos+1
  1018  0C57  3000               	movlw	0
  1019  0C58  00B5               	movwf	liga_buzzer@tempoSegundos
  1020  0C59  120A  118A  2043  120A  158A  	fcall	_liga_buzzer
  1021  0C5E  2C64               	goto	l2434
  1022  0C5F                     l2432:
  1023                           
  1024                           ;main.c: 390:                 teclado();
  1025  0C5F  120A  118A  2161  120A  158A  	fcall	_teclado
  1026  0C64                     l2434:
  1027                           
  1028                           ;main.c: 389:             while (input == 10){
  1029  0C64  300A               	movlw	10
  1030  0C65  1283               	bcf	3,5	;RP0=0, select bank0
  1031  0C66  1303               	bcf	3,6	;RP1=0, select bank0
  1032  0C67  065B               	xorwf	_input,w
  1033  0C68  045C               	iorwf	_input+1,w
  1034  0C69  1903               	btfsc	3,2
  1035  0C6A  2C6C               	goto	u2691
  1036  0C6B  2C6D               	goto	u2690
  1037  0C6C                     u2691:
  1038  0C6C  2C5F               	goto	l2432
  1039  0C6D                     u2690:
  1040  0C6D  2CA0               	goto	l2458
  1041  0C6E                     l2436:
  1042                           
  1043                           ;main.c: 397:                     aux = "1";
  1044  0C6E  3003               	movlw	(low ((STR_1-__stringbase)| (0+32768)))& (0+255)
  1045  0C6F  00BE               	movwf	??_validaUser
  1046  0C70  083E               	movf	??_validaUser,w
  1047  0C71  00D1               	movwf	_aux
  1048                           
  1049                           ;main.c: 398:                 break;
  1050  0C72  2CC5               	goto	l2460
  1051  0C73                     l2438:
  1052                           
  1053                           ;main.c: 400:                     aux = "2";
  1054  0C73  3005               	movlw	(low ((STR_2-__stringbase)| (0+32768)))& (0+255)
  1055  0C74  00BE               	movwf	??_validaUser
  1056  0C75  083E               	movf	??_validaUser,w
  1057  0C76  00D1               	movwf	_aux
  1058                           
  1059                           ;main.c: 401:                 break;
  1060  0C77  2CC5               	goto	l2460
  1061  0C78                     l2440:
  1062                           
  1063                           ;main.c: 403:                     aux = "3";
  1064  0C78  3007               	movlw	(low ((STR_3-__stringbase)| (0+32768)))& (0+255)
  1065  0C79  00BE               	movwf	??_validaUser
  1066  0C7A  083E               	movf	??_validaUser,w
  1067  0C7B  00D1               	movwf	_aux
  1068                           
  1069                           ;main.c: 404:                 break;
  1070  0C7C  2CC5               	goto	l2460
  1071  0C7D                     l2442:
  1072                           
  1073                           ;main.c: 406:                     aux = "4";
  1074  0C7D  3009               	movlw	(low ((STR_4-__stringbase)| (0+32768)))& (0+255)
  1075  0C7E  00BE               	movwf	??_validaUser
  1076  0C7F  083E               	movf	??_validaUser,w
  1077  0C80  00D1               	movwf	_aux
  1078                           
  1079                           ;main.c: 407:                 break;
  1080  0C81  2CC5               	goto	l2460
  1081  0C82                     l2444:
  1082                           
  1083                           ;main.c: 409:                     aux = "5";
  1084  0C82  300B               	movlw	(low ((STR_5-__stringbase)| (0+32768)))& (0+255)
  1085  0C83  00BE               	movwf	??_validaUser
  1086  0C84  083E               	movf	??_validaUser,w
  1087  0C85  00D1               	movwf	_aux
  1088                           
  1089                           ;main.c: 410:                 break;
  1090  0C86  2CC5               	goto	l2460
  1091  0C87                     l2446:
  1092                           
  1093                           ;main.c: 412:                     aux = "6";
  1094  0C87  300D               	movlw	(low ((STR_6-__stringbase)| (0+32768)))& (0+255)
  1095  0C88  00BE               	movwf	??_validaUser
  1096  0C89  083E               	movf	??_validaUser,w
  1097  0C8A  00D1               	movwf	_aux
  1098                           
  1099                           ;main.c: 413:                 break;
  1100  0C8B  2CC5               	goto	l2460
  1101  0C8C                     l2448:
  1102                           
  1103                           ;main.c: 415:                     aux = "7";
  1104  0C8C  300F               	movlw	(low ((STR_7-__stringbase)| (0+32768)))& (0+255)
  1105  0C8D  00BE               	movwf	??_validaUser
  1106  0C8E  083E               	movf	??_validaUser,w
  1107  0C8F  00D1               	movwf	_aux
  1108                           
  1109                           ;main.c: 416:                 break;
  1110  0C90  2CC5               	goto	l2460
  1111  0C91                     l2450:
  1112                           
  1113                           ;main.c: 418:                     aux = "8";
  1114  0C91  3011               	movlw	(low ((STR_8-__stringbase)| (0+32768)))& (0+255)
  1115  0C92  00BE               	movwf	??_validaUser
  1116  0C93  083E               	movf	??_validaUser,w
  1117  0C94  00D1               	movwf	_aux
  1118                           
  1119                           ;main.c: 419:                 break;
  1120  0C95  2CC5               	goto	l2460
  1121  0C96                     l2452:
  1122                           
  1123                           ;main.c: 421:                     aux = "9";
  1124  0C96  3013               	movlw	(low ((STR_9-__stringbase)| (0+32768)))& (0+255)
  1125  0C97  00BE               	movwf	??_validaUser
  1126  0C98  083E               	movf	??_validaUser,w
  1127  0C99  00D1               	movwf	_aux
  1128                           
  1129                           ;main.c: 422:                 break;
  1130  0C9A  2CC5               	goto	l2460
  1131  0C9B                     l2454:
  1132                           
  1133                           ;main.c: 424:                     aux = "0";
  1134  0C9B  3001               	movlw	(low ((STR_10-__stringbase)| (0+32768)))& (0+255)
  1135  0C9C  00BE               	movwf	??_validaUser
  1136  0C9D  083E               	movf	??_validaUser,w
  1137  0C9E  00D1               	movwf	_aux
  1138                           
  1139                           ;main.c: 425:                 break;
  1140  0C9F  2CC5               	goto	l2460
  1141  0CA0                     l2458:
  1142                           
  1143                           ; Switch on 2 bytes has been partitioned into a top level switch of size 1, and 1 sub-sw
      +                          itches
  1144                           ; Switch size 1, requested type "simple"
  1145                           ; Number of cases is 1, Range of values is 0 to 0
  1146                           ; switch strategies available:
  1147                           ; Name         Instructions Cycles
  1148                           ; simple_byte            4     3 (average)
  1149                           ; direct_byte           11     8 (fixed)
  1150                           ; jumptable            260     6 (fixed)
  1151                           ;	Chosen strategy is simple_byte
  1152  0CA0  085C               	movf	_input+1,w
  1153  0CA1  3A00               	xorlw	0	; case 0
  1154  0CA2  1903               	skipnz
  1155  0CA3  2CA5               	goto	l2558
  1156  0CA4  2CC5               	goto	l2460
  1157  0CA5                     l2558:
  1158                           
  1159                           ; Switch size 1, requested type "simple"
  1160                           ; Number of cases is 10, Range of values is 0 to 9
  1161                           ; switch strategies available:
  1162                           ; Name         Instructions Cycles
  1163                           ; simple_byte           31    16 (average)
  1164                           ; direct_byte           38     8 (fixed)
  1165                           ; jumptable            260     6 (fixed)
  1166                           ;	Chosen strategy is simple_byte
  1167  0CA5  085B               	movf	_input,w
  1168  0CA6  3A00               	xorlw	0	; case 0
  1169  0CA7  1903               	skipnz
  1170  0CA8  2C9B               	goto	l2454
  1171  0CA9  3A01               	xorlw	1	; case 1
  1172  0CAA  1903               	skipnz
  1173  0CAB  2C6E               	goto	l2436
  1174  0CAC  3A03               	xorlw	3	; case 2
  1175  0CAD  1903               	skipnz
  1176  0CAE  2C73               	goto	l2438
  1177  0CAF  3A01               	xorlw	1	; case 3
  1178  0CB0  1903               	skipnz
  1179  0CB1  2C78               	goto	l2440
  1180  0CB2  3A07               	xorlw	7	; case 4
  1181  0CB3  1903               	skipnz
  1182  0CB4  2C7D               	goto	l2442
  1183  0CB5  3A01               	xorlw	1	; case 5
  1184  0CB6  1903               	skipnz
  1185  0CB7  2C82               	goto	l2444
  1186  0CB8  3A03               	xorlw	3	; case 6
  1187  0CB9  1903               	skipnz
  1188  0CBA  2C87               	goto	l2446
  1189  0CBB  3A01               	xorlw	1	; case 7
  1190  0CBC  1903               	skipnz
  1191  0CBD  2C8C               	goto	l2448
  1192  0CBE  3A0F               	xorlw	15	; case 8
  1193  0CBF  1903               	skipnz
  1194  0CC0  2C91               	goto	l2450
  1195  0CC1  3A01               	xorlw	1	; case 9
  1196  0CC2  1903               	skipnz
  1197  0CC3  2C96               	goto	l2452
  1198  0CC4  2CC5               	goto	l2460
  1199  0CC5                     l2460:
  1200                           
  1201                           ;main.c: 428:             strcat(strcpy(senhaUserConfere, senhaUserConfere), aux);
  1202  0CC5  0851               	movf	_aux,w
  1203  0CC6  00BE               	movwf	??_validaUser
  1204  0CC7  083E               	movf	??_validaUser,w
  1205  0CC8  00F4               	movwf	strcat@from
  1206  0CC9  3052               	movlw	(low (_senhaUserConfere| 0))& (0+255)
  1207  0CCA  00BF               	movwf	??_validaUser+1
  1208  0CCB  083F               	movf	??_validaUser+1,w
  1209  0CCC  00F0               	movwf	strcpy@from
  1210  0CCD  3052               	movlw	(low (_senhaUserConfere| 0))& (0+255)
  1211  0CCE  120A  158A  223F  120A  158A  	fcall	_strcpy
  1212  0CD3  120A  158A  22FC  120A  158A  	fcall	_strcat
  1213                           
  1214                           ;main.c: 430:             if (strcmp(senhaUser, senhaUserConfere) == 0){
  1215  0CD8  3052               	movlw	(low (_senhaUserConfere| 0))& (0+255)
  1216  0CD9  1283               	bcf	3,5	;RP0=0, select bank0
  1217  0CDA  1303               	bcf	3,6	;RP1=0, select bank0
  1218  0CDB  00BE               	movwf	??_validaUser
  1219  0CDC  083E               	movf	??_validaUser,w
  1220  0CDD  00F0               	movwf	strcmp@s2
  1221  0CDE  3062               	movlw	(low (_senhaUser| 0))& (0+255)
  1222  0CDF  120A  158A  22D2  120A  158A  	fcall	_strcmp
  1223  0CE4  0870               	movf	?_strcmp,w
  1224  0CE5  0471               	iorwf	?_strcmp+1,w
  1225  0CE6  1D03               	btfss	3,2
  1226  0CE7  2CE9               	goto	u2701
  1227  0CE8  2CEA               	goto	u2700
  1228  0CE9                     u2701:
  1229  0CE9  2D4A               	goto	l2492
  1230  0CEA                     u2700:
  1231  0CEA                     l2462:
  1232                           
  1233                           ;main.c: 431:                 userFalse = 0;
  1234  0CEA  1283               	bcf	3,5	;RP0=0, select bank0
  1235  0CEB  1303               	bcf	3,6	;RP1=0, select bank0
  1236  0CEC  01D7               	clrf	_userFalse
  1237  0CED  01D8               	clrf	_userFalse+1
  1238  0CEE                     l2464:
  1239                           
  1240                           ;main.c: 432:                 LCD_escreve('S');
  1241  0CEE  3053               	movlw	83
  1242  0CEF  120A  158A  21EC  120A  158A  	fcall	_LCD_escreve
  1243  0CF4                     l2466:
  1244                           
  1245                           ;main.c: 433:                 LCD_escreve('e');
  1246  0CF4  3065               	movlw	101
  1247  0CF5  120A  158A  21EC  120A  158A  	fcall	_LCD_escreve
  1248  0CFA                     l2468:
  1249                           
  1250                           ;main.c: 434:                 LCD_escreve('n');
  1251  0CFA  306E               	movlw	110
  1252  0CFB  120A  158A  21EC  120A  158A  	fcall	_LCD_escreve
  1253  0D00                     l2470:
  1254                           
  1255                           ;main.c: 435:                 LCD_escreve('h');
  1256  0D00  3068               	movlw	104
  1257  0D01  120A  158A  21EC  120A  158A  	fcall	_LCD_escreve
  1258  0D06                     l2472:
  1259                           
  1260                           ;main.c: 436:                 LCD_escreve('a');
  1261  0D06  3061               	movlw	97
  1262  0D07  120A  158A  21EC  120A  158A  	fcall	_LCD_escreve
  1263  0D0C                     l2474:
  1264                           
  1265                           ;main.c: 437:                 LCD_escreve(' ');
  1266  0D0C  3020               	movlw	32
  1267  0D0D  120A  158A  21EC  120A  158A  	fcall	_LCD_escreve
  1268  0D12                     l2476:
  1269                           
  1270                           ;main.c: 438:                 LCD_escreve('c');
  1271  0D12  3063               	movlw	99
  1272  0D13  120A  158A  21EC  120A  158A  	fcall	_LCD_escreve
  1273  0D18                     l2478:
  1274                           
  1275                           ;main.c: 439:                 LCD_escreve('o');
  1276  0D18  306F               	movlw	111
  1277  0D19  120A  158A  21EC  120A  158A  	fcall	_LCD_escreve
  1278  0D1E                     l2480:
  1279                           
  1280                           ;main.c: 440:                 LCD_escreve('r');
  1281  0D1E  3072               	movlw	114
  1282  0D1F  120A  158A  21EC  120A  158A  	fcall	_LCD_escreve
  1283  0D24                     l2482:
  1284                           
  1285                           ;main.c: 441:                 LCD_escreve('r');
  1286  0D24  3072               	movlw	114
  1287  0D25  120A  158A  21EC  120A  158A  	fcall	_LCD_escreve
  1288  0D2A                     l2484:
  1289                           
  1290                           ;main.c: 442:                 LCD_escreve('e');
  1291  0D2A  3065               	movlw	101
  1292  0D2B  120A  158A  21EC  120A  158A  	fcall	_LCD_escreve
  1293  0D30                     l2486:
  1294                           
  1295                           ;main.c: 443:                 LCD_escreve('t');
  1296  0D30  3074               	movlw	116
  1297  0D31  120A  158A  21EC  120A  158A  	fcall	_LCD_escreve
  1298  0D36                     l2488:
  1299                           
  1300                           ;main.c: 444:                 LCD_escreve('a');
  1301  0D36  3061               	movlw	97
  1302  0D37  120A  158A  21EC  120A  158A  	fcall	_LCD_escreve
  1303  0D3C                     l2490:
  1304                           
  1305                           ;main.c: 445:                 _delay((unsigned long)((2500)*(20000000/4000.0)));
  1306  0D3C  3040               	movlw	64
  1307  0D3D  1283               	bcf	3,5	;RP0=0, select bank0
  1308  0D3E  1303               	bcf	3,6	;RP1=0, select bank0
  1309  0D3F  00C0               	movwf	??_validaUser+2
  1310  0D40  306A               	movlw	106
  1311  0D41  00BF               	movwf	??_validaUser+1
  1312  0D42  3097               	movlw	151
  1313  0D43  00BE               	movwf	??_validaUser
  1314  0D44                     u2777:
  1315  0D44  0BBE               	decfsz	??_validaUser,f
  1316  0D45  2D44               	goto	u2777
  1317  0D46  0BBF               	decfsz	??_validaUser+1,f
  1318  0D47  2D44               	goto	u2777
  1319  0D48  0BC0               	decfsz	??_validaUser+2,f
  1320  0D49  2D44               	goto	u2777
  1321  0D4A                     l2492:
  1322                           
  1323                           ;main.c: 448:             n--;
  1324  0D4A  30FF               	movlw	255
  1325  0D4B  1283               	bcf	3,5	;RP0=0, select bank0
  1326  0D4C  1303               	bcf	3,6	;RP1=0, select bank0
  1327  0D4D  07C1               	addwf	validaUser@n,f
  1328  0D4E  1803               	skipnc
  1329  0D4F  0AC2               	incf	validaUser@n+1,f
  1330  0D50  30FF               	movlw	255
  1331  0D51  07C2               	addwf	validaUser@n+1,f
  1332  0D52                     l2494:
  1333                           
  1334                           ;main.c: 370:         while(n > 0){
  1335  0D52  0842               	movf	validaUser@n+1,w
  1336  0D53  3A80               	xorlw	128
  1337  0D54  00FF               	movwf	btemp+1
  1338  0D55  3080               	movlw	128
  1339  0D56  027F               	subwf	btemp+1,w
  1340  0D57  1D03               	skipz
  1341  0D58  2D5B               	goto	u2715
  1342  0D59  3001               	movlw	1
  1343  0D5A  0241               	subwf	validaUser@n,w
  1344  0D5B                     u2715:
  1345  0D5B  1803               	skipnc
  1346  0D5C  2D5E               	goto	u2711
  1347  0D5D  2D5F               	goto	u2710
  1348  0D5E                     u2711:
  1349  0D5E  2BF9               	goto	l2428
  1350  0D5F                     u2710:
  1351  0D5F                     l2496:
  1352                           
  1353                           ;main.c: 369:     while( userFalse == 1 ){
  1354  0D5F  1283               	bcf	3,5	;RP0=0, select bank0
  1355  0D60  1303               	bcf	3,6	;RP1=0, select bank0
  1356  0D61  0357               	decf	_userFalse,w
  1357  0D62  0458               	iorwf	_userFalse+1,w
  1358  0D63  1903               	btfsc	3,2
  1359  0D64  2D66               	goto	u2721
  1360  0D65  2D67               	goto	u2720
  1361  0D66                     u2721:
  1362  0D66  2D52               	goto	l2494
  1363  0D67                     u2720:
  1364  0D67                     l197:
  1365  0D67  0008               	return
  1366  0D68                     __end_of_validaUser:
  1367                           
  1368                           	psect	text2
  1369  0161                     __ptext2:	
  1370 ;; *************** function _teclado *****************
  1371 ;; Defined at:
  1372 ;;		line 103 in file "main.c"
  1373 ;; Parameters:    Size  Location     Type
  1374 ;;		None
  1375 ;; Auto vars:     Size  Location     Type
  1376 ;;		None
  1377 ;; Return value:  Size  Location     Type
  1378 ;;                  1    wreg      void 
  1379 ;; Registers used:
  1380 ;;		wreg, status,2, status,0, btemp+1, pclath, cstack
  1381 ;; Tracked objects:
  1382 ;;		On entry : 0/0
  1383 ;;		On exit  : 0/0
  1384 ;;		Unchanged: 0/0
  1385 ;; Data sizes:     COMMON   BANK0   BANK1   BANK3   BANK2
  1386 ;;      Params:         0       0       0       0       0
  1387 ;;      Locals:         0       0       0       0       0
  1388 ;;      Temps:          0       3       0       0       0
  1389 ;;      Totals:         0       3       0       0       0
  1390 ;;Total ram usage:        3 bytes
  1391 ;; Hardware stack levels used: 1
  1392 ;; Hardware stack levels required when called: 3
  1393 ;; This function calls:
  1394 ;;		_LCD_escreve
  1395 ;;		_liga_buzzer
  1396 ;; This function is called by:
  1397 ;;		_validaUser
  1398 ;; This function uses a non-reentrant model
  1399 ;;
  1400                           
  1401                           
  1402                           ;psect for function _teclado
  1403  0161                     _teclado:
  1404  0161                     l2144:	
  1405                           ;incstack = 0
  1406                           ; Regs used in _teclado: [wreg+status,2+status,0+btemp+1+pclath+cstack]
  1407                           
  1408                           
  1409                           ;main.c: 105:     PORTE = 0x01;
  1410  0161  3001               	movlw	1
  1411  0162  1283               	bcf	3,5	;RP0=0, select bank0
  1412  0163  1303               	bcf	3,6	;RP1=0, select bank0
  1413  0164  0089               	movwf	9	;volatile
  1414                           
  1415                           ;main.c: 109:     PORTB = 0b11101111;
  1416  0165  30EF               	movlw	239
  1417  0166  0086               	movwf	6	;volatile
  1418  0167                     l2146:
  1419                           
  1420                           ;main.c: 113:     if (RB0 == 0){
  1421  0167  1806               	btfsc	6,0	;volatile
  1422  0168  296A               	goto	u2341
  1423  0169  296B               	goto	u2340
  1424  016A                     u2341:
  1425  016A  29B0               	goto	l2166
  1426  016B                     u2340:
  1427  016B                     l2148:
  1428                           
  1429                           ;main.c: 114:         _delay((unsigned long)((200)*(20000000/4000.0)));
  1430  016B  3006               	movlw	6
  1431  016C  1283               	bcf	3,5	;RP0=0, select bank0
  1432  016D  1303               	bcf	3,6	;RP1=0, select bank0
  1433  016E  00BD               	movwf	??_teclado+2
  1434  016F  3013               	movlw	19
  1435  0170  00BC               	movwf	??_teclado+1
  1436  0171  30AD               	movlw	173
  1437  0172  00BB               	movwf	??_teclado
  1438  0173                     u2787:
  1439  0173  0BBB               	decfsz	??_teclado,f
  1440  0174  2973               	goto	u2787
  1441  0175  0BBC               	decfsz	??_teclado+1,f
  1442  0176  2973               	goto	u2787
  1443  0177  0BBD               	decfsz	??_teclado+2,f
  1444  0178  2973               	goto	u2787
  1445  0179                     l2150:
  1446                           
  1447                           ;main.c: 115:         liga_buzzer(0.1);
  1448  0179  303D               	movlw	61
  1449  017A  1283               	bcf	3,5	;RP0=0, select bank0
  1450  017B  1303               	bcf	3,6	;RP1=0, select bank0
  1451  017C  00B8               	movwf	liga_buzzer@tempoSegundos+3
  1452  017D  30CC               	movlw	204
  1453  017E  00B7               	movwf	liga_buzzer@tempoSegundos+2
  1454  017F  30CC               	movlw	204
  1455  0180  00B6               	movwf	liga_buzzer@tempoSegundos+1
  1456  0181  30CD               	movlw	205
  1457  0182  00B5               	movwf	liga_buzzer@tempoSegundos
  1458  0183  120A  118A  2043  120A  118A  	fcall	_liga_buzzer
  1459  0188                     l2152:
  1460                           
  1461                           ;main.c: 116:         LCD_escreve('0');
  1462  0188  3030               	movlw	48
  1463  0189  120A  158A  21EC  120A  118A  	fcall	_LCD_escreve
  1464  018E                     l2154:
  1465                           
  1466                           ;main.c: 118:         if(userFalse == 1){
  1467  018E  1283               	bcf	3,5	;RP0=0, select bank0
  1468  018F  1303               	bcf	3,6	;RP1=0, select bank0
  1469  0190  0357               	decf	_userFalse,w
  1470  0191  0458               	iorwf	_userFalse+1,w
  1471  0192  1D03               	btfss	3,2
  1472  0193  2995               	goto	u2351
  1473  0194  2996               	goto	u2350
  1474  0195                     u2351:
  1475  0195  2998               	goto	l2158
  1476  0196                     u2350:
  1477  0196                     l2156:
  1478                           
  1479                           ;main.c: 119:             input = 0;
  1480  0196  01DB               	clrf	_input
  1481  0197  01DC               	clrf	_input+1
  1482  0198                     l2158:
  1483                           
  1484                           ;main.c: 122:         LCD_escreve('0');
  1485  0198  3030               	movlw	48
  1486  0199  120A  158A  21EC  120A  118A  	fcall	_LCD_escreve
  1487  019E                     l2160:
  1488                           
  1489                           ;main.c: 123:         LCD_escreve('0');
  1490  019E  3030               	movlw	48
  1491  019F  120A  158A  21EC  120A  118A  	fcall	_LCD_escreve
  1492  01A4                     l2162:
  1493                           
  1494                           ;main.c: 124:         LCD_escreve('0');
  1495  01A4  3030               	movlw	48
  1496  01A5  120A  158A  21EC  120A  118A  	fcall	_LCD_escreve
  1497  01AA                     l2164:
  1498                           
  1499                           ;main.c: 125:         LCD_escreve('0');
  1500  01AA  3030               	movlw	48
  1501  01AB  120A  158A  21EC  120A  118A  	fcall	_LCD_escreve
  1502  01B0                     l2166:
  1503                           
  1504                           ;main.c: 131:     if (RB1 == 0){
  1505  01B0  1283               	bcf	3,5	;RP0=0, select bank0
  1506  01B1  1303               	bcf	3,6	;RP1=0, select bank0
  1507  01B2  1886               	btfsc	6,1	;volatile
  1508  01B3  29B5               	goto	u2361
  1509  01B4  29B6               	goto	u2360
  1510  01B5                     u2361:
  1511  01B5  29E5               	goto	l2178
  1512  01B6                     u2360:
  1513  01B6                     l2168:
  1514                           
  1515                           ;main.c: 132:         _delay((unsigned long)((200)*(20000000/4000.0)));
  1516  01B6  3006               	movlw	6
  1517  01B7  1283               	bcf	3,5	;RP0=0, select bank0
  1518  01B8  1303               	bcf	3,6	;RP1=0, select bank0
  1519  01B9  00BD               	movwf	??_teclado+2
  1520  01BA  3013               	movlw	19
  1521  01BB  00BC               	movwf	??_teclado+1
  1522  01BC  30AD               	movlw	173
  1523  01BD  00BB               	movwf	??_teclado
  1524  01BE                     u2797:
  1525  01BE  0BBB               	decfsz	??_teclado,f
  1526  01BF  29BE               	goto	u2797
  1527  01C0  0BBC               	decfsz	??_teclado+1,f
  1528  01C1  29BE               	goto	u2797
  1529  01C2  0BBD               	decfsz	??_teclado+2,f
  1530  01C3  29BE               	goto	u2797
  1531  01C4                     l2170:
  1532                           
  1533                           ;main.c: 133:         liga_buzzer(0.1);
  1534  01C4  303D               	movlw	61
  1535  01C5  1283               	bcf	3,5	;RP0=0, select bank0
  1536  01C6  1303               	bcf	3,6	;RP1=0, select bank0
  1537  01C7  00B8               	movwf	liga_buzzer@tempoSegundos+3
  1538  01C8  30CC               	movlw	204
  1539  01C9  00B7               	movwf	liga_buzzer@tempoSegundos+2
  1540  01CA  30CC               	movlw	204
  1541  01CB  00B6               	movwf	liga_buzzer@tempoSegundos+1
  1542  01CC  30CD               	movlw	205
  1543  01CD  00B5               	movwf	liga_buzzer@tempoSegundos
  1544  01CE  120A  118A  2043  120A  118A  	fcall	_liga_buzzer
  1545  01D3                     l2172:
  1546                           
  1547                           ;main.c: 134:         LCD_escreve('1');
  1548  01D3  3031               	movlw	49
  1549  01D4  120A  158A  21EC  120A  118A  	fcall	_LCD_escreve
  1550  01D9                     l2174:
  1551                           
  1552                           ;main.c: 136:         if(userFalse == 1){
  1553  01D9  1283               	bcf	3,5	;RP0=0, select bank0
  1554  01DA  1303               	bcf	3,6	;RP1=0, select bank0
  1555  01DB  0357               	decf	_userFalse,w
  1556  01DC  0458               	iorwf	_userFalse+1,w
  1557  01DD  1D03               	btfss	3,2
  1558  01DE  29E0               	goto	u2371
  1559  01DF  29E1               	goto	u2370
  1560  01E0                     u2371:
  1561  01E0  29E5               	goto	l2178
  1562  01E1                     u2370:
  1563  01E1                     l2176:
  1564                           
  1565                           ;main.c: 137:             input = 1;
  1566  01E1  3001               	movlw	1
  1567  01E2  00DB               	movwf	_input
  1568  01E3  3000               	movlw	0
  1569  01E4  00DC               	movwf	_input+1
  1570  01E5                     l2178:
  1571                           
  1572                           ;main.c: 145:     if (RB2 == 0){
  1573  01E5  1906               	btfsc	6,2	;volatile
  1574  01E6  29E8               	goto	u2381
  1575  01E7  29E9               	goto	u2380
  1576  01E8                     u2381:
  1577  01E8  2A18               	goto	l2190
  1578  01E9                     u2380:
  1579  01E9                     l2180:
  1580                           
  1581                           ;main.c: 146:         _delay((unsigned long)((200)*(20000000/4000.0)));
  1582  01E9  3006               	movlw	6
  1583  01EA  1283               	bcf	3,5	;RP0=0, select bank0
  1584  01EB  1303               	bcf	3,6	;RP1=0, select bank0
  1585  01EC  00BD               	movwf	??_teclado+2
  1586  01ED  3013               	movlw	19
  1587  01EE  00BC               	movwf	??_teclado+1
  1588  01EF  30AD               	movlw	173
  1589  01F0  00BB               	movwf	??_teclado
  1590  01F1                     u2807:
  1591  01F1  0BBB               	decfsz	??_teclado,f
  1592  01F2  29F1               	goto	u2807
  1593  01F3  0BBC               	decfsz	??_teclado+1,f
  1594  01F4  29F1               	goto	u2807
  1595  01F5  0BBD               	decfsz	??_teclado+2,f
  1596  01F6  29F1               	goto	u2807
  1597  01F7                     l2182:
  1598                           
  1599                           ;main.c: 147:         liga_buzzer(0.1);
  1600  01F7  303D               	movlw	61
  1601  01F8  1283               	bcf	3,5	;RP0=0, select bank0
  1602  01F9  1303               	bcf	3,6	;RP1=0, select bank0
  1603  01FA  00B8               	movwf	liga_buzzer@tempoSegundos+3
  1604  01FB  30CC               	movlw	204
  1605  01FC  00B7               	movwf	liga_buzzer@tempoSegundos+2
  1606  01FD  30CC               	movlw	204
  1607  01FE  00B6               	movwf	liga_buzzer@tempoSegundos+1
  1608  01FF  30CD               	movlw	205
  1609  0200  00B5               	movwf	liga_buzzer@tempoSegundos
  1610  0201  120A  118A  2043  120A  118A  	fcall	_liga_buzzer
  1611  0206                     l2184:
  1612                           
  1613                           ;main.c: 148:         LCD_escreve('2');
  1614  0206  3032               	movlw	50
  1615  0207  120A  158A  21EC  120A  118A  	fcall	_LCD_escreve
  1616  020C                     l2186:
  1617                           
  1618                           ;main.c: 150:         if(userFalse == 1){
  1619  020C  1283               	bcf	3,5	;RP0=0, select bank0
  1620  020D  1303               	bcf	3,6	;RP1=0, select bank0
  1621  020E  0357               	decf	_userFalse,w
  1622  020F  0458               	iorwf	_userFalse+1,w
  1623  0210  1D03               	btfss	3,2
  1624  0211  2A13               	goto	u2391
  1625  0212  2A14               	goto	u2390
  1626  0213                     u2391:
  1627  0213  2A18               	goto	l2190
  1628  0214                     u2390:
  1629  0214                     l2188:
  1630                           
  1631                           ;main.c: 151:             input = 2;
  1632  0214  3002               	movlw	2
  1633  0215  00DB               	movwf	_input
  1634  0216  3000               	movlw	0
  1635  0217  00DC               	movwf	_input+1
  1636  0218                     l2190:
  1637                           
  1638                           ;main.c: 158:     if (RB3 == 0){
  1639  0218  1986               	btfsc	6,3	;volatile
  1640  0219  2A1B               	goto	u2401
  1641  021A  2A1C               	goto	u2400
  1642  021B                     u2401:
  1643  021B  2A4B               	goto	l136
  1644  021C                     u2400:
  1645  021C                     l2192:
  1646                           
  1647                           ;main.c: 159:         _delay((unsigned long)((200)*(20000000/4000.0)));
  1648  021C  3006               	movlw	6
  1649  021D  1283               	bcf	3,5	;RP0=0, select bank0
  1650  021E  1303               	bcf	3,6	;RP1=0, select bank0
  1651  021F  00BD               	movwf	??_teclado+2
  1652  0220  3013               	movlw	19
  1653  0221  00BC               	movwf	??_teclado+1
  1654  0222  30AD               	movlw	173
  1655  0223  00BB               	movwf	??_teclado
  1656  0224                     u2817:
  1657  0224  0BBB               	decfsz	??_teclado,f
  1658  0225  2A24               	goto	u2817
  1659  0226  0BBC               	decfsz	??_teclado+1,f
  1660  0227  2A24               	goto	u2817
  1661  0228  0BBD               	decfsz	??_teclado+2,f
  1662  0229  2A24               	goto	u2817
  1663  022A                     l2194:
  1664                           
  1665                           ;main.c: 160:         liga_buzzer(0.1);
  1666  022A  303D               	movlw	61
  1667  022B  1283               	bcf	3,5	;RP0=0, select bank0
  1668  022C  1303               	bcf	3,6	;RP1=0, select bank0
  1669  022D  00B8               	movwf	liga_buzzer@tempoSegundos+3
  1670  022E  30CC               	movlw	204
  1671  022F  00B7               	movwf	liga_buzzer@tempoSegundos+2
  1672  0230  30CC               	movlw	204
  1673  0231  00B6               	movwf	liga_buzzer@tempoSegundos+1
  1674  0232  30CD               	movlw	205
  1675  0233  00B5               	movwf	liga_buzzer@tempoSegundos
  1676  0234  120A  118A  2043  120A  118A  	fcall	_liga_buzzer
  1677  0239                     l2196:
  1678                           
  1679                           ;main.c: 161:         LCD_escreve('3');
  1680  0239  3033               	movlw	51
  1681  023A  120A  158A  21EC  120A  118A  	fcall	_LCD_escreve
  1682  023F                     l2198:
  1683                           
  1684                           ;main.c: 163:         if(userFalse == 1){
  1685  023F  1283               	bcf	3,5	;RP0=0, select bank0
  1686  0240  1303               	bcf	3,6	;RP1=0, select bank0
  1687  0241  0357               	decf	_userFalse,w
  1688  0242  0458               	iorwf	_userFalse+1,w
  1689  0243  1D03               	btfss	3,2
  1690  0244  2A46               	goto	u2411
  1691  0245  2A47               	goto	u2410
  1692  0246                     u2411:
  1693  0246  2A4B               	goto	l136
  1694  0247                     u2410:
  1695  0247                     l2200:
  1696                           
  1697                           ;main.c: 164:             input = 3;
  1698  0247  3003               	movlw	3
  1699  0248  00DB               	movwf	_input
  1700  0249  3000               	movlw	0
  1701  024A  00DC               	movwf	_input+1
  1702  024B                     l136:	
  1703                           ;main.c: 167:     }
  1704                           
  1705                           
  1706                           ;main.c: 172:     PORTB = 0b11011111;
  1707  024B  30DF               	movlw	223
  1708  024C  0086               	movwf	6	;volatile
  1709  024D                     l2202:
  1710                           
  1711                           ;main.c: 177:     if (RB0 == 0){
  1712  024D  1806               	btfsc	6,0	;volatile
  1713  024E  2A50               	goto	u2421
  1714  024F  2A51               	goto	u2420
  1715  0250                     u2421:
  1716  0250  2A80               	goto	l2214
  1717  0251                     u2420:
  1718  0251                     l2204:
  1719                           
  1720                           ;main.c: 178:         _delay((unsigned long)((200)*(20000000/4000.0)));
  1721  0251  3006               	movlw	6
  1722  0252  1283               	bcf	3,5	;RP0=0, select bank0
  1723  0253  1303               	bcf	3,6	;RP1=0, select bank0
  1724  0254  00BD               	movwf	??_teclado+2
  1725  0255  3013               	movlw	19
  1726  0256  00BC               	movwf	??_teclado+1
  1727  0257  30AD               	movlw	173
  1728  0258  00BB               	movwf	??_teclado
  1729  0259                     u2827:
  1730  0259  0BBB               	decfsz	??_teclado,f
  1731  025A  2A59               	goto	u2827
  1732  025B  0BBC               	decfsz	??_teclado+1,f
  1733  025C  2A59               	goto	u2827
  1734  025D  0BBD               	decfsz	??_teclado+2,f
  1735  025E  2A59               	goto	u2827
  1736  025F                     l2206:
  1737                           
  1738                           ;main.c: 179:         liga_buzzer(0.1);
  1739  025F  303D               	movlw	61
  1740  0260  1283               	bcf	3,5	;RP0=0, select bank0
  1741  0261  1303               	bcf	3,6	;RP1=0, select bank0
  1742  0262  00B8               	movwf	liga_buzzer@tempoSegundos+3
  1743  0263  30CC               	movlw	204
  1744  0264  00B7               	movwf	liga_buzzer@tempoSegundos+2
  1745  0265  30CC               	movlw	204
  1746  0266  00B6               	movwf	liga_buzzer@tempoSegundos+1
  1747  0267  30CD               	movlw	205
  1748  0268  00B5               	movwf	liga_buzzer@tempoSegundos
  1749  0269  120A  118A  2043  120A  118A  	fcall	_liga_buzzer
  1750  026E                     l2208:
  1751                           
  1752                           ;main.c: 180:         LCD_escreve('4');
  1753  026E  3034               	movlw	52
  1754  026F  120A  158A  21EC  120A  118A  	fcall	_LCD_escreve
  1755  0274                     l2210:
  1756                           
  1757                           ;main.c: 182:         if(userFalse == 1){
  1758  0274  1283               	bcf	3,5	;RP0=0, select bank0
  1759  0275  1303               	bcf	3,6	;RP1=0, select bank0
  1760  0276  0357               	decf	_userFalse,w
  1761  0277  0458               	iorwf	_userFalse+1,w
  1762  0278  1D03               	btfss	3,2
  1763  0279  2A7B               	goto	u2431
  1764  027A  2A7C               	goto	u2430
  1765  027B                     u2431:
  1766  027B  2A80               	goto	l2214
  1767  027C                     u2430:
  1768  027C                     l2212:
  1769                           
  1770                           ;main.c: 183:             input = 4;
  1771  027C  3004               	movlw	4
  1772  027D  00DB               	movwf	_input
  1773  027E  3000               	movlw	0
  1774  027F  00DC               	movwf	_input+1
  1775  0280                     l2214:
  1776                           
  1777                           ;main.c: 190:     if (RB1 == 0){
  1778  0280  1886               	btfsc	6,1	;volatile
  1779  0281  2A83               	goto	u2441
  1780  0282  2A84               	goto	u2440
  1781  0283                     u2441:
  1782  0283  2AB3               	goto	l2226
  1783  0284                     u2440:
  1784  0284                     l2216:
  1785                           
  1786                           ;main.c: 191:         _delay((unsigned long)((200)*(20000000/4000.0)));
  1787  0284  3006               	movlw	6
  1788  0285  1283               	bcf	3,5	;RP0=0, select bank0
  1789  0286  1303               	bcf	3,6	;RP1=0, select bank0
  1790  0287  00BD               	movwf	??_teclado+2
  1791  0288  3013               	movlw	19
  1792  0289  00BC               	movwf	??_teclado+1
  1793  028A  30AD               	movlw	173
  1794  028B  00BB               	movwf	??_teclado
  1795  028C                     u2837:
  1796  028C  0BBB               	decfsz	??_teclado,f
  1797  028D  2A8C               	goto	u2837
  1798  028E  0BBC               	decfsz	??_teclado+1,f
  1799  028F  2A8C               	goto	u2837
  1800  0290  0BBD               	decfsz	??_teclado+2,f
  1801  0291  2A8C               	goto	u2837
  1802  0292                     l2218:
  1803                           
  1804                           ;main.c: 192:         liga_buzzer(0.1);
  1805  0292  303D               	movlw	61
  1806  0293  1283               	bcf	3,5	;RP0=0, select bank0
  1807  0294  1303               	bcf	3,6	;RP1=0, select bank0
  1808  0295  00B8               	movwf	liga_buzzer@tempoSegundos+3
  1809  0296  30CC               	movlw	204
  1810  0297  00B7               	movwf	liga_buzzer@tempoSegundos+2
  1811  0298  30CC               	movlw	204
  1812  0299  00B6               	movwf	liga_buzzer@tempoSegundos+1
  1813  029A  30CD               	movlw	205
  1814  029B  00B5               	movwf	liga_buzzer@tempoSegundos
  1815  029C  120A  118A  2043  120A  118A  	fcall	_liga_buzzer
  1816  02A1                     l2220:
  1817                           
  1818                           ;main.c: 193:         LCD_escreve('5');
  1819  02A1  3035               	movlw	53
  1820  02A2  120A  158A  21EC  120A  118A  	fcall	_LCD_escreve
  1821  02A7                     l2222:
  1822                           
  1823                           ;main.c: 195:         if(userFalse == 1){
  1824  02A7  1283               	bcf	3,5	;RP0=0, select bank0
  1825  02A8  1303               	bcf	3,6	;RP1=0, select bank0
  1826  02A9  0357               	decf	_userFalse,w
  1827  02AA  0458               	iorwf	_userFalse+1,w
  1828  02AB  1D03               	btfss	3,2
  1829  02AC  2AAE               	goto	u2451
  1830  02AD  2AAF               	goto	u2450
  1831  02AE                     u2451:
  1832  02AE  2AB3               	goto	l2226
  1833  02AF                     u2450:
  1834  02AF                     l2224:
  1835                           
  1836                           ;main.c: 196:             input = 5;
  1837  02AF  3005               	movlw	5
  1838  02B0  00DB               	movwf	_input
  1839  02B1  3000               	movlw	0
  1840  02B2  00DC               	movwf	_input+1
  1841  02B3                     l2226:
  1842                           
  1843                           ;main.c: 204:     if (RB2 == 0){
  1844  02B3  1906               	btfsc	6,2	;volatile
  1845  02B4  2AB6               	goto	u2461
  1846  02B5  2AB7               	goto	u2460
  1847  02B6                     u2461:
  1848  02B6  2AE6               	goto	l2238
  1849  02B7                     u2460:
  1850  02B7                     l2228:
  1851                           
  1852                           ;main.c: 205:         _delay((unsigned long)((200)*(20000000/4000.0)));
  1853  02B7  3006               	movlw	6
  1854  02B8  1283               	bcf	3,5	;RP0=0, select bank0
  1855  02B9  1303               	bcf	3,6	;RP1=0, select bank0
  1856  02BA  00BD               	movwf	??_teclado+2
  1857  02BB  3013               	movlw	19
  1858  02BC  00BC               	movwf	??_teclado+1
  1859  02BD  30AD               	movlw	173
  1860  02BE  00BB               	movwf	??_teclado
  1861  02BF                     u2847:
  1862  02BF  0BBB               	decfsz	??_teclado,f
  1863  02C0  2ABF               	goto	u2847
  1864  02C1  0BBC               	decfsz	??_teclado+1,f
  1865  02C2  2ABF               	goto	u2847
  1866  02C3  0BBD               	decfsz	??_teclado+2,f
  1867  02C4  2ABF               	goto	u2847
  1868  02C5                     l2230:
  1869                           
  1870                           ;main.c: 206:         liga_buzzer(0.1);
  1871  02C5  303D               	movlw	61
  1872  02C6  1283               	bcf	3,5	;RP0=0, select bank0
  1873  02C7  1303               	bcf	3,6	;RP1=0, select bank0
  1874  02C8  00B8               	movwf	liga_buzzer@tempoSegundos+3
  1875  02C9  30CC               	movlw	204
  1876  02CA  00B7               	movwf	liga_buzzer@tempoSegundos+2
  1877  02CB  30CC               	movlw	204
  1878  02CC  00B6               	movwf	liga_buzzer@tempoSegundos+1
  1879  02CD  30CD               	movlw	205
  1880  02CE  00B5               	movwf	liga_buzzer@tempoSegundos
  1881  02CF  120A  118A  2043  120A  118A  	fcall	_liga_buzzer
  1882  02D4                     l2232:
  1883                           
  1884                           ;main.c: 207:         LCD_escreve('6');
  1885  02D4  3036               	movlw	54
  1886  02D5  120A  158A  21EC  120A  118A  	fcall	_LCD_escreve
  1887  02DA                     l2234:
  1888                           
  1889                           ;main.c: 209:         if(userFalse == 1){
  1890  02DA  1283               	bcf	3,5	;RP0=0, select bank0
  1891  02DB  1303               	bcf	3,6	;RP1=0, select bank0
  1892  02DC  0357               	decf	_userFalse,w
  1893  02DD  0458               	iorwf	_userFalse+1,w
  1894  02DE  1D03               	btfss	3,2
  1895  02DF  2AE1               	goto	u2471
  1896  02E0  2AE2               	goto	u2470
  1897  02E1                     u2471:
  1898  02E1  2AE6               	goto	l2238
  1899  02E2                     u2470:
  1900  02E2                     l2236:
  1901                           
  1902                           ;main.c: 210:             input = 6;
  1903  02E2  3006               	movlw	6
  1904  02E3  00DB               	movwf	_input
  1905  02E4  3000               	movlw	0
  1906  02E5  00DC               	movwf	_input+1
  1907  02E6                     l2238:
  1908                           
  1909                           ;main.c: 217:     if (RB3 == 0){
  1910  02E6  1986               	btfsc	6,3	;volatile
  1911  02E7  2AE9               	goto	u2481
  1912  02E8  2AEA               	goto	u2480
  1913  02E9                     u2481:
  1914  02E9  2B19               	goto	l144
  1915  02EA                     u2480:
  1916  02EA                     l2240:
  1917                           
  1918                           ;main.c: 218:         _delay((unsigned long)((200)*(20000000/4000.0)));
  1919  02EA  3006               	movlw	6
  1920  02EB  1283               	bcf	3,5	;RP0=0, select bank0
  1921  02EC  1303               	bcf	3,6	;RP1=0, select bank0
  1922  02ED  00BD               	movwf	??_teclado+2
  1923  02EE  3013               	movlw	19
  1924  02EF  00BC               	movwf	??_teclado+1
  1925  02F0  30AD               	movlw	173
  1926  02F1  00BB               	movwf	??_teclado
  1927  02F2                     u2857:
  1928  02F2  0BBB               	decfsz	??_teclado,f
  1929  02F3  2AF2               	goto	u2857
  1930  02F4  0BBC               	decfsz	??_teclado+1,f
  1931  02F5  2AF2               	goto	u2857
  1932  02F6  0BBD               	decfsz	??_teclado+2,f
  1933  02F7  2AF2               	goto	u2857
  1934  02F8                     l2242:
  1935                           
  1936                           ;main.c: 219:         liga_buzzer(0.1);
  1937  02F8  303D               	movlw	61
  1938  02F9  1283               	bcf	3,5	;RP0=0, select bank0
  1939  02FA  1303               	bcf	3,6	;RP1=0, select bank0
  1940  02FB  00B8               	movwf	liga_buzzer@tempoSegundos+3
  1941  02FC  30CC               	movlw	204
  1942  02FD  00B7               	movwf	liga_buzzer@tempoSegundos+2
  1943  02FE  30CC               	movlw	204
  1944  02FF  00B6               	movwf	liga_buzzer@tempoSegundos+1
  1945  0300  30CD               	movlw	205
  1946  0301  00B5               	movwf	liga_buzzer@tempoSegundos
  1947  0302  120A  118A  2043  120A  118A  	fcall	_liga_buzzer
  1948  0307                     l2244:
  1949                           
  1950                           ;main.c: 220:         LCD_escreve('7');
  1951  0307  3037               	movlw	55
  1952  0308  120A  158A  21EC  120A  118A  	fcall	_LCD_escreve
  1953  030D                     l2246:
  1954                           
  1955                           ;main.c: 222:         if(userFalse == 1){
  1956  030D  1283               	bcf	3,5	;RP0=0, select bank0
  1957  030E  1303               	bcf	3,6	;RP1=0, select bank0
  1958  030F  0357               	decf	_userFalse,w
  1959  0310  0458               	iorwf	_userFalse+1,w
  1960  0311  1D03               	btfss	3,2
  1961  0312  2B14               	goto	u2491
  1962  0313  2B15               	goto	u2490
  1963  0314                     u2491:
  1964  0314  2B19               	goto	l144
  1965  0315                     u2490:
  1966  0315                     l2248:
  1967                           
  1968                           ;main.c: 223:             input = 7;
  1969  0315  3007               	movlw	7
  1970  0316  00DB               	movwf	_input
  1971  0317  3000               	movlw	0
  1972  0318  00DC               	movwf	_input+1
  1973  0319                     l144:	
  1974                           ;main.c: 226:     }
  1975                           
  1976                           
  1977                           ;main.c: 231:     PORTB = 0b10111111;
  1978  0319  30BF               	movlw	191
  1979  031A  0086               	movwf	6	;volatile
  1980  031B                     l2250:
  1981                           
  1982                           ;main.c: 236:     if (RB0 == 0){
  1983  031B  1806               	btfsc	6,0	;volatile
  1984  031C  2B1E               	goto	u2501
  1985  031D  2B1F               	goto	u2500
  1986  031E                     u2501:
  1987  031E  2B4E               	goto	l2262
  1988  031F                     u2500:
  1989  031F                     l2252:
  1990                           
  1991                           ;main.c: 237:         _delay((unsigned long)((200)*(20000000/4000.0)));
  1992  031F  3006               	movlw	6
  1993  0320  1283               	bcf	3,5	;RP0=0, select bank0
  1994  0321  1303               	bcf	3,6	;RP1=0, select bank0
  1995  0322  00BD               	movwf	??_teclado+2
  1996  0323  3013               	movlw	19
  1997  0324  00BC               	movwf	??_teclado+1
  1998  0325  30AD               	movlw	173
  1999  0326  00BB               	movwf	??_teclado
  2000  0327                     u2867:
  2001  0327  0BBB               	decfsz	??_teclado,f
  2002  0328  2B27               	goto	u2867
  2003  0329  0BBC               	decfsz	??_teclado+1,f
  2004  032A  2B27               	goto	u2867
  2005  032B  0BBD               	decfsz	??_teclado+2,f
  2006  032C  2B27               	goto	u2867
  2007  032D                     l2254:
  2008                           
  2009                           ;main.c: 238:         liga_buzzer(0.1);
  2010  032D  303D               	movlw	61
  2011  032E  1283               	bcf	3,5	;RP0=0, select bank0
  2012  032F  1303               	bcf	3,6	;RP1=0, select bank0
  2013  0330  00B8               	movwf	liga_buzzer@tempoSegundos+3
  2014  0331  30CC               	movlw	204
  2015  0332  00B7               	movwf	liga_buzzer@tempoSegundos+2
  2016  0333  30CC               	movlw	204
  2017  0334  00B6               	movwf	liga_buzzer@tempoSegundos+1
  2018  0335  30CD               	movlw	205
  2019  0336  00B5               	movwf	liga_buzzer@tempoSegundos
  2020  0337  120A  118A  2043  120A  118A  	fcall	_liga_buzzer
  2021  033C                     l2256:
  2022                           
  2023                           ;main.c: 239:         LCD_escreve('8');
  2024  033C  3038               	movlw	56
  2025  033D  120A  158A  21EC  120A  118A  	fcall	_LCD_escreve
  2026  0342                     l2258:
  2027                           
  2028                           ;main.c: 241:         if(userFalse == 1){
  2029  0342  1283               	bcf	3,5	;RP0=0, select bank0
  2030  0343  1303               	bcf	3,6	;RP1=0, select bank0
  2031  0344  0357               	decf	_userFalse,w
  2032  0345  0458               	iorwf	_userFalse+1,w
  2033  0346  1D03               	btfss	3,2
  2034  0347  2B49               	goto	u2511
  2035  0348  2B4A               	goto	u2510
  2036  0349                     u2511:
  2037  0349  2B4E               	goto	l2262
  2038  034A                     u2510:
  2039  034A                     l2260:
  2040                           
  2041                           ;main.c: 242:             input = 8;
  2042  034A  3008               	movlw	8
  2043  034B  00DB               	movwf	_input
  2044  034C  3000               	movlw	0
  2045  034D  00DC               	movwf	_input+1
  2046  034E                     l2262:
  2047                           
  2048                           ;main.c: 250:     if (RB1 == 0){
  2049  034E  1886               	btfsc	6,1	;volatile
  2050  034F  2B51               	goto	u2521
  2051  0350  2B52               	goto	u2520
  2052  0351                     u2521:
  2053  0351  2B81               	goto	l2274
  2054  0352                     u2520:
  2055  0352                     l2264:
  2056                           
  2057                           ;main.c: 251:         _delay((unsigned long)((200)*(20000000/4000.0)));
  2058  0352  3006               	movlw	6
  2059  0353  1283               	bcf	3,5	;RP0=0, select bank0
  2060  0354  1303               	bcf	3,6	;RP1=0, select bank0
  2061  0355  00BD               	movwf	??_teclado+2
  2062  0356  3013               	movlw	19
  2063  0357  00BC               	movwf	??_teclado+1
  2064  0358  30AD               	movlw	173
  2065  0359  00BB               	movwf	??_teclado
  2066  035A                     u2877:
  2067  035A  0BBB               	decfsz	??_teclado,f
  2068  035B  2B5A               	goto	u2877
  2069  035C  0BBC               	decfsz	??_teclado+1,f
  2070  035D  2B5A               	goto	u2877
  2071  035E  0BBD               	decfsz	??_teclado+2,f
  2072  035F  2B5A               	goto	u2877
  2073  0360                     l2266:
  2074                           
  2075                           ;main.c: 252:         liga_buzzer(0.1);
  2076  0360  303D               	movlw	61
  2077  0361  1283               	bcf	3,5	;RP0=0, select bank0
  2078  0362  1303               	bcf	3,6	;RP1=0, select bank0
  2079  0363  00B8               	movwf	liga_buzzer@tempoSegundos+3
  2080  0364  30CC               	movlw	204
  2081  0365  00B7               	movwf	liga_buzzer@tempoSegundos+2
  2082  0366  30CC               	movlw	204
  2083  0367  00B6               	movwf	liga_buzzer@tempoSegundos+1
  2084  0368  30CD               	movlw	205
  2085  0369  00B5               	movwf	liga_buzzer@tempoSegundos
  2086  036A  120A  118A  2043  120A  118A  	fcall	_liga_buzzer
  2087  036F                     l2268:
  2088                           
  2089                           ;main.c: 253:         LCD_escreve('9');
  2090  036F  3039               	movlw	57
  2091  0370  120A  158A  21EC  120A  118A  	fcall	_LCD_escreve
  2092  0375                     l2270:
  2093                           
  2094                           ;main.c: 255:         if(userFalse == 1){
  2095  0375  1283               	bcf	3,5	;RP0=0, select bank0
  2096  0376  1303               	bcf	3,6	;RP1=0, select bank0
  2097  0377  0357               	decf	_userFalse,w
  2098  0378  0458               	iorwf	_userFalse+1,w
  2099  0379  1D03               	btfss	3,2
  2100  037A  2B7C               	goto	u2531
  2101  037B  2B7D               	goto	u2530
  2102  037C                     u2531:
  2103  037C  2B81               	goto	l2274
  2104  037D                     u2530:
  2105  037D                     l2272:
  2106                           
  2107                           ;main.c: 256:             input = 9;
  2108  037D  3009               	movlw	9
  2109  037E  00DB               	movwf	_input
  2110  037F  3000               	movlw	0
  2111  0380  00DC               	movwf	_input+1
  2112  0381                     l2274:
  2113                           
  2114                           ;main.c: 264:     if (RB2 == 0){
  2115  0381  1906               	btfsc	6,2	;volatile
  2116  0382  2B84               	goto	u2541
  2117  0383  2B85               	goto	u2540
  2118  0384                     u2541:
  2119  0384  2BA8               	goto	l2282
  2120  0385                     u2540:
  2121  0385                     l2276:
  2122                           
  2123                           ;main.c: 265:         _delay((unsigned long)((200)*(20000000/4000.0)));
  2124  0385  3006               	movlw	6
  2125  0386  1283               	bcf	3,5	;RP0=0, select bank0
  2126  0387  1303               	bcf	3,6	;RP1=0, select bank0
  2127  0388  00BD               	movwf	??_teclado+2
  2128  0389  3013               	movlw	19
  2129  038A  00BC               	movwf	??_teclado+1
  2130  038B  30AD               	movlw	173
  2131  038C  00BB               	movwf	??_teclado
  2132  038D                     u2887:
  2133  038D  0BBB               	decfsz	??_teclado,f
  2134  038E  2B8D               	goto	u2887
  2135  038F  0BBC               	decfsz	??_teclado+1,f
  2136  0390  2B8D               	goto	u2887
  2137  0391  0BBD               	decfsz	??_teclado+2,f
  2138  0392  2B8D               	goto	u2887
  2139  0393                     l2278:
  2140                           
  2141                           ;main.c: 266:         liga_buzzer(0.1);
  2142  0393  303D               	movlw	61
  2143  0394  1283               	bcf	3,5	;RP0=0, select bank0
  2144  0395  1303               	bcf	3,6	;RP1=0, select bank0
  2145  0396  00B8               	movwf	liga_buzzer@tempoSegundos+3
  2146  0397  30CC               	movlw	204
  2147  0398  00B7               	movwf	liga_buzzer@tempoSegundos+2
  2148  0399  30CC               	movlw	204
  2149  039A  00B6               	movwf	liga_buzzer@tempoSegundos+1
  2150  039B  30CD               	movlw	205
  2151  039C  00B5               	movwf	liga_buzzer@tempoSegundos
  2152  039D  120A  118A  2043  120A  118A  	fcall	_liga_buzzer
  2153  03A2                     l2280:
  2154                           
  2155                           ;main.c: 267:         LCD_escreve('A');
  2156  03A2  3041               	movlw	65
  2157  03A3  120A  158A  21EC  120A  118A  	fcall	_LCD_escreve
  2158  03A8                     l2282:
  2159                           
  2160                           ;main.c: 274:     if (RB3 == 0){
  2161  03A8  1283               	bcf	3,5	;RP0=0, select bank0
  2162  03A9  1303               	bcf	3,6	;RP1=0, select bank0
  2163  03AA  1986               	btfsc	6,3	;volatile
  2164  03AB  2BAD               	goto	u2551
  2165  03AC  2BAE               	goto	u2550
  2166  03AD                     u2551:
  2167  03AD  2BD1               	goto	l151
  2168  03AE                     u2550:
  2169  03AE                     l2284:
  2170                           
  2171                           ;main.c: 275:         _delay((unsigned long)((200)*(20000000/4000.0)));
  2172  03AE  3006               	movlw	6
  2173  03AF  1283               	bcf	3,5	;RP0=0, select bank0
  2174  03B0  1303               	bcf	3,6	;RP1=0, select bank0
  2175  03B1  00BD               	movwf	??_teclado+2
  2176  03B2  3013               	movlw	19
  2177  03B3  00BC               	movwf	??_teclado+1
  2178  03B4  30AD               	movlw	173
  2179  03B5  00BB               	movwf	??_teclado
  2180  03B6                     u2897:
  2181  03B6  0BBB               	decfsz	??_teclado,f
  2182  03B7  2BB6               	goto	u2897
  2183  03B8  0BBC               	decfsz	??_teclado+1,f
  2184  03B9  2BB6               	goto	u2897
  2185  03BA  0BBD               	decfsz	??_teclado+2,f
  2186  03BB  2BB6               	goto	u2897
  2187  03BC                     l2286:
  2188                           
  2189                           ;main.c: 276:         liga_buzzer(0.1);
  2190  03BC  303D               	movlw	61
  2191  03BD  1283               	bcf	3,5	;RP0=0, select bank0
  2192  03BE  1303               	bcf	3,6	;RP1=0, select bank0
  2193  03BF  00B8               	movwf	liga_buzzer@tempoSegundos+3
  2194  03C0  30CC               	movlw	204
  2195  03C1  00B7               	movwf	liga_buzzer@tempoSegundos+2
  2196  03C2  30CC               	movlw	204
  2197  03C3  00B6               	movwf	liga_buzzer@tempoSegundos+1
  2198  03C4  30CD               	movlw	205
  2199  03C5  00B5               	movwf	liga_buzzer@tempoSegundos
  2200  03C6  120A  118A  2043  120A  118A  	fcall	_liga_buzzer
  2201  03CB                     l2288:
  2202                           
  2203                           ;main.c: 277:         LCD_escreve('B');
  2204  03CB  3042               	movlw	66
  2205  03CC  120A  158A  21EC  120A  118A  	fcall	_LCD_escreve
  2206  03D1                     l151:	
  2207                           ;main.c: 279:     }
  2208                           
  2209                           
  2210                           ;main.c: 284:     PORTB = 0b01111111;
  2211  03D1  307F               	movlw	127
  2212  03D2  1283               	bcf	3,5	;RP0=0, select bank0
  2213  03D3  1303               	bcf	3,6	;RP1=0, select bank0
  2214  03D4  0086               	movwf	6	;volatile
  2215  03D5                     l2290:
  2216                           
  2217                           ;main.c: 289:     if (RB0 == 0){
  2218  03D5  1806               	btfsc	6,0	;volatile
  2219  03D6  2BD8               	goto	u2561
  2220  03D7  2BD9               	goto	u2560
  2221  03D8                     u2561:
  2222  03D8  2BFC               	goto	l2298
  2223  03D9                     u2560:
  2224  03D9                     l2292:
  2225                           
  2226                           ;main.c: 290:         _delay((unsigned long)((200)*(20000000/4000.0)));
  2227  03D9  3006               	movlw	6
  2228  03DA  1283               	bcf	3,5	;RP0=0, select bank0
  2229  03DB  1303               	bcf	3,6	;RP1=0, select bank0
  2230  03DC  00BD               	movwf	??_teclado+2
  2231  03DD  3013               	movlw	19
  2232  03DE  00BC               	movwf	??_teclado+1
  2233  03DF  30AD               	movlw	173
  2234  03E0  00BB               	movwf	??_teclado
  2235  03E1                     u2907:
  2236  03E1  0BBB               	decfsz	??_teclado,f
  2237  03E2  2BE1               	goto	u2907
  2238  03E3  0BBC               	decfsz	??_teclado+1,f
  2239  03E4  2BE1               	goto	u2907
  2240  03E5  0BBD               	decfsz	??_teclado+2,f
  2241  03E6  2BE1               	goto	u2907
  2242  03E7                     l2294:
  2243                           
  2244                           ;main.c: 291:         liga_buzzer(0.1);
  2245  03E7  303D               	movlw	61
  2246  03E8  1283               	bcf	3,5	;RP0=0, select bank0
  2247  03E9  1303               	bcf	3,6	;RP1=0, select bank0
  2248  03EA  00B8               	movwf	liga_buzzer@tempoSegundos+3
  2249  03EB  30CC               	movlw	204
  2250  03EC  00B7               	movwf	liga_buzzer@tempoSegundos+2
  2251  03ED  30CC               	movlw	204
  2252  03EE  00B6               	movwf	liga_buzzer@tempoSegundos+1
  2253  03EF  30CD               	movlw	205
  2254  03F0  00B5               	movwf	liga_buzzer@tempoSegundos
  2255  03F1  120A  118A  2043  120A  118A  	fcall	_liga_buzzer
  2256  03F6                     l2296:
  2257                           
  2258                           ;main.c: 292:         LCD_escreve('C');
  2259  03F6  3043               	movlw	67
  2260  03F7  120A  158A  21EC  120A  118A  	fcall	_LCD_escreve
  2261  03FC                     l2298:
  2262                           
  2263                           ;main.c: 299:     if (RB1 == 0){
  2264  03FC  1283               	bcf	3,5	;RP0=0, select bank0
  2265  03FD  1303               	bcf	3,6	;RP1=0, select bank0
  2266  03FE  1886               	btfsc	6,1	;volatile
  2267  03FF  2C01               	goto	u2571
  2268  0400  2C02               	goto	u2570
  2269  0401                     u2571:
  2270  0401  2C25               	goto	l2306
  2271  0402                     u2570:
  2272  0402                     l2300:
  2273                           
  2274                           ;main.c: 300:         _delay((unsigned long)((200)*(20000000/4000.0)));
  2275  0402  3006               	movlw	6
  2276  0403  1283               	bcf	3,5	;RP0=0, select bank0
  2277  0404  1303               	bcf	3,6	;RP1=0, select bank0
  2278  0405  00BD               	movwf	??_teclado+2
  2279  0406  3013               	movlw	19
  2280  0407  00BC               	movwf	??_teclado+1
  2281  0408  30AD               	movlw	173
  2282  0409  00BB               	movwf	??_teclado
  2283  040A                     u2917:
  2284  040A  0BBB               	decfsz	??_teclado,f
  2285  040B  2C0A               	goto	u2917
  2286  040C  0BBC               	decfsz	??_teclado+1,f
  2287  040D  2C0A               	goto	u2917
  2288  040E  0BBD               	decfsz	??_teclado+2,f
  2289  040F  2C0A               	goto	u2917
  2290  0410                     l2302:
  2291                           
  2292                           ;main.c: 301:         liga_buzzer(0.1);
  2293  0410  303D               	movlw	61
  2294  0411  1283               	bcf	3,5	;RP0=0, select bank0
  2295  0412  1303               	bcf	3,6	;RP1=0, select bank0
  2296  0413  00B8               	movwf	liga_buzzer@tempoSegundos+3
  2297  0414  30CC               	movlw	204
  2298  0415  00B7               	movwf	liga_buzzer@tempoSegundos+2
  2299  0416  30CC               	movlw	204
  2300  0417  00B6               	movwf	liga_buzzer@tempoSegundos+1
  2301  0418  30CD               	movlw	205
  2302  0419  00B5               	movwf	liga_buzzer@tempoSegundos
  2303  041A  120A  118A  2043  120A  118A  	fcall	_liga_buzzer
  2304  041F                     l2304:
  2305                           
  2306                           ;main.c: 302:         LCD_escreve('D');
  2307  041F  3044               	movlw	68
  2308  0420  120A  158A  21EC  120A  118A  	fcall	_LCD_escreve
  2309  0425                     l2306:
  2310                           
  2311                           ;main.c: 309:     if (RB2 == 0){
  2312  0425  1283               	bcf	3,5	;RP0=0, select bank0
  2313  0426  1303               	bcf	3,6	;RP1=0, select bank0
  2314  0427  1906               	btfsc	6,2	;volatile
  2315  0428  2C2A               	goto	u2581
  2316  0429  2C2B               	goto	u2580
  2317  042A                     u2581:
  2318  042A  2C4E               	goto	l2314
  2319  042B                     u2580:
  2320  042B                     l2308:
  2321                           
  2322                           ;main.c: 310:         _delay((unsigned long)((200)*(20000000/4000.0)));
  2323  042B  3006               	movlw	6
  2324  042C  1283               	bcf	3,5	;RP0=0, select bank0
  2325  042D  1303               	bcf	3,6	;RP1=0, select bank0
  2326  042E  00BD               	movwf	??_teclado+2
  2327  042F  3013               	movlw	19
  2328  0430  00BC               	movwf	??_teclado+1
  2329  0431  30AD               	movlw	173
  2330  0432  00BB               	movwf	??_teclado
  2331  0433                     u2927:
  2332  0433  0BBB               	decfsz	??_teclado,f
  2333  0434  2C33               	goto	u2927
  2334  0435  0BBC               	decfsz	??_teclado+1,f
  2335  0436  2C33               	goto	u2927
  2336  0437  0BBD               	decfsz	??_teclado+2,f
  2337  0438  2C33               	goto	u2927
  2338  0439                     l2310:
  2339                           
  2340                           ;main.c: 311:         liga_buzzer(0.1);
  2341  0439  303D               	movlw	61
  2342  043A  1283               	bcf	3,5	;RP0=0, select bank0
  2343  043B  1303               	bcf	3,6	;RP1=0, select bank0
  2344  043C  00B8               	movwf	liga_buzzer@tempoSegundos+3
  2345  043D  30CC               	movlw	204
  2346  043E  00B7               	movwf	liga_buzzer@tempoSegundos+2
  2347  043F  30CC               	movlw	204
  2348  0440  00B6               	movwf	liga_buzzer@tempoSegundos+1
  2349  0441  30CD               	movlw	205
  2350  0442  00B5               	movwf	liga_buzzer@tempoSegundos
  2351  0443  120A  118A  2043  120A  118A  	fcall	_liga_buzzer
  2352  0448                     l2312:
  2353                           
  2354                           ;main.c: 312:         LCD_escreve('E');
  2355  0448  3045               	movlw	69
  2356  0449  120A  158A  21EC  120A  118A  	fcall	_LCD_escreve
  2357  044E                     l2314:
  2358                           
  2359                           ;main.c: 319:     if (RB3 == 0){
  2360  044E  1283               	bcf	3,5	;RP0=0, select bank0
  2361  044F  1303               	bcf	3,6	;RP1=0, select bank0
  2362  0450  1986               	btfsc	6,3	;volatile
  2363  0451  2C53               	goto	u2591
  2364  0452  2C54               	goto	u2590
  2365  0453                     u2591:
  2366  0453  2C77               	goto	l156
  2367  0454                     u2590:
  2368  0454                     l2316:
  2369                           
  2370                           ;main.c: 320:         _delay((unsigned long)((200)*(20000000/4000.0)));
  2371  0454  3006               	movlw	6
  2372  0455  1283               	bcf	3,5	;RP0=0, select bank0
  2373  0456  1303               	bcf	3,6	;RP1=0, select bank0
  2374  0457  00BD               	movwf	??_teclado+2
  2375  0458  3013               	movlw	19
  2376  0459  00BC               	movwf	??_teclado+1
  2377  045A  30AD               	movlw	173
  2378  045B  00BB               	movwf	??_teclado
  2379  045C                     u2937:
  2380  045C  0BBB               	decfsz	??_teclado,f
  2381  045D  2C5C               	goto	u2937
  2382  045E  0BBC               	decfsz	??_teclado+1,f
  2383  045F  2C5C               	goto	u2937
  2384  0460  0BBD               	decfsz	??_teclado+2,f
  2385  0461  2C5C               	goto	u2937
  2386  0462                     l2318:
  2387                           
  2388                           ;main.c: 321:         liga_buzzer(0.1);
  2389  0462  303D               	movlw	61
  2390  0463  1283               	bcf	3,5	;RP0=0, select bank0
  2391  0464  1303               	bcf	3,6	;RP1=0, select bank0
  2392  0465  00B8               	movwf	liga_buzzer@tempoSegundos+3
  2393  0466  30CC               	movlw	204
  2394  0467  00B7               	movwf	liga_buzzer@tempoSegundos+2
  2395  0468  30CC               	movlw	204
  2396  0469  00B6               	movwf	liga_buzzer@tempoSegundos+1
  2397  046A  30CD               	movlw	205
  2398  046B  00B5               	movwf	liga_buzzer@tempoSegundos
  2399  046C  120A  118A  2043  120A  118A  	fcall	_liga_buzzer
  2400  0471                     l2320:
  2401                           
  2402                           ;main.c: 322:         LCD_escreve('F');
  2403  0471  3046               	movlw	70
  2404  0472  120A  158A  21EC  120A  118A  	fcall	_LCD_escreve
  2405  0477                     l156:
  2406  0477  0008               	return
  2407  0478                     __end_of_teclado:
  2408                           
  2409                           	psect	text3
  2410  0043                     __ptext3:	
  2411 ;; *************** function _liga_buzzer *****************
  2412 ;; Defined at:
  2413 ;;		line 86 in file "main.c"
  2414 ;; Parameters:    Size  Location     Type
  2415 ;;  tempoSegundo    4   21[BANK0 ] float 
  2416 ;; Auto vars:     Size  Location     Type
  2417 ;;		None
  2418 ;; Return value:  Size  Location     Type
  2419 ;;                  1    wreg      void 
  2420 ;; Registers used:
  2421 ;;		wreg, status,2, status,0, btemp+1, pclath, cstack
  2422 ;; Tracked objects:
  2423 ;;		On entry : 0/0
  2424 ;;		On exit  : 0/0
  2425 ;;		Unchanged: 0/0
  2426 ;; Data sizes:     COMMON   BANK0   BANK1   BANK3   BANK2
  2427 ;;      Params:         0       4       0       0       0
  2428 ;;      Locals:         0       0       0       0       0
  2429 ;;      Temps:          0       2       0       0       0
  2430 ;;      Totals:         0       6       0       0       0
  2431 ;;Total ram usage:        6 bytes
  2432 ;; Hardware stack levels used: 1
  2433 ;; Hardware stack levels required when called: 2
  2434 ;; This function calls:
  2435 ;;		___flge
  2436 ;;		___flmul
  2437 ;;		___flsub
  2438 ;; This function is called by:
  2439 ;;		_teclado
  2440 ;;		_validaUser
  2441 ;; This function uses a non-reentrant model
  2442 ;;
  2443                           
  2444                           
  2445                           ;psect for function _liga_buzzer
  2446  0043                     _liga_buzzer:
  2447  0043                     l2104:	
  2448                           ;incstack = 0
  2449                           ; Regs used in _liga_buzzer: [wreg+status,2+status,0+btemp+1+pclath+cstack]
  2450                           
  2451                           
  2452                           ;main.c: 87:     tempoSegundos = tempoSegundos * 1000;
  2453  0043  3044               	movlw	68
  2454  0044  1283               	bcf	3,5	;RP0=0, select bank0
  2455  0045  1303               	bcf	3,6	;RP1=0, select bank0
  2456  0046  00A3               	movwf	___flmul@b+3
  2457  0047  307A               	movlw	122
  2458  0048  00A2               	movwf	___flmul@b+2
  2459  0049  3000               	movlw	0
  2460  004A  00A1               	movwf	___flmul@b+1
  2461  004B  3000               	movlw	0
  2462  004C  00A0               	movwf	___flmul@b
  2463  004D  0838               	movf	liga_buzzer@tempoSegundos+3,w
  2464  004E  00A7               	movwf	___flmul@a+3
  2465  004F  0837               	movf	liga_buzzer@tempoSegundos+2,w
  2466  0050  00A6               	movwf	___flmul@a+2
  2467  0051  0836               	movf	liga_buzzer@tempoSegundos+1,w
  2468  0052  00A5               	movwf	___flmul@a+1
  2469  0053  0835               	movf	liga_buzzer@tempoSegundos,w
  2470  0054  00A4               	movwf	___flmul@a
  2471  0055  120A  118A  2478  120A  118A  	fcall	___flmul
  2472  005A  1283               	bcf	3,5	;RP0=0, select bank0
  2473  005B  1303               	bcf	3,6	;RP1=0, select bank0
  2474  005C  0823               	movf	?___flmul+3,w
  2475  005D  00B8               	movwf	liga_buzzer@tempoSegundos+3
  2476  005E  0822               	movf	?___flmul+2,w
  2477  005F  00B7               	movwf	liga_buzzer@tempoSegundos+2
  2478  0060  0821               	movf	?___flmul+1,w
  2479  0061  00B6               	movwf	liga_buzzer@tempoSegundos+1
  2480  0062  0820               	movf	?___flmul,w
  2481  0063  00B5               	movwf	liga_buzzer@tempoSegundos
  2482  0064                     l2106:
  2483                           
  2484                           ;main.c: 88:     _delay((unsigned long)((10)*(20000000/4000.0)));
  2485  0064  3041               	movlw	65
  2486  0065  1283               	bcf	3,5	;RP0=0, select bank0
  2487  0066  1303               	bcf	3,6	;RP1=0, select bank0
  2488  0067  00BA               	movwf	??_liga_buzzer+1
  2489  0068  30ED               	movlw	237
  2490  0069  00B9               	movwf	??_liga_buzzer
  2491  006A                     u2947:
  2492  006A  0BB9               	decfsz	??_liga_buzzer,f
  2493  006B  286A               	goto	u2947
  2494  006C  0BBA               	decfsz	??_liga_buzzer+1,f
  2495  006D  286A               	goto	u2947
  2496  006E  286F               	nop2
  2497                           
  2498                           ;main.c: 91:     while(tempoSegundos > 0){
  2499  006F  289F               	goto	l2114
  2500  0070                     l2108:
  2501                           
  2502                           ;main.c: 92:        PORTE = 0;
  2503  0070  1283               	bcf	3,5	;RP0=0, select bank0
  2504  0071  1303               	bcf	3,6	;RP1=0, select bank0
  2505  0072  0189               	clrf	9	;volatile
  2506  0073                     l2110:
  2507                           
  2508                           ;main.c: 93:         _delay((unsigned long)((1)*(20000000/4000.0)));
  2509  0073  3007               	movlw	7
  2510  0074  1283               	bcf	3,5	;RP0=0, select bank0
  2511  0075  1303               	bcf	3,6	;RP1=0, select bank0
  2512  0076  00BA               	movwf	??_liga_buzzer+1
  2513  0077  307C               	movlw	124
  2514  0078  00B9               	movwf	??_liga_buzzer
  2515  0079                     u2957:
  2516  0079  0BB9               	decfsz	??_liga_buzzer,f
  2517  007A  2879               	goto	u2957
  2518  007B  0BBA               	decfsz	??_liga_buzzer+1,f
  2519  007C  2879               	goto	u2957
  2520  007D  0000               	nop
  2521  007E                     l2112:
  2522                           
  2523                           ;main.c: 94:         tempoSegundos--;
  2524  007E  303F               	movlw	63
  2525  007F  1283               	bcf	3,5	;RP0=0, select bank0
  2526  0080  1303               	bcf	3,6	;RP1=0, select bank0
  2527  0081  00AB               	movwf	___flsub@a+3
  2528  0082  3080               	movlw	128
  2529  0083  00AA               	movwf	___flsub@a+2
  2530  0084  3000               	movlw	0
  2531  0085  00A9               	movwf	___flsub@a+1
  2532  0086  3000               	movlw	0
  2533  0087  00A8               	movwf	___flsub@a
  2534  0088  0838               	movf	liga_buzzer@tempoSegundos+3,w
  2535  0089  00AF               	movwf	___flsub@b+3
  2536  008A  0837               	movf	liga_buzzer@tempoSegundos+2,w
  2537  008B  00AE               	movwf	___flsub@b+2
  2538  008C  0836               	movf	liga_buzzer@tempoSegundos+1,w
  2539  008D  00AD               	movwf	___flsub@b+1
  2540  008E  0835               	movf	liga_buzzer@tempoSegundos,w
  2541  008F  00AC               	movwf	___flsub@b
  2542  0090  120A  158A  225D  120A  118A  	fcall	___flsub
  2543  0095  1283               	bcf	3,5	;RP0=0, select bank0
  2544  0096  1303               	bcf	3,6	;RP1=0, select bank0
  2545  0097  082B               	movf	?___flsub+3,w
  2546  0098  00B8               	movwf	liga_buzzer@tempoSegundos+3
  2547  0099  082A               	movf	?___flsub+2,w
  2548  009A  00B7               	movwf	liga_buzzer@tempoSegundos+2
  2549  009B  0829               	movf	?___flsub+1,w
  2550  009C  00B6               	movwf	liga_buzzer@tempoSegundos+1
  2551  009D  0828               	movf	?___flsub,w
  2552  009E  00B5               	movwf	liga_buzzer@tempoSegundos
  2553  009F                     l2114:
  2554                           
  2555                           ;main.c: 91:     while(tempoSegundos > 0){
  2556  009F  3000               	movlw	0
  2557  00A0  00F3               	movwf	___flge@ff1+3
  2558  00A1  3000               	movlw	0
  2559  00A2  00F2               	movwf	___flge@ff1+2
  2560  00A3  3000               	movlw	0
  2561  00A4  00F1               	movwf	___flge@ff1+1
  2562  00A5  3000               	movlw	0
  2563  00A6  00F0               	movwf	___flge@ff1
  2564  00A7  1283               	bcf	3,5	;RP0=0, select bank0
  2565  00A8  1303               	bcf	3,6	;RP1=0, select bank0
  2566  00A9  0838               	movf	liga_buzzer@tempoSegundos+3,w
  2567  00AA  00F7               	movwf	___flge@ff2+3
  2568  00AB  0837               	movf	liga_buzzer@tempoSegundos+2,w
  2569  00AC  00F6               	movwf	___flge@ff2+2
  2570  00AD  0836               	movf	liga_buzzer@tempoSegundos+1,w
  2571  00AE  00F5               	movwf	___flge@ff2+1
  2572  00AF  0835               	movf	liga_buzzer@tempoSegundos,w
  2573  00B0  00F4               	movwf	___flge@ff2
  2574  00B1  120A  118A  20BF  120A  118A  	fcall	___flge
  2575  00B6  1C03               	btfss	3,0
  2576  00B7  28B9               	goto	u2331
  2577  00B8  28BA               	goto	u2330
  2578  00B9                     u2331:
  2579  00B9  2870               	goto	l2108
  2580  00BA                     u2330:
  2581  00BA                     l2116:
  2582                           
  2583                           ;main.c: 98:     PORTE = 0x0F;
  2584  00BA  300F               	movlw	15
  2585  00BB  1283               	bcf	3,5	;RP0=0, select bank0
  2586  00BC  1303               	bcf	3,6	;RP1=0, select bank0
  2587  00BD  0089               	movwf	9	;volatile
  2588  00BE                     l127:
  2589  00BE  0008               	return
  2590  00BF                     __end_of_liga_buzzer:
  2591                           
  2592                           	psect	text4
  2593  0A5D                     __ptext4:	
  2594 ;; *************** function ___flsub *****************
  2595 ;; Defined at:
  2596 ;;		line 242 in file "C:\Program Files\Microchip\xc8\v2.32\pic\sources\c90\common\sprcadd.c"
  2597 ;; Parameters:    Size  Location     Type
  2598 ;;  a               4    8[BANK0 ] void 
  2599 ;;  b               4   12[BANK0 ] void 
  2600 ;; Auto vars:     Size  Location     Type
  2601 ;;		None
  2602 ;; Return value:  Size  Location     Type
  2603 ;;                  4    8[BANK0 ] void 
  2604 ;; Registers used:
  2605 ;;		wreg, status,2, status,0, btemp+1, pclath, cstack
  2606 ;; Tracked objects:
  2607 ;;		On entry : 0/0
  2608 ;;		On exit  : 0/0
  2609 ;;		Unchanged: 0/0
  2610 ;; Data sizes:     COMMON   BANK0   BANK1   BANK3   BANK2
  2611 ;;      Params:         0       8       0       0       0
  2612 ;;      Locals:         0       0       0       0       0
  2613 ;;      Temps:          0       0       0       0       0
  2614 ;;      Totals:         0       8       0       0       0
  2615 ;;Total ram usage:        8 bytes
  2616 ;; Hardware stack levels used: 1
  2617 ;; Hardware stack levels required when called: 1
  2618 ;; This function calls:
  2619 ;;		___fladd
  2620 ;; This function is called by:
  2621 ;;		_liga_buzzer
  2622 ;; This function uses a non-reentrant model
  2623 ;;
  2624                           
  2625                           
  2626                           ;psect for function ___flsub
  2627  0A5D                     ___flsub:
  2628  0A5D                     l1934:	
  2629                           ;incstack = 0
  2630                           ; Regs used in ___flsub: [wreg+status,2+status,0+btemp+1+pclath+cstack]
  2631                           
  2632  0A5D  3080               	movlw	128
  2633  0A5E  1283               	bcf	3,5	;RP0=0, select bank0
  2634  0A5F  1303               	bcf	3,6	;RP1=0, select bank0
  2635  0A60  06AB               	xorwf	___flsub@a+3,f
  2636  0A61                     l1936:
  2637  0A61  082F               	movf	___flsub@b+3,w
  2638  0A62  00F3               	movwf	___fladd@b+3
  2639  0A63  082E               	movf	___flsub@b+2,w
  2640  0A64  00F2               	movwf	___fladd@b+2
  2641  0A65  082D               	movf	___flsub@b+1,w
  2642  0A66  00F1               	movwf	___fladd@b+1
  2643  0A67  082C               	movf	___flsub@b,w
  2644  0A68  00F0               	movwf	___fladd@b
  2645  0A69  082B               	movf	___flsub@a+3,w
  2646  0A6A  00F7               	movwf	___fladd@a+3
  2647  0A6B  082A               	movf	___flsub@a+2,w
  2648  0A6C  00F6               	movwf	___fladd@a+2
  2649  0A6D  0829               	movf	___flsub@a+1,w
  2650  0A6E  00F5               	movwf	___fladd@a+1
  2651  0A6F  0828               	movf	___flsub@a,w
  2652  0A70  00F4               	movwf	___fladd@a
  2653  0A71  120A  158A  2568  120A  158A  	fcall	___fladd
  2654  0A76  0873               	movf	?___fladd+3,w
  2655  0A77  1283               	bcf	3,5	;RP0=0, select bank0
  2656  0A78  1303               	bcf	3,6	;RP1=0, select bank0
  2657  0A79  00AB               	movwf	?___flsub+3
  2658  0A7A  0872               	movf	?___fladd+2,w
  2659  0A7B  00AA               	movwf	?___flsub+2
  2660  0A7C  0871               	movf	?___fladd+1,w
  2661  0A7D  00A9               	movwf	?___flsub+1
  2662  0A7E  0870               	movf	?___fladd,w
  2663  0A7F  00A8               	movwf	?___flsub
  2664  0A80                     l622:
  2665  0A80  0008               	return
  2666  0A81                     __end_of___flsub:
  2667                           
  2668                           	psect	text5
  2669  0D68                     __ptext5:	
  2670 ;; *************** function ___fladd *****************
  2671 ;; Defined at:
  2672 ;;		line 10 in file "C:\Program Files\Microchip\xc8\v2.32\pic\sources\c90\common\sprcadd.c"
  2673 ;; Parameters:    Size  Location     Type
  2674 ;;  b               4    0[COMMON] void 
  2675 ;;  a               4    4[COMMON] void 
  2676 ;; Auto vars:     Size  Location     Type
  2677 ;;  grs             1   11[COMMON] unsigned char 
  2678 ;;  bexp            1   10[COMMON] unsigned char 
  2679 ;;  aexp            1    9[COMMON] unsigned char 
  2680 ;;  signs           1    8[COMMON] unsigned char 
  2681 ;; Return value:  Size  Location     Type
  2682 ;;                  4    0[COMMON] unsigned char 
  2683 ;; Registers used:
  2684 ;;		wreg, status,2, status,0, btemp+1
  2685 ;; Tracked objects:
  2686 ;;		On entry : 0/0
  2687 ;;		On exit  : 0/0
  2688 ;;		Unchanged: 0/0
  2689 ;; Data sizes:     COMMON   BANK0   BANK1   BANK3   BANK2
  2690 ;;      Params:         8       0       0       0       0
  2691 ;;      Locals:         4       0       0       0       0
  2692 ;;      Temps:          0       8       0       0       0
  2693 ;;      Totals:        12       8       0       0       0
  2694 ;;Total ram usage:       20 bytes
  2695 ;; Hardware stack levels used: 1
  2696 ;; This function calls:
  2697 ;;		Nothing
  2698 ;; This function is called by:
  2699 ;;		___flsub
  2700 ;; This function uses a non-reentrant model
  2701 ;;
  2702                           
  2703                           
  2704                           ;psect for function ___fladd
  2705  0D68                     ___fladd:
  2706  0D68                     l1696:	
  2707                           ;incstack = 0
  2708                           ; Regs used in ___fladd: [wreg+status,2+status,0+btemp+1]
  2709                           
  2710  0D68  0873               	movf	___fladd@b+3,w
  2711  0D69  3980               	andlw	128
  2712  0D6A  1283               	bcf	3,5	;RP0=0, select bank0
  2713  0D6B  1303               	bcf	3,6	;RP1=0, select bank0
  2714  0D6C  00A0               	movwf	??___fladd
  2715  0D6D  0820               	movf	??___fladd,w
  2716  0D6E  00F8               	movwf	___fladd@signs
  2717  0D6F                     l1698:
  2718  0D6F  0873               	movf	___fladd@b+3,w
  2719  0D70  00A0               	movwf	??___fladd
  2720  0D71  0720               	addwf	??___fladd,w
  2721  0D72  00A1               	movwf	??___fladd+1
  2722  0D73  0821               	movf	??___fladd+1,w
  2723  0D74  00FA               	movwf	___fladd@bexp
  2724  0D75                     l1700:
  2725  0D75  1FF2               	btfss	___fladd@b+2,7
  2726  0D76  2D78               	goto	u1391
  2727  0D77  2D79               	goto	u1390
  2728  0D78                     u1391:
  2729  0D78  2D7A               	goto	l1704
  2730  0D79                     u1390:
  2731  0D79                     l1702:
  2732  0D79  147A               	bsf	___fladd@bexp,0
  2733  0D7A                     l1704:
  2734  0D7A  087A               	movf	___fladd@bexp,w
  2735  0D7B  1903               	btfsc	3,2
  2736  0D7C  2D7E               	goto	u1401
  2737  0D7D  2D7F               	goto	u1400
  2738  0D7E                     u1401:
  2739  0D7E  2D8F               	goto	l1714
  2740  0D7F                     u1400:
  2741  0D7F                     l1706:
  2742  0D7F  0A7A               	incf	___fladd@bexp,w
  2743  0D80  1D03               	btfss	3,2
  2744  0D81  2D83               	goto	u1411
  2745  0D82  2D84               	goto	u1410
  2746  0D83                     u1411:
  2747  0D83  2D8C               	goto	l1710
  2748  0D84                     u1410:
  2749  0D84                     l1708:
  2750  0D84  3000               	movlw	0
  2751  0D85  00F3               	movwf	___fladd@b+3
  2752  0D86  3000               	movlw	0
  2753  0D87  00F2               	movwf	___fladd@b+2
  2754  0D88  3000               	movlw	0
  2755  0D89  00F1               	movwf	___fladd@b+1
  2756  0D8A  3000               	movlw	0
  2757  0D8B  00F0               	movwf	___fladd@b
  2758  0D8C                     l1710:
  2759  0D8C  17F2               	bsf	___fladd@b+2,7
  2760  0D8D                     l1712:
  2761  0D8D  01F3               	clrf	___fladd@b+3
  2762  0D8E  2D97               	goto	l1716
  2763  0D8F                     l1714:
  2764  0D8F  3000               	movlw	0
  2765  0D90  00F3               	movwf	___fladd@b+3
  2766  0D91  3000               	movlw	0
  2767  0D92  00F2               	movwf	___fladd@b+2
  2768  0D93  3000               	movlw	0
  2769  0D94  00F1               	movwf	___fladd@b+1
  2770  0D95  3000               	movlw	0
  2771  0D96  00F0               	movwf	___fladd@b
  2772  0D97                     l1716:
  2773  0D97  0877               	movf	___fladd@a+3,w
  2774  0D98  3980               	andlw	128
  2775  0D99  00A0               	movwf	??___fladd
  2776  0D9A  0820               	movf	??___fladd,w
  2777  0D9B  00F9               	movwf	___fladd@aexp
  2778  0D9C                     l1718:
  2779  0D9C  0879               	movf	___fladd@aexp,w
  2780  0D9D  0678               	xorwf	___fladd@signs,w
  2781  0D9E  1903               	skipnz
  2782  0D9F  2DA1               	goto	u1421
  2783  0DA0  2DA2               	goto	u1420
  2784  0DA1                     u1421:
  2785  0DA1  2DA3               	goto	l1722
  2786  0DA2                     u1420:
  2787  0DA2                     l1720:
  2788  0DA2  1778               	bsf	___fladd@signs,6
  2789  0DA3                     l1722:
  2790  0DA3  0877               	movf	___fladd@a+3,w
  2791  0DA4  00A0               	movwf	??___fladd
  2792  0DA5  0720               	addwf	??___fladd,w
  2793  0DA6  00A1               	movwf	??___fladd+1
  2794  0DA7  0821               	movf	??___fladd+1,w
  2795  0DA8  00F9               	movwf	___fladd@aexp
  2796  0DA9                     l1724:
  2797  0DA9  1FF6               	btfss	___fladd@a+2,7
  2798  0DAA  2DAC               	goto	u1431
  2799  0DAB  2DAD               	goto	u1430
  2800  0DAC                     u1431:
  2801  0DAC  2DAE               	goto	l1728
  2802  0DAD                     u1430:
  2803  0DAD                     l1726:
  2804  0DAD  1479               	bsf	___fladd@aexp,0
  2805  0DAE                     l1728:
  2806  0DAE  0879               	movf	___fladd@aexp,w
  2807  0DAF  1903               	btfsc	3,2
  2808  0DB0  2DB2               	goto	u1441
  2809  0DB1  2DB3               	goto	u1440
  2810  0DB2                     u1441:
  2811  0DB2  2DC3               	goto	l1738
  2812  0DB3                     u1440:
  2813  0DB3                     l1730:
  2814  0DB3  0A79               	incf	___fladd@aexp,w
  2815  0DB4  1D03               	btfss	3,2
  2816  0DB5  2DB7               	goto	u1451
  2817  0DB6  2DB8               	goto	u1450
  2818  0DB7                     u1451:
  2819  0DB7  2DC0               	goto	l1734
  2820  0DB8                     u1450:
  2821  0DB8                     l1732:
  2822  0DB8  3000               	movlw	0
  2823  0DB9  00F7               	movwf	___fladd@a+3
  2824  0DBA  3000               	movlw	0
  2825  0DBB  00F6               	movwf	___fladd@a+2
  2826  0DBC  3000               	movlw	0
  2827  0DBD  00F5               	movwf	___fladd@a+1
  2828  0DBE  3000               	movlw	0
  2829  0DBF  00F4               	movwf	___fladd@a
  2830  0DC0                     l1734:
  2831  0DC0  17F6               	bsf	___fladd@a+2,7
  2832  0DC1                     l1736:
  2833  0DC1  01F7               	clrf	___fladd@a+3
  2834  0DC2  2DCB               	goto	l576
  2835  0DC3                     l1738:
  2836  0DC3  3000               	movlw	0
  2837  0DC4  00F7               	movwf	___fladd@a+3
  2838  0DC5  3000               	movlw	0
  2839  0DC6  00F6               	movwf	___fladd@a+2
  2840  0DC7  3000               	movlw	0
  2841  0DC8  00F5               	movwf	___fladd@a+1
  2842  0DC9  3000               	movlw	0
  2843  0DCA  00F4               	movwf	___fladd@a
  2844  0DCB                     l576:
  2845  0DCB  087A               	movf	___fladd@bexp,w
  2846  0DCC  0279               	subwf	___fladd@aexp,w
  2847  0DCD  1803               	skipnc
  2848  0DCE  2DD0               	goto	u1461
  2849  0DCF  2DD1               	goto	u1460
  2850  0DD0                     u1461:
  2851  0DD0  2E15               	goto	l1774
  2852  0DD1                     u1460:
  2853  0DD1                     l1740:
  2854  0DD1  1F78               	btfss	___fladd@signs,6
  2855  0DD2  2DD4               	goto	u1471
  2856  0DD3  2DD5               	goto	u1470
  2857  0DD4                     u1471:
  2858  0DD4  2DD9               	goto	l1744
  2859  0DD5                     u1470:
  2860  0DD5                     l1742:
  2861  0DD5  3080               	movlw	128
  2862  0DD6  00A0               	movwf	??___fladd
  2863  0DD7  0820               	movf	??___fladd,w
  2864  0DD8  06F8               	xorwf	___fladd@signs,f
  2865  0DD9                     l1744:
  2866  0DD9  087A               	movf	___fladd@bexp,w
  2867  0DDA  00A0               	movwf	??___fladd
  2868  0DDB  0820               	movf	??___fladd,w
  2869  0DDC  00FB               	movwf	___fladd@grs
  2870  0DDD                     l1746:
  2871  0DDD  0879               	movf	___fladd@aexp,w
  2872  0DDE  00A0               	movwf	??___fladd
  2873  0DDF  0820               	movf	??___fladd,w
  2874  0DE0  00FA               	movwf	___fladd@bexp
  2875  0DE1                     l1748:
  2876  0DE1  087B               	movf	___fladd@grs,w
  2877  0DE2  00A0               	movwf	??___fladd
  2878  0DE3  0820               	movf	??___fladd,w
  2879  0DE4  00F9               	movwf	___fladd@aexp
  2880  0DE5                     l1750:
  2881  0DE5  0870               	movf	___fladd@b,w
  2882  0DE6  00A0               	movwf	??___fladd
  2883  0DE7  0820               	movf	??___fladd,w
  2884  0DE8  00FB               	movwf	___fladd@grs
  2885  0DE9                     l1752:
  2886  0DE9  0874               	movf	___fladd@a,w
  2887  0DEA  00A0               	movwf	??___fladd
  2888  0DEB  0820               	movf	??___fladd,w
  2889  0DEC  00F0               	movwf	___fladd@b
  2890  0DED                     l1754:
  2891  0DED  087B               	movf	___fladd@grs,w
  2892  0DEE  00A0               	movwf	??___fladd
  2893  0DEF  0820               	movf	??___fladd,w
  2894  0DF0  00F4               	movwf	___fladd@a
  2895  0DF1                     l1756:
  2896  0DF1  0871               	movf	___fladd@b+1,w
  2897  0DF2  00A0               	movwf	??___fladd
  2898  0DF3  0820               	movf	??___fladd,w
  2899  0DF4  00FB               	movwf	___fladd@grs
  2900  0DF5                     l1758:
  2901  0DF5  0875               	movf	___fladd@a+1,w
  2902  0DF6  00A0               	movwf	??___fladd
  2903  0DF7  0820               	movf	??___fladd,w
  2904  0DF8  00F1               	movwf	___fladd@b+1
  2905  0DF9                     l1760:
  2906  0DF9  087B               	movf	___fladd@grs,w
  2907  0DFA  00A0               	movwf	??___fladd
  2908  0DFB  0820               	movf	??___fladd,w
  2909  0DFC  00F5               	movwf	___fladd@a+1
  2910  0DFD                     l1762:
  2911  0DFD  0872               	movf	___fladd@b+2,w
  2912  0DFE  00A0               	movwf	??___fladd
  2913  0DFF  0820               	movf	??___fladd,w
  2914  0E00  00FB               	movwf	___fladd@grs
  2915  0E01                     l1764:
  2916  0E01  0876               	movf	___fladd@a+2,w
  2917  0E02  00A0               	movwf	??___fladd
  2918  0E03  0820               	movf	??___fladd,w
  2919  0E04  00F2               	movwf	___fladd@b+2
  2920  0E05                     l1766:
  2921  0E05  087B               	movf	___fladd@grs,w
  2922  0E06  00A0               	movwf	??___fladd
  2923  0E07  0820               	movf	??___fladd,w
  2924  0E08  00F6               	movwf	___fladd@a+2
  2925  0E09                     l1768:
  2926  0E09  0873               	movf	___fladd@b+3,w
  2927  0E0A  00A0               	movwf	??___fladd
  2928  0E0B  0820               	movf	??___fladd,w
  2929  0E0C  00FB               	movwf	___fladd@grs
  2930  0E0D                     l1770:
  2931  0E0D  0877               	movf	___fladd@a+3,w
  2932  0E0E  00A0               	movwf	??___fladd
  2933  0E0F  0820               	movf	??___fladd,w
  2934  0E10  00F3               	movwf	___fladd@b+3
  2935  0E11                     l1772:
  2936  0E11  087B               	movf	___fladd@grs,w
  2937  0E12  00A0               	movwf	??___fladd
  2938  0E13  0820               	movf	??___fladd,w
  2939  0E14  00F7               	movwf	___fladd@a+3
  2940  0E15                     l1774:
  2941  0E15  01FB               	clrf	___fladd@grs
  2942  0E16                     l1776:
  2943  0E16  0879               	movf	___fladd@aexp,w
  2944  0E17  00A0               	movwf	??___fladd
  2945  0E18  01A1               	clrf	??___fladd+1
  2946  0E19  0821               	movf	??___fladd+1,w
  2947  0E1A  00A3               	movwf	??___fladd+3
  2948  0E1B  087A               	movf	___fladd@bexp,w
  2949  0E1C  0220               	subwf	??___fladd,w
  2950  0E1D  00A2               	movwf	??___fladd+2
  2951  0E1E  1C03               	skipc
  2952  0E1F  03A3               	decf	??___fladd+3,f
  2953  0E20  0823               	movf	??___fladd+3,w
  2954  0E21  3A80               	xorlw	128
  2955  0E22  00FF               	movwf	btemp+1
  2956  0E23  3080               	movlw	128
  2957  0E24  027F               	subwf	btemp+1,w
  2958  0E25  1D03               	skipz
  2959  0E26  2E29               	goto	u1485
  2960  0E27  301A               	movlw	26
  2961  0E28  0222               	subwf	??___fladd+2,w
  2962  0E29                     u1485:
  2963  0E29  1C03               	skipc
  2964  0E2A  2E2C               	goto	u1481
  2965  0E2B  2E2D               	goto	u1480
  2966  0E2C                     u1481:
  2967  0E2C  2E6E               	goto	l1792
  2968  0E2D                     u1480:
  2969  0E2D                     l1778:
  2970  0E2D  0873               	movf	___fladd@b+3,w
  2971  0E2E  0472               	iorwf	___fladd@b+2,w
  2972  0E2F  0471               	iorwf	___fladd@b+1,w
  2973  0E30  0470               	iorwf	___fladd@b,w
  2974  0E31  1D03               	skipz
  2975  0E32  2E34               	goto	u1491
  2976  0E33  2E36               	goto	u1490
  2977  0E34                     u1491:
  2978  0E34  3001               	movlw	1
  2979  0E35  2E37               	goto	u1500
  2980  0E36                     u1490:
  2981  0E36  3000               	movlw	0
  2982  0E37                     u1500:
  2983  0E37  1283               	bcf	3,5	;RP0=0, select bank0
  2984  0E38  1303               	bcf	3,6	;RP1=0, select bank0
  2985  0E39  00A0               	movwf	??___fladd
  2986  0E3A  0820               	movf	??___fladd,w
  2987  0E3B  00FB               	movwf	___fladd@grs
  2988  0E3C  3000               	movlw	0
  2989  0E3D  00F3               	movwf	___fladd@b+3
  2990  0E3E  3000               	movlw	0
  2991  0E3F  00F2               	movwf	___fladd@b+2
  2992  0E40  3000               	movlw	0
  2993  0E41  00F1               	movwf	___fladd@b+1
  2994  0E42  3000               	movlw	0
  2995  0E43  00F0               	movwf	___fladd@b
  2996  0E44  0879               	movf	___fladd@aexp,w
  2997  0E45  00A0               	movwf	??___fladd
  2998  0E46  0820               	movf	??___fladd,w
  2999  0E47  00FA               	movwf	___fladd@bexp
  3000  0E48  2E74               	goto	l580
  3001  0E49                     l582:
  3002  0E49  1C7B               	btfss	___fladd@grs,0
  3003  0E4A  2E4C               	goto	u1511
  3004  0E4B  2E4D               	goto	u1510
  3005  0E4C                     u1511:
  3006  0E4C  2E58               	goto	l1782
  3007  0E4D                     u1510:
  3008  0E4D                     l1780:
  3009  0E4D  087B               	movf	___fladd@grs,w
  3010  0E4E  1283               	bcf	3,5	;RP0=0, select bank0
  3011  0E4F  1303               	bcf	3,6	;RP1=0, select bank0
  3012  0E50  00A0               	movwf	??___fladd
  3013  0E51  1003               	clrc
  3014  0E52  0C20               	rrf	??___fladd,w
  3015  0E53  3801               	iorlw	1
  3016  0E54  00A1               	movwf	??___fladd+1
  3017  0E55  0821               	movf	??___fladd+1,w
  3018  0E56  00FB               	movwf	___fladd@grs
  3019  0E57  2E5A               	goto	l1784
  3020  0E58                     l1782:
  3021  0E58  1003               	clrc
  3022  0E59  0CFB               	rrf	___fladd@grs,f
  3023  0E5A                     l1784:
  3024  0E5A  1C70               	btfss	___fladd@b,0
  3025  0E5B  2E5D               	goto	u1521
  3026  0E5C  2E5E               	goto	u1520
  3027  0E5D                     u1521:
  3028  0E5D  2E5F               	goto	l1788
  3029  0E5E                     u1520:
  3030  0E5E                     l1786:
  3031  0E5E  17FB               	bsf	___fladd@grs,7
  3032  0E5F                     l1788:
  3033  0E5F  3001               	movlw	1
  3034  0E60  1283               	bcf	3,5	;RP0=0, select bank0
  3035  0E61  1303               	bcf	3,6	;RP1=0, select bank0
  3036  0E62  00A0               	movwf	??___fladd
  3037  0E63                     u1535:
  3038  0E63  0D73               	rlf	___fladd@b+3,w
  3039  0E64  0CF3               	rrf	___fladd@b+3,f
  3040  0E65  0CF2               	rrf	___fladd@b+2,f
  3041  0E66  0CF1               	rrf	___fladd@b+1,f
  3042  0E67  0CF0               	rrf	___fladd@b,f
  3043  0E68  0BA0               	decfsz	??___fladd& (0+127),f
  3044  0E69  2E63               	goto	u1535
  3045  0E6A                     l1790:
  3046  0E6A  3001               	movlw	1
  3047  0E6B  00A0               	movwf	??___fladd
  3048  0E6C  0820               	movf	??___fladd,w
  3049  0E6D  07FA               	addwf	___fladd@bexp,f
  3050  0E6E                     l1792:
  3051  0E6E  0879               	movf	___fladd@aexp,w
  3052  0E6F  027A               	subwf	___fladd@bexp,w
  3053  0E70  1C03               	skipc
  3054  0E71  2E73               	goto	u1541
  3055  0E72  2E74               	goto	u1540
  3056  0E73                     u1541:
  3057  0E73  2E49               	goto	l582
  3058  0E74                     u1540:
  3059  0E74                     l580:
  3060  0E74  1B78               	btfsc	___fladd@signs,6
  3061  0E75  2E77               	goto	u1551
  3062  0E76  2E78               	goto	u1550
  3063  0E77                     u1551:
  3064  0E77  2EC7               	goto	l1818
  3065  0E78                     u1550:
  3066  0E78                     l1794:
  3067  0E78  087A               	movf	___fladd@bexp,w
  3068  0E79  1D03               	btfss	3,2
  3069  0E7A  2E7C               	goto	u1561
  3070  0E7B  2E7D               	goto	u1560
  3071  0E7C                     u1561:
  3072  0E7C  2E86               	goto	l1800
  3073  0E7D                     u1560:
  3074  0E7D                     l1796:
  3075  0E7D  3000               	movlw	0
  3076  0E7E  00F3               	movwf	?___fladd+3
  3077  0E7F  3000               	movlw	0
  3078  0E80  00F2               	movwf	?___fladd+2
  3079  0E81  3000               	movlw	0
  3080  0E82  00F1               	movwf	?___fladd+1
  3081  0E83  3000               	movlw	0
  3082  0E84  00F0               	movwf	?___fladd
  3083  0E85  2FFF               	goto	l589
  3084  0E86                     l1800:
  3085  0E86  0874               	movf	___fladd@a,w
  3086  0E87  07F0               	addwf	___fladd@b,f
  3087  0E88  0875               	movf	___fladd@a+1,w
  3088  0E89  1103               	clrz
  3089  0E8A  1803               	skipnc
  3090  0E8B  3E01               	addlw	1
  3091  0E8C  1903               	skipnz
  3092  0E8D  2E8F               	goto	u1571
  3093  0E8E  07F1               	addwf	___fladd@b+1,f
  3094  0E8F                     u1571:
  3095  0E8F  0876               	movf	___fladd@a+2,w
  3096  0E90  1103               	clrz
  3097  0E91  1803               	skipnc
  3098  0E92  3E01               	addlw	1
  3099  0E93  1903               	skipnz
  3100  0E94  2E96               	goto	u1572
  3101  0E95  07F2               	addwf	___fladd@b+2,f
  3102  0E96                     u1572:
  3103  0E96  0877               	movf	___fladd@a+3,w
  3104  0E97  1103               	clrz
  3105  0E98  1803               	skipnc
  3106  0E99  3E01               	addlw	1
  3107  0E9A  1903               	skipnz
  3108  0E9B  2E9D               	goto	u1573
  3109  0E9C  07F3               	addwf	___fladd@b+3,f
  3110  0E9D                     u1573:
  3111  0E9D                     l1802:
  3112  0E9D  1C73               	btfss	___fladd@b+3,0
  3113  0E9E  2EA0               	goto	u1581
  3114  0E9F  2EA1               	goto	u1580
  3115  0EA0                     u1581:
  3116  0EA0  2F7F               	goto	l1852
  3117  0EA1                     u1580:
  3118  0EA1                     l1804:
  3119  0EA1  1C7B               	btfss	___fladd@grs,0
  3120  0EA2  2EA4               	goto	u1591
  3121  0EA3  2EA5               	goto	u1590
  3122  0EA4                     u1591:
  3123  0EA4  2EB0               	goto	l1808
  3124  0EA5                     u1590:
  3125  0EA5                     l1806:
  3126  0EA5  087B               	movf	___fladd@grs,w
  3127  0EA6  1283               	bcf	3,5	;RP0=0, select bank0
  3128  0EA7  1303               	bcf	3,6	;RP1=0, select bank0
  3129  0EA8  00A0               	movwf	??___fladd
  3130  0EA9  1003               	clrc
  3131  0EAA  0C20               	rrf	??___fladd,w
  3132  0EAB  3801               	iorlw	1
  3133  0EAC  00A1               	movwf	??___fladd+1
  3134  0EAD  0821               	movf	??___fladd+1,w
  3135  0EAE  00FB               	movwf	___fladd@grs
  3136  0EAF  2EB2               	goto	l1810
  3137  0EB0                     l1808:
  3138  0EB0  1003               	clrc
  3139  0EB1  0CFB               	rrf	___fladd@grs,f
  3140  0EB2                     l1810:
  3141  0EB2  1C70               	btfss	___fladd@b,0
  3142  0EB3  2EB5               	goto	u1601
  3143  0EB4  2EB6               	goto	u1600
  3144  0EB5                     u1601:
  3145  0EB5  2EB7               	goto	l1814
  3146  0EB6                     u1600:
  3147  0EB6                     l1812:
  3148  0EB6  17FB               	bsf	___fladd@grs,7
  3149  0EB7                     l1814:
  3150  0EB7  3001               	movlw	1
  3151  0EB8  1283               	bcf	3,5	;RP0=0, select bank0
  3152  0EB9  1303               	bcf	3,6	;RP1=0, select bank0
  3153  0EBA  00A0               	movwf	??___fladd
  3154  0EBB                     u1615:
  3155  0EBB  0D73               	rlf	___fladd@b+3,w
  3156  0EBC  0CF3               	rrf	___fladd@b+3,f
  3157  0EBD  0CF2               	rrf	___fladd@b+2,f
  3158  0EBE  0CF1               	rrf	___fladd@b+1,f
  3159  0EBF  0CF0               	rrf	___fladd@b,f
  3160  0EC0  0BA0               	decfsz	??___fladd& (0+127),f
  3161  0EC1  2EBB               	goto	u1615
  3162  0EC2                     l1816:
  3163  0EC2  3001               	movlw	1
  3164  0EC3  00A0               	movwf	??___fladd
  3165  0EC4  0820               	movf	??___fladd,w
  3166  0EC5  07FA               	addwf	___fladd@bexp,f
  3167  0EC6  2F7F               	goto	l1852
  3168  0EC7                     l1818:
  3169  0EC7  0873               	movf	___fladd@b+3,w
  3170  0EC8  3A80               	xorlw	128
  3171  0EC9  00FF               	movwf	btemp+1
  3172  0ECA  0877               	movf	___fladd@a+3,w
  3173  0ECB  3A80               	xorlw	128
  3174  0ECC  027F               	subwf	btemp+1,w
  3175  0ECD  1D03               	skipz
  3176  0ECE  2ED9               	goto	u1623
  3177  0ECF  0876               	movf	___fladd@a+2,w
  3178  0ED0  0272               	subwf	___fladd@b+2,w
  3179  0ED1  1D03               	skipz
  3180  0ED2  2ED9               	goto	u1623
  3181  0ED3  0875               	movf	___fladd@a+1,w
  3182  0ED4  0271               	subwf	___fladd@b+1,w
  3183  0ED5  1D03               	skipz
  3184  0ED6  2ED9               	goto	u1623
  3185  0ED7  0874               	movf	___fladd@a,w
  3186  0ED8  0270               	subwf	___fladd@b,w
  3187  0ED9                     u1623:
  3188  0ED9  1803               	skipnc
  3189  0EDA  2EDC               	goto	u1621
  3190  0EDB  2EDD               	goto	u1620
  3191  0EDC                     u1621:
  3192  0EDC  2F37               	goto	l1828
  3193  0EDD                     u1620:
  3194  0EDD                     l1820:
  3195  0EDD  30FF               	movlw	255
  3196  0EDE  1283               	bcf	3,5	;RP0=0, select bank0
  3197  0EDF  1303               	bcf	3,6	;RP1=0, select bank0
  3198  0EE0  00A0               	movwf	??___fladd
  3199  0EE1  30FF               	movlw	255
  3200  0EE2  00A1               	movwf	??___fladd+1
  3201  0EE3  30FF               	movlw	255
  3202  0EE4  00A2               	movwf	??___fladd+2
  3203  0EE5  30FF               	movlw	255
  3204  0EE6  00A3               	movwf	??___fladd+3
  3205  0EE7  0874               	movf	___fladd@a,w
  3206  0EE8  00A4               	movwf	??___fladd+4
  3207  0EE9  0875               	movf	___fladd@a+1,w
  3208  0EEA  00A5               	movwf	??___fladd+5
  3209  0EEB  0876               	movf	___fladd@a+2,w
  3210  0EEC  00A6               	movwf	??___fladd+6
  3211  0EED  0877               	movf	___fladd@a+3,w
  3212  0EEE  00A7               	movwf	??___fladd+7
  3213  0EEF  0870               	movf	___fladd@b,w
  3214  0EF0  02A4               	subwf	??___fladd+4,f
  3215  0EF1  0871               	movf	___fladd@b+1,w
  3216  0EF2  1C03               	skipc
  3217  0EF3  0F71               	incfsz	___fladd@b+1,w
  3218  0EF4  2EF6               	goto	u1631
  3219  0EF5  2EF7               	goto	u1632
  3220  0EF6                     u1631:
  3221  0EF6  02A5               	subwf	??___fladd+5,f
  3222  0EF7                     u1632:
  3223  0EF7  0872               	movf	___fladd@b+2,w
  3224  0EF8  1C03               	skipc
  3225  0EF9  0F72               	incfsz	___fladd@b+2,w
  3226  0EFA  2EFC               	goto	u1633
  3227  0EFB  2EFD               	goto	u1634
  3228  0EFC                     u1633:
  3229  0EFC  02A6               	subwf	??___fladd+6,f
  3230  0EFD                     u1634:
  3231  0EFD  0873               	movf	___fladd@b+3,w
  3232  0EFE  1C03               	skipc
  3233  0EFF  0F73               	incfsz	___fladd@b+3,w
  3234  0F00  2F02               	goto	u1635
  3235  0F01  2F03               	goto	u1636
  3236  0F02                     u1635:
  3237  0F02  02A7               	subwf	??___fladd+7,f
  3238  0F03                     u1636:
  3239  0F03  0824               	movf	??___fladd+4,w
  3240  0F04  07A0               	addwf	??___fladd,f
  3241  0F05  0825               	movf	??___fladd+5,w
  3242  0F06  1803               	skipnc
  3243  0F07  0F25               	incfsz	??___fladd+5,w
  3244  0F08  2F0A               	goto	u1640
  3245  0F09  2F0B               	goto	u1641
  3246  0F0A                     u1640:
  3247  0F0A  07A1               	addwf	??___fladd+1,f
  3248  0F0B                     u1641:
  3249  0F0B  0826               	movf	??___fladd+6,w
  3250  0F0C  1803               	skipnc
  3251  0F0D  0F26               	incfsz	??___fladd+6,w
  3252  0F0E  2F10               	goto	u1642
  3253  0F0F  2F11               	goto	u1643
  3254  0F10                     u1642:
  3255  0F10  07A2               	addwf	??___fladd+2,f
  3256  0F11                     u1643:
  3257  0F11  0827               	movf	??___fladd+7,w
  3258  0F12  1803               	skipnc
  3259  0F13  0A27               	incf	??___fladd+7,w
  3260  0F14  07A3               	addwf	??___fladd+3,f
  3261  0F15  0823               	movf	??___fladd+3,w
  3262  0F16  00F3               	movwf	___fladd@b+3
  3263  0F17  0822               	movf	??___fladd+2,w
  3264  0F18  00F2               	movwf	___fladd@b+2
  3265  0F19  0821               	movf	??___fladd+1,w
  3266  0F1A  00F1               	movwf	___fladd@b+1
  3267  0F1B  0820               	movf	??___fladd,w
  3268  0F1C  00F0               	movwf	___fladd@b
  3269  0F1D                     l1822:
  3270  0F1D  3080               	movlw	128
  3271  0F1E  00A0               	movwf	??___fladd
  3272  0F1F  0820               	movf	??___fladd,w
  3273  0F20  06F8               	xorwf	___fladd@signs,f
  3274  0F21  09FB               	comf	___fladd@grs,f
  3275  0F22  0AFB               	incf	___fladd@grs,f
  3276  0F23                     l1824:
  3277  0F23  087B               	movf	___fladd@grs,w
  3278  0F24  1D03               	btfss	3,2
  3279  0F25  2F27               	goto	u1651
  3280  0F26  2F28               	goto	u1650
  3281  0F27                     u1651:
  3282  0F27  2F45               	goto	l597
  3283  0F28                     u1650:
  3284  0F28                     l1826:
  3285  0F28  3001               	movlw	1
  3286  0F29  07F0               	addwf	___fladd@b,f
  3287  0F2A  3000               	movlw	0
  3288  0F2B  1803               	skipnc
  3289  0F2C  3001               	movlw	1
  3290  0F2D  07F1               	addwf	___fladd@b+1,f
  3291  0F2E  3000               	movlw	0
  3292  0F2F  1803               	skipnc
  3293  0F30  3001               	movlw	1
  3294  0F31  07F2               	addwf	___fladd@b+2,f
  3295  0F32  3000               	movlw	0
  3296  0F33  1803               	skipnc
  3297  0F34  3001               	movlw	1
  3298  0F35  07F3               	addwf	___fladd@b+3,f
  3299  0F36  2F45               	goto	l597
  3300  0F37                     l1828:
  3301  0F37  0874               	movf	___fladd@a,w
  3302  0F38  02F0               	subwf	___fladd@b,f
  3303  0F39  0875               	movf	___fladd@a+1,w
  3304  0F3A  1C03               	skipc
  3305  0F3B  0F75               	incfsz	___fladd@a+1,w
  3306  0F3C  02F1               	subwf	___fladd@b+1,f
  3307  0F3D  0876               	movf	___fladd@a+2,w
  3308  0F3E  1C03               	skipc
  3309  0F3F  0F76               	incfsz	___fladd@a+2,w
  3310  0F40  02F2               	subwf	___fladd@b+2,f
  3311  0F41  0877               	movf	___fladd@a+3,w
  3312  0F42  1C03               	skipc
  3313  0F43  0F77               	incfsz	___fladd@a+3,w
  3314  0F44  02F3               	subwf	___fladd@b+3,f
  3315  0F45                     l597:
  3316  0F45  0873               	movf	___fladd@b+3,w
  3317  0F46  0472               	iorwf	___fladd@b+2,w
  3318  0F47  0471               	iorwf	___fladd@b+1,w
  3319  0F48  0470               	iorwf	___fladd@b,w
  3320  0F49  1D03               	skipz
  3321  0F4A  2F4C               	goto	u1661
  3322  0F4B  2F4D               	goto	u1660
  3323  0F4C                     u1661:
  3324  0F4C  2F7B               	goto	l1850
  3325  0F4D                     u1660:
  3326  0F4D                     l1830:
  3327  0F4D  087B               	movf	___fladd@grs,w
  3328  0F4E  1D03               	btfss	3,2
  3329  0F4F  2F51               	goto	u1671
  3330  0F50  2F52               	goto	u1670
  3331  0F51                     u1671:
  3332  0F51  2F7B               	goto	l1850
  3333  0F52                     u1670:
  3334  0F52                     l1832:
  3335  0F52  3000               	movlw	0
  3336  0F53  00F3               	movwf	?___fladd+3
  3337  0F54  3000               	movlw	0
  3338  0F55  00F2               	movwf	?___fladd+2
  3339  0F56  3000               	movlw	0
  3340  0F57  00F1               	movwf	?___fladd+1
  3341  0F58  3000               	movlw	0
  3342  0F59  00F0               	movwf	?___fladd
  3343  0F5A  2FFF               	goto	l589
  3344  0F5B                     l1836:
  3345  0F5B  3001               	movlw	1
  3346  0F5C  1283               	bcf	3,5	;RP0=0, select bank0
  3347  0F5D  1303               	bcf	3,6	;RP1=0, select bank0
  3348  0F5E  00A0               	movwf	??___fladd
  3349  0F5F                     u1685:
  3350  0F5F  1003               	clrc
  3351  0F60  0DF0               	rlf	___fladd@b,f
  3352  0F61  0DF1               	rlf	___fladd@b+1,f
  3353  0F62  0DF2               	rlf	___fladd@b+2,f
  3354  0F63  0DF3               	rlf	___fladd@b+3,f
  3355  0F64  0BA0               	decfsz	??___fladd,f
  3356  0F65  2F5F               	goto	u1685
  3357  0F66                     l1838:
  3358  0F66  1FFB               	btfss	___fladd@grs,7
  3359  0F67  2F69               	goto	u1691
  3360  0F68  2F6A               	goto	u1690
  3361  0F69                     u1691:
  3362  0F69  2F6B               	goto	l601
  3363  0F6A                     u1690:
  3364  0F6A                     l1840:
  3365  0F6A  1470               	bsf	___fladd@b,0
  3366  0F6B                     l601:
  3367  0F6B  1C7B               	btfss	___fladd@grs,0
  3368  0F6C  2F6E               	goto	u1701
  3369  0F6D  2F6F               	goto	u1700
  3370  0F6E                     u1701:
  3371  0F6E  2F72               	goto	l1844
  3372  0F6F                     u1700:
  3373  0F6F                     l1842:
  3374  0F6F  1403               	setc
  3375  0F70  0DFB               	rlf	___fladd@grs,f
  3376  0F71  2F74               	goto	l1846
  3377  0F72                     l1844:
  3378  0F72  1003               	clrc
  3379  0F73  0DFB               	rlf	___fladd@grs,f
  3380  0F74                     l1846:
  3381  0F74  087A               	movf	___fladd@bexp,w
  3382  0F75  1903               	btfsc	3,2
  3383  0F76  2F78               	goto	u1711
  3384  0F77  2F79               	goto	u1710
  3385  0F78                     u1711:
  3386  0F78  2F7B               	goto	l1850
  3387  0F79                     u1710:
  3388  0F79                     l1848:
  3389  0F79  3001               	movlw	1
  3390  0F7A  02FA               	subwf	___fladd@bexp,f
  3391  0F7B                     l1850:
  3392  0F7B  1FF2               	btfss	___fladd@b+2,7
  3393  0F7C  2F7E               	goto	u1721
  3394  0F7D  2F7F               	goto	u1720
  3395  0F7E                     u1721:
  3396  0F7E  2F5B               	goto	l1836
  3397  0F7F                     u1720:
  3398  0F7F                     l1852:
  3399  0F7F  01F9               	clrf	___fladd@aexp
  3400  0F80                     l1854:
  3401  0F80  1FFB               	btfss	___fladd@grs,7
  3402  0F81  2F83               	goto	u1731
  3403  0F82  2F84               	goto	u1730
  3404  0F83                     u1731:
  3405  0F83  2F92               	goto	l1862
  3406  0F84                     u1730:
  3407  0F84                     l1856:
  3408  0F84  087B               	movf	___fladd@grs,w
  3409  0F85  397F               	andlw	127
  3410  0F86  1903               	btfsc	3,2
  3411  0F87  2F89               	goto	u1741
  3412  0F88  2F8A               	goto	u1740
  3413  0F89                     u1741:
  3414  0F89  2F8D               	goto	l607
  3415  0F8A                     u1740:
  3416  0F8A                     l1858:
  3417  0F8A  01F9               	clrf	___fladd@aexp
  3418  0F8B  0AF9               	incf	___fladd@aexp,f
  3419  0F8C  2F92               	goto	l1862
  3420  0F8D                     l607:
  3421  0F8D  1C70               	btfss	___fladd@b,0
  3422  0F8E  2F90               	goto	u1751
  3423  0F8F  2F91               	goto	u1750
  3424  0F90                     u1751:
  3425  0F90  2F92               	goto	l1862
  3426  0F91                     u1750:
  3427  0F91  2F8A               	goto	l1858
  3428  0F92                     l1862:
  3429  0F92  0879               	movf	___fladd@aexp,w
  3430  0F93  1903               	btfsc	3,2
  3431  0F94  2F96               	goto	u1761
  3432  0F95  2F97               	goto	u1760
  3433  0F96                     u1761:
  3434  0F96  2FCD               	goto	l610
  3435  0F97                     u1760:
  3436  0F97                     l1864:
  3437  0F97  3001               	movlw	1
  3438  0F98  07F0               	addwf	___fladd@b,f
  3439  0F99  3000               	movlw	0
  3440  0F9A  1803               	skipnc
  3441  0F9B  3001               	movlw	1
  3442  0F9C  07F1               	addwf	___fladd@b+1,f
  3443  0F9D  3000               	movlw	0
  3444  0F9E  1803               	skipnc
  3445  0F9F  3001               	movlw	1
  3446  0FA0  07F2               	addwf	___fladd@b+2,f
  3447  0FA1  3000               	movlw	0
  3448  0FA2  1803               	skipnc
  3449  0FA3  3001               	movlw	1
  3450  0FA4  07F3               	addwf	___fladd@b+3,f
  3451  0FA5                     l1866:
  3452  0FA5  1C73               	btfss	___fladd@b+3,0
  3453  0FA6  2FA8               	goto	u1771
  3454  0FA7  2FA9               	goto	u1770
  3455  0FA8                     u1771:
  3456  0FA8  2FCD               	goto	l610
  3457  0FA9                     u1770:
  3458  0FA9                     l1868:
  3459  0FA9  0870               	movf	___fladd@b,w
  3460  0FAA  1283               	bcf	3,5	;RP0=0, select bank0
  3461  0FAB  1303               	bcf	3,6	;RP1=0, select bank0
  3462  0FAC  00A0               	movwf	??___fladd
  3463  0FAD  0871               	movf	___fladd@b+1,w
  3464  0FAE  00A1               	movwf	??___fladd+1
  3465  0FAF  0872               	movf	___fladd@b+2,w
  3466  0FB0  00A2               	movwf	??___fladd+2
  3467  0FB1  0873               	movf	___fladd@b+3,w
  3468  0FB2  00A3               	movwf	??___fladd+3
  3469  0FB3  3001               	movlw	1
  3470  0FB4  00A4               	movwf	??___fladd+4
  3471  0FB5                     u1785:
  3472  0FB5  0D23               	rlf	??___fladd+3,w
  3473  0FB6  0CA3               	rrf	??___fladd+3,f
  3474  0FB7  0CA2               	rrf	??___fladd+2,f
  3475  0FB8  0CA1               	rrf	??___fladd+1,f
  3476  0FB9  0CA0               	rrf	??___fladd,f
  3477  0FBA                     u1780:
  3478  0FBA  0BA4               	decfsz	??___fladd+4,f
  3479  0FBB  2FB5               	goto	u1785
  3480  0FBC  0823               	movf	??___fladd+3,w
  3481  0FBD  00F3               	movwf	___fladd@b+3
  3482  0FBE  0822               	movf	??___fladd+2,w
  3483  0FBF  00F2               	movwf	___fladd@b+2
  3484  0FC0  0821               	movf	??___fladd+1,w
  3485  0FC1  00F1               	movwf	___fladd@b+1
  3486  0FC2  0820               	movf	??___fladd,w
  3487  0FC3  00F0               	movwf	___fladd@b
  3488  0FC4  0A7A               	incf	___fladd@bexp,w
  3489  0FC5  1903               	btfsc	3,2
  3490  0FC6  2FC8               	goto	u1791
  3491  0FC7  2FC9               	goto	u1790
  3492  0FC8                     u1791:
  3493  0FC8  2FCD               	goto	l610
  3494  0FC9                     u1790:
  3495  0FC9                     l1870:
  3496  0FC9  3001               	movlw	1
  3497  0FCA  00A0               	movwf	??___fladd
  3498  0FCB  0820               	movf	??___fladd,w
  3499  0FCC  07FA               	addwf	___fladd@bexp,f
  3500  0FCD                     l610:
  3501  0FCD  0A7A               	incf	___fladd@bexp,w
  3502  0FCE  1903               	btfsc	3,2
  3503  0FCF  2FD1               	goto	u1801
  3504  0FD0  2FD2               	goto	u1800
  3505  0FD1                     u1801:
  3506  0FD1  2FD7               	goto	l1874
  3507  0FD2                     u1800:
  3508  0FD2                     l1872:
  3509  0FD2  087A               	movf	___fladd@bexp,w
  3510  0FD3  1D03               	btfss	3,2
  3511  0FD4  2FD6               	goto	u1811
  3512  0FD5  2FD7               	goto	u1810
  3513  0FD6                     u1811:
  3514  0FD6  2FE5               	goto	l1880
  3515  0FD7                     u1810:
  3516  0FD7                     l1874:
  3517  0FD7  3000               	movlw	0
  3518  0FD8  00F3               	movwf	___fladd@b+3
  3519  0FD9  3000               	movlw	0
  3520  0FDA  00F2               	movwf	___fladd@b+2
  3521  0FDB  3000               	movlw	0
  3522  0FDC  00F1               	movwf	___fladd@b+1
  3523  0FDD  3000               	movlw	0
  3524  0FDE  00F0               	movwf	___fladd@b
  3525  0FDF                     l1876:
  3526  0FDF  087A               	movf	___fladd@bexp,w
  3527  0FE0  1D03               	btfss	3,2
  3528  0FE1  2FE3               	goto	u1821
  3529  0FE2  2FE4               	goto	u1820
  3530  0FE3                     u1821:
  3531  0FE3  2FE5               	goto	l1880
  3532  0FE4                     u1820:
  3533  0FE4                     l1878:
  3534  0FE4  01F8               	clrf	___fladd@signs
  3535  0FE5                     l1880:
  3536  0FE5  1C7A               	btfss	___fladd@bexp,0
  3537  0FE6  2FE8               	goto	u1831
  3538  0FE7  2FE9               	goto	u1830
  3539  0FE8                     u1831:
  3540  0FE8  2FEB               	goto	l1884
  3541  0FE9                     u1830:
  3542  0FE9                     l1882:
  3543  0FE9  17F2               	bsf	___fladd@b+2,7
  3544  0FEA  2FF1               	goto	l618
  3545  0FEB                     l1884:
  3546  0FEB  307F               	movlw	127
  3547  0FEC  1283               	bcf	3,5	;RP0=0, select bank0
  3548  0FED  1303               	bcf	3,6	;RP1=0, select bank0
  3549  0FEE  00A0               	movwf	??___fladd
  3550  0FEF  0820               	movf	??___fladd,w
  3551  0FF0  05F2               	andwf	___fladd@b+2,f
  3552  0FF1                     l618:
  3553  0FF1  087A               	movf	___fladd@bexp,w
  3554  0FF2  1283               	bcf	3,5	;RP0=0, select bank0
  3555  0FF3  1303               	bcf	3,6	;RP1=0, select bank0
  3556  0FF4  00A0               	movwf	??___fladd
  3557  0FF5  1003               	clrc
  3558  0FF6  0C20               	rrf	??___fladd,w
  3559  0FF7  00A1               	movwf	??___fladd+1
  3560  0FF8  0821               	movf	??___fladd+1,w
  3561  0FF9  00F3               	movwf	___fladd@b+3
  3562  0FFA                     l1886:
  3563  0FFA  1FF8               	btfss	___fladd@signs,7
  3564  0FFB  2FFD               	goto	u1841
  3565  0FFC  2FFE               	goto	u1840
  3566  0FFD                     u1841:
  3567  0FFD  2FFF               	goto	l619
  3568  0FFE                     u1840:
  3569  0FFE                     l1888:
  3570  0FFE  17F3               	bsf	___fladd@b+3,7
  3571  0FFF                     l619:
  3572  0FFF                     l589:
  3573  0FFF  0008               	return
  3574  1000                     __end_of___fladd:
  3575                           
  3576                           	psect	text6
  3577  0478                     __ptext6:	
  3578 ;; *************** function ___flmul *****************
  3579 ;; Defined at:
  3580 ;;		line 8 in file "C:\Program Files\Microchip\xc8\v2.32\pic\sources\c90\common\sprcmul.c"
  3581 ;; Parameters:    Size  Location     Type
  3582 ;;  b               4    0[BANK0 ] unsigned char 
  3583 ;;  a               4    4[BANK0 ] unsigned char 
  3584 ;; Auto vars:     Size  Location     Type
  3585 ;;  prod            4   15[BANK0 ] struct .
  3586 ;;  grs             4    9[BANK0 ] unsigned long 
  3587 ;;  temp            2   19[BANK0 ] struct .
  3588 ;;  bexp            1   14[BANK0 ] unsigned char 
  3589 ;;  aexp            1   13[BANK0 ] unsigned char 
  3590 ;;  sign            1    8[BANK0 ] unsigned char 
  3591 ;; Return value:  Size  Location     Type
  3592 ;;                  4    0[BANK0 ] unsigned char 
  3593 ;; Registers used:
  3594 ;;		wreg, status,2, status,0, btemp+1, pclath, cstack
  3595 ;; Tracked objects:
  3596 ;;		On entry : 0/0
  3597 ;;		On exit  : 0/0
  3598 ;;		Unchanged: 0/0
  3599 ;; Data sizes:     COMMON   BANK0   BANK1   BANK3   BANK2
  3600 ;;      Params:         0       8       0       0       0
  3601 ;;      Locals:         0      13       0       0       0
  3602 ;;      Temps:          5       0       0       0       0
  3603 ;;      Totals:         5      21       0       0       0
  3604 ;;Total ram usage:       26 bytes
  3605 ;; Hardware stack levels used: 1
  3606 ;; Hardware stack levels required when called: 1
  3607 ;; This function calls:
  3608 ;;		__Umul8_16
  3609 ;; This function is called by:
  3610 ;;		_liga_buzzer
  3611 ;; This function uses a non-reentrant model
  3612 ;;
  3613                           
  3614                           
  3615                           ;psect for function ___flmul
  3616  0478                     ___flmul:
  3617  0478                     l1940:	
  3618                           ;incstack = 0
  3619                           ; Regs used in ___flmul: [wreg+status,2+status,0+btemp+1+pclath+cstack]
  3620                           
  3621  0478  1283               	bcf	3,5	;RP0=0, select bank0
  3622  0479  1303               	bcf	3,6	;RP1=0, select bank0
  3623  047A  0823               	movf	___flmul@b+3,w
  3624  047B  3980               	andlw	128
  3625  047C  00F9               	movwf	??___flmul
  3626  047D  0879               	movf	??___flmul,w
  3627  047E  00A8               	movwf	___flmul@sign
  3628  047F                     l1942:
  3629  047F  0823               	movf	___flmul@b+3,w
  3630  0480  00F9               	movwf	??___flmul
  3631  0481  0779               	addwf	??___flmul,w
  3632  0482  00FA               	movwf	??___flmul+1
  3633  0483  087A               	movf	??___flmul+1,w
  3634  0484  00AE               	movwf	___flmul@bexp
  3635  0485                     l1944:
  3636  0485  1FA2               	btfss	___flmul@b+2,7
  3637  0486  2C88               	goto	u1961
  3638  0487  2C89               	goto	u1960
  3639  0488                     u1961:
  3640  0488  2C8A               	goto	l1948
  3641  0489                     u1960:
  3642  0489                     l1946:
  3643  0489  142E               	bsf	___flmul@bexp,0
  3644  048A                     l1948:
  3645  048A  082E               	movf	___flmul@bexp,w
  3646  048B  1903               	btfsc	3,2
  3647  048C  2C8E               	goto	u1971
  3648  048D  2C8F               	goto	u1970
  3649  048E                     u1971:
  3650  048E  2C9E               	goto	l1956
  3651  048F                     u1970:
  3652  048F                     l1950:
  3653  048F  0A2E               	incf	___flmul@bexp,w
  3654  0490  1D03               	btfss	3,2
  3655  0491  2C93               	goto	u1981
  3656  0492  2C94               	goto	u1980
  3657  0493                     u1981:
  3658  0493  2C9C               	goto	l1954
  3659  0494                     u1980:
  3660  0494                     l1952:
  3661  0494  3000               	movlw	0
  3662  0495  00A3               	movwf	___flmul@b+3
  3663  0496  3000               	movlw	0
  3664  0497  00A2               	movwf	___flmul@b+2
  3665  0498  3000               	movlw	0
  3666  0499  00A1               	movwf	___flmul@b+1
  3667  049A  3000               	movlw	0
  3668  049B  00A0               	movwf	___flmul@b
  3669  049C                     l1954:
  3670  049C  17A2               	bsf	___flmul@b+2,7
  3671  049D  2CA6               	goto	l1958
  3672  049E                     l1956:
  3673  049E  3000               	movlw	0
  3674  049F  00A3               	movwf	___flmul@b+3
  3675  04A0  3000               	movlw	0
  3676  04A1  00A2               	movwf	___flmul@b+2
  3677  04A2  3000               	movlw	0
  3678  04A3  00A1               	movwf	___flmul@b+1
  3679  04A4  3000               	movlw	0
  3680  04A5  00A0               	movwf	___flmul@b
  3681  04A6                     l1958:
  3682  04A6  0827               	movf	___flmul@a+3,w
  3683  04A7  3980               	andlw	128
  3684  04A8  00F9               	movwf	??___flmul
  3685  04A9  0879               	movf	??___flmul,w
  3686  04AA  06A8               	xorwf	___flmul@sign,f
  3687  04AB                     l1960:
  3688  04AB  0827               	movf	___flmul@a+3,w
  3689  04AC  00F9               	movwf	??___flmul
  3690  04AD  0779               	addwf	??___flmul,w
  3691  04AE  00FA               	movwf	??___flmul+1
  3692  04AF  087A               	movf	??___flmul+1,w
  3693  04B0  00AD               	movwf	___flmul@aexp
  3694  04B1                     l1962:
  3695  04B1  1FA6               	btfss	___flmul@a+2,7
  3696  04B2  2CB4               	goto	u1991
  3697  04B3  2CB5               	goto	u1990
  3698  04B4                     u1991:
  3699  04B4  2CB6               	goto	l1966
  3700  04B5                     u1990:
  3701  04B5                     l1964:
  3702  04B5  142D               	bsf	___flmul@aexp,0
  3703  04B6                     l1966:
  3704  04B6  082D               	movf	___flmul@aexp,w
  3705  04B7  1903               	btfsc	3,2
  3706  04B8  2CBA               	goto	u2001
  3707  04B9  2CBB               	goto	u2000
  3708  04BA                     u2001:
  3709  04BA  2CCA               	goto	l1974
  3710  04BB                     u2000:
  3711  04BB                     l1968:
  3712  04BB  0A2D               	incf	___flmul@aexp,w
  3713  04BC  1D03               	btfss	3,2
  3714  04BD  2CBF               	goto	u2011
  3715  04BE  2CC0               	goto	u2010
  3716  04BF                     u2011:
  3717  04BF  2CC8               	goto	l1972
  3718  04C0                     u2010:
  3719  04C0                     l1970:
  3720  04C0  3000               	movlw	0
  3721  04C1  00A7               	movwf	___flmul@a+3
  3722  04C2  3000               	movlw	0
  3723  04C3  00A6               	movwf	___flmul@a+2
  3724  04C4  3000               	movlw	0
  3725  04C5  00A5               	movwf	___flmul@a+1
  3726  04C6  3000               	movlw	0
  3727  04C7  00A4               	movwf	___flmul@a
  3728  04C8                     l1972:
  3729  04C8  17A6               	bsf	___flmul@a+2,7
  3730  04C9  2CD2               	goto	l1976
  3731  04CA                     l1974:
  3732  04CA  3000               	movlw	0
  3733  04CB  00A7               	movwf	___flmul@a+3
  3734  04CC  3000               	movlw	0
  3735  04CD  00A6               	movwf	___flmul@a+2
  3736  04CE  3000               	movlw	0
  3737  04CF  00A5               	movwf	___flmul@a+1
  3738  04D0  3000               	movlw	0
  3739  04D1  00A4               	movwf	___flmul@a
  3740  04D2                     l1976:
  3741  04D2  082D               	movf	___flmul@aexp,w
  3742  04D3  1903               	btfsc	3,2
  3743  04D4  2CD6               	goto	u2021
  3744  04D5  2CD7               	goto	u2020
  3745  04D6                     u2021:
  3746  04D6  2CDC               	goto	l1980
  3747  04D7                     u2020:
  3748  04D7                     l1978:
  3749  04D7  082E               	movf	___flmul@bexp,w
  3750  04D8  1D03               	btfss	3,2
  3751  04D9  2CDB               	goto	u2031
  3752  04DA  2CDC               	goto	u2030
  3753  04DB                     u2031:
  3754  04DB  2CE5               	goto	l1984
  3755  04DC                     u2030:
  3756  04DC                     l1980:
  3757  04DC  3000               	movlw	0
  3758  04DD  00A3               	movwf	?___flmul+3
  3759  04DE  3000               	movlw	0
  3760  04DF  00A2               	movwf	?___flmul+2
  3761  04E0  3000               	movlw	0
  3762  04E1  00A1               	movwf	?___flmul+1
  3763  04E2  3000               	movlw	0
  3764  04E3  00A0               	movwf	?___flmul
  3765  04E4  2FD8               	goto	l672
  3766  04E5                     l1984:
  3767  04E5  0820               	movf	___flmul@b,w
  3768  04E6  00F9               	movwf	??___flmul
  3769  04E7  0879               	movf	??___flmul,w
  3770  04E8  00F0               	movwf	__Umul8_16@multiplicand
  3771  04E9  0826               	movf	___flmul@a+2,w
  3772  04EA  120A  158A  2281  120A  118A  	fcall	__Umul8_16
  3773  04EF  0871               	movf	?__Umul8_16+1,w
  3774  04F0  1283               	bcf	3,5	;RP0=0, select bank0
  3775  04F1  1303               	bcf	3,6	;RP1=0, select bank0
  3776  04F2  00B4               	movwf	___flmul@temp+1
  3777  04F3  0870               	movf	?__Umul8_16,w
  3778  04F4  00B3               	movwf	___flmul@temp
  3779  04F5                     l1986:
  3780  04F5  0833               	movf	___flmul@temp,w
  3781  04F6  00F9               	movwf	??___flmul
  3782  04F7  01FA               	clrf	??___flmul+1
  3783  04F8  01FB               	clrf	??___flmul+2
  3784  04F9  01FC               	clrf	??___flmul+3
  3785  04FA  087C               	movf	??___flmul+3,w
  3786  04FB  00AC               	movwf	___flmul@grs+3
  3787  04FC  087B               	movf	??___flmul+2,w
  3788  04FD  00AB               	movwf	___flmul@grs+2
  3789  04FE  087A               	movf	??___flmul+1,w
  3790  04FF  00AA               	movwf	___flmul@grs+1
  3791  0500  0879               	movf	??___flmul,w
  3792  0501  00A9               	movwf	___flmul@grs
  3793  0502                     l1988:
  3794  0502  0834               	movf	___flmul@temp+1,w
  3795  0503  00F9               	movwf	??___flmul
  3796  0504  01FA               	clrf	??___flmul+1
  3797  0505  01FB               	clrf	??___flmul+2
  3798  0506  01FC               	clrf	??___flmul+3
  3799  0507  087C               	movf	??___flmul+3,w
  3800  0508  00B2               	movwf	___flmul@prod+3
  3801  0509  087B               	movf	??___flmul+2,w
  3802  050A  00B1               	movwf	___flmul@prod+2
  3803  050B  087A               	movf	??___flmul+1,w
  3804  050C  00B0               	movwf	___flmul@prod+1
  3805  050D  0879               	movf	??___flmul,w
  3806  050E  00AF               	movwf	___flmul@prod
  3807  050F  0821               	movf	___flmul@b+1,w
  3808  0510  00F9               	movwf	??___flmul
  3809  0511  0879               	movf	??___flmul,w
  3810  0512  00F0               	movwf	__Umul8_16@multiplicand
  3811  0513  0825               	movf	___flmul@a+1,w
  3812  0514  120A  158A  2281  120A  118A  	fcall	__Umul8_16
  3813  0519  0871               	movf	?__Umul8_16+1,w
  3814  051A  1283               	bcf	3,5	;RP0=0, select bank0
  3815  051B  1303               	bcf	3,6	;RP1=0, select bank0
  3816  051C  00B4               	movwf	___flmul@temp+1
  3817  051D  0870               	movf	?__Umul8_16,w
  3818  051E  00B3               	movwf	___flmul@temp
  3819  051F                     l1990:
  3820  051F  0833               	movf	___flmul@temp,w
  3821  0520  00F9               	movwf	??___flmul
  3822  0521  01FA               	clrf	??___flmul+1
  3823  0522  01FB               	clrf	??___flmul+2
  3824  0523  01FC               	clrf	??___flmul+3
  3825  0524  0879               	movf	??___flmul,w
  3826  0525  07A9               	addwf	___flmul@grs,f
  3827  0526  087A               	movf	??___flmul+1,w
  3828  0527  1103               	clrz
  3829  0528  1803               	skipnc
  3830  0529  3E01               	addlw	1
  3831  052A  1903               	skipnz
  3832  052B  2D2D               	goto	u2041
  3833  052C  07AA               	addwf	___flmul@grs+1,f
  3834  052D                     u2041:
  3835  052D  087B               	movf	??___flmul+2,w
  3836  052E  1103               	clrz
  3837  052F  1803               	skipnc
  3838  0530  3E01               	addlw	1
  3839  0531  1903               	skipnz
  3840  0532  2D34               	goto	u2042
  3841  0533  07AB               	addwf	___flmul@grs+2,f
  3842  0534                     u2042:
  3843  0534  087C               	movf	??___flmul+3,w
  3844  0535  1103               	clrz
  3845  0536  1803               	skipnc
  3846  0537  3E01               	addlw	1
  3847  0538  1903               	skipnz
  3848  0539  2D3B               	goto	u2043
  3849  053A  07AC               	addwf	___flmul@grs+3,f
  3850  053B                     u2043:
  3851  053B                     l1992:
  3852  053B  0834               	movf	___flmul@temp+1,w
  3853  053C  00F9               	movwf	??___flmul
  3854  053D  01FA               	clrf	??___flmul+1
  3855  053E  01FB               	clrf	??___flmul+2
  3856  053F  01FC               	clrf	??___flmul+3
  3857  0540  0879               	movf	??___flmul,w
  3858  0541  07AF               	addwf	___flmul@prod,f
  3859  0542  087A               	movf	??___flmul+1,w
  3860  0543  1103               	clrz
  3861  0544  1803               	skipnc
  3862  0545  3E01               	addlw	1
  3863  0546  1903               	skipnz
  3864  0547  2D49               	goto	u2051
  3865  0548  07B0               	addwf	___flmul@prod+1,f
  3866  0549                     u2051:
  3867  0549  087B               	movf	??___flmul+2,w
  3868  054A  1103               	clrz
  3869  054B  1803               	skipnc
  3870  054C  3E01               	addlw	1
  3871  054D  1903               	skipnz
  3872  054E  2D50               	goto	u2052
  3873  054F  07B1               	addwf	___flmul@prod+2,f
  3874  0550                     u2052:
  3875  0550  087C               	movf	??___flmul+3,w
  3876  0551  1103               	clrz
  3877  0552  1803               	skipnc
  3878  0553  3E01               	addlw	1
  3879  0554  1903               	skipnz
  3880  0555  2D57               	goto	u2053
  3881  0556  07B2               	addwf	___flmul@prod+3,f
  3882  0557                     u2053:
  3883  0557  0822               	movf	___flmul@b+2,w
  3884  0558  00F9               	movwf	??___flmul
  3885  0559  0879               	movf	??___flmul,w
  3886  055A  00F0               	movwf	__Umul8_16@multiplicand
  3887  055B  0824               	movf	___flmul@a,w
  3888  055C  120A  158A  2281  120A  118A  	fcall	__Umul8_16
  3889  0561  0871               	movf	?__Umul8_16+1,w
  3890  0562  1283               	bcf	3,5	;RP0=0, select bank0
  3891  0563  1303               	bcf	3,6	;RP1=0, select bank0
  3892  0564  00B4               	movwf	___flmul@temp+1
  3893  0565  0870               	movf	?__Umul8_16,w
  3894  0566  00B3               	movwf	___flmul@temp
  3895  0567                     l1994:
  3896  0567  0833               	movf	___flmul@temp,w
  3897  0568  00F9               	movwf	??___flmul
  3898  0569  01FA               	clrf	??___flmul+1
  3899  056A  01FB               	clrf	??___flmul+2
  3900  056B  01FC               	clrf	??___flmul+3
  3901  056C  0879               	movf	??___flmul,w
  3902  056D  07A9               	addwf	___flmul@grs,f
  3903  056E  087A               	movf	??___flmul+1,w
  3904  056F  1103               	clrz
  3905  0570  1803               	skipnc
  3906  0571  3E01               	addlw	1
  3907  0572  1903               	skipnz
  3908  0573  2D75               	goto	u2061
  3909  0574  07AA               	addwf	___flmul@grs+1,f
  3910  0575                     u2061:
  3911  0575  087B               	movf	??___flmul+2,w
  3912  0576  1103               	clrz
  3913  0577  1803               	skipnc
  3914  0578  3E01               	addlw	1
  3915  0579  1903               	skipnz
  3916  057A  2D7C               	goto	u2062
  3917  057B  07AB               	addwf	___flmul@grs+2,f
  3918  057C                     u2062:
  3919  057C  087C               	movf	??___flmul+3,w
  3920  057D  1103               	clrz
  3921  057E  1803               	skipnc
  3922  057F  3E01               	addlw	1
  3923  0580  1903               	skipnz
  3924  0581  2D83               	goto	u2063
  3925  0582  07AC               	addwf	___flmul@grs+3,f
  3926  0583                     u2063:
  3927  0583                     l1996:
  3928  0583  0834               	movf	___flmul@temp+1,w
  3929  0584  00F9               	movwf	??___flmul
  3930  0585  01FA               	clrf	??___flmul+1
  3931  0586  01FB               	clrf	??___flmul+2
  3932  0587  01FC               	clrf	??___flmul+3
  3933  0588  0879               	movf	??___flmul,w
  3934  0589  07AF               	addwf	___flmul@prod,f
  3935  058A  087A               	movf	??___flmul+1,w
  3936  058B  1103               	clrz
  3937  058C  1803               	skipnc
  3938  058D  3E01               	addlw	1
  3939  058E  1903               	skipnz
  3940  058F  2D91               	goto	u2071
  3941  0590  07B0               	addwf	___flmul@prod+1,f
  3942  0591                     u2071:
  3943  0591  087B               	movf	??___flmul+2,w
  3944  0592  1103               	clrz
  3945  0593  1803               	skipnc
  3946  0594  3E01               	addlw	1
  3947  0595  1903               	skipnz
  3948  0596  2D98               	goto	u2072
  3949  0597  07B1               	addwf	___flmul@prod+2,f
  3950  0598                     u2072:
  3951  0598  087C               	movf	??___flmul+3,w
  3952  0599  1103               	clrz
  3953  059A  1803               	skipnc
  3954  059B  3E01               	addlw	1
  3955  059C  1903               	skipnz
  3956  059D  2D9F               	goto	u2073
  3957  059E  07B2               	addwf	___flmul@prod+3,f
  3958  059F                     u2073:
  3959  059F                     l1998:
  3960  059F  3008               	movlw	8
  3961  05A0  00F9               	movwf	??___flmul
  3962  05A1                     u2085:
  3963  05A1  1003               	clrc
  3964  05A2  0DA9               	rlf	___flmul@grs,f
  3965  05A3  0DAA               	rlf	___flmul@grs+1,f
  3966  05A4  0DAB               	rlf	___flmul@grs+2,f
  3967  05A5  0DAC               	rlf	___flmul@grs+3,f
  3968  05A6  0BF9               	decfsz	??___flmul,f
  3969  05A7  2DA1               	goto	u2085
  3970  05A8                     l2000:
  3971  05A8  0821               	movf	___flmul@b+1,w
  3972  05A9  00F9               	movwf	??___flmul
  3973  05AA  0879               	movf	??___flmul,w
  3974  05AB  00F0               	movwf	__Umul8_16@multiplicand
  3975  05AC  0824               	movf	___flmul@a,w
  3976  05AD  120A  158A  2281  120A  118A  	fcall	__Umul8_16
  3977  05B2  0871               	movf	?__Umul8_16+1,w
  3978  05B3  1283               	bcf	3,5	;RP0=0, select bank0
  3979  05B4  1303               	bcf	3,6	;RP1=0, select bank0
  3980  05B5  00B4               	movwf	___flmul@temp+1
  3981  05B6  0870               	movf	?__Umul8_16,w
  3982  05B7  00B3               	movwf	___flmul@temp
  3983  05B8                     l2002:
  3984  05B8  0833               	movf	___flmul@temp,w
  3985  05B9  00F9               	movwf	??___flmul
  3986  05BA  0834               	movf	___flmul@temp+1,w
  3987  05BB  00FA               	movwf	??___flmul+1
  3988  05BC  01FB               	clrf	??___flmul+2
  3989  05BD  01FC               	clrf	??___flmul+3
  3990  05BE  0879               	movf	??___flmul,w
  3991  05BF  07A9               	addwf	___flmul@grs,f
  3992  05C0  087A               	movf	??___flmul+1,w
  3993  05C1  1103               	clrz
  3994  05C2  1803               	skipnc
  3995  05C3  3E01               	addlw	1
  3996  05C4  1903               	skipnz
  3997  05C5  2DC7               	goto	u2091
  3998  05C6  07AA               	addwf	___flmul@grs+1,f
  3999  05C7                     u2091:
  4000  05C7  087B               	movf	??___flmul+2,w
  4001  05C8  1103               	clrz
  4002  05C9  1803               	skipnc
  4003  05CA  3E01               	addlw	1
  4004  05CB  1903               	skipnz
  4005  05CC  2DCE               	goto	u2092
  4006  05CD  07AB               	addwf	___flmul@grs+2,f
  4007  05CE                     u2092:
  4008  05CE  087C               	movf	??___flmul+3,w
  4009  05CF  1103               	clrz
  4010  05D0  1803               	skipnc
  4011  05D1  3E01               	addlw	1
  4012  05D2  1903               	skipnz
  4013  05D3  2DD5               	goto	u2093
  4014  05D4  07AC               	addwf	___flmul@grs+3,f
  4015  05D5                     u2093:
  4016  05D5                     l2004:
  4017  05D5  0820               	movf	___flmul@b,w
  4018  05D6  00F9               	movwf	??___flmul
  4019  05D7  0879               	movf	??___flmul,w
  4020  05D8  00F0               	movwf	__Umul8_16@multiplicand
  4021  05D9  0825               	movf	___flmul@a+1,w
  4022  05DA  120A  158A  2281  120A  118A  	fcall	__Umul8_16
  4023  05DF  0871               	movf	?__Umul8_16+1,w
  4024  05E0  1283               	bcf	3,5	;RP0=0, select bank0
  4025  05E1  1303               	bcf	3,6	;RP1=0, select bank0
  4026  05E2  00B4               	movwf	___flmul@temp+1
  4027  05E3  0870               	movf	?__Umul8_16,w
  4028  05E4  00B3               	movwf	___flmul@temp
  4029  05E5                     l2006:
  4030  05E5  0833               	movf	___flmul@temp,w
  4031  05E6  00F9               	movwf	??___flmul
  4032  05E7  0834               	movf	___flmul@temp+1,w
  4033  05E8  00FA               	movwf	??___flmul+1
  4034  05E9  01FB               	clrf	??___flmul+2
  4035  05EA  01FC               	clrf	??___flmul+3
  4036  05EB  0879               	movf	??___flmul,w
  4037  05EC  07A9               	addwf	___flmul@grs,f
  4038  05ED  087A               	movf	??___flmul+1,w
  4039  05EE  1103               	clrz
  4040  05EF  1803               	skipnc
  4041  05F0  3E01               	addlw	1
  4042  05F1  1903               	skipnz
  4043  05F2  2DF4               	goto	u2101
  4044  05F3  07AA               	addwf	___flmul@grs+1,f
  4045  05F4                     u2101:
  4046  05F4  087B               	movf	??___flmul+2,w
  4047  05F5  1103               	clrz
  4048  05F6  1803               	skipnc
  4049  05F7  3E01               	addlw	1
  4050  05F8  1903               	skipnz
  4051  05F9  2DFB               	goto	u2102
  4052  05FA  07AB               	addwf	___flmul@grs+2,f
  4053  05FB                     u2102:
  4054  05FB  087C               	movf	??___flmul+3,w
  4055  05FC  1103               	clrz
  4056  05FD  1803               	skipnc
  4057  05FE  3E01               	addlw	1
  4058  05FF  1903               	skipnz
  4059  0600  2E02               	goto	u2103
  4060  0601  07AC               	addwf	___flmul@grs+3,f
  4061  0602                     u2103:
  4062  0602                     l2008:
  4063  0602  3008               	movlw	8
  4064  0603  00F9               	movwf	??___flmul
  4065  0604                     u2115:
  4066  0604  1003               	clrc
  4067  0605  0DA9               	rlf	___flmul@grs,f
  4068  0606  0DAA               	rlf	___flmul@grs+1,f
  4069  0607  0DAB               	rlf	___flmul@grs+2,f
  4070  0608  0DAC               	rlf	___flmul@grs+3,f
  4071  0609  0BF9               	decfsz	??___flmul,f
  4072  060A  2E04               	goto	u2115
  4073  060B  0820               	movf	___flmul@b,w
  4074  060C  00F9               	movwf	??___flmul
  4075  060D  0879               	movf	??___flmul,w
  4076  060E  00F0               	movwf	__Umul8_16@multiplicand
  4077  060F  0824               	movf	___flmul@a,w
  4078  0610  120A  158A  2281  120A  118A  	fcall	__Umul8_16
  4079  0615  0871               	movf	?__Umul8_16+1,w
  4080  0616  1283               	bcf	3,5	;RP0=0, select bank0
  4081  0617  1303               	bcf	3,6	;RP1=0, select bank0
  4082  0618  00B4               	movwf	___flmul@temp+1
  4083  0619  0870               	movf	?__Umul8_16,w
  4084  061A  00B3               	movwf	___flmul@temp
  4085  061B                     l2010:
  4086  061B  0833               	movf	___flmul@temp,w
  4087  061C  00F9               	movwf	??___flmul
  4088  061D  0834               	movf	___flmul@temp+1,w
  4089  061E  00FA               	movwf	??___flmul+1
  4090  061F  01FB               	clrf	??___flmul+2
  4091  0620  01FC               	clrf	??___flmul+3
  4092  0621  0879               	movf	??___flmul,w
  4093  0622  07A9               	addwf	___flmul@grs,f
  4094  0623  087A               	movf	??___flmul+1,w
  4095  0624  1103               	clrz
  4096  0625  1803               	skipnc
  4097  0626  3E01               	addlw	1
  4098  0627  1903               	skipnz
  4099  0628  2E2A               	goto	u2121
  4100  0629  07AA               	addwf	___flmul@grs+1,f
  4101  062A                     u2121:
  4102  062A  087B               	movf	??___flmul+2,w
  4103  062B  1103               	clrz
  4104  062C  1803               	skipnc
  4105  062D  3E01               	addlw	1
  4106  062E  1903               	skipnz
  4107  062F  2E31               	goto	u2122
  4108  0630  07AB               	addwf	___flmul@grs+2,f
  4109  0631                     u2122:
  4110  0631  087C               	movf	??___flmul+3,w
  4111  0632  1103               	clrz
  4112  0633  1803               	skipnc
  4113  0634  3E01               	addlw	1
  4114  0635  1903               	skipnz
  4115  0636  2E38               	goto	u2123
  4116  0637  07AC               	addwf	___flmul@grs+3,f
  4117  0638                     u2123:
  4118  0638                     l2012:
  4119  0638  0821               	movf	___flmul@b+1,w
  4120  0639  00F9               	movwf	??___flmul
  4121  063A  0879               	movf	??___flmul,w
  4122  063B  00F0               	movwf	__Umul8_16@multiplicand
  4123  063C  0826               	movf	___flmul@a+2,w
  4124  063D  120A  158A  2281  120A  118A  	fcall	__Umul8_16
  4125  0642  0871               	movf	?__Umul8_16+1,w
  4126  0643  1283               	bcf	3,5	;RP0=0, select bank0
  4127  0644  1303               	bcf	3,6	;RP1=0, select bank0
  4128  0645  00B4               	movwf	___flmul@temp+1
  4129  0646  0870               	movf	?__Umul8_16,w
  4130  0647  00B3               	movwf	___flmul@temp
  4131  0648  0833               	movf	___flmul@temp,w
  4132  0649  00F9               	movwf	??___flmul
  4133  064A  0834               	movf	___flmul@temp+1,w
  4134  064B  00FA               	movwf	??___flmul+1
  4135  064C  01FB               	clrf	??___flmul+2
  4136  064D  01FC               	clrf	??___flmul+3
  4137  064E  0879               	movf	??___flmul,w
  4138  064F  07AF               	addwf	___flmul@prod,f
  4139  0650  087A               	movf	??___flmul+1,w
  4140  0651  1103               	clrz
  4141  0652  1803               	skipnc
  4142  0653  3E01               	addlw	1
  4143  0654  1903               	skipnz
  4144  0655  2E57               	goto	u2131
  4145  0656  07B0               	addwf	___flmul@prod+1,f
  4146  0657                     u2131:
  4147  0657  087B               	movf	??___flmul+2,w
  4148  0658  1103               	clrz
  4149  0659  1803               	skipnc
  4150  065A  3E01               	addlw	1
  4151  065B  1903               	skipnz
  4152  065C  2E5E               	goto	u2132
  4153  065D  07B1               	addwf	___flmul@prod+2,f
  4154  065E                     u2132:
  4155  065E  087C               	movf	??___flmul+3,w
  4156  065F  1103               	clrz
  4157  0660  1803               	skipnc
  4158  0661  3E01               	addlw	1
  4159  0662  1903               	skipnz
  4160  0663  2E65               	goto	u2133
  4161  0664  07B2               	addwf	___flmul@prod+3,f
  4162  0665                     u2133:
  4163  0665                     l2014:
  4164  0665  0822               	movf	___flmul@b+2,w
  4165  0666  00F9               	movwf	??___flmul
  4166  0667  0879               	movf	??___flmul,w
  4167  0668  00F0               	movwf	__Umul8_16@multiplicand
  4168  0669  0825               	movf	___flmul@a+1,w
  4169  066A  120A  158A  2281  120A  118A  	fcall	__Umul8_16
  4170  066F  0871               	movf	?__Umul8_16+1,w
  4171  0670  1283               	bcf	3,5	;RP0=0, select bank0
  4172  0671  1303               	bcf	3,6	;RP1=0, select bank0
  4173  0672  00B4               	movwf	___flmul@temp+1
  4174  0673  0870               	movf	?__Umul8_16,w
  4175  0674  00B3               	movwf	___flmul@temp
  4176  0675                     l2016:
  4177  0675  0833               	movf	___flmul@temp,w
  4178  0676  00F9               	movwf	??___flmul
  4179  0677  0834               	movf	___flmul@temp+1,w
  4180  0678  00FA               	movwf	??___flmul+1
  4181  0679  01FB               	clrf	??___flmul+2
  4182  067A  01FC               	clrf	??___flmul+3
  4183  067B  0879               	movf	??___flmul,w
  4184  067C  07AF               	addwf	___flmul@prod,f
  4185  067D  087A               	movf	??___flmul+1,w
  4186  067E  1103               	clrz
  4187  067F  1803               	skipnc
  4188  0680  3E01               	addlw	1
  4189  0681  1903               	skipnz
  4190  0682  2E84               	goto	u2141
  4191  0683  07B0               	addwf	___flmul@prod+1,f
  4192  0684                     u2141:
  4193  0684  087B               	movf	??___flmul+2,w
  4194  0685  1103               	clrz
  4195  0686  1803               	skipnc
  4196  0687  3E01               	addlw	1
  4197  0688  1903               	skipnz
  4198  0689  2E8B               	goto	u2142
  4199  068A  07B1               	addwf	___flmul@prod+2,f
  4200  068B                     u2142:
  4201  068B  087C               	movf	??___flmul+3,w
  4202  068C  1103               	clrz
  4203  068D  1803               	skipnc
  4204  068E  3E01               	addlw	1
  4205  068F  1903               	skipnz
  4206  0690  2E92               	goto	u2143
  4207  0691  07B2               	addwf	___flmul@prod+3,f
  4208  0692                     u2143:
  4209  0692  0822               	movf	___flmul@b+2,w
  4210  0693  00F9               	movwf	??___flmul
  4211  0694  0879               	movf	??___flmul,w
  4212  0695  00F0               	movwf	__Umul8_16@multiplicand
  4213  0696  0826               	movf	___flmul@a+2,w
  4214  0697  120A  158A  2281  120A  118A  	fcall	__Umul8_16
  4215  069C  0871               	movf	?__Umul8_16+1,w
  4216  069D  1283               	bcf	3,5	;RP0=0, select bank0
  4217  069E  1303               	bcf	3,6	;RP1=0, select bank0
  4218  069F  00B4               	movwf	___flmul@temp+1
  4219  06A0  0870               	movf	?__Umul8_16,w
  4220  06A1  00B3               	movwf	___flmul@temp
  4221  06A2                     l2018:
  4222  06A2  0833               	movf	___flmul@temp,w
  4223  06A3  00F9               	movwf	??___flmul
  4224  06A4  0834               	movf	___flmul@temp+1,w
  4225  06A5  00FA               	movwf	??___flmul+1
  4226  06A6  01FB               	clrf	??___flmul+2
  4227  06A7  01FC               	clrf	??___flmul+3
  4228  06A8  3008               	movlw	8
  4229  06A9                     u2155:
  4230  06A9  1003               	clrc
  4231  06AA  0DF9               	rlf	??___flmul,f
  4232  06AB  0DFA               	rlf	??___flmul+1,f
  4233  06AC  0DFB               	rlf	??___flmul+2,f
  4234  06AD  0DFC               	rlf	??___flmul+3,f
  4235  06AE                     u2150:
  4236  06AE  3EFF               	addlw	-1
  4237  06AF  1D03               	skipz
  4238  06B0  2EA9               	goto	u2155
  4239  06B1  0879               	movf	??___flmul,w
  4240  06B2  07AF               	addwf	___flmul@prod,f
  4241  06B3  087A               	movf	??___flmul+1,w
  4242  06B4  1103               	clrz
  4243  06B5  1803               	skipnc
  4244  06B6  3E01               	addlw	1
  4245  06B7  1903               	skipnz
  4246  06B8  2EBA               	goto	u2161
  4247  06B9  07B0               	addwf	___flmul@prod+1,f
  4248  06BA                     u2161:
  4249  06BA  087B               	movf	??___flmul+2,w
  4250  06BB  1103               	clrz
  4251  06BC  1803               	skipnc
  4252  06BD  3E01               	addlw	1
  4253  06BE  1903               	skipnz
  4254  06BF  2EC1               	goto	u2162
  4255  06C0  07B1               	addwf	___flmul@prod+2,f
  4256  06C1                     u2162:
  4257  06C1  087C               	movf	??___flmul+3,w
  4258  06C2  1103               	clrz
  4259  06C3  1803               	skipnc
  4260  06C4  3E01               	addlw	1
  4261  06C5  1903               	skipnz
  4262  06C6  2EC8               	goto	u2163
  4263  06C7  07B2               	addwf	___flmul@prod+3,f
  4264  06C8                     u2163:
  4265  06C8                     l2020:
  4266  06C8  0829               	movf	___flmul@grs,w
  4267  06C9  00F9               	movwf	??___flmul
  4268  06CA  082A               	movf	___flmul@grs+1,w
  4269  06CB  00FA               	movwf	??___flmul+1
  4270  06CC  082B               	movf	___flmul@grs+2,w
  4271  06CD  00FB               	movwf	??___flmul+2
  4272  06CE  082C               	movf	___flmul@grs+3,w
  4273  06CF  00FC               	movwf	??___flmul+3
  4274  06D0  3018               	movlw	24
  4275  06D1                     u2175:
  4276  06D1  1003               	clrc
  4277  06D2  0CFC               	rrf	??___flmul+3,f
  4278  06D3  0CFB               	rrf	??___flmul+2,f
  4279  06D4  0CFA               	rrf	??___flmul+1,f
  4280  06D5  0CF9               	rrf	??___flmul,f
  4281  06D6                     u2170:
  4282  06D6  3EFF               	addlw	-1
  4283  06D7  1D03               	skipz
  4284  06D8  2ED1               	goto	u2175
  4285  06D9  0879               	movf	??___flmul,w
  4286  06DA  07AF               	addwf	___flmul@prod,f
  4287  06DB  087A               	movf	??___flmul+1,w
  4288  06DC  1103               	clrz
  4289  06DD  1803               	skipnc
  4290  06DE  3E01               	addlw	1
  4291  06DF  1903               	skipnz
  4292  06E0  2EE2               	goto	u2181
  4293  06E1  07B0               	addwf	___flmul@prod+1,f
  4294  06E2                     u2181:
  4295  06E2  087B               	movf	??___flmul+2,w
  4296  06E3  1103               	clrz
  4297  06E4  1803               	skipnc
  4298  06E5  3E01               	addlw	1
  4299  06E6  1903               	skipnz
  4300  06E7  2EE9               	goto	u2182
  4301  06E8  07B1               	addwf	___flmul@prod+2,f
  4302  06E9                     u2182:
  4303  06E9  087C               	movf	??___flmul+3,w
  4304  06EA  1103               	clrz
  4305  06EB  1803               	skipnc
  4306  06EC  3E01               	addlw	1
  4307  06ED  1903               	skipnz
  4308  06EE  2EF0               	goto	u2183
  4309  06EF  07B2               	addwf	___flmul@prod+3,f
  4310  06F0                     u2183:
  4311  06F0                     l2022:
  4312  06F0  3008               	movlw	8
  4313  06F1  00F9               	movwf	??___flmul
  4314  06F2                     u2195:
  4315  06F2  1003               	clrc
  4316  06F3  0DA9               	rlf	___flmul@grs,f
  4317  06F4  0DAA               	rlf	___flmul@grs+1,f
  4318  06F5  0DAB               	rlf	___flmul@grs+2,f
  4319  06F6  0DAC               	rlf	___flmul@grs+3,f
  4320  06F7  0BF9               	decfsz	??___flmul,f
  4321  06F8  2EF2               	goto	u2195
  4322  06F9                     l2024:
  4323  06F9  082E               	movf	___flmul@bexp,w
  4324  06FA  072D               	addwf	___flmul@aexp,w
  4325  06FB  00F9               	movwf	??___flmul
  4326  06FC  01FA               	clrf	??___flmul+1
  4327  06FD  0DFA               	rlf	??___flmul+1,f
  4328  06FE  0879               	movf	??___flmul,w
  4329  06FF  3E82               	addlw	130
  4330  0700  00B3               	movwf	___flmul@temp
  4331  0701  087A               	movf	??___flmul+1,w
  4332  0702  1803               	skipnc
  4333  0703  3E01               	addlw	1
  4334  0704  3EFF               	addlw	255
  4335  0705  00B4               	movwf	___flmul@temp+1
  4336  0706  2F24               	goto	l2036
  4337  0707                     l2026:
  4338  0707  3001               	movlw	1
  4339  0708  00F9               	movwf	??___flmul
  4340  0709                     u2205:
  4341  0709  1003               	clrc
  4342  070A  0DAF               	rlf	___flmul@prod,f
  4343  070B  0DB0               	rlf	___flmul@prod+1,f
  4344  070C  0DB1               	rlf	___flmul@prod+2,f
  4345  070D  0DB2               	rlf	___flmul@prod+3,f
  4346  070E  0BF9               	decfsz	??___flmul,f
  4347  070F  2F09               	goto	u2205
  4348  0710                     l2028:
  4349  0710  1FAC               	btfss	___flmul@grs+3,7
  4350  0711  2F13               	goto	u2211
  4351  0712  2F14               	goto	u2210
  4352  0713                     u2211:
  4353  0713  2F15               	goto	l2032
  4354  0714                     u2210:
  4355  0714                     l2030:
  4356  0714  142F               	bsf	___flmul@prod,0
  4357  0715                     l2032:
  4358  0715  3001               	movlw	1
  4359  0716  00F9               	movwf	??___flmul
  4360  0717                     u2225:
  4361  0717  1003               	clrc
  4362  0718  0DA9               	rlf	___flmul@grs,f
  4363  0719  0DAA               	rlf	___flmul@grs+1,f
  4364  071A  0DAB               	rlf	___flmul@grs+2,f
  4365  071B  0DAC               	rlf	___flmul@grs+3,f
  4366  071C  0BF9               	decfsz	??___flmul,f
  4367  071D  2F17               	goto	u2225
  4368  071E                     l2034:
  4369  071E  30FF               	movlw	255
  4370  071F  07B3               	addwf	___flmul@temp,f
  4371  0720  1803               	skipnc
  4372  0721  0AB4               	incf	___flmul@temp+1,f
  4373  0722  30FF               	movlw	255
  4374  0723  07B4               	addwf	___flmul@temp+1,f
  4375  0724                     l2036:
  4376  0724  1FB1               	btfss	___flmul@prod+2,7
  4377  0725  2F27               	goto	u2231
  4378  0726  2F28               	goto	u2230
  4379  0727                     u2231:
  4380  0727  2F07               	goto	l2026
  4381  0728                     u2230:
  4382  0728                     l2038:
  4383  0728  01AD               	clrf	___flmul@aexp
  4384  0729                     l2040:
  4385  0729  1FAC               	btfss	___flmul@grs+3,7
  4386  072A  2F2C               	goto	u2241
  4387  072B  2F2D               	goto	u2240
  4388  072C                     u2241:
  4389  072C  2F49               	goto	l2048
  4390  072D                     u2240:
  4391  072D                     l2042:
  4392  072D  30FF               	movlw	255
  4393  072E  0529               	andwf	___flmul@grs,w
  4394  072F  00F9               	movwf	??___flmul
  4395  0730  30FF               	movlw	255
  4396  0731  052A               	andwf	___flmul@grs+1,w
  4397  0732  00FA               	movwf	??___flmul+1
  4398  0733  30FF               	movlw	255
  4399  0734  052B               	andwf	___flmul@grs+2,w
  4400  0735  00FB               	movwf	??___flmul+2
  4401  0736  307F               	movlw	127
  4402  0737  052C               	andwf	___flmul@grs+3,w
  4403  0738  00FC               	movwf	??___flmul+3
  4404  0739  087C               	movf	??___flmul+3,w
  4405  073A  047B               	iorwf	??___flmul+2,w
  4406  073B  047A               	iorwf	??___flmul+1,w
  4407  073C  0479               	iorwf	??___flmul,w
  4408  073D  1903               	skipnz
  4409  073E  2F40               	goto	u2251
  4410  073F  2F41               	goto	u2250
  4411  0740                     u2251:
  4412  0740  2F44               	goto	l678
  4413  0741                     u2250:
  4414  0741                     l2044:
  4415  0741  01AD               	clrf	___flmul@aexp
  4416  0742  0AAD               	incf	___flmul@aexp,f
  4417  0743  2F49               	goto	l2048
  4418  0744                     l678:
  4419  0744  1C2F               	btfss	___flmul@prod,0
  4420  0745  2F47               	goto	u2261
  4421  0746  2F48               	goto	u2260
  4422  0747                     u2261:
  4423  0747  2F49               	goto	l2048
  4424  0748                     u2260:
  4425  0748  2F41               	goto	l2044
  4426  0749                     l2048:
  4427  0749  082D               	movf	___flmul@aexp,w
  4428  074A  1903               	btfsc	3,2
  4429  074B  2F4D               	goto	u2271
  4430  074C  2F4E               	goto	u2270
  4431  074D                     u2271:
  4432  074D  2F7F               	goto	l2058
  4433  074E                     u2270:
  4434  074E                     l2050:
  4435  074E  3001               	movlw	1
  4436  074F  07AF               	addwf	___flmul@prod,f
  4437  0750  3000               	movlw	0
  4438  0751  1803               	skipnc
  4439  0752  3001               	movlw	1
  4440  0753  07B0               	addwf	___flmul@prod+1,f
  4441  0754  3000               	movlw	0
  4442  0755  1803               	skipnc
  4443  0756  3001               	movlw	1
  4444  0757  07B1               	addwf	___flmul@prod+2,f
  4445  0758  3000               	movlw	0
  4446  0759  1803               	skipnc
  4447  075A  3001               	movlw	1
  4448  075B  07B2               	addwf	___flmul@prod+3,f
  4449  075C                     l2052:
  4450  075C  1C32               	btfss	___flmul@prod+3,0
  4451  075D  2F5F               	goto	u2281
  4452  075E  2F60               	goto	u2280
  4453  075F                     u2281:
  4454  075F  2F7F               	goto	l2058
  4455  0760                     u2280:
  4456  0760                     l2054:
  4457  0760  082F               	movf	___flmul@prod,w
  4458  0761  00F9               	movwf	??___flmul
  4459  0762  0830               	movf	___flmul@prod+1,w
  4460  0763  00FA               	movwf	??___flmul+1
  4461  0764  0831               	movf	___flmul@prod+2,w
  4462  0765  00FB               	movwf	??___flmul+2
  4463  0766  0832               	movf	___flmul@prod+3,w
  4464  0767  00FC               	movwf	??___flmul+3
  4465  0768  3001               	movlw	1
  4466  0769  00FD               	movwf	??___flmul+4
  4467  076A                     u2295:
  4468  076A  0D7C               	rlf	??___flmul+3,w
  4469  076B  0CFC               	rrf	??___flmul+3,f
  4470  076C  0CFB               	rrf	??___flmul+2,f
  4471  076D  0CFA               	rrf	??___flmul+1,f
  4472  076E  0CF9               	rrf	??___flmul,f
  4473  076F                     u2290:
  4474  076F  0BFD               	decfsz	??___flmul+4,f
  4475  0770  2F6A               	goto	u2295
  4476  0771  087C               	movf	??___flmul+3,w
  4477  0772  00B2               	movwf	___flmul@prod+3
  4478  0773  087B               	movf	??___flmul+2,w
  4479  0774  00B1               	movwf	___flmul@prod+2
  4480  0775  087A               	movf	??___flmul+1,w
  4481  0776  00B0               	movwf	___flmul@prod+1
  4482  0777  0879               	movf	??___flmul,w
  4483  0778  00AF               	movwf	___flmul@prod
  4484  0779                     l2056:
  4485  0779  3001               	movlw	1
  4486  077A  07B3               	addwf	___flmul@temp,f
  4487  077B  1803               	skipnc
  4488  077C  0AB4               	incf	___flmul@temp+1,f
  4489  077D  3000               	movlw	0
  4490  077E  07B4               	addwf	___flmul@temp+1,f
  4491  077F                     l2058:
  4492  077F  0834               	movf	___flmul@temp+1,w
  4493  0780  3A80               	xorlw	128
  4494  0781  00FF               	movwf	btemp+1
  4495  0782  3080               	movlw	128
  4496  0783  027F               	subwf	btemp+1,w
  4497  0784  1D03               	skipz
  4498  0785  2F88               	goto	u2305
  4499  0786  30FF               	movlw	255
  4500  0787  0233               	subwf	___flmul@temp,w
  4501  0788                     u2305:
  4502  0788  1C03               	skipc
  4503  0789  2F8B               	goto	u2301
  4504  078A  2F8C               	goto	u2300
  4505  078B                     u2301:
  4506  078B  2F97               	goto	l2062
  4507  078C                     u2300:
  4508  078C                     l2060:
  4509  078C  307F               	movlw	127
  4510  078D  1283               	bcf	3,5	;RP0=0, select bank0
  4511  078E  1303               	bcf	3,6	;RP1=0, select bank0
  4512  078F  00B2               	movwf	___flmul@prod+3
  4513  0790  3080               	movlw	128
  4514  0791  00B1               	movwf	___flmul@prod+2
  4515  0792  3000               	movlw	0
  4516  0793  00B0               	movwf	___flmul@prod+1
  4517  0794  3000               	movlw	0
  4518  0795  00AF               	movwf	___flmul@prod
  4519  0796  2FCC               	goto	l684
  4520  0797                     l2062:
  4521  0797  1283               	bcf	3,5	;RP0=0, select bank0
  4522  0798  1303               	bcf	3,6	;RP1=0, select bank0
  4523  0799  0834               	movf	___flmul@temp+1,w
  4524  079A  3A80               	xorlw	128
  4525  079B  00FF               	movwf	btemp+1
  4526  079C  3080               	movlw	128
  4527  079D  027F               	subwf	btemp+1,w
  4528  079E  1D03               	skipz
  4529  079F  2FA2               	goto	u2315
  4530  07A0  3001               	movlw	1
  4531  07A1  0233               	subwf	___flmul@temp,w
  4532  07A2                     u2315:
  4533  07A2  1803               	skipnc
  4534  07A3  2FA5               	goto	u2311
  4535  07A4  2FA6               	goto	u2310
  4536  07A5                     u2311:
  4537  07A5  2FB2               	goto	l2068
  4538  07A6                     u2310:
  4539  07A6                     l2064:
  4540  07A6  3000               	movlw	0
  4541  07A7  1283               	bcf	3,5	;RP0=0, select bank0
  4542  07A8  1303               	bcf	3,6	;RP1=0, select bank0
  4543  07A9  00B2               	movwf	___flmul@prod+3
  4544  07AA  3000               	movlw	0
  4545  07AB  00B1               	movwf	___flmul@prod+2
  4546  07AC  3000               	movlw	0
  4547  07AD  00B0               	movwf	___flmul@prod+1
  4548  07AE  3000               	movlw	0
  4549  07AF  00AF               	movwf	___flmul@prod
  4550  07B0                     l2066:
  4551  07B0  01A8               	clrf	___flmul@sign
  4552  07B1  2FCC               	goto	l684
  4553  07B2                     l2068:
  4554  07B2  1283               	bcf	3,5	;RP0=0, select bank0
  4555  07B3  1303               	bcf	3,6	;RP1=0, select bank0
  4556  07B4  0833               	movf	___flmul@temp,w
  4557  07B5  00F9               	movwf	??___flmul
  4558  07B6  0879               	movf	??___flmul,w
  4559  07B7  00AE               	movwf	___flmul@bexp
  4560  07B8  30FF               	movlw	255
  4561  07B9  05AF               	andwf	___flmul@prod,f
  4562  07BA  30FF               	movlw	255
  4563  07BB  05B0               	andwf	___flmul@prod+1,f
  4564  07BC  307F               	movlw	127
  4565  07BD  05B1               	andwf	___flmul@prod+2,f
  4566  07BE  3000               	movlw	0
  4567  07BF  05B2               	andwf	___flmul@prod+3,f
  4568  07C0                     l2070:
  4569  07C0  1C2E               	btfss	___flmul@bexp,0
  4570  07C1  2FC3               	goto	u2321
  4571  07C2  2FC4               	goto	u2320
  4572  07C3                     u2321:
  4573  07C3  2FC5               	goto	l2074
  4574  07C4                     u2320:
  4575  07C4                     l2072:
  4576  07C4  17B1               	bsf	___flmul@prod+2,7
  4577  07C5                     l2074:
  4578  07C5  082E               	movf	___flmul@bexp,w
  4579  07C6  00F9               	movwf	??___flmul
  4580  07C7  1003               	clrc
  4581  07C8  0C79               	rrf	??___flmul,w
  4582  07C9  00FA               	movwf	??___flmul+1
  4583  07CA  087A               	movf	??___flmul+1,w
  4584  07CB  00B2               	movwf	___flmul@prod+3
  4585  07CC                     l684:
  4586  07CC  0828               	movf	___flmul@sign,w
  4587  07CD  00F9               	movwf	??___flmul
  4588  07CE  0879               	movf	??___flmul,w
  4589  07CF  04B2               	iorwf	___flmul@prod+3,f
  4590  07D0                     l2076:
  4591  07D0  0832               	movf	___flmul@prod+3,w
  4592  07D1  00A3               	movwf	?___flmul+3
  4593  07D2  0831               	movf	___flmul@prod+2,w
  4594  07D3  00A2               	movwf	?___flmul+2
  4595  07D4  0830               	movf	___flmul@prod+1,w
  4596  07D5  00A1               	movwf	?___flmul+1
  4597  07D6  082F               	movf	___flmul@prod,w
  4598  07D7  00A0               	movwf	?___flmul
  4599  07D8                     l672:
  4600  07D8  0008               	return
  4601  07D9                     __end_of___flmul:
  4602                           
  4603                           	psect	text7
  4604  0A81                     __ptext7:	
  4605 ;; *************** function __Umul8_16 *****************
  4606 ;; Defined at:
  4607 ;;		line 4 in file "C:\Program Files\Microchip\xc8\v2.32\pic\sources\c90\common\Umul8_16.c"
  4608 ;; Parameters:    Size  Location     Type
  4609 ;;  multiplier      1    wreg     unsigned char 
  4610 ;;  multiplicand    1    0[COMMON] unsigned char 
  4611 ;; Auto vars:     Size  Location     Type
  4612 ;;  multiplier      1    8[COMMON] unsigned char 
  4613 ;;  word_mpld       2    6[COMMON] unsigned int 
  4614 ;;  product         2    4[COMMON] unsigned int 
  4615 ;; Return value:  Size  Location     Type
  4616 ;;                  2    0[COMMON] unsigned int 
  4617 ;; Registers used:
  4618 ;;		wreg, status,2, status,0
  4619 ;; Tracked objects:
  4620 ;;		On entry : 0/0
  4621 ;;		On exit  : 0/0
  4622 ;;		Unchanged: 0/0
  4623 ;; Data sizes:     COMMON   BANK0   BANK1   BANK3   BANK2
  4624 ;;      Params:         2       0       0       0       0
  4625 ;;      Locals:         5       0       0       0       0
  4626 ;;      Temps:          2       0       0       0       0
  4627 ;;      Totals:         9       0       0       0       0
  4628 ;;Total ram usage:        9 bytes
  4629 ;; Hardware stack levels used: 1
  4630 ;; This function calls:
  4631 ;;		Nothing
  4632 ;; This function is called by:
  4633 ;;		___flmul
  4634 ;; This function uses a non-reentrant model
  4635 ;;
  4636                           
  4637                           
  4638                           ;psect for function __Umul8_16
  4639  0A81                     __Umul8_16:
  4640                           
  4641                           ;incstack = 0
  4642                           ; Regs used in __Umul8_16: [wreg+status,2+status,0]
  4643                           ;__Umul8_16@multiplier stored from wreg
  4644  0A81  00F8               	movwf	__Umul8_16@multiplier
  4645  0A82                     l1890:
  4646  0A82  01F4               	clrf	__Umul8_16@product
  4647  0A83  01F5               	clrf	__Umul8_16@product+1
  4648  0A84                     l1892:
  4649  0A84  0870               	movf	__Umul8_16@multiplicand,w
  4650  0A85  00F2               	movwf	??__Umul8_16
  4651  0A86  01F3               	clrf	??__Umul8_16+1
  4652  0A87  0872               	movf	??__Umul8_16,w
  4653  0A88  00F6               	movwf	__Umul8_16@word_mpld
  4654  0A89  0873               	movf	??__Umul8_16+1,w
  4655  0A8A  00F7               	movwf	__Umul8_16@word_mpld+1
  4656  0A8B                     l1894:
  4657  0A8B  1C78               	btfss	__Umul8_16@multiplier,0
  4658  0A8C  2A8E               	goto	u1851
  4659  0A8D  2A8F               	goto	u1850
  4660  0A8E                     u1851:
  4661  0A8E  2A95               	goto	l691
  4662  0A8F                     u1850:
  4663  0A8F                     l1896:
  4664  0A8F  0876               	movf	__Umul8_16@word_mpld,w
  4665  0A90  07F4               	addwf	__Umul8_16@product,f
  4666  0A91  1803               	skipnc
  4667  0A92  0AF5               	incf	__Umul8_16@product+1,f
  4668  0A93  0877               	movf	__Umul8_16@word_mpld+1,w
  4669  0A94  07F5               	addwf	__Umul8_16@product+1,f
  4670  0A95                     l691:
  4671  0A95  3001               	movlw	1
  4672  0A96                     u1865:
  4673  0A96  1003               	clrc
  4674  0A97  0DF6               	rlf	__Umul8_16@word_mpld,f
  4675  0A98  0DF7               	rlf	__Umul8_16@word_mpld+1,f
  4676  0A99  3EFF               	addlw	-1
  4677  0A9A  1D03               	skipz
  4678  0A9B  2A96               	goto	u1865
  4679  0A9C  1003               	clrc
  4680  0A9D  0CF8               	rrf	__Umul8_16@multiplier,f
  4681  0A9E                     l1898:
  4682  0A9E  0878               	movf	__Umul8_16@multiplier,w
  4683  0A9F  1D03               	btfss	3,2
  4684  0AA0  2AA2               	goto	u1871
  4685  0AA1  2AA3               	goto	u1870
  4686  0AA2                     u1871:
  4687  0AA2  2A8B               	goto	l1894
  4688  0AA3                     u1870:
  4689  0AA3                     l1900:
  4690  0AA3  0875               	movf	__Umul8_16@product+1,w
  4691  0AA4  00F1               	movwf	?__Umul8_16+1
  4692  0AA5  0874               	movf	__Umul8_16@product,w
  4693  0AA6  00F0               	movwf	?__Umul8_16
  4694  0AA7                     l693:
  4695  0AA7  0008               	return
  4696  0AA8                     __end_of__Umul8_16:
  4697                           
  4698                           	psect	text8
  4699  00BF                     __ptext8:	
  4700 ;; *************** function ___flge *****************
  4701 ;; Defined at:
  4702 ;;		line 4 in file "C:\Program Files\Microchip\xc8\v2.32\pic\sources\c90\common\flge.c"
  4703 ;; Parameters:    Size  Location     Type
  4704 ;;  ff1             4    0[COMMON] unsigned int 
  4705 ;;  ff2             4    4[COMMON] unsigned int 
  4706 ;; Auto vars:     Size  Location     Type
  4707 ;;		None
  4708 ;; Return value:  Size  Location     Type
  4709 ;;		None               void
  4710 ;; Registers used:
  4711 ;;		wreg, status,2, status,0
  4712 ;; Tracked objects:
  4713 ;;		On entry : 0/0
  4714 ;;		On exit  : 0/0
  4715 ;;		Unchanged: 0/0
  4716 ;; Data sizes:     COMMON   BANK0   BANK1   BANK3   BANK2
  4717 ;;      Params:         8       0       0       0       0
  4718 ;;      Locals:         0       0       0       0       0
  4719 ;;      Temps:          4       0       0       0       0
  4720 ;;      Totals:        12       0       0       0       0
  4721 ;;Total ram usage:       12 bytes
  4722 ;; Hardware stack levels used: 1
  4723 ;; This function calls:
  4724 ;;		Nothing
  4725 ;; This function is called by:
  4726 ;;		_liga_buzzer
  4727 ;; This function uses a non-reentrant model
  4728 ;;
  4729                           
  4730                           
  4731                           ;psect for function ___flge
  4732  00BF                     ___flge:
  4733  00BF                     l1914:	
  4734                           ;incstack = 0
  4735                           ; Regs used in ___flge: [wreg+status,2+status,0]
  4736                           
  4737  00BF  3000               	movlw	0
  4738  00C0  0570               	andwf	___flge@ff1,w
  4739  00C1  00F8               	movwf	??___flge
  4740  00C2  3000               	movlw	0
  4741  00C3  0571               	andwf	___flge@ff1+1,w
  4742  00C4  00F9               	movwf	??___flge+1
  4743  00C5  3080               	movlw	128
  4744  00C6  0572               	andwf	___flge@ff1+2,w
  4745  00C7  00FA               	movwf	??___flge+2
  4746  00C8  307F               	movlw	127
  4747  00C9  0573               	andwf	___flge@ff1+3,w
  4748  00CA  00FB               	movwf	??___flge+3
  4749  00CB  087B               	movf	??___flge+3,w
  4750  00CC  047A               	iorwf	??___flge+2,w
  4751  00CD  0479               	iorwf	??___flge+1,w
  4752  00CE  0478               	iorwf	??___flge,w
  4753  00CF  1D03               	skipz
  4754  00D0  28D2               	goto	u1891
  4755  00D1  28D3               	goto	u1890
  4756  00D2                     u1891:
  4757  00D2  28DB               	goto	l457
  4758  00D3                     u1890:
  4759  00D3                     l1916:
  4760  00D3  3000               	movlw	0
  4761  00D4  00F3               	movwf	___flge@ff1+3
  4762  00D5  3000               	movlw	0
  4763  00D6  00F2               	movwf	___flge@ff1+2
  4764  00D7  3000               	movlw	0
  4765  00D8  00F1               	movwf	___flge@ff1+1
  4766  00D9  3000               	movlw	0
  4767  00DA  00F0               	movwf	___flge@ff1
  4768  00DB                     l457:
  4769  00DB  3000               	movlw	0
  4770  00DC  0574               	andwf	___flge@ff2,w
  4771  00DD  00F8               	movwf	??___flge
  4772  00DE  3000               	movlw	0
  4773  00DF  0575               	andwf	___flge@ff2+1,w
  4774  00E0  00F9               	movwf	??___flge+1
  4775  00E1  3080               	movlw	128
  4776  00E2  0576               	andwf	___flge@ff2+2,w
  4777  00E3  00FA               	movwf	??___flge+2
  4778  00E4  307F               	movlw	127
  4779  00E5  0577               	andwf	___flge@ff2+3,w
  4780  00E6  00FB               	movwf	??___flge+3
  4781  00E7  087B               	movf	??___flge+3,w
  4782  00E8  047A               	iorwf	??___flge+2,w
  4783  00E9  0479               	iorwf	??___flge+1,w
  4784  00EA  0478               	iorwf	??___flge,w
  4785  00EB  1D03               	skipz
  4786  00EC  28EE               	goto	u1901
  4787  00ED  28EF               	goto	u1900
  4788  00EE                     u1901:
  4789  00EE  28F7               	goto	l1920
  4790  00EF                     u1900:
  4791  00EF                     l1918:
  4792  00EF  3000               	movlw	0
  4793  00F0  00F7               	movwf	___flge@ff2+3
  4794  00F1  3000               	movlw	0
  4795  00F2  00F6               	movwf	___flge@ff2+2
  4796  00F3  3000               	movlw	0
  4797  00F4  00F5               	movwf	___flge@ff2+1
  4798  00F5  3000               	movlw	0
  4799  00F6  00F4               	movwf	___flge@ff2
  4800  00F7                     l1920:
  4801  00F7  1FF3               	btfss	___flge@ff1+3,7
  4802  00F8  28FA               	goto	u1911
  4803  00F9  28FB               	goto	u1910
  4804  00FA                     u1911:
  4805  00FA  291F               	goto	l1924
  4806  00FB                     u1910:
  4807  00FB                     l1922:
  4808  00FB  3000               	movlw	0
  4809  00FC  00F8               	movwf	??___flge
  4810  00FD  3000               	movlw	0
  4811  00FE  00F9               	movwf	??___flge+1
  4812  00FF  3000               	movlw	0
  4813  0100  00FA               	movwf	??___flge+2
  4814  0101  3080               	movlw	128
  4815  0102  00FB               	movwf	??___flge+3
  4816  0103  0870               	movf	___flge@ff1,w
  4817  0104  02F8               	subwf	??___flge,f
  4818  0105  0871               	movf	___flge@ff1+1,w
  4819  0106  1C03               	skipc
  4820  0107  0F71               	incfsz	___flge@ff1+1,w
  4821  0108  290A               	goto	u1921
  4822  0109  290B               	goto	u1922
  4823  010A                     u1921:
  4824  010A  02F9               	subwf	??___flge+1,f
  4825  010B                     u1922:
  4826  010B  0872               	movf	___flge@ff1+2,w
  4827  010C  1C03               	skipc
  4828  010D  0F72               	incfsz	___flge@ff1+2,w
  4829  010E  2910               	goto	u1923
  4830  010F  2911               	goto	u1924
  4831  0110                     u1923:
  4832  0110  02FA               	subwf	??___flge+2,f
  4833  0111                     u1924:
  4834  0111  0873               	movf	___flge@ff1+3,w
  4835  0112  1C03               	skipc
  4836  0113  0F73               	incfsz	___flge@ff1+3,w
  4837  0114  2916               	goto	u1925
  4838  0115  2917               	goto	u1926
  4839  0116                     u1925:
  4840  0116  02FB               	subwf	??___flge+3,f
  4841  0117                     u1926:
  4842  0117  087B               	movf	??___flge+3,w
  4843  0118  00F3               	movwf	___flge@ff1+3
  4844  0119  087A               	movf	??___flge+2,w
  4845  011A  00F2               	movwf	___flge@ff1+2
  4846  011B  0879               	movf	??___flge+1,w
  4847  011C  00F1               	movwf	___flge@ff1+1
  4848  011D  0878               	movf	??___flge,w
  4849  011E  00F0               	movwf	___flge@ff1
  4850  011F                     l1924:
  4851  011F  1FF7               	btfss	___flge@ff2+3,7
  4852  0120  2922               	goto	u1931
  4853  0121  2923               	goto	u1930
  4854  0122                     u1931:
  4855  0122  2947               	goto	l460
  4856  0123                     u1930:
  4857  0123                     l1926:
  4858  0123  3000               	movlw	0
  4859  0124  00F8               	movwf	??___flge
  4860  0125  3000               	movlw	0
  4861  0126  00F9               	movwf	??___flge+1
  4862  0127  3000               	movlw	0
  4863  0128  00FA               	movwf	??___flge+2
  4864  0129  3080               	movlw	128
  4865  012A  00FB               	movwf	??___flge+3
  4866  012B  0874               	movf	___flge@ff2,w
  4867  012C  02F8               	subwf	??___flge,f
  4868  012D  0875               	movf	___flge@ff2+1,w
  4869  012E  1C03               	skipc
  4870  012F  0F75               	incfsz	___flge@ff2+1,w
  4871  0130  2932               	goto	u1941
  4872  0131  2933               	goto	u1942
  4873  0132                     u1941:
  4874  0132  02F9               	subwf	??___flge+1,f
  4875  0133                     u1942:
  4876  0133  0876               	movf	___flge@ff2+2,w
  4877  0134  1C03               	skipc
  4878  0135  0F76               	incfsz	___flge@ff2+2,w
  4879  0136  2938               	goto	u1943
  4880  0137  2939               	goto	u1944
  4881  0138                     u1943:
  4882  0138  02FA               	subwf	??___flge+2,f
  4883  0139                     u1944:
  4884  0139  0877               	movf	___flge@ff2+3,w
  4885  013A  1C03               	skipc
  4886  013B  0F77               	incfsz	___flge@ff2+3,w
  4887  013C  293E               	goto	u1945
  4888  013D  293F               	goto	u1946
  4889  013E                     u1945:
  4890  013E  02FB               	subwf	??___flge+3,f
  4891  013F                     u1946:
  4892  013F  087B               	movf	??___flge+3,w
  4893  0140  00F7               	movwf	___flge@ff2+3
  4894  0141  087A               	movf	??___flge+2,w
  4895  0142  00F6               	movwf	___flge@ff2+2
  4896  0143  0879               	movf	??___flge+1,w
  4897  0144  00F5               	movwf	___flge@ff2+1
  4898  0145  0878               	movf	??___flge,w
  4899  0146  00F4               	movwf	___flge@ff2
  4900  0147                     l460:
  4901  0147  3080               	movlw	128
  4902  0148  06F3               	xorwf	___flge@ff1+3,f
  4903  0149  3080               	movlw	128
  4904  014A  06F7               	xorwf	___flge@ff2+3,f
  4905  014B  0877               	movf	___flge@ff2+3,w
  4906  014C  0273               	subwf	___flge@ff1+3,w
  4907  014D  1D03               	skipz
  4908  014E  2959               	goto	u1955
  4909  014F  0876               	movf	___flge@ff2+2,w
  4910  0150  0272               	subwf	___flge@ff1+2,w
  4911  0151  1D03               	skipz
  4912  0152  2959               	goto	u1955
  4913  0153  0875               	movf	___flge@ff2+1,w
  4914  0154  0271               	subwf	___flge@ff1+1,w
  4915  0155  1D03               	skipz
  4916  0156  2959               	goto	u1955
  4917  0157  0874               	movf	___flge@ff2,w
  4918  0158  0270               	subwf	___flge@ff1,w
  4919  0159                     u1955:
  4920  0159  1803               	skipnc
  4921  015A  295C               	goto	u1951
  4922  015B  295D               	goto	u1950
  4923  015C                     u1951:
  4924  015C  295F               	goto	l1930
  4925  015D                     u1950:
  4926  015D                     l1928:
  4927  015D  1003               	clrc
  4928  015E  2960               	goto	l461
  4929  015F                     l1930:
  4930  015F  1403               	setc
  4931  0160                     l461:
  4932  0160  0008               	return
  4933  0161                     __end_of___flge:
  4934                           
  4935                           	psect	text9
  4936  0A3F                     __ptext9:	
  4937 ;; *************** function _strcpy *****************
  4938 ;; Defined at:
  4939 ;;		line 8 in file "C:\Program Files\Microchip\xc8\v2.32\pic\sources\c90\common\strcpy.c"
  4940 ;; Parameters:    Size  Location     Type
  4941 ;;  to              1    wreg     PTR unsigned char 
  4942 ;;		 -> senhaUserConfere(5), 
  4943 ;;  from            1    0[COMMON] PTR const unsigned char 
  4944 ;;		 -> senhaUserConfere(5), 
  4945 ;; Auto vars:     Size  Location     Type
  4946 ;;  to              1    3[COMMON] PTR unsigned char 
  4947 ;;		 -> senhaUserConfere(5), 
  4948 ;;  cp              1    2[COMMON] PTR unsigned char 
  4949 ;;		 -> senhaUserConfere(5), 
  4950 ;; Return value:  Size  Location     Type
  4951 ;;                  1    wreg      PTR unsigned char 
  4952 ;; Registers used:
  4953 ;;		wreg, fsr0l, fsr0h, status,2, status,0
  4954 ;; Tracked objects:
  4955 ;;		On entry : 0/0
  4956 ;;		On exit  : 0/0
  4957 ;;		Unchanged: 0/0
  4958 ;; Data sizes:     COMMON   BANK0   BANK1   BANK3   BANK2
  4959 ;;      Params:         1       0       0       0       0
  4960 ;;      Locals:         2       0       0       0       0
  4961 ;;      Temps:          1       0       0       0       0
  4962 ;;      Totals:         4       0       0       0       0
  4963 ;;Total ram usage:        4 bytes
  4964 ;; Hardware stack levels used: 1
  4965 ;; This function calls:
  4966 ;;		Nothing
  4967 ;; This function is called by:
  4968 ;;		_validaUser
  4969 ;; This function uses a non-reentrant model
  4970 ;;
  4971                           
  4972                           
  4973                           ;psect for function _strcpy
  4974  0A3F                     _strcpy:
  4975                           
  4976                           ;incstack = 0
  4977                           ; Regs used in _strcpy: [wreg-fsr0h+status,2+status,0]
  4978                           ;strcpy@to stored from wreg
  4979  0A3F  00F3               	movwf	strcpy@to
  4980  0A40                     l2334:
  4981  0A40  0873               	movf	strcpy@to,w
  4982  0A41  00F1               	movwf	??_strcpy
  4983  0A42  0871               	movf	??_strcpy,w
  4984  0A43  00F2               	movwf	strcpy@cp
  4985  0A44  2A4D               	goto	l2338
  4986  0A45                     l2336:
  4987  0A45  3001               	movlw	1
  4988  0A46  00F1               	movwf	??_strcpy
  4989  0A47  0871               	movf	??_strcpy,w
  4990  0A48  07F2               	addwf	strcpy@cp,f
  4991  0A49  3001               	movlw	1
  4992  0A4A  00F1               	movwf	??_strcpy
  4993  0A4B  0871               	movf	??_strcpy,w
  4994  0A4C  07F0               	addwf	strcpy@from,f
  4995  0A4D                     l2338:
  4996  0A4D  0870               	movf	strcpy@from,w
  4997  0A4E  0084               	movwf	4
  4998  0A4F  1383               	bcf	3,7	;select IRP bank0
  4999  0A50  0800               	movf	0,w
  5000  0A51  00F1               	movwf	??_strcpy
  5001  0A52  0872               	movf	strcpy@cp,w
  5002  0A53  0084               	movwf	4
  5003  0A54  0871               	movf	??_strcpy,w
  5004  0A55  0080               	movwf	0
  5005  0A56  0800               	movf	0,w
  5006  0A57  1D03               	btfss	3,2
  5007  0A58  2A5A               	goto	u2611
  5008  0A59  2A5B               	goto	u2610
  5009  0A5A                     u2611:
  5010  0A5A  2A45               	goto	l2336
  5011  0A5B                     u2610:
  5012  0A5B                     l2340:
  5013  0A5B  0873               	movf	strcpy@to,w
  5014  0A5C                     l754:
  5015  0A5C  0008               	return
  5016  0A5D                     __end_of_strcpy:
  5017                           
  5018                           	psect	text10
  5019  0AD2                     __ptext10:	
  5020 ;; *************** function _strcmp *****************
  5021 ;; Defined at:
  5022 ;;		line 33 in file "C:\Program Files\Microchip\xc8\v2.32\pic\sources\c90\common\strcmp.c"
  5023 ;; Parameters:    Size  Location     Type
  5024 ;;  s1              1    wreg     PTR const unsigned char 
  5025 ;;		 -> senhaUser(5), 
  5026 ;;  s2              1    0[COMMON] PTR const unsigned char 
  5027 ;;		 -> senhaUserConfere(5), 
  5028 ;; Auto vars:     Size  Location     Type
  5029 ;;  s1              1    6[COMMON] PTR const unsigned char 
  5030 ;;		 -> senhaUser(5), 
  5031 ;;  r               1    5[COMMON] char 
  5032 ;; Return value:  Size  Location     Type
  5033 ;;                  2    0[COMMON] int 
  5034 ;; Registers used:
  5035 ;;		wreg, fsr0l, fsr0h, status,2, status,0
  5036 ;; Tracked objects:
  5037 ;;		On entry : 0/0
  5038 ;;		On exit  : 0/0
  5039 ;;		Unchanged: 0/0
  5040 ;; Data sizes:     COMMON   BANK0   BANK1   BANK3   BANK2
  5041 ;;      Params:         2       0       0       0       0
  5042 ;;      Locals:         2       0       0       0       0
  5043 ;;      Temps:          3       0       0       0       0
  5044 ;;      Totals:         7       0       0       0       0
  5045 ;;Total ram usage:        7 bytes
  5046 ;; Hardware stack levels used: 1
  5047 ;; This function calls:
  5048 ;;		Nothing
  5049 ;; This function is called by:
  5050 ;;		_validaUser
  5051 ;; This function uses a non-reentrant model
  5052 ;;
  5053                           
  5054                           
  5055                           ;psect for function _strcmp
  5056  0AD2                     _strcmp:
  5057                           
  5058                           ;incstack = 0
  5059                           ; Regs used in _strcmp: [wreg-fsr0h+status,2+status,0]
  5060                           ;strcmp@s1 stored from wreg
  5061  0AD2  00F6               	movwf	strcmp@s1
  5062  0AD3                     l2354:
  5063  0AD3  2ADC               	goto	l2360
  5064  0AD4                     l2356:
  5065  0AD4  3001               	movlw	1
  5066  0AD5  00F2               	movwf	??_strcmp
  5067  0AD6  0872               	movf	??_strcmp,w
  5068  0AD7  07F6               	addwf	strcmp@s1,f
  5069  0AD8                     l2358:
  5070  0AD8  3001               	movlw	1
  5071  0AD9  00F2               	movwf	??_strcmp
  5072  0ADA  0872               	movf	??_strcmp,w
  5073  0ADB  07F0               	addwf	strcmp@s2,f
  5074  0ADC                     l2360:
  5075  0ADC  0870               	movf	strcmp@s2,w
  5076  0ADD  0084               	movwf	4
  5077  0ADE  1383               	bcf	3,7	;select IRP bank0
  5078  0ADF  0800               	movf	0,w
  5079  0AE0  00F2               	movwf	??_strcmp
  5080  0AE1  0876               	movf	strcmp@s1,w
  5081  0AE2  0084               	movwf	4
  5082  0AE3  0800               	movf	0,w
  5083  0AE4  00F3               	movwf	??_strcmp+1
  5084  0AE5  0872               	movf	??_strcmp,w
  5085  0AE6  0273               	subwf	??_strcmp+1,w
  5086  0AE7  00F4               	movwf	??_strcmp+2
  5087  0AE8  0874               	movf	??_strcmp+2,w
  5088  0AE9  00F5               	movwf	strcmp@r
  5089  0AEA  0875               	movf	strcmp@r,w
  5090  0AEB  1D03               	btfss	3,2
  5091  0AEC  2AEE               	goto	u2641
  5092  0AED  2AEF               	goto	u2640
  5093  0AEE                     u2641:
  5094  0AEE  2AF6               	goto	l2364
  5095  0AEF                     u2640:
  5096  0AEF                     l2362:
  5097  0AEF  0876               	movf	strcmp@s1,w
  5098  0AF0  0084               	movwf	4
  5099  0AF1  0800               	movf	0,w
  5100  0AF2  1D03               	btfss	3,2
  5101  0AF3  2AF5               	goto	u2651
  5102  0AF4  2AF6               	goto	u2650
  5103  0AF5                     u2651:
  5104  0AF5  2AD4               	goto	l2356
  5105  0AF6                     u2650:
  5106  0AF6                     l2364:
  5107  0AF6  0875               	movf	strcmp@r,w
  5108  0AF7  00F0               	movwf	?_strcmp
  5109  0AF8  01F1               	clrf	?_strcmp+1
  5110  0AF9  1BF0               	btfsc	?_strcmp,7
  5111  0AFA  03F1               	decf	?_strcmp+1,f
  5112  0AFB                     l748:
  5113  0AFB  0008               	return
  5114  0AFC                     __end_of_strcmp:
  5115                           
  5116                           	psect	text11
  5117  0AFC                     __ptext11:	
  5118 ;; *************** function _strcat *****************
  5119 ;; Defined at:
  5120 ;;		line 8 in file "C:\Program Files\Microchip\xc8\v2.32\pic\sources\c90\common\strcat.c"
  5121 ;; Parameters:    Size  Location     Type
  5122 ;;  to              1    wreg     PTR unsigned char 
  5123 ;;		 -> senhaUserConfere(5), 
  5124 ;;  from            1    4[COMMON] PTR const unsigned char 
  5125 ;;		 -> NULL(0), STR_10(2), STR_9(2), STR_8(2), 
  5126 ;;		 -> STR_7(2), STR_6(2), STR_5(2), STR_4(2), 
  5127 ;;		 -> STR_3(2), STR_2(2), STR_1(2), 
  5128 ;; Auto vars:     Size  Location     Type
  5129 ;;  to              1    6[COMMON] PTR unsigned char 
  5130 ;;		 -> senhaUserConfere(5), 
  5131 ;;  cp              1    7[COMMON] PTR unsigned char 
  5132 ;;		 -> senhaUserConfere(5), 
  5133 ;; Return value:  Size  Location     Type
  5134 ;;                  1    wreg      PTR unsigned char 
  5135 ;; Registers used:
  5136 ;;		wreg, fsr0l, fsr0h, status,2, status,0, pclath
  5137 ;; Tracked objects:
  5138 ;;		On entry : 0/0
  5139 ;;		On exit  : 0/0
  5140 ;;		Unchanged: 0/0
  5141 ;; Data sizes:     COMMON   BANK0   BANK1   BANK3   BANK2
  5142 ;;      Params:         1       0       0       0       0
  5143 ;;      Locals:         2       0       0       0       0
  5144 ;;      Temps:          1       0       0       0       0
  5145 ;;      Totals:         4       0       0       0       0
  5146 ;;Total ram usage:        4 bytes
  5147 ;; Hardware stack levels used: 2
  5148 ;; This function calls:
  5149 ;;		Nothing
  5150 ;; This function is called by:
  5151 ;;		_validaUser
  5152 ;; This function uses a non-reentrant model
  5153 ;;
  5154                           
  5155                           
  5156                           ;psect for function _strcat
  5157  0AFC                     _strcat:
  5158                           
  5159                           ;incstack = 0
  5160                           ; Regs used in _strcat: [wreg-fsr0h+status,2+status,0+pclath]
  5161                           ;strcat@to stored from wreg
  5162  0AFC  00F6               	movwf	strcat@to
  5163  0AFD                     l2344:
  5164  0AFD  0876               	movf	strcat@to,w
  5165  0AFE  00F5               	movwf	??_strcat
  5166  0AFF  0875               	movf	??_strcat,w
  5167  0B00  00F7               	movwf	strcat@cp
  5168  0B01  2B06               	goto	l2348
  5169  0B02                     l2346:
  5170  0B02  3001               	movlw	1
  5171  0B03  00F5               	movwf	??_strcat
  5172  0B04  0875               	movf	??_strcat,w
  5173  0B05  07F7               	addwf	strcat@cp,f
  5174  0B06                     l2348:
  5175  0B06  0877               	movf	strcat@cp,w
  5176  0B07  0084               	movwf	4
  5177  0B08  1383               	bcf	3,7	;select IRP bank0
  5178  0B09  0800               	movf	0,w
  5179  0B0A  1D03               	btfss	3,2
  5180  0B0B  2B0D               	goto	u2621
  5181  0B0C  2B0E               	goto	u2620
  5182  0B0D                     u2621:
  5183  0B0D  2B02               	goto	l2346
  5184  0B0E                     u2620:
  5185  0B0E  2B17               	goto	l2352
  5186  0B0F                     l2350:
  5187  0B0F  3001               	movlw	1
  5188  0B10  00F5               	movwf	??_strcat
  5189  0B11  0875               	movf	??_strcat,w
  5190  0B12  07F7               	addwf	strcat@cp,f
  5191  0B13  3001               	movlw	1
  5192  0B14  00F5               	movwf	??_strcat
  5193  0B15  0875               	movf	??_strcat,w
  5194  0B16  07F4               	addwf	strcat@from,f
  5195  0B17                     l2352:
  5196  0B17  0874               	movf	strcat@from,w
  5197  0B18  0084               	movwf	4
  5198  0B19  120A  158A  2000  120A  158A  	fcall	stringdir
  5199  0B1E  00F5               	movwf	??_strcat
  5200  0B1F  0877               	movf	strcat@cp,w
  5201  0B20  0084               	movwf	4
  5202  0B21  0875               	movf	??_strcat,w
  5203  0B22  0080               	movwf	0
  5204  0B23  0800               	movf	0,w
  5205  0B24  1D03               	btfss	3,2
  5206  0B25  2B27               	goto	u2631
  5207  0B26  2B28               	goto	u2630
  5208  0B27                     u2631:
  5209  0B27  2B0F               	goto	l2350
  5210  0B28                     u2630:
  5211  0B28                     l740:
  5212  0B28  0008               	return
  5213  0B29                     __end_of_strcat:
  5214                           
  5215                           	psect	text12
  5216  0006                     __ptext12:	
  5217 ;; *************** function _telaInicial *****************
  5218 ;; Defined at:
  5219 ;;		line 329 in file "main.c"
  5220 ;; Parameters:    Size  Location     Type
  5221 ;;		None
  5222 ;; Auto vars:     Size  Location     Type
  5223 ;;  i               2    7[COMMON] int 
  5224 ;; Return value:  Size  Location     Type
  5225 ;;                  1    wreg      void 
  5226 ;; Registers used:
  5227 ;;		wreg, fsr0l, fsr0h, status,2, status,0, btemp+1, pclath, cstack
  5228 ;; Tracked objects:
  5229 ;;		On entry : 0/0
  5230 ;;		On exit  : 0/0
  5231 ;;		Unchanged: 0/0
  5232 ;; Data sizes:     COMMON   BANK0   BANK1   BANK3   BANK2
  5233 ;;      Params:         0       0       0       0       0
  5234 ;;      Locals:         2       0       0       0       0
  5235 ;;      Temps:          2       0       0       0       0
  5236 ;;      Totals:         4       0       0       0       0
  5237 ;;Total ram usage:        4 bytes
  5238 ;; Hardware stack levels used: 1
  5239 ;; Hardware stack levels required when called: 2
  5240 ;; This function calls:
  5241 ;;		_LCD_escreve
  5242 ;;		_LCD_linha1
  5243 ;;		_strlen
  5244 ;; This function is called by:
  5245 ;;		_main
  5246 ;; This function uses a non-reentrant model
  5247 ;;
  5248                           
  5249                           
  5250                           ;psect for function _telaInicial
  5251  0006                     _telaInicial:
  5252  0006                     l2402:	
  5253                           ;incstack = 0
  5254                           ; Regs used in _telaInicial: [wreg-fsr0h+status,2+status,0+btemp+1+pclath+cstack]
  5255                           
  5256                           
  5257                           ;main.c: 331:     LCD_linha1();
  5258  0006  120A  158A  21CC  120A  118A  	fcall	_LCD_linha1
  5259                           
  5260                           ;main.c: 332:     LCD_escreve(' ');
  5261  000B  3020               	movlw	32
  5262  000C  120A  158A  21EC  120A  118A  	fcall	_LCD_escreve
  5263  0011                     l2404:
  5264                           
  5265                           ;main.c: 333:     for (int i = 0; i <= strlen(msg)-1; i++){
  5266  0011  01F7               	clrf	telaInicial@i
  5267  0012  01F8               	clrf	telaInicial@i+1
  5268  0013  2824               	goto	l2410
  5269  0014                     l2406:
  5270                           
  5271                           ;main.c: 334:         LCD_escreve(msg[i]);
  5272  0014  0877               	movf	telaInicial@i,w
  5273  0015  3EA0               	addlw	(low (_msg| 0))& (0+255)
  5274  0016  0084               	movwf	4
  5275  0017  1383               	bcf	3,7	;select IRP bank1
  5276  0018  0800               	movf	0,w
  5277  0019  120A  158A  21EC  120A  118A  	fcall	_LCD_escreve
  5278  001E                     l2408:
  5279                           
  5280                           ;main.c: 335:     }
  5281  001E  3001               	movlw	1
  5282  001F  07F7               	addwf	telaInicial@i,f
  5283  0020  1803               	skipnc
  5284  0021  0AF8               	incf	telaInicial@i+1,f
  5285  0022  3000               	movlw	0
  5286  0023  07F8               	addwf	telaInicial@i+1,f
  5287  0024                     l2410:
  5288  0024  30A0               	movlw	(low (_msg| 0))& (0+255)
  5289  0025  120A  158A  2226  120A  118A  	fcall	_strlen
  5290  002A  0870               	movf	?_strlen,w
  5291  002B  3EFF               	addlw	255
  5292  002C  00F5               	movwf	??_telaInicial
  5293  002D  0871               	movf	?_strlen+1,w
  5294  002E  1803               	skipnc
  5295  002F  3E01               	addlw	1
  5296  0030  3EFF               	addlw	255
  5297  0031  00F6               	movwf	??_telaInicial+1
  5298  0032  0878               	movf	telaInicial@i+1,w
  5299  0033  0276               	subwf	??_telaInicial+1,w
  5300  0034  1D03               	skipz
  5301  0035  2838               	goto	u2665
  5302  0036  0877               	movf	telaInicial@i,w
  5303  0037  0275               	subwf	??_telaInicial,w
  5304  0038                     u2665:
  5305  0038  1803               	skipnc
  5306  0039  283B               	goto	u2661
  5307  003A  283C               	goto	u2660
  5308  003B                     u2661:
  5309  003B  2814               	goto	l2406
  5310  003C                     u2660:
  5311  003C                     l2412:
  5312                           
  5313                           ;main.c: 336:     LCD_escreve(' ');
  5314  003C  3020               	movlw	32
  5315  003D  120A  158A  21EC  120A  118A  	fcall	_LCD_escreve
  5316  0042                     l162:
  5317  0042  0008               	return
  5318  0043                     __end_of_telaInicial:
  5319                           
  5320                           	psect	text13
  5321  09CC                     __ptext13:	
  5322 ;; *************** function _LCD_linha1 *****************
  5323 ;; Defined at:
  5324 ;;		line 65 in file "./lcd.h"
  5325 ;; Parameters:    Size  Location     Type
  5326 ;;		None
  5327 ;; Auto vars:     Size  Location     Type
  5328 ;;		None
  5329 ;; Return value:  Size  Location     Type
  5330 ;;                  1    wreg      void 
  5331 ;; Registers used:
  5332 ;;		wreg, status,2, status,0, btemp+1, pclath, cstack
  5333 ;; Tracked objects:
  5334 ;;		On entry : 0/0
  5335 ;;		On exit  : 0/0
  5336 ;;		Unchanged: 0/0
  5337 ;; Data sizes:     COMMON   BANK0   BANK1   BANK3   BANK2
  5338 ;;      Params:         0       0       0       0       0
  5339 ;;      Locals:         0       0       0       0       0
  5340 ;;      Temps:          0       0       0       0       0
  5341 ;;      Totals:         0       0       0       0       0
  5342 ;;Total ram usage:        0 bytes
  5343 ;; Hardware stack levels used: 1
  5344 ;; Hardware stack levels required when called: 1
  5345 ;; This function calls:
  5346 ;;		_delay
  5347 ;; This function is called by:
  5348 ;;		_telaInicial
  5349 ;; This function uses a non-reentrant model
  5350 ;;
  5351                           
  5352                           
  5353                           ;psect for function _LCD_linha1
  5354  09CC                     _LCD_linha1:
  5355  09CC                     l2132:	
  5356                           ;incstack = 0
  5357                           ; Regs used in _LCD_linha1: [wreg+status,2+status,0+btemp+1+pclath+cstack]
  5358                           
  5359                           
  5360                           ;./lcd.h: 66:     PORTD = 0x02;
  5361  09CC  3002               	movlw	2
  5362  09CD  1283               	bcf	3,5	;RP0=0, select bank0
  5363  09CE  1303               	bcf	3,6	;RP1=0, select bank0
  5364  09CF  0088               	movwf	8	;volatile
  5365  09D0                     l2134:
  5366                           
  5367                           ;./lcd.h: 67:     RA5 = 0;
  5368  09D0  1285               	bcf	5,5	;volatile
  5369  09D1                     l2136:
  5370                           
  5371                           ;./lcd.h: 68:     RA4 = 0;
  5372  09D1  1205               	bcf	5,4	;volatile
  5373  09D2                     l2138:
  5374                           
  5375                           ;./lcd.h: 69:     RA3=0;
  5376  09D2  1185               	bcf	5,3	;volatile
  5377  09D3                     l2140:
  5378                           
  5379                           ;./lcd.h: 70:     delay();
  5380  09D3  120A  158A  2210  120A  158A  	fcall	_delay
  5381  09D8                     l2142:
  5382                           
  5383                           ;./lcd.h: 71:  RA3 = 1;
  5384  09D8  1283               	bcf	3,5	;RP0=0, select bank0
  5385  09D9  1303               	bcf	3,6	;RP1=0, select bank0
  5386  09DA  1585               	bsf	5,3	;volatile
  5387  09DB                     l69:
  5388  09DB  0008               	return
  5389  09DC                     __end_of_LCD_linha1:
  5390                           
  5391                           	psect	text14
  5392  0B5C                     __ptext14:	
  5393 ;; *************** function _Linha2 *****************
  5394 ;; Defined at:
  5395 ;;		line 344 in file "main.c"
  5396 ;; Parameters:    Size  Location     Type
  5397 ;;		None
  5398 ;; Auto vars:     Size  Location     Type
  5399 ;;  i               2    7[COMMON] int 
  5400 ;; Return value:  Size  Location     Type
  5401 ;;                  1    wreg      void 
  5402 ;; Registers used:
  5403 ;;		wreg, fsr0l, fsr0h, status,2, status,0, btemp+1, pclath, cstack
  5404 ;; Tracked objects:
  5405 ;;		On entry : 0/0
  5406 ;;		On exit  : 0/0
  5407 ;;		Unchanged: 0/0
  5408 ;; Data sizes:     COMMON   BANK0   BANK1   BANK3   BANK2
  5409 ;;      Params:         0       0       0       0       0
  5410 ;;      Locals:         2       0       0       0       0
  5411 ;;      Temps:          2       0       0       0       0
  5412 ;;      Totals:         4       0       0       0       0
  5413 ;;Total ram usage:        4 bytes
  5414 ;; Hardware stack levels used: 1
  5415 ;; Hardware stack levels required when called: 3
  5416 ;; This function calls:
  5417 ;;		_LCD_escreve
  5418 ;;		_LCD_linha2
  5419 ;;		_espacoLivre
  5420 ;;		_strlen
  5421 ;; This function is called by:
  5422 ;;		_main
  5423 ;; This function uses a non-reentrant model
  5424 ;;
  5425                           
  5426                           
  5427                           ;psect for function _Linha2
  5428  0B5C                     _Linha2:
  5429  0B5C                     l2414:	
  5430                           ;incstack = 0
  5431                           ; Regs used in _Linha2: [wreg-fsr0h+status,2+status,0+btemp+1+pclath+cstack]
  5432                           
  5433                           
  5434                           ;main.c: 345:     LCD_linha2();
  5435  0B5C  120A  158A  21BC  120A  158A  	fcall	_LCD_linha2
  5436                           
  5437                           ;main.c: 346:     espacoLivre();
  5438  0B61  120A  158A  22A8  120A  158A  	fcall	_espacoLivre
  5439  0B66                     l2416:
  5440                           
  5441                           ;main.c: 347:     for (int i = 0; i <= strlen(msg2)-1; i++){
  5442  0B66  01F7               	clrf	Linha2@i
  5443  0B67  01F8               	clrf	Linha2@i+1
  5444  0B68  2B79               	goto	l2422
  5445  0B69                     l2418:
  5446                           
  5447                           ;main.c: 348:         LCD_escreve(msg2[i]);
  5448  0B69  0877               	movf	Linha2@i,w
  5449  0B6A  3E5D               	addlw	(low (_msg2| 0))& (0+255)
  5450  0B6B  0084               	movwf	4
  5451  0B6C  1383               	bcf	3,7	;select IRP bank0
  5452  0B6D  0800               	movf	0,w
  5453  0B6E  120A  158A  21EC  120A  158A  	fcall	_LCD_escreve
  5454  0B73                     l2420:
  5455                           
  5456                           ;main.c: 349:     }
  5457  0B73  3001               	movlw	1
  5458  0B74  07F7               	addwf	Linha2@i,f
  5459  0B75  1803               	skipnc
  5460  0B76  0AF8               	incf	Linha2@i+1,f
  5461  0B77  3000               	movlw	0
  5462  0B78  07F8               	addwf	Linha2@i+1,f
  5463  0B79                     l2422:
  5464  0B79  305D               	movlw	(low (_msg2| 0))& (0+255)
  5465  0B7A  120A  158A  2226  120A  158A  	fcall	_strlen
  5466  0B7F  0870               	movf	?_strlen,w
  5467  0B80  3EFF               	addlw	255
  5468  0B81  00F5               	movwf	??_Linha2
  5469  0B82  0871               	movf	?_strlen+1,w
  5470  0B83  1803               	skipnc
  5471  0B84  3E01               	addlw	1
  5472  0B85  3EFF               	addlw	255
  5473  0B86  00F6               	movwf	??_Linha2+1
  5474  0B87  0878               	movf	Linha2@i+1,w
  5475  0B88  0276               	subwf	??_Linha2+1,w
  5476  0B89  1D03               	skipz
  5477  0B8A  2B8D               	goto	u2675
  5478  0B8B  0877               	movf	Linha2@i,w
  5479  0B8C  0275               	subwf	??_Linha2,w
  5480  0B8D                     u2675:
  5481  0B8D  1803               	skipnc
  5482  0B8E  2B90               	goto	u2671
  5483  0B8F  2B91               	goto	u2670
  5484  0B90                     u2671:
  5485  0B90  2B69               	goto	l2418
  5486  0B91                     u2670:
  5487  0B91                     l2424:
  5488                           
  5489                           ;main.c: 350:     espacoLivre();
  5490  0B91  120A  158A  22A8  120A  158A  	fcall	_espacoLivre
  5491  0B96                     l168:
  5492  0B96  0008               	return
  5493  0B97                     __end_of_Linha2:
  5494                           
  5495                           	psect	text15
  5496  0A26                     __ptext15:	
  5497 ;; *************** function _strlen *****************
  5498 ;; Defined at:
  5499 ;;		line 4 in file "C:\Program Files\Microchip\xc8\v2.32\pic\sources\c90\common\strlen.c"
  5500 ;; Parameters:    Size  Location     Type
  5501 ;;  s               1    wreg     PTR const unsigned char 
  5502 ;;		 -> msg2(5), msg(15), 
  5503 ;; Auto vars:     Size  Location     Type
  5504 ;;  s               1    4[COMMON] PTR const unsigned char 
  5505 ;;		 -> msg2(5), msg(15), 
  5506 ;;  cp              1    3[COMMON] PTR const unsigned char 
  5507 ;;		 -> msg2(5), msg(15), 
  5508 ;; Return value:  Size  Location     Type
  5509 ;;                  2    0[COMMON] unsigned int 
  5510 ;; Registers used:
  5511 ;;		wreg, fsr0l, fsr0h, status,2, status,0
  5512 ;; Tracked objects:
  5513 ;;		On entry : 0/0
  5514 ;;		On exit  : 0/0
  5515 ;;		Unchanged: 0/0
  5516 ;; Data sizes:     COMMON   BANK0   BANK1   BANK3   BANK2
  5517 ;;      Params:         2       0       0       0       0
  5518 ;;      Locals:         2       0       0       0       0
  5519 ;;      Temps:          1       0       0       0       0
  5520 ;;      Totals:         5       0       0       0       0
  5521 ;;Total ram usage:        5 bytes
  5522 ;; Hardware stack levels used: 1
  5523 ;; This function calls:
  5524 ;;		Nothing
  5525 ;; This function is called by:
  5526 ;;		_telaInicial
  5527 ;;		_Linha2
  5528 ;; This function uses a non-reentrant model
  5529 ;;
  5530                           
  5531                           
  5532                           ;psect for function _strlen
  5533  0A26                     _strlen:
  5534                           
  5535                           ;incstack = 0
  5536                           ; Regs used in _strlen: [wreg-fsr0h+status,2+status,0]
  5537                           ;strlen@s stored from wreg
  5538  0A26  00F4               	movwf	strlen@s
  5539  0A27                     l2322:
  5540  0A27  0874               	movf	strlen@s,w
  5541  0A28  00F2               	movwf	??_strlen
  5542  0A29  0872               	movf	??_strlen,w
  5543  0A2A  00F3               	movwf	strlen@cp
  5544  0A2B  2A30               	goto	l2326
  5545  0A2C                     l2324:
  5546  0A2C  3001               	movlw	1
  5547  0A2D  00F2               	movwf	??_strlen
  5548  0A2E  0872               	movf	??_strlen,w
  5549  0A2F  07F3               	addwf	strlen@cp,f
  5550  0A30                     l2326:
  5551  0A30  0873               	movf	strlen@cp,w
  5552  0A31  0084               	movwf	4
  5553  0A32  1383               	bcf	3,7	;select IRP bank0
  5554  0A33  0800               	movf	0,w
  5555  0A34  1D03               	btfss	3,2
  5556  0A35  2A37               	goto	u2601
  5557  0A36  2A38               	goto	u2600
  5558  0A37                     u2601:
  5559  0A37  2A2C               	goto	l2324
  5560  0A38                     u2600:
  5561  0A38                     l2328:
  5562  0A38  0874               	movf	strlen@s,w
  5563  0A39  0273               	subwf	strlen@cp,w
  5564  0A3A  00F0               	movwf	?_strlen
  5565  0A3B  01F1               	clrf	?_strlen+1
  5566  0A3C  1BF0               	btfsc	?_strlen,7
  5567  0A3D  03F1               	decf	?_strlen+1,f
  5568  0A3E                     l760:
  5569  0A3E  0008               	return
  5570  0A3F                     __end_of_strlen:
  5571                           
  5572                           	psect	text16
  5573  0AA8                     __ptext16:	
  5574 ;; *************** function _espacoLivre *****************
  5575 ;; Defined at:
  5576 ;;		line 356 in file "main.c"
  5577 ;; Parameters:    Size  Location     Type
  5578 ;;		None
  5579 ;; Auto vars:     Size  Location     Type
  5580 ;;		None
  5581 ;; Return value:  Size  Location     Type
  5582 ;;                  1    wreg      void 
  5583 ;; Registers used:
  5584 ;;		wreg, status,2, status,0, btemp+1, pclath, cstack
  5585 ;; Tracked objects:
  5586 ;;		On entry : 0/0
  5587 ;;		On exit  : 0/0
  5588 ;;		Unchanged: 0/0
  5589 ;; Data sizes:     COMMON   BANK0   BANK1   BANK3   BANK2
  5590 ;;      Params:         0       0       0       0       0
  5591 ;;      Locals:         0       0       0       0       0
  5592 ;;      Temps:          0       0       0       0       0
  5593 ;;      Totals:         0       0       0       0       0
  5594 ;;Total ram usage:        0 bytes
  5595 ;; Hardware stack levels used: 1
  5596 ;; Hardware stack levels required when called: 2
  5597 ;; This function calls:
  5598 ;;		_LCD_escreve
  5599 ;;		_LCD_linha2
  5600 ;; This function is called by:
  5601 ;;		_Linha2
  5602 ;; This function uses a non-reentrant model
  5603 ;;
  5604                           
  5605                           
  5606                           ;psect for function _espacoLivre
  5607  0AA8                     _espacoLivre:
  5608  0AA8                     l2332:	
  5609                           ;incstack = 0
  5610                           ; Regs used in _espacoLivre: [wreg+status,2+status,0+btemp+1+pclath+cstack]
  5611                           
  5612                           
  5613                           ;main.c: 357:     LCD_linha2();
  5614  0AA8  120A  158A  21BC  120A  158A  	fcall	_LCD_linha2
  5615                           
  5616                           ;main.c: 358:     LCD_escreve(' ');
  5617  0AAD  3020               	movlw	32
  5618  0AAE  120A  158A  21EC  120A  158A  	fcall	_LCD_escreve
  5619                           
  5620                           ;main.c: 359:     LCD_escreve(' ');
  5621  0AB3  3020               	movlw	32
  5622  0AB4  120A  158A  21EC  120A  158A  	fcall	_LCD_escreve
  5623                           
  5624                           ;main.c: 360:     LCD_escreve(' ');
  5625  0AB9  3020               	movlw	32
  5626  0ABA  120A  158A  21EC  120A  158A  	fcall	_LCD_escreve
  5627                           
  5628                           ;main.c: 361:     LCD_escreve(' ');
  5629  0ABF  3020               	movlw	32
  5630  0AC0  120A  158A  21EC  120A  158A  	fcall	_LCD_escreve
  5631                           
  5632                           ;main.c: 362:     LCD_escreve(' ');
  5633  0AC5  3020               	movlw	32
  5634  0AC6  120A  158A  21EC  120A  158A  	fcall	_LCD_escreve
  5635                           
  5636                           ;main.c: 363:     LCD_escreve(' ');
  5637  0ACB  3020               	movlw	32
  5638  0ACC  120A  158A  21EC  120A  158A  	fcall	_LCD_escreve
  5639  0AD1                     l171:
  5640  0AD1  0008               	return
  5641  0AD2                     __end_of_espacoLivre:
  5642                           
  5643                           	psect	text17
  5644  09BC                     __ptext17:	
  5645 ;; *************** function _LCD_linha2 *****************
  5646 ;; Defined at:
  5647 ;;		line 73 in file "./lcd.h"
  5648 ;; Parameters:    Size  Location     Type
  5649 ;;		None
  5650 ;; Auto vars:     Size  Location     Type
  5651 ;;		None
  5652 ;; Return value:  Size  Location     Type
  5653 ;;                  1    wreg      void 
  5654 ;; Registers used:
  5655 ;;		wreg, status,2, status,0, btemp+1, pclath, cstack
  5656 ;; Tracked objects:
  5657 ;;		On entry : 0/0
  5658 ;;		On exit  : 0/0
  5659 ;;		Unchanged: 0/0
  5660 ;; Data sizes:     COMMON   BANK0   BANK1   BANK3   BANK2
  5661 ;;      Params:         0       0       0       0       0
  5662 ;;      Locals:         0       0       0       0       0
  5663 ;;      Temps:          0       0       0       0       0
  5664 ;;      Totals:         0       0       0       0       0
  5665 ;;Total ram usage:        0 bytes
  5666 ;; Hardware stack levels used: 1
  5667 ;; Hardware stack levels required when called: 1
  5668 ;; This function calls:
  5669 ;;		_delay
  5670 ;; This function is called by:
  5671 ;;		_Linha2
  5672 ;;		_espacoLivre
  5673 ;; This function uses a non-reentrant model
  5674 ;;
  5675                           
  5676                           
  5677                           ;psect for function _LCD_linha2
  5678  09BC                     _LCD_linha2:
  5679  09BC                     l2092:	
  5680                           ;incstack = 0
  5681                           ; Regs used in _LCD_linha2: [wreg+status,2+status,0+btemp+1+pclath+cstack]
  5682                           
  5683                           
  5684                           ;./lcd.h: 74:     PORTD = 0xC0;
  5685  09BC  30C0               	movlw	192
  5686  09BD  1283               	bcf	3,5	;RP0=0, select bank0
  5687  09BE  1303               	bcf	3,6	;RP1=0, select bank0
  5688  09BF  0088               	movwf	8	;volatile
  5689  09C0                     l2094:
  5690                           
  5691                           ;./lcd.h: 75:     RA5 = 0;
  5692  09C0  1285               	bcf	5,5	;volatile
  5693  09C1                     l2096:
  5694                           
  5695                           ;./lcd.h: 76:     RA4 = 0;
  5696  09C1  1205               	bcf	5,4	;volatile
  5697  09C2                     l2098:
  5698                           
  5699                           ;./lcd.h: 77:     RA3=0;
  5700  09C2  1185               	bcf	5,3	;volatile
  5701  09C3                     l2100:
  5702                           
  5703                           ;./lcd.h: 78:     delay();
  5704  09C3  120A  158A  2210  120A  158A  	fcall	_delay
  5705  09C8                     l2102:
  5706                           
  5707                           ;./lcd.h: 79:  RA3 = 1;
  5708  09C8  1283               	bcf	3,5	;RP0=0, select bank0
  5709  09C9  1303               	bcf	3,6	;RP1=0, select bank0
  5710  09CA  1585               	bsf	5,3	;volatile
  5711  09CB                     l72:
  5712  09CB  0008               	return
  5713  09CC                     __end_of_LCD_linha2:
  5714                           
  5715                           	psect	text18
  5716  09EC                     __ptext18:	
  5717 ;; *************** function _LCD_escreve *****************
  5718 ;; Defined at:
  5719 ;;		line 46 in file "./lcd.h"
  5720 ;; Parameters:    Size  Location     Type
  5721 ;;  x               1    wreg     unsigned char 
  5722 ;; Auto vars:     Size  Location     Type
  5723 ;;  x               1    2[COMMON] unsigned char 
  5724 ;; Return value:  Size  Location     Type
  5725 ;;                  1    wreg      void 
  5726 ;; Registers used:
  5727 ;;		wreg, status,2, status,0, btemp+1, pclath, cstack
  5728 ;; Tracked objects:
  5729 ;;		On entry : 0/0
  5730 ;;		On exit  : 0/0
  5731 ;;		Unchanged: 0/0
  5732 ;; Data sizes:     COMMON   BANK0   BANK1   BANK3   BANK2
  5733 ;;      Params:         0       0       0       0       0
  5734 ;;      Locals:         1       0       0       0       0
  5735 ;;      Temps:          0       0       0       0       0
  5736 ;;      Totals:         1       0       0       0       0
  5737 ;;Total ram usage:        1 bytes
  5738 ;; Hardware stack levels used: 1
  5739 ;; Hardware stack levels required when called: 1
  5740 ;; This function calls:
  5741 ;;		_delay
  5742 ;; This function is called by:
  5743 ;;		_main
  5744 ;;		_teclado
  5745 ;;		_telaInicial
  5746 ;;		_Linha2
  5747 ;;		_espacoLivre
  5748 ;;		_validaUser
  5749 ;;		_LCD_escreveFrase
  5750 ;; This function uses a non-reentrant model
  5751 ;;
  5752                           
  5753                           
  5754                           ;psect for function _LCD_escreve
  5755  09EC                     _LCD_escreve:
  5756                           
  5757                           ;incstack = 0
  5758                           ; Regs used in _LCD_escreve: [wreg+status,2+status,0+btemp+1+pclath+cstack]
  5759                           ;LCD_escreve@x stored from wreg
  5760  09EC  00F2               	movwf	LCD_escreve@x
  5761  09ED                     l2080:
  5762                           
  5763                           ;./lcd.h: 46: void LCD_escreve(char x);./lcd.h: 47: {;./lcd.h: 48:  PORTD = x;
  5764  09ED  0872               	movf	LCD_escreve@x,w
  5765  09EE  1283               	bcf	3,5	;RP0=0, select bank0
  5766  09EF  1303               	bcf	3,6	;RP1=0, select bank0
  5767  09F0  0088               	movwf	8	;volatile
  5768  09F1                     l2082:
  5769                           
  5770                           ;./lcd.h: 49:  RA5 = 1;
  5771  09F1  1685               	bsf	5,5	;volatile
  5772  09F2                     l2084:
  5773                           
  5774                           ;./lcd.h: 50:  RA4 = 0;
  5775  09F2  1205               	bcf	5,4	;volatile
  5776  09F3                     l2086:
  5777                           
  5778                           ;./lcd.h: 51:  RA3 = 0;
  5779  09F3  1185               	bcf	5,3	;volatile
  5780  09F4                     l2088:
  5781                           
  5782                           ;./lcd.h: 52:  delay();
  5783  09F4  120A  158A  2210  120A  158A  	fcall	_delay
  5784  09F9                     l2090:
  5785                           
  5786                           ;./lcd.h: 53:  RA3 = 1;
  5787  09F9  1283               	bcf	3,5	;RP0=0, select bank0
  5788  09FA  1303               	bcf	3,6	;RP1=0, select bank0
  5789  09FB  1585               	bsf	5,3	;volatile
  5790  09FC                     l63:
  5791  09FC  0008               	return
  5792  09FD                     __end_of_LCD_escreve:
  5793                           
  5794                           	psect	text19
  5795  09AC                     __ptext19:	
  5796 ;; *************** function _LCD_limpa *****************
  5797 ;; Defined at:
  5798 ;;		line 56 in file "./lcd.h"
  5799 ;; Parameters:    Size  Location     Type
  5800 ;;		None
  5801 ;; Auto vars:     Size  Location     Type
  5802 ;;		None
  5803 ;; Return value:  Size  Location     Type
  5804 ;;                  1    wreg      void 
  5805 ;; Registers used:
  5806 ;;		wreg, status,2, status,0, btemp+1, pclath, cstack
  5807 ;; Tracked objects:
  5808 ;;		On entry : 0/0
  5809 ;;		On exit  : 0/0
  5810 ;;		Unchanged: 0/0
  5811 ;; Data sizes:     COMMON   BANK0   BANK1   BANK3   BANK2
  5812 ;;      Params:         0       0       0       0       0
  5813 ;;      Locals:         0       0       0       0       0
  5814 ;;      Temps:          0       0       0       0       0
  5815 ;;      Totals:         0       0       0       0       0
  5816 ;;Total ram usage:        0 bytes
  5817 ;; Hardware stack levels used: 1
  5818 ;; Hardware stack levels required when called: 1
  5819 ;; This function calls:
  5820 ;;		_delay
  5821 ;; This function is called by:
  5822 ;;		_main
  5823 ;; This function uses a non-reentrant model
  5824 ;;
  5825                           
  5826                           
  5827                           ;psect for function _LCD_limpa
  5828  09AC                     _LCD_limpa:
  5829  09AC                     l2390:	
  5830                           ;incstack = 0
  5831                           ; Regs used in _LCD_limpa: [wreg+status,2+status,0+btemp+1+pclath+cstack]
  5832                           
  5833                           
  5834                           ;./lcd.h: 57:     PORTD = 0x01;
  5835  09AC  3001               	movlw	1
  5836  09AD  1283               	bcf	3,5	;RP0=0, select bank0
  5837  09AE  1303               	bcf	3,6	;RP1=0, select bank0
  5838  09AF  0088               	movwf	8	;volatile
  5839  09B0                     l2392:
  5840                           
  5841                           ;./lcd.h: 58:     RA5 = 0;
  5842  09B0  1285               	bcf	5,5	;volatile
  5843  09B1                     l2394:
  5844                           
  5845                           ;./lcd.h: 59:     RA4 = 0;
  5846  09B1  1205               	bcf	5,4	;volatile
  5847  09B2                     l2396:
  5848                           
  5849                           ;./lcd.h: 60:     RA3=0;
  5850  09B2  1185               	bcf	5,3	;volatile
  5851  09B3                     l2398:
  5852                           
  5853                           ;./lcd.h: 61:     delay();
  5854  09B3  120A  158A  2210  120A  158A  	fcall	_delay
  5855  09B8                     l2400:
  5856                           
  5857                           ;./lcd.h: 62:  RA3 = 1;
  5858  09B8  1283               	bcf	3,5	;RP0=0, select bank0
  5859  09B9  1303               	bcf	3,6	;RP1=0, select bank0
  5860  09BA  1585               	bsf	5,3	;volatile
  5861  09BB                     l66:
  5862  09BB  0008               	return
  5863  09BC                     __end_of_LCD_limpa:
  5864                           
  5865                           	psect	text20
  5866  0B29                     __ptext20:	
  5867 ;; *************** function _LCD_init *****************
  5868 ;; Defined at:
  5869 ;;		line 31 in file "./lcd.h"
  5870 ;; Parameters:    Size  Location     Type
  5871 ;;		None
  5872 ;; Auto vars:     Size  Location     Type
  5873 ;;		None
  5874 ;; Return value:  Size  Location     Type
  5875 ;;                  1    wreg      void 
  5876 ;; Registers used:
  5877 ;;		wreg, status,2, status,0, btemp+1, pclath, cstack
  5878 ;; Tracked objects:
  5879 ;;		On entry : 0/0
  5880 ;;		On exit  : 0/0
  5881 ;;		Unchanged: 0/0
  5882 ;; Data sizes:     COMMON   BANK0   BANK1   BANK3   BANK2
  5883 ;;      Params:         0       0       0       0       0
  5884 ;;      Locals:         0       0       0       0       0
  5885 ;;      Temps:          0       0       0       0       0
  5886 ;;      Totals:         0       0       0       0       0
  5887 ;;Total ram usage:        0 bytes
  5888 ;; Hardware stack levels used: 1
  5889 ;; Hardware stack levels required when called: 2
  5890 ;; This function calls:
  5891 ;;		_LCD_enable
  5892 ;;		_init
  5893 ;; This function is called by:
  5894 ;;		_main
  5895 ;; This function uses a non-reentrant model
  5896 ;;
  5897                           
  5898                           
  5899                           ;psect for function _LCD_init
  5900  0B29                     _LCD_init:
  5901  0B29                     l2368:	
  5902                           ;incstack = 0
  5903                           ; Regs used in _LCD_init: [wreg+status,2+status,0+btemp+1+pclath+cstack]
  5904                           
  5905                           
  5906                           ;./lcd.h: 33:     init();
  5907  0B29  120A  158A  2183  120A  158A  	fcall	_init
  5908  0B2E                     l2370:
  5909                           
  5910                           ;./lcd.h: 34:  PORTD = 0X1;
  5911  0B2E  3001               	movlw	1
  5912  0B2F  1283               	bcf	3,5	;RP0=0, select bank0
  5913  0B30  1303               	bcf	3,6	;RP1=0, select bank0
  5914  0B31  0088               	movwf	8	;volatile
  5915  0B32                     l2372:
  5916                           
  5917                           ;./lcd.h: 35:  LCD_enable();
  5918  0B32  120A  158A  218F  120A  158A  	fcall	_LCD_enable
  5919  0B37                     l2374:
  5920                           
  5921                           ;./lcd.h: 36:  PORTD = 0X38;
  5922  0B37  3038               	movlw	56
  5923  0B38  1283               	bcf	3,5	;RP0=0, select bank0
  5924  0B39  1303               	bcf	3,6	;RP1=0, select bank0
  5925  0B3A  0088               	movwf	8	;volatile
  5926  0B3B                     l2376:
  5927                           
  5928                           ;./lcd.h: 37:  LCD_enable();
  5929  0B3B  120A  158A  218F  120A  158A  	fcall	_LCD_enable
  5930  0B40                     l2378:
  5931                           
  5932                           ;./lcd.h: 38:  PORTD = 0X0e;
  5933  0B40  300E               	movlw	14
  5934  0B41  1283               	bcf	3,5	;RP0=0, select bank0
  5935  0B42  1303               	bcf	3,6	;RP1=0, select bank0
  5936  0B43  0088               	movwf	8	;volatile
  5937  0B44                     l2380:
  5938                           
  5939                           ;./lcd.h: 39:  LCD_enable();
  5940  0B44  120A  158A  218F  120A  158A  	fcall	_LCD_enable
  5941  0B49                     l2382:
  5942                           
  5943                           ;./lcd.h: 40:  PORTD = 0X06;
  5944  0B49  3006               	movlw	6
  5945  0B4A  1283               	bcf	3,5	;RP0=0, select bank0
  5946  0B4B  1303               	bcf	3,6	;RP1=0, select bank0
  5947  0B4C  0088               	movwf	8	;volatile
  5948  0B4D                     l2384:
  5949                           
  5950                           ;./lcd.h: 41:  LCD_enable();
  5951  0B4D  120A  158A  218F  120A  158A  	fcall	_LCD_enable
  5952  0B52                     l2386:
  5953                           
  5954                           ;./lcd.h: 42:  PORTD = 0X80;
  5955  0B52  3080               	movlw	128
  5956  0B53  1283               	bcf	3,5	;RP0=0, select bank0
  5957  0B54  1303               	bcf	3,6	;RP1=0, select bank0
  5958  0B55  0088               	movwf	8	;volatile
  5959  0B56                     l2388:
  5960                           
  5961                           ;./lcd.h: 43:  LCD_enable();
  5962  0B56  120A  158A  218F  120A  158A  	fcall	_LCD_enable
  5963  0B5B                     l60:
  5964  0B5B  0008               	return
  5965  0B5C                     __end_of_LCD_init:
  5966                           
  5967                           	psect	text21
  5968  0983                     __ptext21:	
  5969 ;; *************** function _init *****************
  5970 ;; Defined at:
  5971 ;;		line 23 in file "./lcd.h"
  5972 ;; Parameters:    Size  Location     Type
  5973 ;;		None
  5974 ;; Auto vars:     Size  Location     Type
  5975 ;;		None
  5976 ;; Return value:  Size  Location     Type
  5977 ;;                  1    wreg      void 
  5978 ;; Registers used:
  5979 ;;		wreg, status,2
  5980 ;; Tracked objects:
  5981 ;;		On entry : 0/0
  5982 ;;		On exit  : 0/0
  5983 ;;		Unchanged: 0/0
  5984 ;; Data sizes:     COMMON   BANK0   BANK1   BANK3   BANK2
  5985 ;;      Params:         0       0       0       0       0
  5986 ;;      Locals:         0       0       0       0       0
  5987 ;;      Temps:          0       0       0       0       0
  5988 ;;      Totals:         0       0       0       0       0
  5989 ;;Total ram usage:        0 bytes
  5990 ;; Hardware stack levels used: 1
  5991 ;; This function calls:
  5992 ;;		Nothing
  5993 ;; This function is called by:
  5994 ;;		_LCD_init
  5995 ;; This function uses a non-reentrant model
  5996 ;;
  5997                           
  5998                           
  5999                           ;psect for function _init
  6000  0983                     _init:
  6001  0983                     l2118:	
  6002                           ;incstack = 0
  6003                           ; Regs used in _init: [wreg+status,2]
  6004                           
  6005                           
  6006                           ;./lcd.h: 25:  ADCON1 = 0X07;
  6007  0983  3007               	movlw	7
  6008  0984  1683               	bsf	3,5	;RP0=1, select bank1
  6009  0985  1303               	bcf	3,6	;RP1=0, select bank1
  6010  0986  009F               	movwf	31	;volatile
  6011  0987                     l2120:
  6012                           
  6013                           ;./lcd.h: 26:      RA1=1;
  6014  0987  1283               	bcf	3,5	;RP0=0, select bank0
  6015  0988  1303               	bcf	3,6	;RP1=0, select bank0
  6016  0989  1485               	bsf	5,1	;volatile
  6017  098A                     l2122:
  6018                           
  6019                           ;./lcd.h: 27:  TRISA = 0X00;
  6020  098A  1683               	bsf	3,5	;RP0=1, select bank1
  6021  098B  1303               	bcf	3,6	;RP1=0, select bank1
  6022  098C  0185               	clrf	5	;volatile
  6023  098D                     l2124:
  6024                           
  6025                           ;./lcd.h: 28:  TRISD = 0X00;
  6026  098D  0188               	clrf	8	;volatile
  6027  098E                     l57:
  6028  098E  0008               	return
  6029  098F                     __end_of_init:
  6030                           
  6031                           	psect	text22
  6032  098F                     __ptext22:	
  6033 ;; *************** function _LCD_enable *****************
  6034 ;; Defined at:
  6035 ;;		line 85 in file "./lcd.h"
  6036 ;; Parameters:    Size  Location     Type
  6037 ;;		None
  6038 ;; Auto vars:     Size  Location     Type
  6039 ;;		None
  6040 ;; Return value:  Size  Location     Type
  6041 ;;                  1    wreg      void 
  6042 ;; Registers used:
  6043 ;;		wreg, status,2, status,0, btemp+1, pclath, cstack
  6044 ;; Tracked objects:
  6045 ;;		On entry : 0/0
  6046 ;;		On exit  : 0/0
  6047 ;;		Unchanged: 0/0
  6048 ;; Data sizes:     COMMON   BANK0   BANK1   BANK3   BANK2
  6049 ;;      Params:         0       0       0       0       0
  6050 ;;      Locals:         0       0       0       0       0
  6051 ;;      Temps:          0       0       0       0       0
  6052 ;;      Totals:         0       0       0       0       0
  6053 ;;Total ram usage:        0 bytes
  6054 ;; Hardware stack levels used: 1
  6055 ;; Hardware stack levels required when called: 1
  6056 ;; This function calls:
  6057 ;;		_delay
  6058 ;; This function is called by:
  6059 ;;		_LCD_init
  6060 ;; This function uses a non-reentrant model
  6061 ;;
  6062                           
  6063                           
  6064                           ;psect for function _LCD_enable
  6065  098F                     _LCD_enable:
  6066  098F                     l2126:	
  6067                           ;incstack = 0
  6068                           ; Regs used in _LCD_enable: [wreg+status,2+status,0+btemp+1+pclath+cstack]
  6069                           
  6070                           
  6071                           ;./lcd.h: 87:  RA5 = 0;
  6072  098F  1283               	bcf	3,5	;RP0=0, select bank0
  6073  0990  1303               	bcf	3,6	;RP1=0, select bank0
  6074  0991  1285               	bcf	5,5	;volatile
  6075                           
  6076                           ;./lcd.h: 88:  RA4 = 0;
  6077  0992  1205               	bcf	5,4	;volatile
  6078                           
  6079                           ;./lcd.h: 89:  RA3 = 0;
  6080  0993  1185               	bcf	5,3	;volatile
  6081  0994                     l2128:
  6082                           
  6083                           ;./lcd.h: 90:  delay();
  6084  0994  120A  158A  2210  120A  158A  	fcall	_delay
  6085  0999                     l2130:
  6086                           
  6087                           ;./lcd.h: 91:  RA3 = 1;
  6088  0999  1283               	bcf	3,5	;RP0=0, select bank0
  6089  099A  1303               	bcf	3,6	;RP1=0, select bank0
  6090  099B  1585               	bsf	5,3	;volatile
  6091  099C                     l75:
  6092  099C  0008               	return
  6093  099D                     __end_of_LCD_enable:
  6094                           
  6095                           	psect	text23
  6096  0A10                     __ptext23:	
  6097 ;; *************** function _delay *****************
  6098 ;; Defined at:
  6099 ;;		line 94 in file "./lcd.h"
  6100 ;; Parameters:    Size  Location     Type
  6101 ;;		None
  6102 ;; Auto vars:     Size  Location     Type
  6103 ;;  i               2    0[COMMON] int 
  6104 ;; Return value:  Size  Location     Type
  6105 ;;                  1    wreg      void 
  6106 ;; Registers used:
  6107 ;;		wreg, status,2, btemp+1
  6108 ;; Tracked objects:
  6109 ;;		On entry : 0/0
  6110 ;;		On exit  : 0/0
  6111 ;;		Unchanged: 0/0
  6112 ;; Data sizes:     COMMON   BANK0   BANK1   BANK3   BANK2
  6113 ;;      Params:         0       0       0       0       0
  6114 ;;      Locals:         2       0       0       0       0
  6115 ;;      Temps:          0       0       0       0       0
  6116 ;;      Totals:         2       0       0       0       0
  6117 ;;Total ram usage:        2 bytes
  6118 ;; Hardware stack levels used: 1
  6119 ;; This function calls:
  6120 ;;		Nothing
  6121 ;; This function is called by:
  6122 ;;		_LCD_escreve
  6123 ;;		_LCD_limpa
  6124 ;;		_LCD_linha1
  6125 ;;		_LCD_linha2
  6126 ;;		_LCD_enable
  6127 ;; This function uses a non-reentrant model
  6128 ;;
  6129                           
  6130                           
  6131                           ;psect for function _delay
  6132  0A10                     _delay:
  6133  0A10                     l1904:	
  6134                           ;incstack = 0
  6135                           ; Regs used in _delay: [wreg+status,2+btemp+1]
  6136                           
  6137                           
  6138                           ;./lcd.h: 96:  int i;;./lcd.h: 97:  for (i = 0;i < 5000;i++);
  6139  0A10  01F0               	clrf	delay@i
  6140  0A11  01F1               	clrf	delay@i+1
  6141  0A12                     l1910:
  6142  0A12  3001               	movlw	1
  6143  0A13  07F0               	addwf	delay@i,f
  6144  0A14  1803               	skipnc
  6145  0A15  0AF1               	incf	delay@i+1,f
  6146  0A16  3000               	movlw	0
  6147  0A17  07F1               	addwf	delay@i+1,f
  6148  0A18                     l1912:
  6149  0A18  0871               	movf	delay@i+1,w
  6150  0A19  3A80               	xorlw	128
  6151  0A1A  00FF               	movwf	btemp+1
  6152  0A1B  3093               	movlw	147
  6153  0A1C  027F               	subwf	btemp+1,w
  6154  0A1D  1D03               	skipz
  6155  0A1E  2A21               	goto	u1885
  6156  0A1F  3088               	movlw	136
  6157  0A20  0270               	subwf	delay@i,w
  6158  0A21                     u1885:
  6159  0A21  1C03               	skipc
  6160  0A22  2A24               	goto	u1881
  6161  0A23  2A25               	goto	u1880
  6162  0A24                     u1881:
  6163  0A24  2A12               	goto	l1910
  6164  0A25                     u1880:
  6165  0A25                     l80:
  6166  0A25  0008               	return
  6167  0A26                     __end_of_delay:
  6168  007E                     btemp	set	126	;btemp
  6169  007E                     wtemp0	set	126

Data Sizes:
    Strings     20
    Constant    0
    Data        31
    BSS         18
    Persistent  0
    Stack       0

Auto Spaces:
    Space          Size  Autos    Used
    COMMON           14     14      14
    BANK0            80     37      71
    BANK1            80      0      15
    BANK3            96      0       0
    BANK2            96      0       0

Pointer List with Targets:

    strlen@s	PTR const unsigned char  size(1) Largest target is 15
		 -> msg2(BANK0[5]), msg(BANK1[15]), 

    strlen@cp	PTR const unsigned char  size(1) Largest target is 15
		 -> msg2(BANK0[5]), msg(BANK1[15]), 

    strcpy@from	PTR const unsigned char  size(1) Largest target is 5
		 -> senhaUserConfere(BANK0[5]), 

    strcpy@to	PTR unsigned char  size(1) Largest target is 5
		 -> senhaUserConfere(BANK0[5]), 

    strcpy@cp	PTR unsigned char  size(1) Largest target is 5
		 -> senhaUserConfere(BANK0[5]), 

    strcmp@s2	PTR const unsigned char  size(1) Largest target is 5
		 -> senhaUserConfere(BANK0[5]), 

    strcmp@s1	PTR const unsigned char  size(1) Largest target is 5
		 -> senhaUser(BANK0[5]), 

    strcat@from	PTR const unsigned char  size(1) Largest target is 2
		 -> NULL(NULL[0]), STR_10(CODE[2]), STR_9(CODE[2]), STR_8(CODE[2]), 
		 -> STR_7(CODE[2]), STR_6(CODE[2]), STR_5(CODE[2]), STR_4(CODE[2]), 
		 -> STR_3(CODE[2]), STR_2(CODE[2]), STR_1(CODE[2]), 

    strcat@to	PTR unsigned char  size(1) Largest target is 5
		 -> senhaUserConfere(BANK0[5]), 

    strcat@cp	PTR unsigned char  size(1) Largest target is 5
		 -> senhaUserConfere(BANK0[5]), 

    sp__strcat	PTR unsigned char  size(1) Largest target is 5
		 -> senhaUserConfere(BANK0[5]), 

    sp__strcpy	PTR unsigned char  size(1) Largest target is 5
		 -> senhaUserConfere(BANK0[5]), 

    aux	PTR unsigned char  size(1) Largest target is 2
		 -> NULL(NULL[0]), STR_10(CODE[2]), STR_9(CODE[2]), STR_8(CODE[2]), 
		 -> STR_7(CODE[2]), STR_6(CODE[2]), STR_5(CODE[2]), STR_4(CODE[2]), 
		 -> STR_3(CODE[2]), STR_2(CODE[2]), STR_1(CODE[2]), 


Critical Paths under _main in COMMON

    _liga_buzzer->___flmul
    ___flsub->___fladd
    ___flmul->__Umul8_16
    _strcat->_strcpy
    _telaInicial->_strlen
    _LCD_linha1->_delay
    _Linha2->_strlen
    _espacoLivre->_LCD_escreve
    _LCD_linha2->_delay
    _LCD_escreve->_delay
    _LCD_limpa->_delay
    _LCD_enable->_delay

Critical Paths under _main in BANK0

    _main->_validaUser
    _validaUser->_teclado
    _teclado->_liga_buzzer
    _liga_buzzer->___flmul
    ___flsub->___fladd

Critical Paths under _main in BANK1

    None.

Critical Paths under _main in BANK3

    None.

Critical Paths under _main in BANK2

    None.

Call Graph Tables:

 ---------------------------------------------------------------------------------
 (Depth) Function   	        Calls       Base Space   Used Autos Params    Refs
 ---------------------------------------------------------------------------------
 (0) _main                                                 2     2      0   14607
                                             35 BANK0      2     2      0
                        _LCD_escreve
                           _LCD_init
                          _LCD_limpa
                             _Linha2
                        _telaInicial
                         _validaUser
 ---------------------------------------------------------------------------------
 (1) _validaUser                                           5     5      0   13677
                                             30 BANK0      5     5      0
                        _LCD_escreve
                        _liga_buzzer
                             _strcat
                             _strcmp
                             _strcpy
                            _teclado
 ---------------------------------------------------------------------------------
 (2) _teclado                                              3     3      0    6512
                                             27 BANK0      3     3      0
                        _LCD_escreve
                        _liga_buzzer
 ---------------------------------------------------------------------------------
 (3) _liga_buzzer                                          6     2      4    6444
                                             21 BANK0      6     2      4
                             ___flge
                            ___flmul
                            ___flsub
 ---------------------------------------------------------------------------------
 (4) ___flsub                                              8     0      8    2333
                                              8 BANK0      8     0      8
                            ___fladd
 ---------------------------------------------------------------------------------
 (5) ___fladd                                             20    12      8    2136
                                              0 COMMON    12     4      8
                                              0 BANK0      8     8      0
 ---------------------------------------------------------------------------------
 (4) ___flmul                                             26    18      8    2417
                                              9 COMMON     5     5      0
                                              0 BANK0     21    13      8
                          __Umul8_16
 ---------------------------------------------------------------------------------
 (5) __Umul8_16                                            9     7      2     799
                                              0 COMMON     9     7      2
 ---------------------------------------------------------------------------------
 (4) ___flge                                              12     4      8     334
                                              0 COMMON    12     4      8
 ---------------------------------------------------------------------------------
 (2) _strcpy                                               4     3      1     200
                                              0 COMMON     4     3      1
 ---------------------------------------------------------------------------------
 (2) _strcmp                                               7     5      2     200
                                              0 COMMON     7     5      2
 ---------------------------------------------------------------------------------
 (3) _strcat                                               4     3      1     207
                                              4 COMMON     4     3      1
                             _strcpy (ARG)
 ---------------------------------------------------------------------------------
 (1) _telaInicial                                          4     4      0     316
                                              5 COMMON     4     4      0
                        _LCD_escreve
                         _LCD_linha1
                             _strlen
 ---------------------------------------------------------------------------------
 (2) _LCD_linha1                                           0     0      0      46
                              _delay
 ---------------------------------------------------------------------------------
 (1) _Linha2                                               4     4      0     430
                                              5 COMMON     4     4      0
                        _LCD_escreve
                         _LCD_linha2
                        _espacoLivre
                             _strlen
 ---------------------------------------------------------------------------------
 (2) _strlen                                               5     3      2     156
                                              0 COMMON     5     3      2
 ---------------------------------------------------------------------------------
 (2) _espacoLivre                                          0     0      0     114
                        _LCD_escreve
                         _LCD_linha2
 ---------------------------------------------------------------------------------
 (3) _LCD_linha2                                           0     0      0      46
                              _delay
 ---------------------------------------------------------------------------------
 (3) _LCD_escreve                                          1     1      0      68
                                              2 COMMON     1     1      0
                              _delay
 ---------------------------------------------------------------------------------
 (1) _LCD_limpa                                            0     0      0      46
                              _delay
 ---------------------------------------------------------------------------------
 (1) _LCD_init                                             0     0      0      46
                         _LCD_enable
                               _init
 ---------------------------------------------------------------------------------
 (2) _init                                                 0     0      0       0
 ---------------------------------------------------------------------------------
 (2) _LCD_enable                                           0     0      0      46
                              _delay
 ---------------------------------------------------------------------------------
 (4) _delay                                                2     2      0      46
                                              0 COMMON     2     2      0
 ---------------------------------------------------------------------------------
 Estimated maximum stack depth 5
 ---------------------------------------------------------------------------------

 Call Graph Graphs:

 _main (ROOT)
   _LCD_escreve
     _delay
   _LCD_init
     _LCD_enable
       _delay
     _init
   _LCD_limpa
     _delay
   _Linha2
     _LCD_escreve
     _LCD_linha2
       _delay
     _espacoLivre
       _LCD_escreve
       _LCD_linha2
     _strlen
   _telaInicial
     _LCD_escreve
     _LCD_linha1
       _delay
     _strlen
   _validaUser
     _LCD_escreve
     _liga_buzzer
       ___flge
       ___flmul
         __Umul8_16
       ___flsub
         ___fladd
     _strcat
       _strcpy (ARG)
     _strcmp
     _strcpy
     _teclado
       _LCD_escreve
       _liga_buzzer

 Address spaces:
Name               Size   Autos  Total    Cost      Usage
BANK3               60      0       0       9        0.0%
BITBANK3            60      0       0       8        0.0%
SFR3                 0      0       0       4        0.0%
BITSFR3              0      0       0       4        0.0%
BANK2               60      0       0      11        0.0%
BITBANK2            60      0       0      10        0.0%
SFR2                 0      0       0       5        0.0%
BITSFR2              0      0       0       5        0.0%
BANK1               50      0       F       7       18.8%
BITBANK1            50      0       0       6        0.0%
SFR1                 0      0       0       2        0.0%
BITSFR1              0      0       0       2        0.0%
BANK0               50     25      47       5       88.8%
BITBANK0            50      0       0       4        0.0%
SFR0                 0      0       0       1        0.0%
BITSFR0              0      0       0       1        0.0%
COMMON               E      E       E       1      100.0%
BITCOMMON            E      0       0       0        0.0%
CODE                 0      0       0       0        0.0%
DATA                 0      0      64      12        0.0%
ABS                  0      0      64       3        0.0%
NULL                 0      0       0       0        0.0%
STACK                0      0       0       2        0.0%
EEDATA             100      0       0       0        0.0%


Microchip Technology PIC Macro Assembler V2.32 build 20210201212658 
Symbol Table                                                                                   Wed Sep 29 15:53:10 2021

                       pc 0002                        l60 0B5B                        l63 09FC  
                      l80 0A25                        l72 09CB                        l57 098E  
                      l66 09BB                        l75 099C                        l69 09DB  
                      fsr 0004       __Umul8_16@word_mpld 0076               ?_LCD_enable 0070  
                     l127 00BE                       l151 03D1                       l144 0319  
                     l136 024B                       l162 0042                       l171 0AD1  
                     l156 0477                       l168 0B96                       l601 0F6B  
                     l610 0FCD                       l460 0147                       l461 0160  
                     l197 0D67                       l622 0A80                       l607 0F8D  
                     l457 00DB                       l618 0FF1                       l619 0FFF  
                     l740 0B28                       l580 0E74                       l582 0E49  
                     l760 0A3E                       l672 07D8                       l576 0DCB  
                     l754 0A5C                       l691 0A95                       l748 0AFB  
                     l684 07CC                       l693 0AA7                       l597 0F45  
                     l589 0FFF                       l678 0744                       _RA1 0029  
                     _RB0 0030                       _RA3 002B                       _RB1 0031  
                     _RA4 002C                       _RB2 0032                       _RA5 002D  
                     _RB3 0033               ?_LCD_linha1 0070               ?_LCD_linha2 0070  
                     _aux 0051                       _msg 00A0                       fsr0 0004  
                     indf 0000              ___flmul@aexp 002D              ___flmul@bexp 002E  
            ___flmul@sign 0028              ___flmul@temp 0033              ___flmul@prod 002F  
                    l2000 05A8                      l2010 061B                      l2002 05B8  
                    l2100 09C3                      l2020 06C8                      l2012 0638  
                    l2004 05D5                      l2102 09C8                      l2030 0714  
                    l2022 06F0                      l2014 0665                      l2006 05E5  
                    l2110 0073                      l2120 0987                      l2040 0729  
                    l2032 0715                      l2024 06F9                      l2016 0675  
                    l2008 0602                      l2112 007E                      l2104 0043  
                    l2200 0247                      l2130 0999                      l2122 098A  
                    l2050 074E                      l2042 072D                      l2034 071E  
                    l2026 0707                      l2018 06A2                      l2114 009F  
                    l2106 0064                      l2210 0274                      l2202 024D  
                    l2124 098D                      l2140 09D3                      l2132 09CC  
                    l2060 078C                      l2052 075C                      l2044 0741  
                    l2028 0710                      l2036 0724                      l2116 00BA  
                    l2108 0070                      l2300 0402                      l2220 02A1  
                    l2212 027C                      l2204 0251                      l2126 098F  
                    l2118 0983                      l2142 09D8                      l2134 09D0  
                    l2070 07C0                      l2062 0797                      l2054 0760  
                    l2038 0728                      l2310 0439                      l2302 0410  
                    l2230 02C5                      l2222 02A7                      l2206 025F  
                    l2214 0280                      l2150 0179                      l2128 0994  
                    l2400 09B8                      l2080 09ED                      l2136 09D1  
                    l2072 07C4                      l2064 07A6                      l2056 0779  
                    l2048 0749                      l2320 0471                      l2312 0448  
                    l2304 041F                      l2240 02EA                      l2232 02D4  
                    l2224 02AF                      l2216 0284                      l2208 026E  
                    l2160 019E                      l2152 0188                      l2144 0161  
                    l2090 09F9                      l2082 09F1                      l2322 0A27  
                    l2138 09D2                      l2410 0024                      l2402 0006  
                    l2074 07C5                      l2066 07B0                      l2058 077F  
                    l2314 044E                      l2306 0425                      l2250 031B  
                    l2242 02F8                      l2234 02DA                      l2218 0292  
                    l2226 02B3                      l2170 01C4                      l2162 01A4  
                    l2154 018E                      l2146 0167                      l2084 09F2  
                    l2092 09BC                      l2332 0AA8                      l2324 0A2C  
                    l2420 0B73                      l2412 003C                      l2404 0011  
                    l2340 0A5B                      l2076 07D0                      l2068 07B2  
                    l1700 0D75                      l2316 0454                      l2308 042B  
                    l2260 034A                      l2252 031F                      l2244 0307  
                    l2236 02E2                      l2228 02B7                      l2180 01E9  
                    l2172 01D3                      l2164 01AA                      l2156 0196  
                    l2148 016B                      l2086 09F3                      l2094 09C0  
                    l2326 0A30                      l2422 0B79                      l2414 0B5C  
                    l2406 0014                      l2350 0B0F                      l2334 0A40  
                    l1710 0D8C                      l1702 0D79                      l2318 0462  
                    l2270 0375                      l2254 032D                      l2262 034E  
                    l2246 030D                      l2238 02E6                      l2182 01F7  
                    l2190 0218                      l2174 01D9                      l2158 0198  
                    l2166 01B0                      l2430 0C01                      l2510 0B97  
                    l2088 09F4                      l2096 09C1                      l2328 0A38  
                    l2424 0B91                      l2416 0B66                      l2408 001E  
                    l2352 0B17                      l2344 0AFD                      l2360 0ADC  
                    l2336 0A45                      l1800 0E86                      l1720 0DA2  
                    l1712 0D8D                      l1704 0D7A                      l2280 03A2  
                    l2272 037D                      l2264 0352                      l2256 033C  
                    l2248 0315                      l2192 021C                      l2184 0206  
                    l2176 01E1                      l2168 01B6                      l2440 0C78  
                    l2432 0C5F                      l2520 0BAB                      l2512 0B9B  
                    l2370 0B2E                      l2098 09C2                      l2418 0B69  
                    l2346 0B02                      l2362 0AEF                      l2354 0AD3  
                    l2338 0A4D                      l1810 0EB2                      l1802 0E9D  
                    l1730 0DB3                      l1722 0DA3                      l1706 0D7F  
                    l1714 0D8F                      l2290 03D5                      l2282 03A8  
                    l2266 0360                      l2274 0381                      l2258 0342  
                    l2194 022A                      l2186 020C                      l2178 01E5  
                    l2450 0C91                      l2442 0C7D                      l2434 0C64  
                    l2426 0BF2                      l2530 0BCC                      l2522 0BB3  
                    l2514 0B9D                      l2380 0B44                      l2372 0B32  
                    l2348 0B06                      l2364 0AF6                      l2356 0AD4  
                    l1900 0AA3                      l1820 0EDD                      l1812 0EB6  
                    l1804 0EA1                      l1740 0DD1                      l1732 0DB8  
                    l1724 0DA9                      l1716 0D97                      l1708 0D84  
                    l2292 03D9                      l2284 03AE                      l2276 0385  
                    l2268 036F                      l2196 0239                      l2188 0214  
                    l2452 0C96                      l2444 0C82                      l2460 0CC5  
                    l2436 0C6E                      l2428 0BF9                      l2532 0BD3  
                    l2524 0BBD                      l2516 0BA1                      l1910 0A12  
                    l2382 0B49                      l2374 0B37                      l2390 09AC  
                    l2358 0AD8                      l1830 0F4D                      l1822 0F1D  
                    l1814 0EB7                      l1806 0EA5                      l1750 0DE5  
                    l1742 0DD5                      l1734 0DC0                      l1726 0DAD  
                    l1718 0D9C                      l2294 03E7                      l2286 03BC  
                    l2278 0393                      l2198 023F                      l2470 0D00  
                    l2462 0CEA                      l2454 0C9B                      l2446 0C87  
                    l2438 0C73                      l2534 0BD9                      l2526 0BC1  
                    l2518 0BA6                      l1912 0A18                      l1904 0A10  
                    l2384 0B4D                      l2376 0B3B                      l2368 0B29  
                    l2392 09B0                      l1920 00F7                      l1840 0F6A  
                    l1832 0F52                      l1824 0F23                      l1816 0EC2  
                    l1808 0EB0                      l1760 0DF9                      l1752 0DE9  
                    l1744 0DD9                      l1736 0DC1                      l1728 0DAE  
                    l2296 03F6                      l2288 03CB                      l2480 0D1E  
                    l2472 0D06                      l2464 0CEE                      l2448 0C8C  
                    l2536 0BE1                      l2528 0BC7                      l2386 0B52  
                    l2378 0B40                      l2394 09B1                      l1930 015F  
                    l1922 00FB                      l1914 00BF                      l1842 0F6F  
                    l1850 0F7B                      l1826 0F28                      l1818 0EC7  
                    l1770 0E0D                      l1762 0DFD                      l1754 0DED  
                    l1746 0DDD                      l1738 0DC3                      l2298 03FC  
                    l2490 0D3C                      l2482 0D24                      l2474 0D0C  
                    l2466 0CF4                      l2458 0CA0                      l2388 0B56  
                    l2396 09B2                      l1924 011F                      l1916 00D3  
                    l1940 0478                      l1844 0F72                      l1836 0F5B  
                    l1828 0F37                      l1852 0F7F                      l1780 0E4D  
                    l1772 0E11                      l1764 0E01                      l1756 0DF1  
                    l1748 0DE1                      l2484 0D2A                      l2476 0D12  
                    l2468 0CFA                      l2492 0D4A                      l2398 09B3  
                    l1926 0123                      l1918 00EF                      l1950 048F  
                    l1942 047F                      l1870 0FC9                      l1862 0F92  
                    l1854 0F80                      l1846 0F74                      l1838 0F66  
                    l1790 0E6A                      l1782 0E58                      l1766 0E05  
                    l1758 0DF5                      l1774 0E15                      l1934 0A5D  
                    l2494 0D52                      l2486 0D30                      l2478 0D18  
                    l2558 0CA5                      l1928 015D                      l1960 04AB  
                    l1952 0494                      l1944 0485                      l1880 0FE5  
                    l1872 0FD2                      l1864 0F97                      l1856 0F84  
                    l1848 0F79                      l1784 0E5A                      l1792 0E6E  
                    l1776 0E16                      l1768 0E09                      l1696 0D68  
                    l1936 0A61                      l2488 0D36                      l2496 0D5F  
                    l1890 0A82                      l1970 04C0                      l1962 04B1  
                    l1954 049C                      l1946 0489                      l1882 0FE9  
                    l1874 0FD7                      l1866 0FA5                      l1858 0F8A  
                    l1794 0E78                      l1786 0E5E                      l1778 0E2D  
                    l1698 0D6F                      l1892 0A84                      l1980 04DC  
                    l1972 04C8                      l1964 04B5                      l1956 049E  
                    l1948 048A                      l1884 0FEB                      l1876 0FDF  
                    l1868 0FA9                      l1796 0E7D                      l1788 0E5F  
                    l1894 0A8B                      l1990 051F                      l1974 04CA  
                    l1966 04B6                      l1958 04A6                      l1886 0FFA  
                    l1878 0FE4                      l1896 0A8F                      l1992 053B  
                    l1984 04E5                      l1976 04D2                      l1968 04BB  
                    l1888 0FFE                      l1898 0A9E                      l1994 0567  
                    l1986 04F5                      l1978 04D7                      l1996 0583  
                    l1988 0502                      l1998 059F                      STR_1 0808  
                    STR_2 080A                      STR_3 080C                      STR_4 080E  
                    STR_5 0810                      STR_6 0812                      STR_7 0814  
                    STR_8 0816                      STR_9 0818                      u2000 04BB  
                    u2001 04BA                      u2010 04C0                      u2011 04BF  
                    u2020 04D7                      u2101 05F4                      u2021 04D6  
                    u2102 05FB                      u2030 04DC                      u2103 0602  
                    u2031 04DB                      u1400 0D7F                      u2121 062A  
                    u2041 052D                      u1401 0D7E                      u2210 0714  
                    u2122 0631                      u2042 0534                      u1410 0D84  
                    u2211 0713                      u2131 0657                      u2123 0638  
                    u2115 0604                      u2051 0549                      u2043 053B  
                    u1411 0D83                      u2300 078C                      u2132 065E  
                    u2052 0550                      u1500 0E37                      u1420 0DA2  
                    u2301 078B                      u2205 0709                      u2141 0684  
                    u2133 0665                      u2061 0575                      u2053 0557  
                    u1421 0DA1                      u2310 07A6                      u2230 0728  
                    u2150 06AE                      u2142 068B                      u2062 057C  
                    u1510 0E4D                      u1430 0DAD                      u2311 07A5  
                    u2231 0727                      u2143 0692                      u2071 0591  
                    u2063 0583                      u1511 0E4C                      u1431 0DAC  
                    u2320 07C4                      u2240 072D                      u2072 0598  
                    u1600 0EB6                      u1520 0E5E                      u1440 0DB3  
                    u2400 021C                      u2321 07C3                      u2305 0788  
                    u2241 072C                      u2225 0717                      u2161 06BA  
                    u2073 059F                      u1601 0EB5                      u1521 0E5D  
                    u1441 0DB2                      u2401 021B                      u2250 0741  
                    u2170 06D6                      u2162 06C1                      u1450 0DB8  
                    u2330 00BA                      u2410 0247                      u2315 07A2  
                    u2251 0740                      u2163 06C8                      u2155 06A9  
                    u2091 05C7                      u1451 0DB7                      u2331 00B9  
                    u2411 0246                      u2260 0748                      u2092 05CE  
                    u1700 0F6F                      u1620 0EDD                      u1540 0E74  
                    u1460 0DD1                      u2500 031F                      u2420 0251  
                    u2340 016B                      u2261 0747                      u2181 06E2  
                    u2093 05D5                      u2085 05A1                      u1701 0F6E  
                    u1621 0EDC                      u1541 0E73                      u1461 0DD0  
                    u2501 031E                      u2421 0250                      u2341 016A  
                    u2270 074E                      u2182 06E9                      u1710 0F79  
                    u1550 0E78                      u1470 0DD5                      u1390 0D79  
                    u2510 034A                      u2430 027C                      u2350 0196  
                    u2271 074D                      u2183 06F0                      u2175 06D1  
                    u1711 0F78                      u1631 0EF6                      u1623 0ED9  
                    u1615 0EBB                      u1551 0E77                      u1535 0E63  
                    u1471 0DD4                      u1391 0D78                      u2511 0349  
                    u2431 027B                      u2351 0195                      u2600 0A38  
                    u2280 0760                      u1800 0FD2                      u1720 0F7F  
                    u1640 0F0A                      u1632 0EF7                      u1560 0E7D  
                    u1480 0E2D                      u2520 0352                      u2440 0284  
                    u2360 01B6                      u2601 0A37                      u2281 075F  
                    u1801 0FD1                      u1721 0F7E                      u1641 0F0B  
                    u1633 0EFC                      u1561 0E7C                      u1481 0E2C  
                    u2521 0351                      u2441 0283                      u2361 01B5  
                    u2610 0A5B                      u2290 076F                      u1810 0FD7  
                    u1730 0F84                      u1650 0F28                      u1642 0F10  
                    u1634 0EFD                      u1490 0E36                      u2530 037D  
                    u2450 02AF                      u2370 01E1                      u2611 0A5A  
                    u2195 06F2                      u1811 0FD6                      u1731 0F83  
                    u1651 0F27                      u1643 0F11                      u1635 0F02  
                    u1571 0E8F                      u1491 0E34                      u2531 037C  
                    u2451 02AE                      u2371 01E0                      u2620 0B0E  
                    u1900 00EF                      u1820 0FE4                      u1740 0F8A  
                    u1660 0F4D                      u1636 0F03                      u1580 0EA1  
                    u1572 0E96                      u2540 0385                      u2460 02B7  
                    u2380 01E9                      u2700 0CEA                      u2621 0B0D  
                    u1901 00EE                      u1821 0FE3                      u1741 0F89  
                    u1661 0F4C                      u1581 0EA0                      u1573 0E9D  
                    u1485 0E29                      u2541 0384                      u2461 02B6  
                    u2381 01E8                      u2701 0CE9                      u2630 0B28  
                    u1910 00FB                      u1830 0FE9                      u1750 0F91  
                    u1670 0F52                      u1590 0EA5                      u2550 03AE  
                    u2470 02E2                      u2390 0214                      u2710 0D5F  
                    u2631 0B27                      u1911 00FA                      u2295 076A  
                    u1831 0FE8                      u1751 0F90                      u1671 0F51  
                    u1591 0EA4                      u2551 03AD                      u2471 02E1  
                    u2391 0213                      u2711 0D5E                      u2640 0AEF  
                    u1840 0FFE                      u1760 0F97                      u2560 03D9  
                    u2480 02EA                      u2720 0D67                      u2641 0AEE  
                    u1921 010A                      u1841 0FFD                      u1761 0F96  
                    u2561 03D8                      u2481 02E9                      u2721 0D66  
                    u2650 0AF6                      u1930 0123                      u1922 010B  
                    u1850 0A8F                      u1770 0FA9                      u1690 0F6A  
                    u2570 0402                      u2490 0315                      u2651 0AF5  
                    u1931 0122                      u1923 0110                      u1851 0A8E  
                    u1771 0FA8                      u1691 0F69                      u2571 0401  
                    u2491 0314                      u2715 0D5B                      u2660 003C  
                    u1924 0111                      u1780 0FBA                      u2580 042B  
                    u2740 0BB3                      u2661 003B                      u1941 0132  
                    u1925 0116                      u1685 0F5F                      u2581 042A  
                    u2741 0BB2                      u2670 0B91                      u1950 015D  
                    u1942 0133                      u1926 0117                      u1870 0AA3  
                    u1790 0FC9                      u2590 0454                      u2750 0BC7  
                    u2671 0B90                      u1951 015C                      u1943 0138  
                    u1871 0AA2                      u1791 0FC8                      u2591 0453  
                    u2807 01F1                      u2751 0BC6                      u1880 0A25  
                    u1944 0139                      u1960 0489                      u2680 0C01  
                    u2760 0BEE                      u1881 0A24                      u2665 0038  
                    u1945 013E                      u1865 0A96                      u1961 0488  
                    u1785 0FB5                      u2817 0224                      u2681 0C00  
                    u2761 0BED                      u1946 013F                      u1890 00D3  
                    u1970 048F                      u2690 0C6D                      u2675 0B8D  
                    u1955 0159                      u1891 00D2                      u1971 048E  
                    u2907 03E1                      u2827 0259                      u2691 0C6C  
                    u1980 0494                      u1885 0A21                      u1981 0493  
                    u2917 040A                      u2837 028C                      u2765 0BEA  
                    u1990 04B5                      u1991 04B4                      u2927 0433  
                    u2847 02BF                      u2937 045C                      u2857 02F2  
                    u2777 0D44                      u2947 006A                      u2867 0327  
                    u2787 0173                      u2957 0079                      u2877 035A  
                    u2797 01BE                      u2887 038D                      u2897 03B6  
            ?_LCD_escreve 0070                      _main 0B97                      _msg2 005D  
                    _init 0983              ?_liga_buzzer 0035                      btemp 007E  
            ?_espacoLivre 0070          _senhaUserConfere 0052                      start 0000  
      __size_of_LCD_limpa 0010          __end_of_LCD_init 0B5C           __end_of___fladd 1000  
                   ?_main 0070                     ?_init 0070                     STR_10 0806  
         __end_of___flmul 07D9           __end_of___flsub 0A81                     _PORTB 0006  
                   _PORTD 0008                     _PORTE 0009                     _TRISA 0085  
                   _TRISB 0086                     _TRISD 0088                     _TRISE 0089  
                   _delay 0A10                     _input 005B                     main@a 0043  
         __end_of_teclado 0478                     pclath 000A                     status 0003  
                   wtemp0 007E       __size_of_LCD_enable 000E       __size_of_LCD_linha1 0010  
     __size_of_LCD_linha2 0010           __initialization 07D9              __end_of_main 0BF2  
            __end_of_init 098F              ?_telaInicial 0070                    ??_main 007E  
                  ??_init 0070         __end_of_LCD_limpa 09BC                    ?_delay 0070  
                  _ADCON1 009F                    _Linha2 0B5C                    ___flge 00BF  
               ??___fladd 0020                 ??___flmul 0079                 ??___flsub 007C  
                  _config 004F                    _painel 0059                    delay@i 0070  
                  _strcat 0AFC                    _strcmp 0AD2                    _strcpy 0A3F  
                  _strlen 0A26        __size_of__Umul8_16 0027                 ??_teclado 003B  
              ___flge@ff1 0070                ___flge@ff2 0074   __end_of__initialization 07FC  
               ?_LCD_init 0070      __size_of_LCD_escreve 0011              LCD_escreve@x 0072  
    __size_of_liga_buzzer 007C      __size_of_espacoLivre 002A            __pcstackCOMMON 0070  
            __pidataBANK0 09DC              __pidataBANK1 099D             __end_of_delay 0A26  
            ??_LCD_enable 0072              ??_LCD_linha1 0072              ??_LCD_linha2 0072  
                 ??_delay 0070                __pbssBANK0 0045                ??_LCD_init 0072  
                 ?_Linha2 0070        __end_of_LCD_enable 099D         __end_of__Umul8_16 0AA8  
      __end_of_LCD_linha1 09DC        __end_of_LCD_linha2 09CC                __pmaintext 0B97  
                 ?___flge 0070                   ?_strcat 0074                   ?_strcmp 0070  
                 ?_strcpy 0070                   ?_strlen 0070      __size_of_telaInicial 003D  
              __stringtab 0800                   Linha2@i 0077  liga_buzzer@tempoSegundos 0035  
         __size_of_Linha2 003B           __size_of___flge 00A2                   ___fladd 0D68  
                 ___flmul 0478                   ___flsub 0A5D               validaUser@n 0041  
                 __ptext1 0BF2                   __ptext2 0161                   __ptext3 0043  
                 __ptext4 0A5D                   __ptext5 0D68                   __ptext6 0478  
                 __ptext7 0A81                   __ptext8 00BF                   __ptext9 0A3F  
         __size_of_strcat 002D           __size_of_strcmp 002A           __size_of_strcpy 001E  
         __size_of_strlen 0019                   _teclado 0161                   clrloop0 097C  
    end_of_initialization 07FC                 _LCD_limpa 09AC                _validaUser 0BF2  
                 strcmp@r 0075                   strlen@s 0074               ___fladd@grs 007B  
              ?_LCD_limpa 0070               ___flmul@grs 0029         __size_of_LCD_init 0033  
          __end_of_Linha2 0B97            __end_of___flge 0161            __end_of_strcat 0B29  
          __end_of_strcmp 0AFC            __end_of_strcpy 0A5D            __end_of_strlen 0A3F  
     start_initialization 07D9             ??_LCD_escreve 0072             ??_liga_buzzer 0039  
           ??_espacoLivre 0073               ?_validaUser 0070                  ??_Linha2 0075  
                ??___flge 0078                init_fetch0 09FD                 __Umul8_16 0A81  
             __pdataBANK0 0057               __pdataBANK1 00A0                  ??_strcat 0075  
                ??_strcmp 0072                  ??_strcpy 0071                  ??_strlen 0072  
               ___fladd@a 0074                 ___fladd@b 0070                 ___flmul@a 0024  
               ___flmul@b 0020                 ___flsub@a 0028                 ___flsub@b 002C  
               ___latbits 0002             __pcstackBANK0 0020               ??_LCD_limpa 0072  
     __end_of_LCD_escreve 09FD       __end_of_liga_buzzer 00BF                  ?___fladd 0070  
     __end_of_espacoLivre 0AD2                  ?___flmul 0020                  ?___flsub 0028  
              ?__Umul8_16 0070              telaInicial@i 0077             ??_telaInicial 0075  
               __pstrings 0800                  ?_teclado 0070       __size_of_validaUser 0176  
          __size_of_delay 0016                  _LCD_init 0B29                 clear_ram0 097B  
               _senhaUser 0062               __stringbase 0805                 _userFalse 0057  
     __end_of_telaInicial 0043               _LCD_escreve 09EC               _liga_buzzer 0043  
             _espacoLivre 0AA8               ??__Umul8_16 0072          __size_of___fladd 0298  
        __size_of___flmul 0361          __size_of___flsub 0024        __end_of__stringtab 0806  
              strcat@from 0074          __size_of_teclado 0317                  __ptext10 0AD2  
                __ptext11 0AFC                  __ptext20 0B29                  __ptext12 0006  
                __ptext21 0983                  __ptext13 09CC                  __ptext22 098F  
                __ptext14 0B5C                  __ptext23 0A10                  __ptext15 0A26  
                __ptext16 0AA8                  __ptext17 09BC                  __ptext18 09EC  
                __ptext19 09AC                strcpy@from 0070             __size_of_main 005B  
           __size_of_init 000C              ??_validaUser 003E                  _senhaCoa 004A  
             _telaInicial 0006                _LCD_enable 098F                _LCD_linha1 09CC  
              _LCD_linha2 09BC               _senhaConfig 0045                  init_ram0 0A01  
      __end_of_validaUser 0D68                 stringcode 0800    __Umul8_16@multiplicand 0070  
                strcat@cp 0077                  strcat@to 0076                  strcmp@s1 0076  
                strcmp@s2 0070                  strcpy@cp 0072                  strlen@cp 0073  
                strcpy@to 0073                  stringdir 0800                  stringtab 0800  
           ___fladd@signs 0078              ___fladd@aexp 0079              ___fladd@bexp 007A  
    __Umul8_16@multiplier 0078         __Umul8_16@product 0074  
