Microchip MPLAB XC8 Compiler V2.32

Linker command line:

-W-3 --edf=C:\Program Files\Microchip\xc8\v2.32\pic\dat\en_msgs.txt -cn \
  -h+dist/default/production\CentralAlarme.X.production.sym \
  --cmf=dist/default/production\CentralAlarme.X.production.cmf -z -Q16F877A \
  -oC:\Users\joaog\AppData\Local\Temp\xcAs1jc.4 --defsym=__MPLAB_BUILD=1 \
  -Mdist/default/production/CentralAlarme.X.production.map -E1 \
  -ver=XC8 Compiler --acfsm=1493 -ASTACK=0110h-016Fh -pstack=STACK \
  -ACODE=00h-07FFhx4 -ASTRCODE=00h-01FFFh -ASTRING=00h-0FFhx32 \
  -ACONST=00h-0FFhx32 -AENTRY=00h-0FFhx32 -ACOMMON=070h-07Fh \
  -ABANK0=020h-06Fh -ABANK1=0A0h-0EFh -ABANK2=0110h-016Fh \
  -ABANK3=0190h-01EFh -ARAM=020h-06Fh,0A0h-0EFh,0110h-016Fh,0190h-01EFh \
  -AABS1=020h-07Fh,0A0h-0EFh,0110h-016Fh,0190h-01EFh -ASFR0=00h-01Fh \
  -ASFR1=080h-09Fh -ASFR2=0100h-010Fh -ASFR3=0180h-018Fh \
  -ACONFIG=02007h-02007h -DCONFIG=2 -AIDLOC=02000h-02003h -DIDLOC=2 \
  -AEEDATA=00h-0FFh/02100h -peeprom_data=EEDATA -DEEDATA=2 -DCODE=2 \
  -DSTRCODE=2 -DSTRING=2 -DCONST=2 -DENTRY=2 \
  -preset_vec=00h,intentry,init,end_init -ppowerup=CODE -pcinit=CODE \
  -pfunctab=ENTRY -k C:\Users\joaog\AppData\Local\Temp\xcAs1jc.o \
  dist/default/production\CentralAlarme.X.production.o 

Object code version is 3.11

Machine type is 16F877A



                Name                               Link     Load   Length Selector   Space Scale
C:\Users\joaog\AppData\Local\Temp\xcAs1jc.o
                end_init                              0        0        3        0       0
dist/default/production\CentralAlarme.X.production.o
                cinit                               7D9      7D9       27      FB2       0
                text24                             1542     1542       16     2A84       0
                text23                             14C1     14C1        E     2982       0
                text22                             14B5     14B5        C     296A       0
                text21                              802      802       33     1004       0
                text20                             151E     151E       11     2A3C       0
                text19                             14DE     14DE       10     29BC       0
                text18                             15DA     15DA       2A     2BB4       0
                text17                             1558     1558       19     2AB0       0
                text16                             1631     1631       3B     2C62       0
                text15                             14EE     14EE       10     29DC       0
                text14                             14FE     14FE       10     29FC       0
                text13                              3CB      3CB      40E      796       0
                text12                               2D       2D       3D       5A       0
                text11                             1604     1604       2D     2C08       0
                text10                                3        3       2A        0       0
                text9                              1571     1571       1E     2AE2       0
                text8                              175E     175E       A2     2EBC       0
                text7                              15B3     15B3       27     2B66       0
                text6                                6A       6A      361       D4       0
                text5                               A6B      A6B      298     14D6       0
                text4                              158F     158F       24     2B1E       0
                text3                              16E2     16E2       7C     2DC4       0
                text2                               D03      D03      2FD     1A06       0
                text1                               835      835      236     106A       0
                maintext                           166C     166C       76     2CD8       0
                cstackBANK0                          20       20       2A       20       1
                cstackCOMMON                         70       70        E       70       1
                clrtext                            14AD     14AD        8     295A       0
                inittext                           152F     152F       13     2A5E       0
                dataBANK1                            A0       A0        F       A0       1
                dataBANK0                            5E       5E       10       20       1
                bssBANK0                             4A       4A       14       20       1
                strings                            1000     1000       1A     2000       0
                idataBANK1                         14CF     14CF        F     299E       0
                idataBANK0                         150E     150E       10     2A1C       0

TOTAL           Name                               Link     Load   Length     Space
        CLASS   STACK          

        CLASS   CODE           
                end_init                              0        0        3         0
                cinit                               7D9      7D9       27         0
                text24                             1542     1542       16         0
                text23                             14C1     14C1        E         0
                text22                             14B5     14B5        C         0
                text21                              802      802       33         0
                text20                             151E     151E       11         0
                text19                             14DE     14DE       10         0
                text18                             15DA     15DA       2A         0
                text17                             1558     1558       19         0
                text16                             1631     1631       3B         0
                text15                             14EE     14EE       10         0
                text14                             14FE     14FE       10         0
                text13                              3CB      3CB      40E         0
                text12                               2D       2D       3D         0
                text11                             1604     1604       2D         0
                text10                                3        3       2A         0
                text9                              1571     1571       1E         0
                text8                              175E     175E       A2         0
                text7                              15B3     15B3       27         0
                text6                                6A       6A      361         0
                text5                               A6B      A6B      298         0
                text4                              158F     158F       24         0
                text3                              16E2     16E2       7C         0
                text2                               D03      D03      2FD         0
                text1                               835      835      236         0
                maintext                           166C     166C       76         0
                clrtext                            14AD     14AD        8         0
                inittext                           152F     152F       13         0
                idataBANK1                         14CF     14CF        F         0
                idataBANK0                         150E     150E       10         0

        CLASS   STRCODE        

        CLASS   STRING         
                strings                            1000     1000       1A         0

        CLASS   CONST          

        CLASS   ENTRY          

        CLASS   COMMON         
                cstackCOMMON                         70       70        E         1

        CLASS   BANK0          
                cstackBANK0                          20       20       2A         1
                dataBANK0                            5E       5E       10         1
                bssBANK0                             4A       4A       14         1

        CLASS   BANK1          
                dataBANK1                            A0       A0        F         1

        CLASS   BANK2          

        CLASS   BANK3          

        CLASS   RAM            

        CLASS   ABS1           
                abs_s1                               7E       7E        2         1

        CLASS   SFR0           

        CLASS   SFR1           

        CLASS   SFR2           

        CLASS   SFR3           

        CLASS   CONFIG         

        CLASS   IDLOC          

        CLASS   EEDATA         



SEGMENTS        Name                           Load    Length   Top    Selector   Space  Class     Delta

                reset_vec                      000000  00002D  00002D         0       0  CODE        2
                cstackBANK0                    000020  00004E  00006E        20       1  BANK0       1
                text12                         00002D  00003D  00006A        5A       0  CODE        2
                cstackCOMMON                   000070  00000E  00007E        70       1  COMMON      1
                dataBANK1                      0000A0  00000F  0000AF        A0       1  BANK1       1
                text6                          00006A  000361  0003CB        D4       0  CODE        2
                text13                         0003CB  00040E  0007D9       796       0  CODE        2
                cinit                          0007D9  000027  000800       FB2       0  CODE        2
                text21                         000802  000033  000835      1004       0  CODE        2
                text1                          000835  000236  000A6B      106A       0  CODE        2
                text5                          000A6B  000298  000D03      14D6       0  CODE        2
                text2                          000D03  0002FD  001000      1A06       0  CODE        2
                strings                        001000  00001A  00101A      2000       0  STRING      2
                clrtext                        0014AD  000008  0014B5      295A       0  CODE        2
                text22                         0014B5  00000C  0014C1      296A       0  CODE        2
                text23                         0014C1  00000E  0014CF      2982       0  CODE        2
                idataBANK1                     0014CF  00000F  0014DE      299E       0  CODE        2
                text19                         0014DE  000010  0014EE      29BC       0  CODE        2
                text15                         0014EE  000010  0014FE      29DC       0  CODE        2
                text14                         0014FE  000010  00150E      29FC       0  CODE        2
                idataBANK0                     00150E  000010  00151E      2A1C       0  CODE        2
                text20                         00151E  000011  00152F      2A3C       0  CODE        2
                inittext                       00152F  000013  001542      2A5E       0  CODE        2
                text24                         001542  000016  001558      2A84       0  CODE        2
                text17                         001558  000019  001571      2AB0       0  CODE        2
                text9                          001571  00001E  00158F      2AE2       0  CODE        2
                text4                          00158F  000024  0015B3      2B1E       0  CODE        2
                text7                          0015B3  000027  0015DA      2B66       0  CODE        2
                text18                         0015DA  00002A  001604      2BB4       0  CODE        2
                text11                         001604  00002D  001631      2C08       0  CODE        2
                text16                         001631  00003B  00166C      2C62       0  CODE        2
                maintext                       00166C  000076  0016E2      2CD8       0  CODE        2
                text3                          0016E2  00007C  00175E      2DC4       0  CODE        2
                text8                          00175E  0000A2  001800      2EBC       0  CODE        2


UNUSED ADDRESS RANGES

        Name                Unused          Largest block    Delta
        BANK0            006E-006F              2           1
        BANK1            00AF-00EF             41           1
        BANK2            0110-016F             60           1
        BANK3            0190-01EF             60           1
        CODE             0800-0801              2           2
                         101A-14AC            493
                         1800-1FFF            800
        CONFIG           2007-2007              1           2
        CONST            0800-0801              2           2
                         101A-14AC            100
                         1800-1FFF            100
        EEDATA           2100-21FF            100           2
        ENTRY            0800-0801              2           2
                         101A-14AC            100
                         1800-1FFF            100
        IDLOC            2000-2003              4           2
        RAM              006E-006F              2           1
                         00AF-00EF             41
                         0110-016F             60
                         0190-01EF             60
        SFR0             0000-001F             20           1
        SFR1             0080-009F             20           1
        SFR2             0100-010F             10           1
        SFR3             0180-018F             10           1
        STACK            0110-016F             60           1
        STRCODE          0800-0801              2           2
                         101A-14AC            493
                         1800-1FFF            800
        STRING           0800-0801              2           2
                         101A-14AC            100
                         1800-1FFF            100

                                  Symbol Table

?__Umul8_16               cstackCOMMON 0070
?___fladd                 cstackCOMMON 0070
?___flmul                 cstackBANK0  0020
?___flsub                 cstackBANK0  0028
?_strcmp                  cstackCOMMON 0070
?_strlen                  cstackCOMMON 0070
LCD_escreve@x             cstackCOMMON 0072
Linha2@i                  cstackCOMMON 0077
_ADCON1                   (abs)        009F
_LCD_enable               text23       14C1
_LCD_escreve              text20       151E
_LCD_init                 text21       0802
_LCD_limpa                text15       14EE
_LCD_linha1               text14       14FE
_LCD_linha2               text19       14DE
_Linha2                   text16       1631
_PORTB                    (abs)        0006
_PORTD                    (abs)        0008
_PORTE                    (abs)        0009
_RA1                      (abs)        0029
_RA3                      (abs)        002B
_RA4                      (abs)        002C
_RA5                      (abs)        002D
_RB0                      (abs)        0030
_RB1                      (abs)        0031
_RB2                      (abs)        0032
_RB3                      (abs)        0033
_TRISA                    (abs)        0085
_TRISB                    (abs)        0086
_TRISD                    (abs)        0088
_TRISE                    (abs)        0089
__Habs1                   abs1         0000
__Hbank0                  bank0        0000
__Hbank1                  bank1        0000
__Hbank2                  bank2        0000
__Hbank3                  bank3        0000
__HbssBANK0               bssBANK0     0000
__Hcinit                  cinit        0800
__Hclrtext                clrtext      0000
__Hcode                   code         0000
__Hcommon                 common       0000
__HcstackBANK0            cstackBANK0  0000
__HcstackCOMMON           cstackCOMMON 0000
__HdataBANK0              dataBANK0    0000
__HdataBANK1              dataBANK1    0000
__Heeprom_data            eeprom_data  0000
__Hend_init               end_init     0003
__Hfunctab                functab      0000
__HidataBANK0             idataBANK0   0000
__HidataBANK1             idataBANK1   0000
__Hinit                   init         0000
__Hinittext               inittext     0000
__Hintentry               intentry     0000
__Hmaintext               maintext     0000
__Hpowerup                powerup      0000
__Hram                    ram          0000
__Hreset_vec              reset_vec    0000
__Hsfr0                   sfr0         0000
__Hsfr1                   sfr1         0000
__Hsfr2                   sfr2         0000
__Hsfr3                   sfr3         0000
__Hspace_0                (abs)        1800
__Hspace_1                (abs)        00AF
__Hspace_2                (abs)        0000
__Hspace_3                (abs)        0000
__Hstack                  stack        0000
__Hstrings                strings      0000
__Htext                   text         0000
__Labs1                   abs1         0000
__Lbank0                  bank0        0000
__Lbank1                  bank1        0000
__Lbank2                  bank2        0000
__Lbank3                  bank3        0000
__LbssBANK0               bssBANK0     0000
__Lcinit                  cinit        07D9
__Lclrtext                clrtext      0000
__Lcode                   code         0000
__Lcommon                 common       0000
__LcstackBANK0            cstackBANK0  0000
__LcstackCOMMON           cstackCOMMON 0000
__LdataBANK0              dataBANK0    0000
__LdataBANK1              dataBANK1    0000
__Leeprom_data            eeprom_data  0000
__Lend_init               end_init     0000
__Lfunctab                functab      0000
__LidataBANK0             idataBANK0   0000
__LidataBANK1             idataBANK1   0000
__Linit                   init         0000
__Linittext               inittext     0000
__Lintentry               intentry     0000
__Lmaintext               maintext     0000
__Lpowerup                powerup      0000
__Lram                    ram          0000
__Lreset_vec              reset_vec    0000
__Lsfr0                   sfr0         0000
__Lsfr1                   sfr1         0000
__Lsfr2                   sfr2         0000
__Lsfr3                   sfr3         0000
__Lspace_0                (abs)        0000
__Lspace_1                (abs)        0000
__Lspace_2                (abs)        0000
__Lspace_3                (abs)        0000
__Lstack                  stack        0000
__Lstrings                strings      0000
__Ltext                   text         0000
__S0                      (abs)        1800
__S1                      (abs)        00AF
__S2                      (abs)        0000
__S3                      (abs)        0000
__Umul8_16                text7        15B3
__Umul8_16@multiplicand   cstackCOMMON 0070
__Umul8_16@multiplier     cstackCOMMON 0078
__Umul8_16@product        cstackCOMMON 0074
__Umul8_16@word_mpld      cstackCOMMON 0076
___fladd                  text5        0A6B
___fladd@a                cstackCOMMON 0074
___fladd@aexp             cstackCOMMON 0079
___fladd@b                cstackCOMMON 0070
___fladd@bexp             cstackCOMMON 007A
___fladd@grs              cstackCOMMON 007B
___fladd@signs            cstackCOMMON 0078
___flge                   text8        175E
___flge@ff1               cstackCOMMON 0070
___flge@ff2               cstackCOMMON 0074
___flmul                  text6        006A
___flmul@a                cstackBANK0  0024
___flmul@aexp             cstackBANK0  002D
___flmul@b                cstackBANK0  0020
___flmul@bexp             cstackBANK0  002E
___flmul@grs              cstackBANK0  0029
___flmul@prod             cstackBANK0  002F
___flmul@sign             cstackBANK0  0028
___flmul@temp             cstackBANK0  0033
___flsub                  text4        158F
___flsub@a                cstackBANK0  0028
___flsub@b                cstackBANK0  002C
___int_sp                 stack        0000
___latbits                (abs)        0002
___sp                     stack        0000
___stackhi                (abs)        0000
___stacklo                (abs)        0000
__end_of_LCD_enable       text23       14CF
__end_of_LCD_escreve      text20       152F
__end_of_LCD_init         text21       0835
__end_of_LCD_limpa        text15       14FE
__end_of_LCD_linha1       text14       150E
__end_of_LCD_linha2       text19       14EE
__end_of_Linha2           text16       166C
__end_of__Umul8_16        text7        15DA
__end_of___fladd          text5        0D03
__end_of___flge           text8        1800
__end_of___flmul          text6        03CB
__end_of___flsub          text4        15B3
__end_of__initialization  cinit        07FC
__end_of__stringtab       strings      1006
__end_of_delay            text24       1558
__end_of_espacoLivre      text18       1604
__end_of_init             text22       14C1
__end_of_liga_buzzer      text3        175E
__end_of_listaZonas       text13       07D9
__end_of_main             maintext     16E2
__end_of_strcat           text11       1631
__end_of_strcmp           text10       002D
__end_of_strcpy           text9        158F
__end_of_strlen           text17       1571
__end_of_teclado          text2        1000
__end_of_telaInicial      text12       006A
__end_of_validaUser       text1        0A6B
__initialization          cinit        07D9
__pbssBANK0               bssBANK0     004A
__pcstackBANK0            cstackBANK0  0020
__pcstackCOMMON           cstackCOMMON 0070
__pdataBANK0              dataBANK0    005E
__pdataBANK1              dataBANK1    00A0
__pidataBANK0             idataBANK0   150E
__pidataBANK1             idataBANK1   14CF
__pmaintext               maintext     166C
__pstrings                strings      1000
__ptext1                  text1        0835
__ptext10                 text10       0003
__ptext11                 text11       1604
__ptext12                 text12       002D
__ptext13                 text13       03CB
__ptext14                 text14       14FE
__ptext15                 text15       14EE
__ptext16                 text16       1631
__ptext17                 text17       1558
__ptext18                 text18       15DA
__ptext19                 text19       14DE
__ptext2                  text2        0D03
__ptext20                 text20       151E
__ptext21                 text21       0802
__ptext22                 text22       14B5
__ptext23                 text23       14C1
__ptext24                 text24       1542
__ptext3                  text3        16E2
__ptext4                  text4        158F
__ptext5                  text5        0A6B
__ptext6                  text6        006A
__ptext7                  text7        15B3
__ptext8                  text8        175E
__ptext9                  text9        1571
__size_of_LCD_enable      (abs)        0000
__size_of_LCD_escreve     (abs)        0000
__size_of_LCD_init        (abs)        0000
__size_of_LCD_limpa       (abs)        0000
__size_of_LCD_linha1      (abs)        0000
__size_of_LCD_linha2      (abs)        0000
__size_of_Linha2          (abs)        0000
__size_of__Umul8_16       (abs)        0000
__size_of___fladd         (abs)        0000
__size_of___flge          (abs)        0000
__size_of___flmul         (abs)        0000
__size_of___flsub         (abs)        0000
__size_of_delay           (abs)        0000
__size_of_espacoLivre     (abs)        0000
__size_of_init            (abs)        0000
__size_of_liga_buzzer     (abs)        0000
__size_of_listaZonas      (abs)        0000
__size_of_main            (abs)        0000
__size_of_strcat          (abs)        0000
__size_of_strcmp          (abs)        0000
__size_of_strcpy          (abs)        0000
__size_of_strlen          (abs)        0000
__size_of_teclado         (abs)        0000
__size_of_telaInicial     (abs)        0000
__size_of_validaUser      (abs)        0000
__stringbase              strings      1005
__stringtab               strings      1000
_aux                      bssBANK0     0058
_delay                    text24       1542
_espacoLivre              text18       15DA
_init                     text22       14B5
_input                    dataBANK0    0062
_liga_buzzer              text3        16E2
_listaZonas               text13       03CB
_main                     maintext     166C
_msg                      dataBANK1    00A0
_msg2                     dataBANK0    0064
_painel                   dataBANK0    0060
_senhaUser                dataBANK0    0069
_senhaUserConfere         bssBANK0     0059
_strcat                   text11       1604
_strcmp                   text10       0003
_strcpy                   text9        1571
_strlen                   text17       1558
_teclado                  text2        0D03
_telaInicial              text12       002D
_userFalse                dataBANK0    005E
_validaUser               text1        0835
_valorSensor              bssBANK0     0054
btemp                     (abs)        007E
clear_ram0                clrtext      14AD
delay@i                   cstackCOMMON 0070
end_of_initialization     cinit        07FC
init_fetch0               inittext     152F
init_ram0                 inittext     1533
intlevel0                 functab      0000
intlevel1                 functab      0000
intlevel2                 functab      0000
intlevel3                 functab      0000
intlevel4                 functab      0000
intlevel5                 functab      0000
liga_buzzer@tempoSegundos cstackBANK0  0035
listaZonas@valorSensor    cstackCOMMON 0073
main@i                    cstackBANK0  0048
reset_vec                 reset_vec    0000
start                     init         0000
start_initialization      cinit        07D9
strcat@cp                 cstackCOMMON 0077
strcat@from               cstackCOMMON 0074
strcat@to                 cstackCOMMON 0076
strcmp@r                  cstackCOMMON 0075
strcmp@s1                 cstackCOMMON 0076
strcmp@s2                 cstackCOMMON 0070
strcpy@cp                 cstackCOMMON 0072
strcpy@from               cstackCOMMON 0070
strcpy@to                 cstackCOMMON 0073
strlen@cp                 cstackCOMMON 0073
strlen@s                  cstackCOMMON 0074
telaInicial@i             cstackCOMMON 0077
validaUser@i              cstackBANK0  0041
validaUser@n              cstackBANK0  0043
wtemp0                    (abs)        007E


MODULE INFORMATION

Module		Function		Class		Link	Load	Size
C:\Program Files\Microchip\xc8\v2.32\pic\sources\c90\common\sprcadd.c
		___flsub       		CODE           	158F	0000	36
		___fladd       		CODE           	0A6B	0000	664

C:\Program Files\Microchip\xc8\v2.32\pic\sources\c90\common\sprcadd.c estimated size: 700

C:\Program Files\Microchip\xc8\v2.32\pic\sources\c90\common\flge.c
		___flge        		CODE           	175E	0000	162

C:\Program Files\Microchip\xc8\v2.32\pic\sources\c90\common\flge.c estimated size: 162

C:\Program Files\Microchip\xc8\v2.32\pic\sources\c90\common\strcat.c
		_strcat        		CODE           	1604	0000	45

C:\Program Files\Microchip\xc8\v2.32\pic\sources\c90\common\strcat.c estimated size: 45

./lcd.h
		_init          		CODE           	14B5	0000	12
		_LCD_limpa     		CODE           	14EE	0000	16
		_delay         		CODE           	1542	0000	22
		_LCD_enable    		CODE           	14C1	0000	14
		_LCD_escreve   		CODE           	151E	0000	17
		_LCD_init      		CODE           	0802	0000	51
		_LCD_linha1    		CODE           	14FE	0000	16
		_LCD_linha2    		CODE           	14DE	0000	16

./lcd.h estimated size: 164

C:\Program Files\Microchip\xc8\v2.32\pic\sources\c90\common\Umul8_16.c
		__Umul8_16     		CODE           	15B3	0000	39

C:\Program Files\Microchip\xc8\v2.32\pic\sources\c90\common\Umul8_16.c estimated size: 39

C:\Program Files\Microchip\xc8\v2.32\pic\sources\c90\common\strlen.c
		_strlen        		CODE           	1558	0000	25

C:\Program Files\Microchip\xc8\v2.32\pic\sources\c90\common\strlen.c estimated size: 25

C:\Program Files\Microchip\xc8\v2.32\pic\sources\c90\common\strcmp.c
		_strcmp        		CODE           	0003	0000	42

C:\Program Files\Microchip\xc8\v2.32\pic\sources\c90\common\strcmp.c estimated size: 42

C:\Program Files\Microchip\xc8\v2.32\pic\sources\c90\common\strcpy.c
		_strcpy        		CODE           	1571	0000	30

C:\Program Files\Microchip\xc8\v2.32\pic\sources\c90\common\strcpy.c estimated size: 30

shared
		__stringtab    		STRING         	1000	0000	6
		__initialization		CODE           	07D9	0000	35

shared estimated size: 41

C:\Program Files\Microchip\xc8\v2.32\pic\sources\c90\common\sprcmul.c
		___flmul       		CODE           	006A	0000	865

C:\Program Files\Microchip\xc8\v2.32\pic\sources\c90\common\sprcmul.c estimated size: 865

main.c
		_telaInicial   		CODE           	002D	0000	61
		_validaUser    		CODE           	0835	0000	566
		_main          		CODE           	166C	0000	118
		_espacoLivre   		CODE           	15DA	0000	42
		_listaZonas    		CODE           	03CB	0000	1038
		_teclado       		CODE           	0D03	0000	765
		_Linha2        		CODE           	1631	0000	59
		_liga_buzzer   		CODE           	16E2	0000	124

main.c estimated size: 2773

