

Microchip MPLAB XC8 Assembler V2.32 build 20210201212658 
                                                                                               Sun Oct 03 11:43:17 2021

Microchip MPLAB XC8 C Compiler v2.32 (Free license) build 20210201212658 Og1 
     1                           	processor	16F877A
     2                           	pagewidth 120
     3                           	opt	flic
     4                           	psect	idataBANK0,global,class=CODE,delta=2,noexec
     5                           	psect	idataBANK1,global,class=CODE,delta=2,noexec
     6                           	psect	idataBANK2,global,class=CODE,delta=2,noexec
     7                           	psect	idataBANK3,global,class=CODE,delta=2,noexec
     8                           	psect	cinit,global,class=CODE,merge=1,delta=2
     9                           	psect	bssBANK0,global,class=BANK0,space=1,delta=1,noexec
    10                           	psect	dataBANK0,global,class=BANK0,space=1,delta=1,noexec
    11                           	psect	dataBANK1,global,class=BANK1,space=1,delta=1,noexec
    12                           	psect	dataBANK3,global,class=BANK3,space=1,delta=1,noexec
    13                           	psect	dataBANK2,global,class=BANK2,space=1,delta=1,noexec
    14                           	psect	inittext,global,class=CODE,delta=2
    15                           	psect	cstackCOMMON,global,class=COMMON,space=1,delta=1,noexec
    16                           	psect	cstackBANK0,global,class=BANK0,space=1,delta=1,noexec
    17                           	psect	maintext,global,class=CODE,split=1,delta=2
    18                           	psect	text1,local,class=CODE,merge=1,delta=2
    19                           	psect	text2,local,class=CODE,merge=1,delta=2
    20                           	psect	text3,local,class=CODE,merge=1,delta=2
    21                           	psect	text4,local,class=CODE,merge=1,delta=2,group=1
    22                           	psect	text5,local,class=CODE,merge=1,delta=2,group=1
    23                           	psect	text6,local,class=CODE,merge=1,delta=2,group=1
    24                           	psect	text7,local,class=CODE,merge=1,delta=2,group=1
    25                           	psect	text8,local,class=CODE,merge=1,delta=2,group=1
    26                           	psect	text9,local,class=CODE,merge=1,delta=2,group=2
    27                           	psect	text10,local,class=CODE,merge=1,delta=2
    28                           	psect	text11,local,class=CODE,merge=1,delta=2
    29                           	psect	text12,local,class=CODE,merge=1,delta=2
    30                           	psect	text13,local,class=CODE,merge=1,delta=2
    31                           	psect	text14,local,class=CODE,merge=1,delta=2
    32                           	psect	text15,local,class=CODE,merge=1,delta=2
    33                           	psect	text16,local,class=CODE,merge=1,delta=2,group=2
    34                           	psect	text17,local,class=CODE,merge=1,delta=2
    35                           	psect	text18,local,class=CODE,merge=1,delta=2
    36                           	psect	text19,local,class=CODE,merge=1,delta=2
    37                           	psect	text20,local,class=CODE,merge=1,delta=2
    38                           	psect	text21,local,class=CODE,merge=1,delta=2
    39                           	psect	text22,local,class=CODE,merge=1,delta=2
    40                           	psect	text23,local,class=CODE,merge=1,delta=2
    41                           	dabs	1,0x7E,2
    42  0000                     
    43                           ; Version 2.20
    44                           ; Generated 12/02/2020 GMT
    45                           ; 
    46                           ; Copyright © 2020, Microchip Technology Inc. and its subsidiaries ("Microchip")
    47                           ; All rights reserved.
    48                           ; 
    49                           ; This software is developed by Microchip Technology Inc. and its subsidiaries ("Microch
      +                          ip").
    50                           ; 
    51                           ; Redistribution and use in source and binary forms, with or without modification, are
    52                           ; permitted provided that the following conditions are met:
    53                           ; 
    54                           ;     1. Redistributions of source code must retain the above copyright notice, this lis
      +                          t of
    55                           ;        conditions and the following disclaimer.
    56                           ; 
    57                           ;     2. Redistributions in binary form must reproduce the above copyright notice, this 
      +                          list
    58                           ;        of conditions and the following disclaimer in the documentation and/or other
    59                           ;        materials provided with the distribution.
    60                           ; 
    61                           ;     3. Microchip's name may not be used to endorse or promote products derived from th
      +                          is
    62                           ;        software without specific prior written permission.
    63                           ; 
    64                           ; THIS SOFTWARE IS PROVIDED BY MICROCHIP "AS IS" AND ANY EXPRESS OR IMPLIED WARRANTIES,
    65                           ; INCLUDING, BUT NOT LIMITED TO, THE IMPLIED WARRANTIES OF MERCHANTABILITY AND FITNESS F
      +                          OR
    66                           ; PURPOSE ARE DISCLAIMED.  IN NO EVENT SHALL MICROCHIP BE LIABLE FOR ANY DIRECT, INDIREC
      +                          T,
    67                           ; INCIDENTAL, SPECIAL, EXEMPLARY, OR CONSEQUENTIAL DAMAGES (INCLUDING BUT NOT LIMITED TO
    68                           ; PROCUREMENT OF SUBSTITUTE GOODS OR SERVICES; LOSS OF USE, DATA OR PROFITS; OR BUSINESS
    69                           ; INTERRUPTION) HOWSOEVER CAUSED AND ON ANY THEORY OF LIABILITY, WHETHER IN CONTRACT, ST
      +                          RICT
    70                           ; LIABILITY, OR TORT (INCLUDING NEGLIGENCE OR OTHERWISE) ARISING IN ANY WAY OUT OF THE U
      +                          SE OF
    71                           ; THIS SOFTWARE, EVEN IF ADVISED OF THE POSSIBILITY OF SUCH DAMAGE.
    72                           ; 
    73                           ; 
    74                           ; Code-generator required, PIC16F877A Definitions
    75                           ; 
    76                           ; SFR Addresses
    77  0000                     	;# 
    78  0001                     	;# 
    79  0002                     	;# 
    80  0003                     	;# 
    81  0004                     	;# 
    82  0005                     	;# 
    83  0006                     	;# 
    84  0007                     	;# 
    85  0008                     	;# 
    86  0009                     	;# 
    87  000A                     	;# 
    88  000B                     	;# 
    89  000C                     	;# 
    90  000D                     	;# 
    91  000E                     	;# 
    92  000E                     	;# 
    93  000F                     	;# 
    94  0010                     	;# 
    95  0011                     	;# 
    96  0012                     	;# 
    97  0013                     	;# 
    98  0014                     	;# 
    99  0015                     	;# 
   100  0015                     	;# 
   101  0016                     	;# 
   102  0017                     	;# 
   103  0018                     	;# 
   104  0019                     	;# 
   105  001A                     	;# 
   106  001B                     	;# 
   107  001B                     	;# 
   108  001C                     	;# 
   109  001D                     	;# 
   110  001E                     	;# 
   111  001F                     	;# 
   112  0081                     	;# 
   113  0085                     	;# 
   114  0086                     	;# 
   115  0087                     	;# 
   116  0088                     	;# 
   117  0089                     	;# 
   118  008C                     	;# 
   119  008D                     	;# 
   120  008E                     	;# 
   121  0091                     	;# 
   122  0092                     	;# 
   123  0093                     	;# 
   124  0094                     	;# 
   125  0098                     	;# 
   126  0099                     	;# 
   127  009C                     	;# 
   128  009D                     	;# 
   129  009E                     	;# 
   130  009F                     	;# 
   131  010C                     	;# 
   132  010D                     	;# 
   133  010E                     	;# 
   134  010F                     	;# 
   135  018C                     	;# 
   136  018D                     	;# 
   137  0000                     	;# 
   138  0001                     	;# 
   139  0002                     	;# 
   140  0003                     	;# 
   141  0004                     	;# 
   142  0005                     	;# 
   143  0006                     	;# 
   144  0007                     	;# 
   145  0008                     	;# 
   146  0009                     	;# 
   147  000A                     	;# 
   148  000B                     	;# 
   149  000C                     	;# 
   150  000D                     	;# 
   151  000E                     	;# 
   152  000E                     	;# 
   153  000F                     	;# 
   154  0010                     	;# 
   155  0011                     	;# 
   156  0012                     	;# 
   157  0013                     	;# 
   158  0014                     	;# 
   159  0015                     	;# 
   160  0015                     	;# 
   161  0016                     	;# 
   162  0017                     	;# 
   163  0018                     	;# 
   164  0019                     	;# 
   165  001A                     	;# 
   166  001B                     	;# 
   167  001B                     	;# 
   168  001C                     	;# 
   169  001D                     	;# 
   170  001E                     	;# 
   171  001F                     	;# 
   172  0081                     	;# 
   173  0085                     	;# 
   174  0086                     	;# 
   175  0087                     	;# 
   176  0088                     	;# 
   177  0089                     	;# 
   178  008C                     	;# 
   179  008D                     	;# 
   180  008E                     	;# 
   181  0091                     	;# 
   182  0092                     	;# 
   183  0093                     	;# 
   184  0094                     	;# 
   185  0098                     	;# 
   186  0099                     	;# 
   187  009C                     	;# 
   188  009D                     	;# 
   189  009E                     	;# 
   190  009F                     	;# 
   191  010C                     	;# 
   192  010D                     	;# 
   193  010E                     	;# 
   194  010F                     	;# 
   195  018C                     	;# 
   196  018D                     	;# 
   197                           
   198                           	psect	idataBANK0
   199  08F4                     __pidataBANK0:
   200                           
   201                           ;initializer for _senhaConfig
   202  08F4  3430               	retlw	48
   203  08F5  3430               	retlw	48
   204  08F6  3430               	retlw	48
   205  08F7  3430               	retlw	48
   206  08F8  3400               	retlw	0
   207                           
   208                           ;initializer for _senhaCoa
   209  08F9  3435               	retlw	53
   210  08FA  3435               	retlw	53
   211  08FB  3435               	retlw	53
   212  08FC  3435               	retlw	53
   213  08FD  3400               	retlw	0
   214                           
   215                           ;initializer for _userFalse
   216  08FE  3401               	retlw	1
   217  08FF  3400               	retlw	0
   218                           
   219                           ;initializer for _painel
   220  0900  3401               	retlw	1
   221  0901  3400               	retlw	0
   222                           
   223                           ;initializer for _input
   224  0902  340A               	retlw	10
   225  0903  3400               	retlw	0
   226                           
   227                           ;initializer for _msgMascara
   228  0904  345F               	retlw	95
   229  0905  345F               	retlw	95
   230  0906  345F               	retlw	95
   231  0907  345F               	retlw	95
   232  0908  3400               	retlw	0
   233                           
   234                           ;initializer for _senhaUserConfere
   235  0909  3430               	retlw	48
   236  090A  3430               	retlw	48
   237  090B  3430               	retlw	48
   238  090C  3430               	retlw	48
   239  090D  3400               	retlw	0
   240                           
   241                           ;initializer for _senhaUser
   242  090E  3431               	retlw	49
   243  090F  3432               	retlw	50
   244  0910  3431               	retlw	49
   245  0911  3432               	retlw	50
   246  0912  3400               	retlw	0
   247                           
   248                           	psect	idataBANK1
   249  0AB9                     __pidataBANK1:
   250                           
   251                           ;initializer for _msgDigiteSenha
   252  0AB9  3444               	retlw	68
   253  0ABA  3469               	retlw	105
   254  0ABB  3467               	retlw	103
   255  0ABC  3469               	retlw	105
   256  0ABD  3474               	retlw	116
   257  0ABE  3465               	retlw	101
   258  0ABF  3420               	retlw	32
   259  0AC0  3461               	retlw	97
   260  0AC1  3420               	retlw	32
   261  0AC2  3473               	retlw	115
   262  0AC3  3465               	retlw	101
   263  0AC4  346E               	retlw	110
   264  0AC5  3468               	retlw	104
   265  0AC6  3461               	retlw	97
   266  0AC7  3400               	retlw	0
   267                           
   268                           ;initializer for _msgSenhaCoacao
   269  0AC8  3453               	retlw	83
   270  0AC9  3465               	retlw	101
   271  0ACA  346E               	retlw	110
   272  0ACB  3468               	retlw	104
   273  0ACC  3461               	retlw	97
   274  0ACD  3420               	retlw	32
   275  0ACE  3443               	retlw	67
   276  0ACF  346F               	retlw	111
   277  0AD0  3461               	retlw	97
   278  0AD1  3463               	retlw	99
   279  0AD2  3461               	retlw	97
   280  0AD3  346F               	retlw	111
   281  0AD4  3400               	retlw	0
   282                           
   283                           ;initializer for _msgSenhaConfig
   284  0AD5  3453               	retlw	83
   285  0AD6  3465               	retlw	101
   286  0AD7  346E               	retlw	110
   287  0AD8  3468               	retlw	104
   288  0AD9  3461               	retlw	97
   289  0ADA  3420               	retlw	32
   290  0ADB  3443               	retlw	67
   291  0ADC  346F               	retlw	111
   292  0ADD  346E               	retlw	110
   293  0ADE  3466               	retlw	102
   294  0ADF  3469               	retlw	105
   295  0AE0  3467               	retlw	103
   296  0AE1  3400               	retlw	0
   297                           
   298                           ;initializer for _msgSenhaErrada
   299  0AE2  3453               	retlw	83
   300  0AE3  3465               	retlw	101
   301  0AE4  346E               	retlw	110
   302  0AE5  3468               	retlw	104
   303  0AE6  3461               	retlw	97
   304  0AE7  3420               	retlw	32
   305  0AE8  3465               	retlw	101
   306  0AE9  3472               	retlw	114
   307  0AEA  3472               	retlw	114
   308  0AEB  3461               	retlw	97
   309  0AEC  3464               	retlw	100
   310  0AED  3461               	retlw	97
   311  0AEE  3400               	retlw	0
   312                           
   313                           ;initializer for _msgReativarActive
   314  0AEF  343E               	retlw	62
   315  0AF0  3452               	retlw	82
   316  0AF1  3465               	retlw	101
   317  0AF2  3461               	retlw	97
   318  0AF3  3474               	retlw	116
   319  0AF4  3469               	retlw	105
   320  0AF5  3476               	retlw	118
   321  0AF6  3461               	retlw	97
   322  0AF7  3472               	retlw	114
   323  0AF8  3400               	retlw	0
   324                           
   325                           ;initializer for _msgReativar
   326  0AF9  3452               	retlw	82
   327  0AFA  3465               	retlw	101
   328  0AFB  3461               	retlw	97
   329  0AFC  3474               	retlw	116
   330  0AFD  3469               	retlw	105
   331  0AFE  3476               	retlw	118
   332  0AFF  3461               	retlw	97
   333  0B00  3472               	retlw	114
   334  0B01  3400               	retlw	0
   335                           
   336                           	psect	idataBANK2
   337  09A9                     __pidataBANK2:
   338                           
   339                           ;initializer for _msgDesativarZonaActive
   340  09A9  343E               	retlw	62
   341  09AA  3444               	retlw	68
   342  09AB  3465               	retlw	101
   343  09AC  3473               	retlw	115
   344  09AD  3461               	retlw	97
   345  09AE  3474               	retlw	116
   346  09AF  3469               	retlw	105
   347  09B0  3476               	retlw	118
   348  09B1  3461               	retlw	97
   349  09B2  3472               	retlw	114
   350  09B3  3420               	retlw	32
   351  09B4  345A               	retlw	90
   352  09B5  346F               	retlw	111
   353  09B6  346E               	retlw	110
   354  09B7  3461               	retlw	97
   355  09B8  3400               	retlw	0
   356                           
   357                           ;initializer for _msgDesativarZona
   358  09B9  3444               	retlw	68
   359  09BA  3465               	retlw	101
   360  09BB  3473               	retlw	115
   361  09BC  3461               	retlw	97
   362  09BD  3474               	retlw	116
   363  09BE  3469               	retlw	105
   364  09BF  3476               	retlw	118
   365  09C0  3461               	retlw	97
   366  09C1  3472               	retlw	114
   367  09C2  3420               	retlw	32
   368  09C3  345A               	retlw	90
   369  09C4  346F               	retlw	111
   370  09C5  346E               	retlw	110
   371  09C6  3461               	retlw	97
   372  09C7  3400               	retlw	0
   373                           
   374                           ;initializer for _msgSenhaDisparoActive
   375  09C8  343E               	retlw	62
   376  09C9  3453               	retlw	83
   377  09CA  3465               	retlw	101
   378  09CB  346E               	retlw	110
   379  09CC  3468               	retlw	104
   380  09CD  3461               	retlw	97
   381  09CE  3420               	retlw	32
   382  09CF  3444               	retlw	68
   383  09D0  3469               	retlw	105
   384  09D1  3473               	retlw	115
   385  09D2  3470               	retlw	112
   386  09D3  3461               	retlw	97
   387  09D4  3472               	retlw	114
   388  09D5  346F               	retlw	111
   389  09D6  3400               	retlw	0
   390                           
   391                           	psect	idataBANK3
   392  001A                     __pidataBANK3:
   393                           
   394                           ;initializer for _msgSenhaUsuarioActive
   395  001A  343E               	retlw	62
   396  001B  3453               	retlw	83
   397  001C  3465               	retlw	101
   398  001D  346E               	retlw	110
   399  001E  3468               	retlw	104
   400  001F  3461               	retlw	97
   401  0020  3420               	retlw	32
   402  0021  3455               	retlw	85
   403  0022  3473               	retlw	115
   404  0023  3475               	retlw	117
   405  0024  3461               	retlw	97
   406  0025  3472               	retlw	114
   407  0026  3469               	retlw	105
   408  0027  346F               	retlw	111
   409  0028  3400               	retlw	0
   410                           
   411                           ;initializer for _msgSenhaDisparo
   412  0029  3453               	retlw	83
   413  002A  3465               	retlw	101
   414  002B  346E               	retlw	110
   415  002C  3468               	retlw	104
   416  002D  3461               	retlw	97
   417  002E  3420               	retlw	32
   418  002F  3444               	retlw	68
   419  0030  3469               	retlw	105
   420  0031  3473               	retlw	115
   421  0032  3470               	retlw	112
   422  0033  3461               	retlw	97
   423  0034  3472               	retlw	114
   424  0035  346F               	retlw	111
   425  0036  3400               	retlw	0
   426                           
   427                           ;initializer for _msgSenhaCoacaoActive
   428  0037  343E               	retlw	62
   429  0038  3453               	retlw	83
   430  0039  3465               	retlw	101
   431  003A  346E               	retlw	110
   432  003B  3468               	retlw	104
   433  003C  3461               	retlw	97
   434  003D  3420               	retlw	32
   435  003E  3443               	retlw	67
   436  003F  346F               	retlw	111
   437  0040  3461               	retlw	97
   438  0041  3463               	retlw	99
   439  0042  3461               	retlw	97
   440  0043  346F               	retlw	111
   441  0044  3400               	retlw	0
   442                           
   443                           ;initializer for _msgSenhaUsuario
   444  0045  3453               	retlw	83
   445  0046  3465               	retlw	101
   446  0047  346E               	retlw	110
   447  0048  3468               	retlw	104
   448  0049  3461               	retlw	97
   449  004A  3420               	retlw	32
   450  004B  3455               	retlw	85
   451  004C  3473               	retlw	115
   452  004D  3475               	retlw	117
   453  004E  3461               	retlw	97
   454  004F  3472               	retlw	114
   455  0050  3469               	retlw	105
   456  0051  346F               	retlw	111
   457  0052  3400               	retlw	0
   458                           
   459                           ;initializer for _msgSenhaConfigActive
   460  0053  343E               	retlw	62
   461  0054  3453               	retlw	83
   462  0055  3465               	retlw	101
   463  0056  346E               	retlw	110
   464  0057  3468               	retlw	104
   465  0058  3461               	retlw	97
   466  0059  3420               	retlw	32
   467  005A  3443               	retlw	67
   468  005B  346F               	retlw	111
   469  005C  346E               	retlw	110
   470  005D  3466               	retlw	102
   471  005E  3469               	retlw	105
   472  005F  3467               	retlw	103
   473  0060  3400               	retlw	0
   474                           
   475                           ;initializer for _msgSenhaCorreta
   476  0061  3453               	retlw	83
   477  0062  3465               	retlw	101
   478  0063  346E               	retlw	110
   479  0064  3468               	retlw	104
   480  0065  3461               	retlw	97
   481  0066  3420               	retlw	32
   482  0067  3463               	retlw	99
   483  0068  346F               	retlw	111
   484  0069  3472               	retlw	114
   485  006A  3472               	retlw	114
   486  006B  3465               	retlw	101
   487  006C  3474               	retlw	116
   488  006D  3461               	retlw	97
   489  006E  3400               	retlw	0
   490  0006                     _PORTB	set	6
   491  0009                     _PORTE	set	9
   492  0008                     _PORTD	set	8
   493  0033                     _RB3	set	51
   494  0032                     _RB2	set	50
   495  0031                     _RB1	set	49
   496  0030                     _RB0	set	48
   497  002B                     _RA3	set	43
   498  002C                     _RA4	set	44
   499  002D                     _RA5	set	45
   500  0029                     _RA1	set	41
   501  0086                     _TRISB	set	134
   502  0089                     _TRISE	set	137
   503  0088                     _TRISD	set	136
   504  0085                     _TRISA	set	133
   505  009F                     _ADCON1	set	159
   506                           
   507                           	psect	cinit
   508  07C0                     start_initialization:	
   509                           ; #config settings
   510                           
   511  07C0                     __initialization:
   512                           
   513                           ; Initialize objects allocated to BANK3
   514  07C0  1783               	bsf	3,7	;select IRP bank2
   515  07C1  30E5               	movlw	low (__pdataBANK3+85)
   516  07C2  00FD               	movwf	btemp+-1
   517  07C3  3000               	movlw	high __pidataBANK3
   518  07C4  00FE               	movwf	btemp
   519  07C5  301A               	movlw	low __pidataBANK3
   520  07C6  00FF               	movwf	btemp+1
   521  07C7  3090               	movlw	low __pdataBANK3
   522  07C8  0084               	movwf	4
   523  07C9  120A  158A  20CC  120A  118A  	fcall	init_ram0
   524                           
   525                           ; Initialize objects allocated to BANK2
   526  07CE  303E               	movlw	low (__pdataBANK2+46)
   527  07CF  00FD               	movwf	btemp+-1
   528  07D0  3009               	movlw	high __pidataBANK2
   529  07D1  00FE               	movwf	btemp
   530  07D2  30A9               	movlw	low __pidataBANK2
   531  07D3  00FF               	movwf	btemp+1
   532  07D4  3010               	movlw	low __pdataBANK2
   533  07D5  0084               	movwf	4
   534  07D6  120A  158A  20CC  120A  118A  	fcall	init_ram0
   535                           
   536                           ; Initialize objects allocated to BANK1
   537  07DB  1383               	bcf	3,7	;select IRP bank0
   538  07DC  30E9               	movlw	low (__pdataBANK1+73)
   539  07DD  00FD               	movwf	btemp+-1
   540  07DE  300A               	movlw	high __pidataBANK1
   541  07DF  00FE               	movwf	btemp
   542  07E0  30B9               	movlw	low __pidataBANK1
   543  07E1  00FF               	movwf	btemp+1
   544  07E2  30A0               	movlw	low __pdataBANK1
   545  07E3  0084               	movwf	4
   546  07E4  120A  158A  20CC  120A  118A  	fcall	init_ram0
   547                           
   548                           ; Initialize objects allocated to BANK0
   549  07E9  3065               	movlw	low (__pdataBANK0+31)
   550  07EA  00FD               	movwf	btemp+-1
   551  07EB  3008               	movlw	high __pidataBANK0
   552  07EC  00FE               	movwf	btemp
   553  07ED  30F4               	movlw	low __pidataBANK0
   554  07EE  00FF               	movwf	btemp+1
   555  07EF  3046               	movlw	low __pdataBANK0
   556  07F0  0084               	movwf	4
   557  07F1  120A  158A  20CC  120A  118A  	fcall	init_ram0
   558                           
   559                           ; Clear objects allocated to BANK0
   560  07F6  01E5               	clrf	__pbssBANK0& (0+127)
   561  07F7  01E6               	clrf	(__pbssBANK0+1)& (0+127)
   562  07F8  01E7               	clrf	(__pbssBANK0+2)& (0+127)
   563  07F9  01E8               	clrf	(__pbssBANK0+3)& (0+127)
   564  07FA  01E9               	clrf	(__pbssBANK0+4)& (0+127)
   565  07FB  01EA               	clrf	(__pbssBANK0+5)& (0+127)
   566  07FC                     end_of_initialization:	
   567                           ;End of C runtime variable initialization code
   568                           
   569  07FC                     __end_of__initialization:
   570  07FC  0183               	clrf	3
   571  07FD  120A  158A  2B02   	ljmp	_main	;jump to C main() function
   572                           
   573                           	psect	bssBANK0
   574  0065                     __pbssBANK0:
   575  0065                     _valorSensor:
   576  0065                     	ds	2
   577  0067                     _config:
   578  0067                     	ds	2
   579  0069                     _aux:
   580  0069                     	ds	2
   581                           
   582                           	psect	dataBANK0
   583  0046                     __pdataBANK0:
   584  0046                     _senhaConfig:
   585  0046                     	ds	5
   586  004B                     _senhaCoa:
   587  004B                     	ds	5
   588  0050                     _userFalse:
   589  0050                     	ds	2
   590  0052                     _painel:
   591  0052                     	ds	2
   592  0054                     _input:
   593  0054                     	ds	2
   594  0056                     _msgMascara:
   595  0056                     	ds	5
   596  005B                     _senhaUserConfere:
   597  005B                     	ds	5
   598  0060                     _senhaUser:
   599  0060                     	ds	5
   600                           
   601                           	psect	dataBANK1
   602  00A0                     __pdataBANK1:
   603  00A0                     _msgDigiteSenha:
   604  00A0                     	ds	15
   605  00AF                     _msgSenhaCoacao:
   606  00AF                     	ds	13
   607  00BC                     _msgSenhaConfig:
   608  00BC                     	ds	13
   609  00C9                     _msgSenhaErrada:
   610  00C9                     	ds	13
   611  00D6                     _msgReativarActive:
   612  00D6                     	ds	10
   613  00E0                     _msgReativar:
   614  00E0                     	ds	9
   615                           
   616                           	psect	dataBANK3
   617  0190                     __pdataBANK3:
   618  0190                     _msgSenhaUsuarioActive:
   619  0190                     	ds	15
   620  019F                     _msgSenhaDisparo:
   621  019F                     	ds	14
   622  01AD                     _msgSenhaCoacaoActive:
   623  01AD                     	ds	14
   624  01BB                     _msgSenhaUsuario:
   625  01BB                     	ds	14
   626  01C9                     _msgSenhaConfigActive:
   627  01C9                     	ds	14
   628  01D7                     _msgSenhaCorreta:
   629  01D7                     	ds	14
   630                           
   631                           	psect	dataBANK2
   632  0110                     __pdataBANK2:
   633  0110                     _msgDesativarZonaActive:
   634  0110                     	ds	16
   635  0120                     _msgDesativarZona:
   636  0120                     	ds	15
   637  012F                     _msgSenhaDisparoActive:
   638  012F                     	ds	15
   639                           
   640                           	psect	inittext
   641  08C8                     init_fetch0:	
   642                           ;	Called with low address in FSR and high address in W
   643                           
   644  08C8  087E               	movf	btemp,w
   645  08C9  008A               	movwf	10
   646  08CA  087F               	movf	btemp+1,w
   647  08CB  0082               	movwf	2
   648  08CC                     init_ram0:	
   649                           ;Called with:
   650                           ;	high address of idata address in btemp 
   651                           ;	low address of idata address in btemp+1 
   652                           ;	low address of data in FSR
   653                           ;	high address + 1 of data in btemp-1
   654                           
   655  08CC  120A  158A  20C8  120A  158A  	fcall	init_fetch0
   656  08D1  0080               	movwf	0
   657  08D2  0A84               	incf	4,f
   658  08D3  0804               	movf	4,w
   659  08D4  067D               	xorwf	btemp+-1,w
   660  08D5  1903               	btfsc	3,2
   661  08D6  3400               	retlw	0
   662  08D7  0AFF               	incf	btemp+1,f
   663  08D8  1903               	btfsc	3,2
   664  08D9  0AFE               	incf	btemp,f
   665  08DA  28CC               	goto	init_ram0
   666                           
   667                           	psect	cstackCOMMON
   668  0070                     __pcstackCOMMON:
   669  0070                     ?___flge:
   670  0070                     ?_LCD_enable:	
   671                           ; 1 bit 
   672                           
   673  0070                     ?_delay:	
   674                           ; 1 bytes @ 0x0
   675                           
   676  0070                     ??_delay:	
   677                           ; 1 bytes @ 0x0
   678                           
   679  0070                     ?_telaInicial:	
   680                           ; 1 bytes @ 0x0
   681                           
   682  0070                     ?_Linha2:	
   683                           ; 1 bytes @ 0x0
   684                           
   685  0070                     ?_validaUser:	
   686                           ; 1 bytes @ 0x0
   687                           
   688  0070                     ?_teclado:	
   689                           ; 1 bytes @ 0x0
   690                           
   691  0070                     ?_espacoLivre:	
   692                           ; 1 bytes @ 0x0
   693                           
   694  0070                     ?_init:	
   695                           ; 1 bytes @ 0x0
   696                           
   697  0070                     ??_init:	
   698                           ; 1 bytes @ 0x0
   699                           
   700  0070                     ?_LCD_init:	
   701                           ; 1 bytes @ 0x0
   702                           
   703  0070                     ?_LCD_escreve:	
   704                           ; 1 bytes @ 0x0
   705                           
   706  0070                     ?_LCD_limpa:	
   707                           ; 1 bytes @ 0x0
   708                           
   709  0070                     ?_LCD_linha1:	
   710                           ; 1 bytes @ 0x0
   711                           
   712  0070                     ?_LCD_linha2:	
   713                           ; 1 bytes @ 0x0
   714                           
   715  0070                     ?_main:	
   716                           ; 1 bytes @ 0x0
   717                           
   718  0070                     ?_strlen:	
   719                           ; 1 bytes @ 0x0
   720                           
   721  0070                     ?_strcmp:	
   722                           ; 2 bytes @ 0x0
   723                           
   724  0070                     ?__Umul8_16:	
   725                           ; 2 bytes @ 0x0
   726                           
   727  0070                     ?___fladd:	
   728                           ; 2 bytes @ 0x0
   729                           
   730  0070                     __Umul8_16@multiplicand:	
   731                           ; 4 bytes @ 0x0
   732                           
   733  0070                     strcmp@s2:	
   734                           ; 1 bytes @ 0x0
   735                           
   736  0070                     delay@i:	
   737                           ; 1 bytes @ 0x0
   738                           
   739  0070                     ___flge@ff1:	
   740                           ; 2 bytes @ 0x0
   741                           
   742  0070                     ___fladd@b:	
   743                           ; 4 bytes @ 0x0
   744                           
   745                           
   746                           ; 4 bytes @ 0x0
   747  0070                     	ds	2
   748  0072                     ??_LCD_enable:
   749  0072                     ??_strlen:	
   750                           ; 1 bytes @ 0x2
   751                           
   752  0072                     ??_strcmp:	
   753                           ; 1 bytes @ 0x2
   754                           
   755  0072                     ??__Umul8_16:	
   756                           ; 1 bytes @ 0x2
   757                           
   758  0072                     ??_LCD_init:	
   759                           ; 1 bytes @ 0x2
   760                           
   761  0072                     ??_LCD_escreve:	
   762                           ; 1 bytes @ 0x2
   763                           
   764  0072                     ??_LCD_limpa:	
   765                           ; 1 bytes @ 0x2
   766                           
   767  0072                     ??_LCD_linha1:	
   768                           ; 1 bytes @ 0x2
   769                           
   770  0072                     ??_LCD_linha2:	
   771                           ; 1 bytes @ 0x2
   772                           
   773  0072                     LCD_escreve@x:	
   774                           ; 1 bytes @ 0x2
   775                           
   776                           
   777                           ; 1 bytes @ 0x2
   778  0072                     	ds	1
   779  0073                     ??_espacoLivre:
   780  0073                     ?_escreveMesagem:	
   781                           ; 1 bytes @ 0x3
   782                           
   783  0073                     strlen@cp:	
   784                           ; 1 bytes @ 0x3
   785                           
   786  0073                     espacoLivre@i:	
   787                           ; 1 bytes @ 0x3
   788                           
   789  0073                     escreveMesagem@texto:	
   790                           ; 2 bytes @ 0x3
   791                           
   792                           
   793                           ; 2 bytes @ 0x3
   794  0073                     	ds	1
   795  0074                     strlen@s:
   796  0074                     __Umul8_16@product:	
   797                           ; 1 bytes @ 0x4
   798                           
   799  0074                     ___flge@ff2:	
   800                           ; 2 bytes @ 0x4
   801                           
   802  0074                     ___fladd@a:	
   803                           ; 4 bytes @ 0x4
   804                           
   805                           
   806                           ; 4 bytes @ 0x4
   807  0074                     	ds	1
   808  0075                     ??_telaInicial:
   809  0075                     ??_Linha2:	
   810                           ; 1 bytes @ 0x5
   811                           
   812  0075                     ??_escreveMesagem:	
   813                           ; 1 bytes @ 0x5
   814                           
   815  0075                     strcmp@r:	
   816                           ; 1 bytes @ 0x5
   817                           
   818                           
   819                           ; 1 bytes @ 0x5
   820  0075                     	ds	1
   821  0076                     strcmp@s1:
   822  0076                     __Umul8_16@word_mpld:	
   823                           ; 1 bytes @ 0x6
   824                           
   825                           
   826                           ; 2 bytes @ 0x6
   827  0076                     	ds	1
   828  0077                     telaInicial@i:
   829  0077                     Linha2@i:	
   830                           ; 2 bytes @ 0x7
   831                           
   832                           
   833                           ; 2 bytes @ 0x7
   834  0077                     	ds	1
   835  0078                     ??___flge:
   836  0078                     ___fladd@signs:	
   837                           ; 1 bytes @ 0x8
   838                           
   839  0078                     __Umul8_16@multiplier:	
   840                           ; 1 bytes @ 0x8
   841                           
   842  0078                     escreveMesagem@i:	
   843                           ; 1 bytes @ 0x8
   844                           
   845                           
   846                           ; 2 bytes @ 0x8
   847  0078                     	ds	1
   848  0079                     ??___flmul:
   849  0079                     ___fladd@aexp:	
   850                           ; 1 bytes @ 0x9
   851                           
   852                           
   853                           ; 1 bytes @ 0x9
   854  0079                     	ds	1
   855  007A                     ?_listaZonas:
   856  007A                     ___fladd@bexp:	
   857                           ; 1 bytes @ 0xA
   858                           
   859  007A                     listaZonas@valorSensor:	
   860                           ; 1 bytes @ 0xA
   861                           
   862                           
   863                           ; 2 bytes @ 0xA
   864  007A                     	ds	1
   865  007B                     ___fladd@grs:
   866                           
   867                           ; 1 bytes @ 0xB
   868  007B                     	ds	1
   869  007C                     ??_listaZonas:
   870  007C                     ??___flsub:	
   871                           ; 1 bytes @ 0xC
   872                           
   873                           
   874                           ; 1 bytes @ 0xC
   875  007C                     	ds	2
   876                           
   877                           	psect	cstackBANK0
   878  0020                     __pcstackBANK0:
   879  0020                     ??___fladd:
   880  0020                     ?___flmul:	
   881                           ; 1 bytes @ 0x0
   882                           
   883  0020                     ___flmul@b:	
   884                           ; 4 bytes @ 0x0
   885                           
   886                           
   887                           ; 4 bytes @ 0x0
   888  0020                     	ds	4
   889  0024                     ___flmul@a:
   890                           
   891                           ; 4 bytes @ 0x4
   892  0024                     	ds	4
   893  0028                     ?___flsub:
   894  0028                     ___flmul@sign:	
   895                           ; 4 bytes @ 0x8
   896                           
   897  0028                     ___flsub@a:	
   898                           ; 1 bytes @ 0x8
   899                           
   900                           
   901                           ; 4 bytes @ 0x8
   902  0028                     	ds	1
   903  0029                     ___flmul@grs:
   904                           
   905                           ; 4 bytes @ 0x9
   906  0029                     	ds	3
   907  002C                     ___flsub@b:
   908                           
   909                           ; 4 bytes @ 0xC
   910  002C                     	ds	1
   911  002D                     ___flmul@aexp:
   912                           
   913                           ; 1 bytes @ 0xD
   914  002D                     	ds	1
   915  002E                     ___flmul@bexp:
   916                           
   917                           ; 1 bytes @ 0xE
   918  002E                     	ds	1
   919  002F                     ___flmul@prod:
   920                           
   921                           ; 4 bytes @ 0xF
   922  002F                     	ds	4
   923  0033                     ___flmul@temp:
   924                           
   925                           ; 2 bytes @ 0x13
   926  0033                     	ds	2
   927  0035                     ?_liga_buzzer:
   928  0035                     liga_buzzer@tempoSegundos:	
   929                           ; 1 bytes @ 0x15
   930                           
   931                           
   932                           ; 4 bytes @ 0x15
   933  0035                     	ds	4
   934  0039                     ??_liga_buzzer:
   935                           
   936                           ; 1 bytes @ 0x19
   937  0039                     	ds	2
   938  003B                     ??_teclado:
   939                           
   940                           ; 1 bytes @ 0x1B
   941  003B                     	ds	3
   942  003E                     ??_validaUser:
   943                           
   944                           ; 1 bytes @ 0x1E
   945  003E                     	ds	1
   946  003F                     validaUser@n:
   947                           
   948                           ; 2 bytes @ 0x1F
   949  003F                     	ds	2
   950  0041                     ??_main:
   951                           
   952                           ; 1 bytes @ 0x21
   953  0041                     	ds	3
   954  0044                     main@i:
   955                           
   956                           ; 2 bytes @ 0x24
   957  0044                     	ds	2
   958                           
   959                           	psect	maintext
   960  0B02                     __pmaintext:	
   961 ;;
   962 ;;Main: autosize = 0, tempsize = 3, incstack = 0, save=0
   963 ;;
   964 ;; *************** function _main *****************
   965 ;; Defined at:
   966 ;;		line 55 in file "main.c"
   967 ;; Parameters:    Size  Location     Type
   968 ;;		None
   969 ;; Auto vars:     Size  Location     Type
   970 ;;  i               2   36[BANK0 ] int 
   971 ;; Return value:  Size  Location     Type
   972 ;;                  1    wreg      void 
   973 ;; Registers used:
   974 ;;		wreg, fsr0l, fsr0h, status,2, status,0, btemp+1, pclath, cstack
   975 ;; Tracked objects:
   976 ;;		On entry : B00/0
   977 ;;		On exit  : 0/0
   978 ;;		Unchanged: 0/0
   979 ;; Data sizes:     COMMON   BANK0   BANK1   BANK3   BANK2
   980 ;;      Params:         0       0       0       0       0
   981 ;;      Locals:         0       2       0       0       0
   982 ;;      Temps:          0       3       0       0       0
   983 ;;      Totals:         0       5       0       0       0
   984 ;;Total ram usage:        5 bytes
   985 ;; Hardware stack levels required when called: 5
   986 ;; This function calls:
   987 ;;		_LCD_init
   988 ;;		_LCD_limpa
   989 ;;		_Linha2
   990 ;;		_listaZonas
   991 ;;		_teclado
   992 ;;		_telaInicial
   993 ;;		_validaUser
   994 ;; This function is called by:
   995 ;;		Startup code after reset
   996 ;; This function uses a non-reentrant model
   997 ;;
   998                           
   999                           
  1000                           ;psect for function _main
  1001  0B02                     _main:
  1002  0B02                     l2821:	
  1003                           ;incstack = 0
  1004                           ; Regs used in _main: [wreg-fsr0h+status,2+status,0+btemp+1+pclath+cstack]
  1005                           
  1006                           
  1007                           ;main.c: 56:     TRISE = 0;
  1008  0B02  1683               	bsf	3,5	;RP0=1, select bank1
  1009  0B03  1303               	bcf	3,6	;RP1=0, select bank1
  1010  0B04  0189               	clrf	9	;volatile
  1011                           
  1012                           ;main.c: 57:     TRISD = 0;
  1013  0B05  0188               	clrf	8	;volatile
  1014  0B06                     l2823:
  1015                           
  1016                           ;main.c: 58:     TRISB = 0x0F;
  1017  0B06  300F               	movlw	15
  1018  0B07  0086               	movwf	6	;volatile
  1019  0B08                     l2825:
  1020                           
  1021                           ;main.c: 60:     PORTE = 0x01;
  1022  0B08  3001               	movlw	1
  1023  0B09  1283               	bcf	3,5	;RP0=0, select bank0
  1024  0B0A  1303               	bcf	3,6	;RP1=0, select bank0
  1025  0B0B  0089               	movwf	9	;volatile
  1026  0B0C                     l2827:
  1027                           
  1028                           ;main.c: 63:     LCD_init();
  1029  0B0C  120A  158A  21D7  120A  158A  	fcall	_LCD_init
  1030  0B11                     l2829:
  1031                           
  1032                           ;main.c: 64:     LCD_limpa();
  1033  0B11  120A  158A  20A7  120A  158A  	fcall	_LCD_limpa
  1034  0B16  2B25               	goto	l2835
  1035  0B17                     l2831:
  1036                           
  1037                           ;main.c: 70:             telaInicial();
  1038  0B17  120A  158A  227C  120A  158A  	fcall	_telaInicial
  1039                           
  1040                           ;main.c: 71:             Linha2();
  1041  0B1C  120A  158A  2241  120A  158A  	fcall	_Linha2
  1042  0B21                     l2833:
  1043                           
  1044                           ;main.c: 72:             painel = 0;
  1045  0B21  1283               	bcf	3,5	;RP0=0, select bank0
  1046  0B22  1303               	bcf	3,6	;RP1=0, select bank0
  1047  0B23  01D2               	clrf	_painel
  1048  0B24  01D3               	clrf	_painel+1
  1049  0B25                     l2835:
  1050                           
  1051                           ;main.c: 69:         while (painel){
  1052  0B25  1283               	bcf	3,5	;RP0=0, select bank0
  1053  0B26  1303               	bcf	3,6	;RP1=0, select bank0
  1054  0B27  0852               	movf	_painel,w
  1055  0B28  0453               	iorwf	_painel+1,w
  1056  0B29  1D03               	btfss	3,2
  1057  0B2A  2B2C               	goto	u3061
  1058  0B2B  2B2D               	goto	u3060
  1059  0B2C                     u3061:
  1060  0B2C  2B17               	goto	l2831
  1061  0B2D                     u3060:
  1062  0B2D  2B33               	goto	l2839
  1063  0B2E                     l2837:
  1064                           
  1065                           ;main.c: 76:            validaUser();
  1066  0B2E  120A  118A  206F  120A  158A  	fcall	_validaUser
  1067  0B33                     l2839:
  1068                           
  1069                           ;main.c: 75:         while (userFalse){
  1070  0B33  1283               	bcf	3,5	;RP0=0, select bank0
  1071  0B34  1303               	bcf	3,6	;RP1=0, select bank0
  1072  0B35  0850               	movf	_userFalse,w
  1073  0B36  0451               	iorwf	_userFalse+1,w
  1074  0B37  1D03               	btfss	3,2
  1075  0B38  2B3A               	goto	u3071
  1076  0B39  2B3B               	goto	u3070
  1077  0B3A                     u3071:
  1078  0B3A  2B2E               	goto	l2837
  1079  0B3B                     u3070:
  1080  0B3B                     l2841:
  1081                           
  1082                           ;main.c: 86:         for (int i = 0; i < 10; i++){
  1083  0B3B  01C4               	clrf	main@i
  1084  0B3C  01C5               	clrf	main@i+1
  1085  0B3D                     l2847:
  1086                           
  1087                           ;main.c: 87:             valorSensor = i;
  1088  0B3D  1283               	bcf	3,5	;RP0=0, select bank0
  1089  0B3E  1303               	bcf	3,6	;RP1=0, select bank0
  1090  0B3F  0845               	movf	main@i+1,w
  1091  0B40  00E6               	movwf	_valorSensor+1
  1092  0B41  0844               	movf	main@i,w
  1093  0B42  00E5               	movwf	_valorSensor
  1094  0B43                     l2849:
  1095                           
  1096                           ;main.c: 88:             listaZonas(valorSensor);
  1097  0B43  0866               	movf	_valorSensor+1,w
  1098  0B44  00FB               	movwf	listaZonas@valorSensor+1
  1099  0B45  0865               	movf	_valorSensor,w
  1100  0B46  00FA               	movwf	listaZonas@valorSensor
  1101  0B47  120A  158A  2496  120A  158A  	fcall	_listaZonas
  1102  0B4C                     l2851:
  1103                           
  1104                           ;main.c: 89:             _delay((unsigned long)((2500)*(20000000/4000.0)));
  1105  0B4C  3040               	movlw	64
  1106  0B4D  1283               	bcf	3,5	;RP0=0, select bank0
  1107  0B4E  1303               	bcf	3,6	;RP1=0, select bank0
  1108  0B4F  00C3               	movwf	??_main+2
  1109  0B50  306A               	movlw	106
  1110  0B51  00C2               	movwf	??_main+1
  1111  0B52  3097               	movlw	151
  1112  0B53  00C1               	movwf	??_main
  1113  0B54                     u3097:
  1114  0B54  0BC1               	decfsz	??_main,f
  1115  0B55  2B54               	goto	u3097
  1116  0B56  0BC2               	decfsz	??_main+1,f
  1117  0B57  2B54               	goto	u3097
  1118  0B58  0BC3               	decfsz	??_main+2,f
  1119  0B59  2B54               	goto	u3097
  1120  0B5A                     l2853:
  1121                           
  1122                           ;main.c: 90:         }
  1123  0B5A  3001               	movlw	1
  1124  0B5B  1283               	bcf	3,5	;RP0=0, select bank0
  1125  0B5C  1303               	bcf	3,6	;RP1=0, select bank0
  1126  0B5D  07C4               	addwf	main@i,f
  1127  0B5E  1803               	skipnc
  1128  0B5F  0AC5               	incf	main@i+1,f
  1129  0B60  3000               	movlw	0
  1130  0B61  07C5               	addwf	main@i+1,f
  1131  0B62                     l2855:
  1132  0B62  0845               	movf	main@i+1,w
  1133  0B63  3A80               	xorlw	128
  1134  0B64  00FF               	movwf	btemp+1
  1135  0B65  3080               	movlw	128
  1136  0B66  027F               	subwf	btemp+1,w
  1137  0B67  1D03               	skipz
  1138  0B68  2B6B               	goto	u3085
  1139  0B69  300A               	movlw	10
  1140  0B6A  0244               	subwf	main@i,w
  1141  0B6B                     u3085:
  1142  0B6B  1C03               	skipc
  1143  0B6C  2B6E               	goto	u3081
  1144  0B6D  2B6F               	goto	u3080
  1145  0B6E                     u3081:
  1146  0B6E  2B3D               	goto	l2847
  1147  0B6F                     u3080:
  1148  0B6F                     l2857:
  1149                           
  1150                           ;main.c: 91:         teclado();
  1151  0B6F  120A  118A  2162  120A  158A  	fcall	_teclado
  1152  0B74  2B25               	goto	l2835
  1153  0B75  120A  118A  2800   	ljmp	start
  1154  0B78                     __end_of_main:
  1155                           
  1156                           	psect	text1
  1157  006F                     __ptext1:	
  1158 ;; *************** function _validaUser *****************
  1159 ;; Defined at:
  1160 ;;		line 320 in file "main.c"
  1161 ;; Parameters:    Size  Location     Type
  1162 ;;		None
  1163 ;; Auto vars:     Size  Location     Type
  1164 ;;  n               2   31[BANK0 ] int 
  1165 ;; Return value:  Size  Location     Type
  1166 ;;                  1    wreg      void 
  1167 ;; Registers used:
  1168 ;;		wreg, fsr0l, fsr0h, status,2, status,0, btemp+1, pclath, cstack
  1169 ;; Tracked objects:
  1170 ;;		On entry : 0/0
  1171 ;;		On exit  : 0/0
  1172 ;;		Unchanged: 0/0
  1173 ;; Data sizes:     COMMON   BANK0   BANK1   BANK3   BANK2
  1174 ;;      Params:         0       0       0       0       0
  1175 ;;      Locals:         0       2       0       0       0
  1176 ;;      Temps:          0       1       0       0       0
  1177 ;;      Totals:         0       3       0       0       0
  1178 ;;Total ram usage:        3 bytes
  1179 ;; Hardware stack levels used: 1
  1180 ;; Hardware stack levels required when called: 4
  1181 ;; This function calls:
  1182 ;;		_LCD_limpa
  1183 ;;		_LCD_linha1
  1184 ;;		_escreveMesagem
  1185 ;;		_strcmp
  1186 ;;		_teclado
  1187 ;; This function is called by:
  1188 ;;		_main
  1189 ;; This function uses a non-reentrant model
  1190 ;;
  1191                           
  1192                           
  1193                           ;psect for function _validaUser
  1194  006F                     _validaUser:
  1195  006F                     l2699:	
  1196                           ;incstack = 0
  1197                           ; Regs used in _validaUser: [wreg-fsr0h+status,2+status,0+btemp+1+pclath+cstack]
  1198                           
  1199                           
  1200                           ;main.c: 321:     while(userFalse){
  1201  006F  2959               	goto	l2767
  1202  0070                     l2701:
  1203                           
  1204                           ;main.c: 322:         for(int n = 0; n < 8; n++){
  1205  0070  01BF               	clrf	validaUser@n
  1206  0071  01C0               	clrf	validaUser@n+1
  1207  0072                     l2707:
  1208                           
  1209                           ;main.c: 323:             input = 10;
  1210  0072  300A               	movlw	10
  1211  0073  1283               	bcf	3,5	;RP0=0, select bank0
  1212  0074  1303               	bcf	3,6	;RP1=0, select bank0
  1213  0075  00D4               	movwf	_input
  1214  0076  3000               	movlw	0
  1215  0077  00D5               	movwf	_input+1
  1216                           
  1217                           ;main.c: 324:             while (input == 10){
  1218  0078  287E               	goto	l2711
  1219  0079                     l2709:
  1220                           
  1221                           ;main.c: 325:                 teclado();
  1222  0079  120A  118A  2162  120A  118A  	fcall	_teclado
  1223  007E                     l2711:
  1224                           
  1225                           ;main.c: 324:             while (input == 10){
  1226  007E  300A               	movlw	10
  1227  007F  1283               	bcf	3,5	;RP0=0, select bank0
  1228  0080  1303               	bcf	3,6	;RP1=0, select bank0
  1229  0081  0654               	xorwf	_input,w
  1230  0082  0455               	iorwf	_input+1,w
  1231  0083  1903               	btfsc	3,2
  1232  0084  2886               	goto	u2941
  1233  0085  2887               	goto	u2940
  1234  0086                     u2941:
  1235  0086  2879               	goto	l2709
  1236  0087                     u2940:
  1237  0087  28BA               	goto	l2735
  1238  0088                     l2713:
  1239                           
  1240                           ;main.c: 329:                     aux = '1';
  1241  0088  3031               	movlw	49
  1242  0089  00E9               	movwf	_aux
  1243  008A  3000               	movlw	0
  1244  008B  00EA               	movwf	_aux+1
  1245                           
  1246                           ;main.c: 330:                 break;
  1247  008C  28DF               	goto	l2737
  1248  008D                     l2715:
  1249                           
  1250                           ;main.c: 332:                     aux = '2';
  1251  008D  3032               	movlw	50
  1252  008E  00E9               	movwf	_aux
  1253  008F  3000               	movlw	0
  1254  0090  00EA               	movwf	_aux+1
  1255                           
  1256                           ;main.c: 333:                 break;
  1257  0091  28DF               	goto	l2737
  1258  0092                     l2717:
  1259                           
  1260                           ;main.c: 335:                     aux = '3';
  1261  0092  3033               	movlw	51
  1262  0093  00E9               	movwf	_aux
  1263  0094  3000               	movlw	0
  1264  0095  00EA               	movwf	_aux+1
  1265                           
  1266                           ;main.c: 336:                 break;
  1267  0096  28DF               	goto	l2737
  1268  0097                     l2719:
  1269                           
  1270                           ;main.c: 338:                     aux = '4';
  1271  0097  3034               	movlw	52
  1272  0098  00E9               	movwf	_aux
  1273  0099  3000               	movlw	0
  1274  009A  00EA               	movwf	_aux+1
  1275                           
  1276                           ;main.c: 339:                 break;
  1277  009B  28DF               	goto	l2737
  1278  009C                     l2721:
  1279                           
  1280                           ;main.c: 341:                     aux = '5';
  1281  009C  3035               	movlw	53
  1282  009D  00E9               	movwf	_aux
  1283  009E  3000               	movlw	0
  1284  009F  00EA               	movwf	_aux+1
  1285                           
  1286                           ;main.c: 342:                 break;
  1287  00A0  28DF               	goto	l2737
  1288  00A1                     l2723:
  1289                           
  1290                           ;main.c: 344:                     aux = '6';
  1291  00A1  3036               	movlw	54
  1292  00A2  00E9               	movwf	_aux
  1293  00A3  3000               	movlw	0
  1294  00A4  00EA               	movwf	_aux+1
  1295                           
  1296                           ;main.c: 345:                 break;
  1297  00A5  28DF               	goto	l2737
  1298  00A6                     l2725:
  1299                           
  1300                           ;main.c: 347:                     aux = '7';
  1301  00A6  3037               	movlw	55
  1302  00A7  00E9               	movwf	_aux
  1303  00A8  3000               	movlw	0
  1304  00A9  00EA               	movwf	_aux+1
  1305                           
  1306                           ;main.c: 348:                 break;
  1307  00AA  28DF               	goto	l2737
  1308  00AB                     l2727:
  1309                           
  1310                           ;main.c: 350:                     aux = '8';
  1311  00AB  3038               	movlw	56
  1312  00AC  00E9               	movwf	_aux
  1313  00AD  3000               	movlw	0
  1314  00AE  00EA               	movwf	_aux+1
  1315                           
  1316                           ;main.c: 351:                 break;
  1317  00AF  28DF               	goto	l2737
  1318  00B0                     l2729:
  1319                           
  1320                           ;main.c: 353:                     aux = '9';
  1321  00B0  3039               	movlw	57
  1322  00B1  00E9               	movwf	_aux
  1323  00B2  3000               	movlw	0
  1324  00B3  00EA               	movwf	_aux+1
  1325                           
  1326                           ;main.c: 354:                 break;
  1327  00B4  28DF               	goto	l2737
  1328  00B5                     l2731:
  1329                           
  1330                           ;main.c: 356:                     aux = '0';
  1331  00B5  3030               	movlw	48
  1332  00B6  00E9               	movwf	_aux
  1333  00B7  3000               	movlw	0
  1334  00B8  00EA               	movwf	_aux+1
  1335                           
  1336                           ;main.c: 357:                 break;
  1337  00B9  28DF               	goto	l2737
  1338  00BA                     l2735:
  1339                           
  1340                           ; Switch on 2 bytes has been partitioned into a top level switch of size 1, and 1 sub-sw
      +                          itches
  1341                           ; Switch size 1, requested type "simple"
  1342                           ; Number of cases is 1, Range of values is 0 to 0
  1343                           ; switch strategies available:
  1344                           ; Name         Instructions Cycles
  1345                           ; simple_byte            4     3 (average)
  1346                           ; direct_byte           11     8 (fixed)
  1347                           ; jumptable            260     6 (fixed)
  1348                           ;	Chosen strategy is simple_byte
  1349  00BA  0855               	movf	_input+1,w
  1350  00BB  3A00               	xorlw	0	; case 0
  1351  00BC  1903               	skipnz
  1352  00BD  28BF               	goto	l2879
  1353  00BE  28DF               	goto	l2737
  1354  00BF                     l2879:
  1355                           
  1356                           ; Switch size 1, requested type "simple"
  1357                           ; Number of cases is 10, Range of values is 0 to 9
  1358                           ; switch strategies available:
  1359                           ; Name         Instructions Cycles
  1360                           ; simple_byte           31    16 (average)
  1361                           ; direct_byte           38     8 (fixed)
  1362                           ; jumptable            260     6 (fixed)
  1363                           ;	Chosen strategy is simple_byte
  1364  00BF  0854               	movf	_input,w
  1365  00C0  3A00               	xorlw	0	; case 0
  1366  00C1  1903               	skipnz
  1367  00C2  28B5               	goto	l2731
  1368  00C3  3A01               	xorlw	1	; case 1
  1369  00C4  1903               	skipnz
  1370  00C5  2888               	goto	l2713
  1371  00C6  3A03               	xorlw	3	; case 2
  1372  00C7  1903               	skipnz
  1373  00C8  288D               	goto	l2715
  1374  00C9  3A01               	xorlw	1	; case 3
  1375  00CA  1903               	skipnz
  1376  00CB  2892               	goto	l2717
  1377  00CC  3A07               	xorlw	7	; case 4
  1378  00CD  1903               	skipnz
  1379  00CE  2897               	goto	l2719
  1380  00CF  3A01               	xorlw	1	; case 5
  1381  00D0  1903               	skipnz
  1382  00D1  289C               	goto	l2721
  1383  00D2  3A03               	xorlw	3	; case 6
  1384  00D3  1903               	skipnz
  1385  00D4  28A1               	goto	l2723
  1386  00D5  3A01               	xorlw	1	; case 7
  1387  00D6  1903               	skipnz
  1388  00D7  28A6               	goto	l2725
  1389  00D8  3A0F               	xorlw	15	; case 8
  1390  00D9  1903               	skipnz
  1391  00DA  28AB               	goto	l2727
  1392  00DB  3A01               	xorlw	1	; case 9
  1393  00DC  1903               	skipnz
  1394  00DD  28B0               	goto	l2729
  1395  00DE  28DF               	goto	l2737
  1396  00DF                     l2737:
  1397                           
  1398                           ;main.c: 359:             senhaUserConfere[n] = aux;
  1399  00DF  0869               	movf	_aux,w
  1400  00E0  00BE               	movwf	??_validaUser
  1401  00E1  083F               	movf	validaUser@n,w
  1402  00E2  3E5B               	addlw	(low (_senhaUserConfere| 0))& (0+255)
  1403  00E3  0084               	movwf	4
  1404  00E4  083E               	movf	??_validaUser,w
  1405  00E5  1383               	bcf	3,7	;select IRP bank0
  1406  00E6  0080               	movwf	0
  1407  00E7                     l2739:
  1408                           
  1409                           ;main.c: 360:             if (n == 3){
  1410  00E7  3003               	movlw	3
  1411  00E8  063F               	xorwf	validaUser@n,w
  1412  00E9  0440               	iorwf	validaUser@n+1,w
  1413  00EA  1D03               	btfss	3,2
  1414  00EB  28ED               	goto	u2951
  1415  00EC  28EE               	goto	u2950
  1416  00ED                     u2951:
  1417  00ED  2917               	goto	l2751
  1418  00EE                     u2950:
  1419  00EE                     l2741:
  1420                           
  1421                           ;main.c: 361:                 if (strcmp(senhaUser, senhaUserConfere) != 0){
  1422  00EE  305B               	movlw	(low (_senhaUserConfere| 0))& (0+255)
  1423  00EF  00BE               	movwf	??_validaUser
  1424  00F0  083E               	movf	??_validaUser,w
  1425  00F1  00F0               	movwf	strcmp@s2
  1426  00F2  3060               	movlw	(low (_senhaUser| 0))& (0+255)
  1427  00F3  120A  158A  217F  120A  118A  	fcall	_strcmp
  1428  00F8  0870               	movf	?_strcmp,w
  1429  00F9  0471               	iorwf	?_strcmp+1,w
  1430  00FA  1903               	btfsc	3,2
  1431  00FB  28FD               	goto	u2961
  1432  00FC  28FE               	goto	u2960
  1433  00FD                     u2961:
  1434  00FD  2917               	goto	l2751
  1435  00FE                     u2960:
  1436  00FE                     l2743:
  1437                           
  1438                           ;main.c: 362:                     userFalse = 1;
  1439  00FE  3001               	movlw	1
  1440  00FF  1283               	bcf	3,5	;RP0=0, select bank0
  1441  0100  1303               	bcf	3,6	;RP1=0, select bank0
  1442  0101  00D0               	movwf	_userFalse
  1443  0102  3000               	movlw	0
  1444  0103  00D1               	movwf	_userFalse+1
  1445  0104                     l2745:
  1446                           
  1447                           ;main.c: 363:                     LCD_limpa();
  1448  0104  120A  158A  20A7  120A  118A  	fcall	_LCD_limpa
  1449  0109                     l2747:
  1450                           
  1451                           ;main.c: 364:                     LCD_linha1();
  1452  0109  120A  158A  2097  120A  118A  	fcall	_LCD_linha1
  1453  010E                     l2749:
  1454                           
  1455                           ;main.c: 365:                     escreveMesagem(msgSenhaErrada);
  1456  010E  30C9               	movlw	(low (_msgSenhaErrada| 0))& (0+255)
  1457  010F  00F3               	movwf	escreveMesagem@texto
  1458  0110  3000               	movlw	0
  1459  0111  00F4               	movwf	escreveMesagem@texto+1
  1460  0112  120A  158A  220A  120A  118A  	fcall	_escreveMesagem
  1461  0117                     l2751:
  1462                           
  1463                           ;main.c: 368:             if (strcmp(senhaUser, senhaUserConfere)==0){
  1464  0117  305B               	movlw	(low (_senhaUserConfere| 0))& (0+255)
  1465  0118  1283               	bcf	3,5	;RP0=0, select bank0
  1466  0119  1303               	bcf	3,6	;RP1=0, select bank0
  1467  011A  00BE               	movwf	??_validaUser
  1468  011B  083E               	movf	??_validaUser,w
  1469  011C  00F0               	movwf	strcmp@s2
  1470  011D  3060               	movlw	(low (_senhaUser| 0))& (0+255)
  1471  011E  120A  158A  217F  120A  118A  	fcall	_strcmp
  1472  0123  0870               	movf	?_strcmp,w
  1473  0124  0471               	iorwf	?_strcmp+1,w
  1474  0125  1D03               	btfss	3,2
  1475  0126  2928               	goto	u2971
  1476  0127  2929               	goto	u2970
  1477  0128                     u2971:
  1478  0128  2944               	goto	l2763
  1479  0129                     u2970:
  1480  0129                     l2753:
  1481                           
  1482                           ;main.c: 369:                 userFalse = 0;
  1483  0129  1283               	bcf	3,5	;RP0=0, select bank0
  1484  012A  1303               	bcf	3,6	;RP1=0, select bank0
  1485  012B  01D0               	clrf	_userFalse
  1486  012C  01D1               	clrf	_userFalse+1
  1487  012D                     l2755:
  1488                           
  1489                           ;main.c: 370:                 n = 10;
  1490  012D  300A               	movlw	10
  1491  012E  00BF               	movwf	validaUser@n
  1492  012F  3000               	movlw	0
  1493  0130  00C0               	movwf	validaUser@n+1
  1494  0131                     l2757:
  1495                           
  1496                           ;main.c: 371:                 LCD_limpa();
  1497  0131  120A  158A  20A7  120A  118A  	fcall	_LCD_limpa
  1498  0136                     l2759:
  1499                           
  1500                           ;main.c: 372:                 LCD_linha1();
  1501  0136  120A  158A  2097  120A  118A  	fcall	_LCD_linha1
  1502  013B                     l2761:
  1503                           
  1504                           ;main.c: 373:                 escreveMesagem(msgSenhaCorreta);
  1505  013B  30D7               	movlw	(low (_msgSenhaCorreta| (0+256)))& (0+255)
  1506  013C  00F3               	movwf	escreveMesagem@texto
  1507  013D  3001               	movlw	1
  1508  013E  00F4               	movwf	escreveMesagem@texto+1
  1509  013F  120A  158A  220A  120A  118A  	fcall	_escreveMesagem
  1510  0144                     l2763:
  1511                           
  1512                           ;main.c: 375:         }
  1513  0144  3001               	movlw	1
  1514  0145  1283               	bcf	3,5	;RP0=0, select bank0
  1515  0146  1303               	bcf	3,6	;RP1=0, select bank0
  1516  0147  07BF               	addwf	validaUser@n,f
  1517  0148  1803               	skipnc
  1518  0149  0AC0               	incf	validaUser@n+1,f
  1519  014A  3000               	movlw	0
  1520  014B  07C0               	addwf	validaUser@n+1,f
  1521  014C                     l2765:
  1522  014C  0840               	movf	validaUser@n+1,w
  1523  014D  3A80               	xorlw	128
  1524  014E  00FF               	movwf	btemp+1
  1525  014F  3080               	movlw	128
  1526  0150  027F               	subwf	btemp+1,w
  1527  0151  1D03               	skipz
  1528  0152  2955               	goto	u2985
  1529  0153  3008               	movlw	8
  1530  0154  023F               	subwf	validaUser@n,w
  1531  0155                     u2985:
  1532  0155  1C03               	skipc
  1533  0156  2958               	goto	u2981
  1534  0157  2959               	goto	u2980
  1535  0158                     u2981:
  1536  0158  2872               	goto	l2707
  1537  0159                     u2980:
  1538  0159                     l2767:
  1539                           
  1540                           ;main.c: 321:     while(userFalse){
  1541  0159  1283               	bcf	3,5	;RP0=0, select bank0
  1542  015A  1303               	bcf	3,6	;RP1=0, select bank0
  1543  015B  0850               	movf	_userFalse,w
  1544  015C  0451               	iorwf	_userFalse+1,w
  1545  015D  1D03               	btfss	3,2
  1546  015E  2960               	goto	u2991
  1547  015F  2961               	goto	u2990
  1548  0160                     u2991:
  1549  0160  2870               	goto	l2701
  1550  0161                     u2990:
  1551  0161                     l234:
  1552  0161  0008               	return
  1553  0162                     __end_of_validaUser:
  1554                           
  1555                           	psect	text2
  1556  0162                     __ptext2:	
  1557 ;; *************** function _teclado *****************
  1558 ;; Defined at:
  1559 ;;		line 110 in file "main.c"
  1560 ;; Parameters:    Size  Location     Type
  1561 ;;		None
  1562 ;; Auto vars:     Size  Location     Type
  1563 ;;		None
  1564 ;; Return value:  Size  Location     Type
  1565 ;;                  1    wreg      void 
  1566 ;; Registers used:
  1567 ;;		wreg, status,2, status,0, btemp+1, pclath, cstack
  1568 ;; Tracked objects:
  1569 ;;		On entry : 0/0
  1570 ;;		On exit  : 0/0
  1571 ;;		Unchanged: 0/0
  1572 ;; Data sizes:     COMMON   BANK0   BANK1   BANK3   BANK2
  1573 ;;      Params:         0       0       0       0       0
  1574 ;;      Locals:         0       0       0       0       0
  1575 ;;      Temps:          0       3       0       0       0
  1576 ;;      Totals:         0       3       0       0       0
  1577 ;;Total ram usage:        3 bytes
  1578 ;; Hardware stack levels used: 1
  1579 ;; Hardware stack levels required when called: 3
  1580 ;; This function calls:
  1581 ;;		_LCD_escreve
  1582 ;;		_liga_buzzer
  1583 ;; This function is called by:
  1584 ;;		_main
  1585 ;;		_validaUser
  1586 ;; This function uses a non-reentrant model
  1587 ;;
  1588                           
  1589                           
  1590                           ;psect for function _teclado
  1591  0162                     _teclado:
  1592  0162                     l2241:	
  1593                           ;incstack = 0
  1594                           ; Regs used in _teclado: [wreg+status,2+status,0+btemp+1+pclath+cstack]
  1595                           
  1596                           
  1597                           ;main.c: 111:     PORTE = 0x01;
  1598  0162  3001               	movlw	1
  1599  0163  1283               	bcf	3,5	;RP0=0, select bank0
  1600  0164  1303               	bcf	3,6	;RP1=0, select bank0
  1601  0165  0089               	movwf	9	;volatile
  1602                           
  1603                           ;main.c: 115:     PORTB = 0b11101111;
  1604  0166  30EF               	movlw	239
  1605  0167  0086               	movwf	6	;volatile
  1606  0168                     l2243:
  1607                           
  1608                           ;main.c: 119:     if (RB0 == 0){
  1609  0168  1806               	btfsc	6,0	;volatile
  1610  0169  296B               	goto	u2401
  1611  016A  296C               	goto	u2400
  1612  016B                     u2401:
  1613  016B  2999               	goto	l2255
  1614  016C                     u2400:
  1615  016C                     l2245:
  1616                           
  1617                           ;main.c: 120:         _delay((unsigned long)((200)*(20000000/4000.0)));
  1618  016C  3006               	movlw	6
  1619  016D  1283               	bcf	3,5	;RP0=0, select bank0
  1620  016E  1303               	bcf	3,6	;RP1=0, select bank0
  1621  016F  00BD               	movwf	??_teclado+2
  1622  0170  3013               	movlw	19
  1623  0171  00BC               	movwf	??_teclado+1
  1624  0172  30AD               	movlw	173
  1625  0173  00BB               	movwf	??_teclado
  1626  0174                     u3107:
  1627  0174  0BBB               	decfsz	??_teclado,f
  1628  0175  2974               	goto	u3107
  1629  0176  0BBC               	decfsz	??_teclado+1,f
  1630  0177  2974               	goto	u3107
  1631  0178  0BBD               	decfsz	??_teclado+2,f
  1632  0179  2974               	goto	u3107
  1633  017A                     l2247:
  1634                           
  1635                           ;main.c: 121:         liga_buzzer(0.1);
  1636  017A  303D               	movlw	61
  1637  017B  1283               	bcf	3,5	;RP0=0, select bank0
  1638  017C  1303               	bcf	3,6	;RP1=0, select bank0
  1639  017D  00B8               	movwf	liga_buzzer@tempoSegundos+3
  1640  017E  30CC               	movlw	204
  1641  017F  00B7               	movwf	liga_buzzer@tempoSegundos+2
  1642  0180  30CC               	movlw	204
  1643  0181  00B6               	movwf	liga_buzzer@tempoSegundos+1
  1644  0182  30CD               	movlw	205
  1645  0183  00B5               	movwf	liga_buzzer@tempoSegundos
  1646  0184  120A  158A  2378  120A  118A  	fcall	_liga_buzzer
  1647  0189                     l2249:
  1648                           
  1649                           ;main.c: 122:         LCD_escreve('0');
  1650  0189  3030               	movlw	48
  1651  018A  120A  158A  20B7  120A  118A  	fcall	_LCD_escreve
  1652  018F                     l2251:
  1653                           
  1654                           ;main.c: 123:         if(userFalse == 1){
  1655  018F  1283               	bcf	3,5	;RP0=0, select bank0
  1656  0190  1303               	bcf	3,6	;RP1=0, select bank0
  1657  0191  0350               	decf	_userFalse,w
  1658  0192  0451               	iorwf	_userFalse+1,w
  1659  0193  1D03               	btfss	3,2
  1660  0194  2996               	goto	u2411
  1661  0195  2997               	goto	u2410
  1662  0196                     u2411:
  1663  0196  2999               	goto	l2255
  1664  0197                     u2410:
  1665  0197                     l2253:
  1666                           
  1667                           ;main.c: 124:             input = 0;
  1668  0197  01D4               	clrf	_input
  1669  0198  01D5               	clrf	_input+1
  1670  0199                     l2255:
  1671                           
  1672                           ;main.c: 130:     if (RB1 == 0){
  1673  0199  1886               	btfsc	6,1	;volatile
  1674  019A  299C               	goto	u2421
  1675  019B  299D               	goto	u2420
  1676  019C                     u2421:
  1677  019C  29CC               	goto	l2267
  1678  019D                     u2420:
  1679  019D                     l2257:
  1680                           
  1681                           ;main.c: 131:         _delay((unsigned long)((200)*(20000000/4000.0)));
  1682  019D  3006               	movlw	6
  1683  019E  1283               	bcf	3,5	;RP0=0, select bank0
  1684  019F  1303               	bcf	3,6	;RP1=0, select bank0
  1685  01A0  00BD               	movwf	??_teclado+2
  1686  01A1  3013               	movlw	19
  1687  01A2  00BC               	movwf	??_teclado+1
  1688  01A3  30AD               	movlw	173
  1689  01A4  00BB               	movwf	??_teclado
  1690  01A5                     u3117:
  1691  01A5  0BBB               	decfsz	??_teclado,f
  1692  01A6  29A5               	goto	u3117
  1693  01A7  0BBC               	decfsz	??_teclado+1,f
  1694  01A8  29A5               	goto	u3117
  1695  01A9  0BBD               	decfsz	??_teclado+2,f
  1696  01AA  29A5               	goto	u3117
  1697  01AB                     l2259:
  1698                           
  1699                           ;main.c: 132:         liga_buzzer(0.1);
  1700  01AB  303D               	movlw	61
  1701  01AC  1283               	bcf	3,5	;RP0=0, select bank0
  1702  01AD  1303               	bcf	3,6	;RP1=0, select bank0
  1703  01AE  00B8               	movwf	liga_buzzer@tempoSegundos+3
  1704  01AF  30CC               	movlw	204
  1705  01B0  00B7               	movwf	liga_buzzer@tempoSegundos+2
  1706  01B1  30CC               	movlw	204
  1707  01B2  00B6               	movwf	liga_buzzer@tempoSegundos+1
  1708  01B3  30CD               	movlw	205
  1709  01B4  00B5               	movwf	liga_buzzer@tempoSegundos
  1710  01B5  120A  158A  2378  120A  118A  	fcall	_liga_buzzer
  1711  01BA                     l2261:
  1712                           
  1713                           ;main.c: 133:         LCD_escreve('1');
  1714  01BA  3031               	movlw	49
  1715  01BB  120A  158A  20B7  120A  118A  	fcall	_LCD_escreve
  1716  01C0                     l2263:
  1717                           
  1718                           ;main.c: 134:         if(userFalse == 1){
  1719  01C0  1283               	bcf	3,5	;RP0=0, select bank0
  1720  01C1  1303               	bcf	3,6	;RP1=0, select bank0
  1721  01C2  0350               	decf	_userFalse,w
  1722  01C3  0451               	iorwf	_userFalse+1,w
  1723  01C4  1D03               	btfss	3,2
  1724  01C5  29C7               	goto	u2431
  1725  01C6  29C8               	goto	u2430
  1726  01C7                     u2431:
  1727  01C7  29CC               	goto	l2267
  1728  01C8                     u2430:
  1729  01C8                     l2265:
  1730                           
  1731                           ;main.c: 135:             input = 1;
  1732  01C8  3001               	movlw	1
  1733  01C9  00D4               	movwf	_input
  1734  01CA  3000               	movlw	0
  1735  01CB  00D5               	movwf	_input+1
  1736  01CC                     l2267:
  1737                           
  1738                           ;main.c: 141:     if (RB2 == 0){
  1739  01CC  1906               	btfsc	6,2	;volatile
  1740  01CD  29CF               	goto	u2441
  1741  01CE  29D0               	goto	u2440
  1742  01CF                     u2441:
  1743  01CF  29FF               	goto	l2279
  1744  01D0                     u2440:
  1745  01D0                     l2269:
  1746                           
  1747                           ;main.c: 142:         _delay((unsigned long)((200)*(20000000/4000.0)));
  1748  01D0  3006               	movlw	6
  1749  01D1  1283               	bcf	3,5	;RP0=0, select bank0
  1750  01D2  1303               	bcf	3,6	;RP1=0, select bank0
  1751  01D3  00BD               	movwf	??_teclado+2
  1752  01D4  3013               	movlw	19
  1753  01D5  00BC               	movwf	??_teclado+1
  1754  01D6  30AD               	movlw	173
  1755  01D7  00BB               	movwf	??_teclado
  1756  01D8                     u3127:
  1757  01D8  0BBB               	decfsz	??_teclado,f
  1758  01D9  29D8               	goto	u3127
  1759  01DA  0BBC               	decfsz	??_teclado+1,f
  1760  01DB  29D8               	goto	u3127
  1761  01DC  0BBD               	decfsz	??_teclado+2,f
  1762  01DD  29D8               	goto	u3127
  1763  01DE                     l2271:
  1764                           
  1765                           ;main.c: 143:         liga_buzzer(0.1);
  1766  01DE  303D               	movlw	61
  1767  01DF  1283               	bcf	3,5	;RP0=0, select bank0
  1768  01E0  1303               	bcf	3,6	;RP1=0, select bank0
  1769  01E1  00B8               	movwf	liga_buzzer@tempoSegundos+3
  1770  01E2  30CC               	movlw	204
  1771  01E3  00B7               	movwf	liga_buzzer@tempoSegundos+2
  1772  01E4  30CC               	movlw	204
  1773  01E5  00B6               	movwf	liga_buzzer@tempoSegundos+1
  1774  01E6  30CD               	movlw	205
  1775  01E7  00B5               	movwf	liga_buzzer@tempoSegundos
  1776  01E8  120A  158A  2378  120A  118A  	fcall	_liga_buzzer
  1777  01ED                     l2273:
  1778                           
  1779                           ;main.c: 144:         LCD_escreve('2');
  1780  01ED  3032               	movlw	50
  1781  01EE  120A  158A  20B7  120A  118A  	fcall	_LCD_escreve
  1782  01F3                     l2275:
  1783                           
  1784                           ;main.c: 145:         if(userFalse == 1){
  1785  01F3  1283               	bcf	3,5	;RP0=0, select bank0
  1786  01F4  1303               	bcf	3,6	;RP1=0, select bank0
  1787  01F5  0350               	decf	_userFalse,w
  1788  01F6  0451               	iorwf	_userFalse+1,w
  1789  01F7  1D03               	btfss	3,2
  1790  01F8  29FA               	goto	u2451
  1791  01F9  29FB               	goto	u2450
  1792  01FA                     u2451:
  1793  01FA  29FF               	goto	l2279
  1794  01FB                     u2450:
  1795  01FB                     l2277:
  1796                           
  1797                           ;main.c: 146:             input = 2;
  1798  01FB  3002               	movlw	2
  1799  01FC  00D4               	movwf	_input
  1800  01FD  3000               	movlw	0
  1801  01FE  00D5               	movwf	_input+1
  1802  01FF                     l2279:
  1803                           
  1804                           ;main.c: 152:     if (RB3 == 0){
  1805  01FF  1986               	btfsc	6,3	;volatile
  1806  0200  2A02               	goto	u2461
  1807  0201  2A03               	goto	u2460
  1808  0202                     u2461:
  1809  0202  2A32               	goto	l171
  1810  0203                     u2460:
  1811  0203                     l2281:
  1812                           
  1813                           ;main.c: 153:         _delay((unsigned long)((200)*(20000000/4000.0)));
  1814  0203  3006               	movlw	6
  1815  0204  1283               	bcf	3,5	;RP0=0, select bank0
  1816  0205  1303               	bcf	3,6	;RP1=0, select bank0
  1817  0206  00BD               	movwf	??_teclado+2
  1818  0207  3013               	movlw	19
  1819  0208  00BC               	movwf	??_teclado+1
  1820  0209  30AD               	movlw	173
  1821  020A  00BB               	movwf	??_teclado
  1822  020B                     u3137:
  1823  020B  0BBB               	decfsz	??_teclado,f
  1824  020C  2A0B               	goto	u3137
  1825  020D  0BBC               	decfsz	??_teclado+1,f
  1826  020E  2A0B               	goto	u3137
  1827  020F  0BBD               	decfsz	??_teclado+2,f
  1828  0210  2A0B               	goto	u3137
  1829  0211                     l2283:
  1830                           
  1831                           ;main.c: 154:         liga_buzzer(0.1);
  1832  0211  303D               	movlw	61
  1833  0212  1283               	bcf	3,5	;RP0=0, select bank0
  1834  0213  1303               	bcf	3,6	;RP1=0, select bank0
  1835  0214  00B8               	movwf	liga_buzzer@tempoSegundos+3
  1836  0215  30CC               	movlw	204
  1837  0216  00B7               	movwf	liga_buzzer@tempoSegundos+2
  1838  0217  30CC               	movlw	204
  1839  0218  00B6               	movwf	liga_buzzer@tempoSegundos+1
  1840  0219  30CD               	movlw	205
  1841  021A  00B5               	movwf	liga_buzzer@tempoSegundos
  1842  021B  120A  158A  2378  120A  118A  	fcall	_liga_buzzer
  1843  0220                     l2285:
  1844                           
  1845                           ;main.c: 155:         LCD_escreve('3');
  1846  0220  3033               	movlw	51
  1847  0221  120A  158A  20B7  120A  118A  	fcall	_LCD_escreve
  1848  0226                     l2287:
  1849                           
  1850                           ;main.c: 156:         if(userFalse == 1){
  1851  0226  1283               	bcf	3,5	;RP0=0, select bank0
  1852  0227  1303               	bcf	3,6	;RP1=0, select bank0
  1853  0228  0350               	decf	_userFalse,w
  1854  0229  0451               	iorwf	_userFalse+1,w
  1855  022A  1D03               	btfss	3,2
  1856  022B  2A2D               	goto	u2471
  1857  022C  2A2E               	goto	u2470
  1858  022D                     u2471:
  1859  022D  2A32               	goto	l171
  1860  022E                     u2470:
  1861  022E                     l2289:
  1862                           
  1863                           ;main.c: 157:             input = 3;
  1864  022E  3003               	movlw	3
  1865  022F  00D4               	movwf	_input
  1866  0230  3000               	movlw	0
  1867  0231  00D5               	movwf	_input+1
  1868  0232                     l171:	
  1869                           ;main.c: 159:     }
  1870                           
  1871                           
  1872                           ;main.c: 163:     PORTB = 0b11011111;
  1873  0232  30DF               	movlw	223
  1874  0233  0086               	movwf	6	;volatile
  1875  0234                     l2291:
  1876                           
  1877                           ;main.c: 167:     if (RB0 == 0){
  1878  0234  1806               	btfsc	6,0	;volatile
  1879  0235  2A37               	goto	u2481
  1880  0236  2A38               	goto	u2480
  1881  0237                     u2481:
  1882  0237  2A67               	goto	l2303
  1883  0238                     u2480:
  1884  0238                     l2293:
  1885                           
  1886                           ;main.c: 168:         _delay((unsigned long)((200)*(20000000/4000.0)));
  1887  0238  3006               	movlw	6
  1888  0239  1283               	bcf	3,5	;RP0=0, select bank0
  1889  023A  1303               	bcf	3,6	;RP1=0, select bank0
  1890  023B  00BD               	movwf	??_teclado+2
  1891  023C  3013               	movlw	19
  1892  023D  00BC               	movwf	??_teclado+1
  1893  023E  30AD               	movlw	173
  1894  023F  00BB               	movwf	??_teclado
  1895  0240                     u3147:
  1896  0240  0BBB               	decfsz	??_teclado,f
  1897  0241  2A40               	goto	u3147
  1898  0242  0BBC               	decfsz	??_teclado+1,f
  1899  0243  2A40               	goto	u3147
  1900  0244  0BBD               	decfsz	??_teclado+2,f
  1901  0245  2A40               	goto	u3147
  1902  0246                     l2295:
  1903                           
  1904                           ;main.c: 169:         liga_buzzer(0.1);
  1905  0246  303D               	movlw	61
  1906  0247  1283               	bcf	3,5	;RP0=0, select bank0
  1907  0248  1303               	bcf	3,6	;RP1=0, select bank0
  1908  0249  00B8               	movwf	liga_buzzer@tempoSegundos+3
  1909  024A  30CC               	movlw	204
  1910  024B  00B7               	movwf	liga_buzzer@tempoSegundos+2
  1911  024C  30CC               	movlw	204
  1912  024D  00B6               	movwf	liga_buzzer@tempoSegundos+1
  1913  024E  30CD               	movlw	205
  1914  024F  00B5               	movwf	liga_buzzer@tempoSegundos
  1915  0250  120A  158A  2378  120A  118A  	fcall	_liga_buzzer
  1916  0255                     l2297:
  1917                           
  1918                           ;main.c: 170:         LCD_escreve('4');
  1919  0255  3034               	movlw	52
  1920  0256  120A  158A  20B7  120A  118A  	fcall	_LCD_escreve
  1921  025B                     l2299:
  1922                           
  1923                           ;main.c: 171:         if(userFalse == 1){
  1924  025B  1283               	bcf	3,5	;RP0=0, select bank0
  1925  025C  1303               	bcf	3,6	;RP1=0, select bank0
  1926  025D  0350               	decf	_userFalse,w
  1927  025E  0451               	iorwf	_userFalse+1,w
  1928  025F  1D03               	btfss	3,2
  1929  0260  2A62               	goto	u2491
  1930  0261  2A63               	goto	u2490
  1931  0262                     u2491:
  1932  0262  2A67               	goto	l2303
  1933  0263                     u2490:
  1934  0263                     l2301:
  1935                           
  1936                           ;main.c: 172:             input = 4;
  1937  0263  3004               	movlw	4
  1938  0264  00D4               	movwf	_input
  1939  0265  3000               	movlw	0
  1940  0266  00D5               	movwf	_input+1
  1941  0267                     l2303:
  1942                           
  1943                           ;main.c: 178:     if (RB1 == 0){
  1944  0267  1886               	btfsc	6,1	;volatile
  1945  0268  2A6A               	goto	u2501
  1946  0269  2A6B               	goto	u2500
  1947  026A                     u2501:
  1948  026A  2A9A               	goto	l2315
  1949  026B                     u2500:
  1950  026B                     l2305:
  1951                           
  1952                           ;main.c: 179:         _delay((unsigned long)((200)*(20000000/4000.0)));
  1953  026B  3006               	movlw	6
  1954  026C  1283               	bcf	3,5	;RP0=0, select bank0
  1955  026D  1303               	bcf	3,6	;RP1=0, select bank0
  1956  026E  00BD               	movwf	??_teclado+2
  1957  026F  3013               	movlw	19
  1958  0270  00BC               	movwf	??_teclado+1
  1959  0271  30AD               	movlw	173
  1960  0272  00BB               	movwf	??_teclado
  1961  0273                     u3157:
  1962  0273  0BBB               	decfsz	??_teclado,f
  1963  0274  2A73               	goto	u3157
  1964  0275  0BBC               	decfsz	??_teclado+1,f
  1965  0276  2A73               	goto	u3157
  1966  0277  0BBD               	decfsz	??_teclado+2,f
  1967  0278  2A73               	goto	u3157
  1968  0279                     l2307:
  1969                           
  1970                           ;main.c: 180:         liga_buzzer(0.1);
  1971  0279  303D               	movlw	61
  1972  027A  1283               	bcf	3,5	;RP0=0, select bank0
  1973  027B  1303               	bcf	3,6	;RP1=0, select bank0
  1974  027C  00B8               	movwf	liga_buzzer@tempoSegundos+3
  1975  027D  30CC               	movlw	204
  1976  027E  00B7               	movwf	liga_buzzer@tempoSegundos+2
  1977  027F  30CC               	movlw	204
  1978  0280  00B6               	movwf	liga_buzzer@tempoSegundos+1
  1979  0281  30CD               	movlw	205
  1980  0282  00B5               	movwf	liga_buzzer@tempoSegundos
  1981  0283  120A  158A  2378  120A  118A  	fcall	_liga_buzzer
  1982  0288                     l2309:
  1983                           
  1984                           ;main.c: 181:         LCD_escreve('5');
  1985  0288  3035               	movlw	53
  1986  0289  120A  158A  20B7  120A  118A  	fcall	_LCD_escreve
  1987  028E                     l2311:
  1988                           
  1989                           ;main.c: 182:         if(userFalse == 1){
  1990  028E  1283               	bcf	3,5	;RP0=0, select bank0
  1991  028F  1303               	bcf	3,6	;RP1=0, select bank0
  1992  0290  0350               	decf	_userFalse,w
  1993  0291  0451               	iorwf	_userFalse+1,w
  1994  0292  1D03               	btfss	3,2
  1995  0293  2A95               	goto	u2511
  1996  0294  2A96               	goto	u2510
  1997  0295                     u2511:
  1998  0295  2A9A               	goto	l2315
  1999  0296                     u2510:
  2000  0296                     l2313:
  2001                           
  2002                           ;main.c: 183:             input = 5;
  2003  0296  3005               	movlw	5
  2004  0297  00D4               	movwf	_input
  2005  0298  3000               	movlw	0
  2006  0299  00D5               	movwf	_input+1
  2007  029A                     l2315:
  2008                           
  2009                           ;main.c: 189:     if (RB2 == 0){
  2010  029A  1906               	btfsc	6,2	;volatile
  2011  029B  2A9D               	goto	u2521
  2012  029C  2A9E               	goto	u2520
  2013  029D                     u2521:
  2014  029D  2ACD               	goto	l2327
  2015  029E                     u2520:
  2016  029E                     l2317:
  2017                           
  2018                           ;main.c: 190:         _delay((unsigned long)((200)*(20000000/4000.0)));
  2019  029E  3006               	movlw	6
  2020  029F  1283               	bcf	3,5	;RP0=0, select bank0
  2021  02A0  1303               	bcf	3,6	;RP1=0, select bank0
  2022  02A1  00BD               	movwf	??_teclado+2
  2023  02A2  3013               	movlw	19
  2024  02A3  00BC               	movwf	??_teclado+1
  2025  02A4  30AD               	movlw	173
  2026  02A5  00BB               	movwf	??_teclado
  2027  02A6                     u3167:
  2028  02A6  0BBB               	decfsz	??_teclado,f
  2029  02A7  2AA6               	goto	u3167
  2030  02A8  0BBC               	decfsz	??_teclado+1,f
  2031  02A9  2AA6               	goto	u3167
  2032  02AA  0BBD               	decfsz	??_teclado+2,f
  2033  02AB  2AA6               	goto	u3167
  2034  02AC                     l2319:
  2035                           
  2036                           ;main.c: 191:         liga_buzzer(0.1);
  2037  02AC  303D               	movlw	61
  2038  02AD  1283               	bcf	3,5	;RP0=0, select bank0
  2039  02AE  1303               	bcf	3,6	;RP1=0, select bank0
  2040  02AF  00B8               	movwf	liga_buzzer@tempoSegundos+3
  2041  02B0  30CC               	movlw	204
  2042  02B1  00B7               	movwf	liga_buzzer@tempoSegundos+2
  2043  02B2  30CC               	movlw	204
  2044  02B3  00B6               	movwf	liga_buzzer@tempoSegundos+1
  2045  02B4  30CD               	movlw	205
  2046  02B5  00B5               	movwf	liga_buzzer@tempoSegundos
  2047  02B6  120A  158A  2378  120A  118A  	fcall	_liga_buzzer
  2048  02BB                     l2321:
  2049                           
  2050                           ;main.c: 192:         LCD_escreve('6');
  2051  02BB  3036               	movlw	54
  2052  02BC  120A  158A  20B7  120A  118A  	fcall	_LCD_escreve
  2053  02C1                     l2323:
  2054                           
  2055                           ;main.c: 193:         if(userFalse == 1){
  2056  02C1  1283               	bcf	3,5	;RP0=0, select bank0
  2057  02C2  1303               	bcf	3,6	;RP1=0, select bank0
  2058  02C3  0350               	decf	_userFalse,w
  2059  02C4  0451               	iorwf	_userFalse+1,w
  2060  02C5  1D03               	btfss	3,2
  2061  02C6  2AC8               	goto	u2531
  2062  02C7  2AC9               	goto	u2530
  2063  02C8                     u2531:
  2064  02C8  2ACD               	goto	l2327
  2065  02C9                     u2530:
  2066  02C9                     l2325:
  2067                           
  2068                           ;main.c: 194:             input = 6;
  2069  02C9  3006               	movlw	6
  2070  02CA  00D4               	movwf	_input
  2071  02CB  3000               	movlw	0
  2072  02CC  00D5               	movwf	_input+1
  2073  02CD                     l2327:
  2074                           
  2075                           ;main.c: 200:     if (RB3 == 0){
  2076  02CD  1986               	btfsc	6,3	;volatile
  2077  02CE  2AD0               	goto	u2541
  2078  02CF  2AD1               	goto	u2540
  2079  02D0                     u2541:
  2080  02D0  2B00               	goto	l179
  2081  02D1                     u2540:
  2082  02D1                     l2329:
  2083                           
  2084                           ;main.c: 201:         _delay((unsigned long)((200)*(20000000/4000.0)));
  2085  02D1  3006               	movlw	6
  2086  02D2  1283               	bcf	3,5	;RP0=0, select bank0
  2087  02D3  1303               	bcf	3,6	;RP1=0, select bank0
  2088  02D4  00BD               	movwf	??_teclado+2
  2089  02D5  3013               	movlw	19
  2090  02D6  00BC               	movwf	??_teclado+1
  2091  02D7  30AD               	movlw	173
  2092  02D8  00BB               	movwf	??_teclado
  2093  02D9                     u3177:
  2094  02D9  0BBB               	decfsz	??_teclado,f
  2095  02DA  2AD9               	goto	u3177
  2096  02DB  0BBC               	decfsz	??_teclado+1,f
  2097  02DC  2AD9               	goto	u3177
  2098  02DD  0BBD               	decfsz	??_teclado+2,f
  2099  02DE  2AD9               	goto	u3177
  2100  02DF                     l2331:
  2101                           
  2102                           ;main.c: 202:         liga_buzzer(0.1);
  2103  02DF  303D               	movlw	61
  2104  02E0  1283               	bcf	3,5	;RP0=0, select bank0
  2105  02E1  1303               	bcf	3,6	;RP1=0, select bank0
  2106  02E2  00B8               	movwf	liga_buzzer@tempoSegundos+3
  2107  02E3  30CC               	movlw	204
  2108  02E4  00B7               	movwf	liga_buzzer@tempoSegundos+2
  2109  02E5  30CC               	movlw	204
  2110  02E6  00B6               	movwf	liga_buzzer@tempoSegundos+1
  2111  02E7  30CD               	movlw	205
  2112  02E8  00B5               	movwf	liga_buzzer@tempoSegundos
  2113  02E9  120A  158A  2378  120A  118A  	fcall	_liga_buzzer
  2114  02EE                     l2333:
  2115                           
  2116                           ;main.c: 203:         LCD_escreve('7');
  2117  02EE  3037               	movlw	55
  2118  02EF  120A  158A  20B7  120A  118A  	fcall	_LCD_escreve
  2119  02F4                     l2335:
  2120                           
  2121                           ;main.c: 204:         if(userFalse == 1){
  2122  02F4  1283               	bcf	3,5	;RP0=0, select bank0
  2123  02F5  1303               	bcf	3,6	;RP1=0, select bank0
  2124  02F6  0350               	decf	_userFalse,w
  2125  02F7  0451               	iorwf	_userFalse+1,w
  2126  02F8  1D03               	btfss	3,2
  2127  02F9  2AFB               	goto	u2551
  2128  02FA  2AFC               	goto	u2550
  2129  02FB                     u2551:
  2130  02FB  2B00               	goto	l179
  2131  02FC                     u2550:
  2132  02FC                     l2337:
  2133                           
  2134                           ;main.c: 205:             input = 7;
  2135  02FC  3007               	movlw	7
  2136  02FD  00D4               	movwf	_input
  2137  02FE  3000               	movlw	0
  2138  02FF  00D5               	movwf	_input+1
  2139  0300                     l179:	
  2140                           ;main.c: 207:     }
  2141                           
  2142                           
  2143                           ;main.c: 211:     PORTB = 0b10111111;
  2144  0300  30BF               	movlw	191
  2145  0301  0086               	movwf	6	;volatile
  2146  0302                     l2339:
  2147                           
  2148                           ;main.c: 215:     if (RB0 == 0){
  2149  0302  1806               	btfsc	6,0	;volatile
  2150  0303  2B05               	goto	u2561
  2151  0304  2B06               	goto	u2560
  2152  0305                     u2561:
  2153  0305  2B35               	goto	l2351
  2154  0306                     u2560:
  2155  0306                     l2341:
  2156                           
  2157                           ;main.c: 216:         _delay((unsigned long)((200)*(20000000/4000.0)));
  2158  0306  3006               	movlw	6
  2159  0307  1283               	bcf	3,5	;RP0=0, select bank0
  2160  0308  1303               	bcf	3,6	;RP1=0, select bank0
  2161  0309  00BD               	movwf	??_teclado+2
  2162  030A  3013               	movlw	19
  2163  030B  00BC               	movwf	??_teclado+1
  2164  030C  30AD               	movlw	173
  2165  030D  00BB               	movwf	??_teclado
  2166  030E                     u3187:
  2167  030E  0BBB               	decfsz	??_teclado,f
  2168  030F  2B0E               	goto	u3187
  2169  0310  0BBC               	decfsz	??_teclado+1,f
  2170  0311  2B0E               	goto	u3187
  2171  0312  0BBD               	decfsz	??_teclado+2,f
  2172  0313  2B0E               	goto	u3187
  2173  0314                     l2343:
  2174                           
  2175                           ;main.c: 217:         liga_buzzer(0.1);
  2176  0314  303D               	movlw	61
  2177  0315  1283               	bcf	3,5	;RP0=0, select bank0
  2178  0316  1303               	bcf	3,6	;RP1=0, select bank0
  2179  0317  00B8               	movwf	liga_buzzer@tempoSegundos+3
  2180  0318  30CC               	movlw	204
  2181  0319  00B7               	movwf	liga_buzzer@tempoSegundos+2
  2182  031A  30CC               	movlw	204
  2183  031B  00B6               	movwf	liga_buzzer@tempoSegundos+1
  2184  031C  30CD               	movlw	205
  2185  031D  00B5               	movwf	liga_buzzer@tempoSegundos
  2186  031E  120A  158A  2378  120A  118A  	fcall	_liga_buzzer
  2187  0323                     l2345:
  2188                           
  2189                           ;main.c: 218:         LCD_escreve('8');
  2190  0323  3038               	movlw	56
  2191  0324  120A  158A  20B7  120A  118A  	fcall	_LCD_escreve
  2192  0329                     l2347:
  2193                           
  2194                           ;main.c: 219:         if(userFalse == 1){
  2195  0329  1283               	bcf	3,5	;RP0=0, select bank0
  2196  032A  1303               	bcf	3,6	;RP1=0, select bank0
  2197  032B  0350               	decf	_userFalse,w
  2198  032C  0451               	iorwf	_userFalse+1,w
  2199  032D  1D03               	btfss	3,2
  2200  032E  2B30               	goto	u2571
  2201  032F  2B31               	goto	u2570
  2202  0330                     u2571:
  2203  0330  2B35               	goto	l2351
  2204  0331                     u2570:
  2205  0331                     l2349:
  2206                           
  2207                           ;main.c: 220:             input = 8;
  2208  0331  3008               	movlw	8
  2209  0332  00D4               	movwf	_input
  2210  0333  3000               	movlw	0
  2211  0334  00D5               	movwf	_input+1
  2212  0335                     l2351:
  2213                           
  2214                           ;main.c: 226:     if (RB1 == 0){
  2215  0335  1886               	btfsc	6,1	;volatile
  2216  0336  2B38               	goto	u2581
  2217  0337  2B39               	goto	u2580
  2218  0338                     u2581:
  2219  0338  2B68               	goto	l2363
  2220  0339                     u2580:
  2221  0339                     l2353:
  2222                           
  2223                           ;main.c: 227:         _delay((unsigned long)((200)*(20000000/4000.0)));
  2224  0339  3006               	movlw	6
  2225  033A  1283               	bcf	3,5	;RP0=0, select bank0
  2226  033B  1303               	bcf	3,6	;RP1=0, select bank0
  2227  033C  00BD               	movwf	??_teclado+2
  2228  033D  3013               	movlw	19
  2229  033E  00BC               	movwf	??_teclado+1
  2230  033F  30AD               	movlw	173
  2231  0340  00BB               	movwf	??_teclado
  2232  0341                     u3197:
  2233  0341  0BBB               	decfsz	??_teclado,f
  2234  0342  2B41               	goto	u3197
  2235  0343  0BBC               	decfsz	??_teclado+1,f
  2236  0344  2B41               	goto	u3197
  2237  0345  0BBD               	decfsz	??_teclado+2,f
  2238  0346  2B41               	goto	u3197
  2239  0347                     l2355:
  2240                           
  2241                           ;main.c: 228:         liga_buzzer(0.1);
  2242  0347  303D               	movlw	61
  2243  0348  1283               	bcf	3,5	;RP0=0, select bank0
  2244  0349  1303               	bcf	3,6	;RP1=0, select bank0
  2245  034A  00B8               	movwf	liga_buzzer@tempoSegundos+3
  2246  034B  30CC               	movlw	204
  2247  034C  00B7               	movwf	liga_buzzer@tempoSegundos+2
  2248  034D  30CC               	movlw	204
  2249  034E  00B6               	movwf	liga_buzzer@tempoSegundos+1
  2250  034F  30CD               	movlw	205
  2251  0350  00B5               	movwf	liga_buzzer@tempoSegundos
  2252  0351  120A  158A  2378  120A  118A  	fcall	_liga_buzzer
  2253  0356                     l2357:
  2254                           
  2255                           ;main.c: 229:         LCD_escreve('9');
  2256  0356  3039               	movlw	57
  2257  0357  120A  158A  20B7  120A  118A  	fcall	_LCD_escreve
  2258  035C                     l2359:
  2259                           
  2260                           ;main.c: 230:         if(userFalse == 1){
  2261  035C  1283               	bcf	3,5	;RP0=0, select bank0
  2262  035D  1303               	bcf	3,6	;RP1=0, select bank0
  2263  035E  0350               	decf	_userFalse,w
  2264  035F  0451               	iorwf	_userFalse+1,w
  2265  0360  1D03               	btfss	3,2
  2266  0361  2B63               	goto	u2591
  2267  0362  2B64               	goto	u2590
  2268  0363                     u2591:
  2269  0363  2B68               	goto	l2363
  2270  0364                     u2590:
  2271  0364                     l2361:
  2272                           
  2273                           ;main.c: 231:             input = 9;
  2274  0364  3009               	movlw	9
  2275  0365  00D4               	movwf	_input
  2276  0366  3000               	movlw	0
  2277  0367  00D5               	movwf	_input+1
  2278  0368                     l2363:
  2279                           
  2280                           ;main.c: 237:     if (RB2 == 0){
  2281  0368  1906               	btfsc	6,2	;volatile
  2282  0369  2B6B               	goto	u2601
  2283  036A  2B6C               	goto	u2600
  2284  036B                     u2601:
  2285  036B  2B8F               	goto	l2371
  2286  036C                     u2600:
  2287  036C                     l2365:
  2288                           
  2289                           ;main.c: 238:         _delay((unsigned long)((200)*(20000000/4000.0)));
  2290  036C  3006               	movlw	6
  2291  036D  1283               	bcf	3,5	;RP0=0, select bank0
  2292  036E  1303               	bcf	3,6	;RP1=0, select bank0
  2293  036F  00BD               	movwf	??_teclado+2
  2294  0370  3013               	movlw	19
  2295  0371  00BC               	movwf	??_teclado+1
  2296  0372  30AD               	movlw	173
  2297  0373  00BB               	movwf	??_teclado
  2298  0374                     u3207:
  2299  0374  0BBB               	decfsz	??_teclado,f
  2300  0375  2B74               	goto	u3207
  2301  0376  0BBC               	decfsz	??_teclado+1,f
  2302  0377  2B74               	goto	u3207
  2303  0378  0BBD               	decfsz	??_teclado+2,f
  2304  0379  2B74               	goto	u3207
  2305  037A                     l2367:
  2306                           
  2307                           ;main.c: 239:         liga_buzzer(0.1);
  2308  037A  303D               	movlw	61
  2309  037B  1283               	bcf	3,5	;RP0=0, select bank0
  2310  037C  1303               	bcf	3,6	;RP1=0, select bank0
  2311  037D  00B8               	movwf	liga_buzzer@tempoSegundos+3
  2312  037E  30CC               	movlw	204
  2313  037F  00B7               	movwf	liga_buzzer@tempoSegundos+2
  2314  0380  30CC               	movlw	204
  2315  0381  00B6               	movwf	liga_buzzer@tempoSegundos+1
  2316  0382  30CD               	movlw	205
  2317  0383  00B5               	movwf	liga_buzzer@tempoSegundos
  2318  0384  120A  158A  2378  120A  118A  	fcall	_liga_buzzer
  2319  0389                     l2369:
  2320                           
  2321                           ;main.c: 240:         LCD_escreve('A');
  2322  0389  3041               	movlw	65
  2323  038A  120A  158A  20B7  120A  118A  	fcall	_LCD_escreve
  2324  038F                     l2371:
  2325                           
  2326                           ;main.c: 245:     if (RB3 == 0){
  2327  038F  1283               	bcf	3,5	;RP0=0, select bank0
  2328  0390  1303               	bcf	3,6	;RP1=0, select bank0
  2329  0391  1986               	btfsc	6,3	;volatile
  2330  0392  2B94               	goto	u2611
  2331  0393  2B95               	goto	u2610
  2332  0394                     u2611:
  2333  0394  2BB8               	goto	l186
  2334  0395                     u2610:
  2335  0395                     l2373:
  2336                           
  2337                           ;main.c: 246:         _delay((unsigned long)((200)*(20000000/4000.0)));
  2338  0395  3006               	movlw	6
  2339  0396  1283               	bcf	3,5	;RP0=0, select bank0
  2340  0397  1303               	bcf	3,6	;RP1=0, select bank0
  2341  0398  00BD               	movwf	??_teclado+2
  2342  0399  3013               	movlw	19
  2343  039A  00BC               	movwf	??_teclado+1
  2344  039B  30AD               	movlw	173
  2345  039C  00BB               	movwf	??_teclado
  2346  039D                     u3217:
  2347  039D  0BBB               	decfsz	??_teclado,f
  2348  039E  2B9D               	goto	u3217
  2349  039F  0BBC               	decfsz	??_teclado+1,f
  2350  03A0  2B9D               	goto	u3217
  2351  03A1  0BBD               	decfsz	??_teclado+2,f
  2352  03A2  2B9D               	goto	u3217
  2353  03A3                     l2375:
  2354                           
  2355                           ;main.c: 247:         liga_buzzer(0.1);
  2356  03A3  303D               	movlw	61
  2357  03A4  1283               	bcf	3,5	;RP0=0, select bank0
  2358  03A5  1303               	bcf	3,6	;RP1=0, select bank0
  2359  03A6  00B8               	movwf	liga_buzzer@tempoSegundos+3
  2360  03A7  30CC               	movlw	204
  2361  03A8  00B7               	movwf	liga_buzzer@tempoSegundos+2
  2362  03A9  30CC               	movlw	204
  2363  03AA  00B6               	movwf	liga_buzzer@tempoSegundos+1
  2364  03AB  30CD               	movlw	205
  2365  03AC  00B5               	movwf	liga_buzzer@tempoSegundos
  2366  03AD  120A  158A  2378  120A  118A  	fcall	_liga_buzzer
  2367  03B2                     l2377:
  2368                           
  2369                           ;main.c: 248:         LCD_escreve('B');
  2370  03B2  3042               	movlw	66
  2371  03B3  120A  158A  20B7  120A  118A  	fcall	_LCD_escreve
  2372  03B8                     l186:	
  2373                           ;main.c: 249:     }
  2374                           
  2375                           
  2376                           ;main.c: 253:     PORTB = 0b01111111;
  2377  03B8  307F               	movlw	127
  2378  03B9  1283               	bcf	3,5	;RP0=0, select bank0
  2379  03BA  1303               	bcf	3,6	;RP1=0, select bank0
  2380  03BB  0086               	movwf	6	;volatile
  2381  03BC                     l2379:
  2382                           
  2383                           ;main.c: 257:     if (RB0 == 0){
  2384  03BC  1806               	btfsc	6,0	;volatile
  2385  03BD  2BBF               	goto	u2621
  2386  03BE  2BC0               	goto	u2620
  2387  03BF                     u2621:
  2388  03BF  2BE3               	goto	l2387
  2389  03C0                     u2620:
  2390  03C0                     l2381:
  2391                           
  2392                           ;main.c: 258:         _delay((unsigned long)((200)*(20000000/4000.0)));
  2393  03C0  3006               	movlw	6
  2394  03C1  1283               	bcf	3,5	;RP0=0, select bank0
  2395  03C2  1303               	bcf	3,6	;RP1=0, select bank0
  2396  03C3  00BD               	movwf	??_teclado+2
  2397  03C4  3013               	movlw	19
  2398  03C5  00BC               	movwf	??_teclado+1
  2399  03C6  30AD               	movlw	173
  2400  03C7  00BB               	movwf	??_teclado
  2401  03C8                     u3227:
  2402  03C8  0BBB               	decfsz	??_teclado,f
  2403  03C9  2BC8               	goto	u3227
  2404  03CA  0BBC               	decfsz	??_teclado+1,f
  2405  03CB  2BC8               	goto	u3227
  2406  03CC  0BBD               	decfsz	??_teclado+2,f
  2407  03CD  2BC8               	goto	u3227
  2408  03CE                     l2383:
  2409                           
  2410                           ;main.c: 259:         liga_buzzer(0.1);
  2411  03CE  303D               	movlw	61
  2412  03CF  1283               	bcf	3,5	;RP0=0, select bank0
  2413  03D0  1303               	bcf	3,6	;RP1=0, select bank0
  2414  03D1  00B8               	movwf	liga_buzzer@tempoSegundos+3
  2415  03D2  30CC               	movlw	204
  2416  03D3  00B7               	movwf	liga_buzzer@tempoSegundos+2
  2417  03D4  30CC               	movlw	204
  2418  03D5  00B6               	movwf	liga_buzzer@tempoSegundos+1
  2419  03D6  30CD               	movlw	205
  2420  03D7  00B5               	movwf	liga_buzzer@tempoSegundos
  2421  03D8  120A  158A  2378  120A  118A  	fcall	_liga_buzzer
  2422  03DD                     l2385:
  2423                           
  2424                           ;main.c: 260:         LCD_escreve('C');
  2425  03DD  3043               	movlw	67
  2426  03DE  120A  158A  20B7  120A  118A  	fcall	_LCD_escreve
  2427  03E3                     l2387:
  2428                           
  2429                           ;main.c: 265:     if (RB1 == 0){
  2430  03E3  1283               	bcf	3,5	;RP0=0, select bank0
  2431  03E4  1303               	bcf	3,6	;RP1=0, select bank0
  2432  03E5  1886               	btfsc	6,1	;volatile
  2433  03E6  2BE8               	goto	u2631
  2434  03E7  2BE9               	goto	u2630
  2435  03E8                     u2631:
  2436  03E8  2C0C               	goto	l2395
  2437  03E9                     u2630:
  2438  03E9                     l2389:
  2439                           
  2440                           ;main.c: 266:         _delay((unsigned long)((200)*(20000000/4000.0)));
  2441  03E9  3006               	movlw	6
  2442  03EA  1283               	bcf	3,5	;RP0=0, select bank0
  2443  03EB  1303               	bcf	3,6	;RP1=0, select bank0
  2444  03EC  00BD               	movwf	??_teclado+2
  2445  03ED  3013               	movlw	19
  2446  03EE  00BC               	movwf	??_teclado+1
  2447  03EF  30AD               	movlw	173
  2448  03F0  00BB               	movwf	??_teclado
  2449  03F1                     u3237:
  2450  03F1  0BBB               	decfsz	??_teclado,f
  2451  03F2  2BF1               	goto	u3237
  2452  03F3  0BBC               	decfsz	??_teclado+1,f
  2453  03F4  2BF1               	goto	u3237
  2454  03F5  0BBD               	decfsz	??_teclado+2,f
  2455  03F6  2BF1               	goto	u3237
  2456  03F7                     l2391:
  2457                           
  2458                           ;main.c: 267:         liga_buzzer(0.1);
  2459  03F7  303D               	movlw	61
  2460  03F8  1283               	bcf	3,5	;RP0=0, select bank0
  2461  03F9  1303               	bcf	3,6	;RP1=0, select bank0
  2462  03FA  00B8               	movwf	liga_buzzer@tempoSegundos+3
  2463  03FB  30CC               	movlw	204
  2464  03FC  00B7               	movwf	liga_buzzer@tempoSegundos+2
  2465  03FD  30CC               	movlw	204
  2466  03FE  00B6               	movwf	liga_buzzer@tempoSegundos+1
  2467  03FF  30CD               	movlw	205
  2468  0400  00B5               	movwf	liga_buzzer@tempoSegundos
  2469  0401  120A  158A  2378  120A  118A  	fcall	_liga_buzzer
  2470  0406                     l2393:
  2471                           
  2472                           ;main.c: 268:         LCD_escreve('D');
  2473  0406  3044               	movlw	68
  2474  0407  120A  158A  20B7  120A  118A  	fcall	_LCD_escreve
  2475  040C                     l2395:
  2476                           
  2477                           ;main.c: 273:     if (RB2 == 0){
  2478  040C  1283               	bcf	3,5	;RP0=0, select bank0
  2479  040D  1303               	bcf	3,6	;RP1=0, select bank0
  2480  040E  1906               	btfsc	6,2	;volatile
  2481  040F  2C11               	goto	u2641
  2482  0410  2C12               	goto	u2640
  2483  0411                     u2641:
  2484  0411  2C35               	goto	l2403
  2485  0412                     u2640:
  2486  0412                     l2397:
  2487                           
  2488                           ;main.c: 274:         _delay((unsigned long)((200)*(20000000/4000.0)));
  2489  0412  3006               	movlw	6
  2490  0413  1283               	bcf	3,5	;RP0=0, select bank0
  2491  0414  1303               	bcf	3,6	;RP1=0, select bank0
  2492  0415  00BD               	movwf	??_teclado+2
  2493  0416  3013               	movlw	19
  2494  0417  00BC               	movwf	??_teclado+1
  2495  0418  30AD               	movlw	173
  2496  0419  00BB               	movwf	??_teclado
  2497  041A                     u3247:
  2498  041A  0BBB               	decfsz	??_teclado,f
  2499  041B  2C1A               	goto	u3247
  2500  041C  0BBC               	decfsz	??_teclado+1,f
  2501  041D  2C1A               	goto	u3247
  2502  041E  0BBD               	decfsz	??_teclado+2,f
  2503  041F  2C1A               	goto	u3247
  2504  0420                     l2399:
  2505                           
  2506                           ;main.c: 275:         liga_buzzer(0.1);
  2507  0420  303D               	movlw	61
  2508  0421  1283               	bcf	3,5	;RP0=0, select bank0
  2509  0422  1303               	bcf	3,6	;RP1=0, select bank0
  2510  0423  00B8               	movwf	liga_buzzer@tempoSegundos+3
  2511  0424  30CC               	movlw	204
  2512  0425  00B7               	movwf	liga_buzzer@tempoSegundos+2
  2513  0426  30CC               	movlw	204
  2514  0427  00B6               	movwf	liga_buzzer@tempoSegundos+1
  2515  0428  30CD               	movlw	205
  2516  0429  00B5               	movwf	liga_buzzer@tempoSegundos
  2517  042A  120A  158A  2378  120A  118A  	fcall	_liga_buzzer
  2518  042F                     l2401:
  2519                           
  2520                           ;main.c: 276:         LCD_escreve('E');
  2521  042F  3045               	movlw	69
  2522  0430  120A  158A  20B7  120A  118A  	fcall	_LCD_escreve
  2523  0435                     l2403:
  2524                           
  2525                           ;main.c: 281:     if (RB3 == 0){
  2526  0435  1283               	bcf	3,5	;RP0=0, select bank0
  2527  0436  1303               	bcf	3,6	;RP1=0, select bank0
  2528  0437  1986               	btfsc	6,3	;volatile
  2529  0438  2C3A               	goto	u2651
  2530  0439  2C3B               	goto	u2650
  2531  043A                     u2651:
  2532  043A  2C5E               	goto	l191
  2533  043B                     u2650:
  2534  043B                     l2405:
  2535                           
  2536                           ;main.c: 282:         _delay((unsigned long)((200)*(20000000/4000.0)));
  2537  043B  3006               	movlw	6
  2538  043C  1283               	bcf	3,5	;RP0=0, select bank0
  2539  043D  1303               	bcf	3,6	;RP1=0, select bank0
  2540  043E  00BD               	movwf	??_teclado+2
  2541  043F  3013               	movlw	19
  2542  0440  00BC               	movwf	??_teclado+1
  2543  0441  30AD               	movlw	173
  2544  0442  00BB               	movwf	??_teclado
  2545  0443                     u3257:
  2546  0443  0BBB               	decfsz	??_teclado,f
  2547  0444  2C43               	goto	u3257
  2548  0445  0BBC               	decfsz	??_teclado+1,f
  2549  0446  2C43               	goto	u3257
  2550  0447  0BBD               	decfsz	??_teclado+2,f
  2551  0448  2C43               	goto	u3257
  2552  0449                     l2407:
  2553                           
  2554                           ;main.c: 283:         liga_buzzer(0.1);
  2555  0449  303D               	movlw	61
  2556  044A  1283               	bcf	3,5	;RP0=0, select bank0
  2557  044B  1303               	bcf	3,6	;RP1=0, select bank0
  2558  044C  00B8               	movwf	liga_buzzer@tempoSegundos+3
  2559  044D  30CC               	movlw	204
  2560  044E  00B7               	movwf	liga_buzzer@tempoSegundos+2
  2561  044F  30CC               	movlw	204
  2562  0450  00B6               	movwf	liga_buzzer@tempoSegundos+1
  2563  0451  30CD               	movlw	205
  2564  0452  00B5               	movwf	liga_buzzer@tempoSegundos
  2565  0453  120A  158A  2378  120A  118A  	fcall	_liga_buzzer
  2566  0458                     l2409:
  2567                           
  2568                           ;main.c: 284:         LCD_escreve('F');
  2569  0458  3046               	movlw	70
  2570  0459  120A  158A  20B7  120A  118A  	fcall	_LCD_escreve
  2571  045E                     l191:
  2572  045E  0008               	return
  2573  045F                     __end_of_teclado:
  2574                           
  2575                           	psect	text3
  2576  0B78                     __ptext3:	
  2577 ;; *************** function _liga_buzzer *****************
  2578 ;; Defined at:
  2579 ;;		line 97 in file "main.c"
  2580 ;; Parameters:    Size  Location     Type
  2581 ;;  tempoSegundo    4   21[BANK0 ] float 
  2582 ;; Auto vars:     Size  Location     Type
  2583 ;;		None
  2584 ;; Return value:  Size  Location     Type
  2585 ;;                  1    wreg      void 
  2586 ;; Registers used:
  2587 ;;		wreg, status,2, status,0, btemp+1, pclath, cstack
  2588 ;; Tracked objects:
  2589 ;;		On entry : 0/0
  2590 ;;		On exit  : 0/0
  2591 ;;		Unchanged: 0/0
  2592 ;; Data sizes:     COMMON   BANK0   BANK1   BANK3   BANK2
  2593 ;;      Params:         0       4       0       0       0
  2594 ;;      Locals:         0       0       0       0       0
  2595 ;;      Temps:          0       2       0       0       0
  2596 ;;      Totals:         0       6       0       0       0
  2597 ;;Total ram usage:        6 bytes
  2598 ;; Hardware stack levels used: 1
  2599 ;; Hardware stack levels required when called: 2
  2600 ;; This function calls:
  2601 ;;		___flge
  2602 ;;		___flmul
  2603 ;;		___flsub
  2604 ;; This function is called by:
  2605 ;;		_teclado
  2606 ;; This function uses a non-reentrant model
  2607 ;;
  2608                           
  2609                           
  2610                           ;psect for function _liga_buzzer
  2611  0B78                     _liga_buzzer:
  2612  0B78                     l2189:	
  2613                           ;incstack = 0
  2614                           ; Regs used in _liga_buzzer: [wreg+status,2+status,0+btemp+1+pclath+cstack]
  2615                           
  2616                           
  2617                           ;main.c: 98:     tempoSegundos = tempoSegundos * 1000;
  2618  0B78  3044               	movlw	68
  2619  0B79  1283               	bcf	3,5	;RP0=0, select bank0
  2620  0B7A  1303               	bcf	3,6	;RP1=0, select bank0
  2621  0B7B  00A3               	movwf	___flmul@b+3
  2622  0B7C  307A               	movlw	122
  2623  0B7D  00A2               	movwf	___flmul@b+2
  2624  0B7E  3000               	movlw	0
  2625  0B7F  00A1               	movwf	___flmul@b+1
  2626  0B80  3000               	movlw	0
  2627  0B81  00A0               	movwf	___flmul@b
  2628  0B82  0838               	movf	liga_buzzer@tempoSegundos+3,w
  2629  0B83  00A7               	movwf	___flmul@a+3
  2630  0B84  0837               	movf	liga_buzzer@tempoSegundos+2,w
  2631  0B85  00A6               	movwf	___flmul@a+2
  2632  0B86  0836               	movf	liga_buzzer@tempoSegundos+1,w
  2633  0B87  00A5               	movwf	___flmul@a+1
  2634  0B88  0835               	movf	liga_buzzer@tempoSegundos,w
  2635  0B89  00A4               	movwf	___flmul@a
  2636  0B8A  120A  118A  245F  120A  158A  	fcall	___flmul
  2637  0B8F  1283               	bcf	3,5	;RP0=0, select bank0
  2638  0B90  1303               	bcf	3,6	;RP1=0, select bank0
  2639  0B91  0823               	movf	?___flmul+3,w
  2640  0B92  00B8               	movwf	liga_buzzer@tempoSegundos+3
  2641  0B93  0822               	movf	?___flmul+2,w
  2642  0B94  00B7               	movwf	liga_buzzer@tempoSegundos+2
  2643  0B95  0821               	movf	?___flmul+1,w
  2644  0B96  00B6               	movwf	liga_buzzer@tempoSegundos+1
  2645  0B97  0820               	movf	?___flmul,w
  2646  0B98  00B5               	movwf	liga_buzzer@tempoSegundos
  2647  0B99                     l2191:
  2648                           
  2649                           ;main.c: 99:     _delay((unsigned long)((10)*(20000000/4000.0)));
  2650  0B99  3041               	movlw	65
  2651  0B9A  1283               	bcf	3,5	;RP0=0, select bank0
  2652  0B9B  1303               	bcf	3,6	;RP1=0, select bank0
  2653  0B9C  00BA               	movwf	??_liga_buzzer+1
  2654  0B9D  30ED               	movlw	237
  2655  0B9E  00B9               	movwf	??_liga_buzzer
  2656  0B9F                     u3267:
  2657  0B9F  0BB9               	decfsz	??_liga_buzzer,f
  2658  0BA0  2B9F               	goto	u3267
  2659  0BA1  0BBA               	decfsz	??_liga_buzzer+1,f
  2660  0BA2  2B9F               	goto	u3267
  2661  0BA3  2BA4               	nop2
  2662                           
  2663                           ;main.c: 101:     while(tempoSegundos > 0){
  2664  0BA4  2BD4               	goto	l2199
  2665  0BA5                     l2193:
  2666                           
  2667                           ;main.c: 102:        PORTE = 0;
  2668  0BA5  1283               	bcf	3,5	;RP0=0, select bank0
  2669  0BA6  1303               	bcf	3,6	;RP1=0, select bank0
  2670  0BA7  0189               	clrf	9	;volatile
  2671  0BA8                     l2195:
  2672                           
  2673                           ;main.c: 103:         _delay((unsigned long)((1)*(20000000/4000.0)));
  2674  0BA8  3007               	movlw	7
  2675  0BA9  1283               	bcf	3,5	;RP0=0, select bank0
  2676  0BAA  1303               	bcf	3,6	;RP1=0, select bank0
  2677  0BAB  00BA               	movwf	??_liga_buzzer+1
  2678  0BAC  307C               	movlw	124
  2679  0BAD  00B9               	movwf	??_liga_buzzer
  2680  0BAE                     u3277:
  2681  0BAE  0BB9               	decfsz	??_liga_buzzer,f
  2682  0BAF  2BAE               	goto	u3277
  2683  0BB0  0BBA               	decfsz	??_liga_buzzer+1,f
  2684  0BB1  2BAE               	goto	u3277
  2685  0BB2  0000               	nop
  2686  0BB3                     l2197:
  2687                           
  2688                           ;main.c: 104:         tempoSegundos--;
  2689  0BB3  303F               	movlw	63
  2690  0BB4  1283               	bcf	3,5	;RP0=0, select bank0
  2691  0BB5  1303               	bcf	3,6	;RP1=0, select bank0
  2692  0BB6  00AB               	movwf	___flsub@a+3
  2693  0BB7  3080               	movlw	128
  2694  0BB8  00AA               	movwf	___flsub@a+2
  2695  0BB9  3000               	movlw	0
  2696  0BBA  00A9               	movwf	___flsub@a+1
  2697  0BBB  3000               	movlw	0
  2698  0BBC  00A8               	movwf	___flsub@a
  2699  0BBD  0838               	movf	liga_buzzer@tempoSegundos+3,w
  2700  0BBE  00AF               	movwf	___flsub@b+3
  2701  0BBF  0837               	movf	liga_buzzer@tempoSegundos+2,w
  2702  0BC0  00AE               	movwf	___flsub@b+2
  2703  0BC1  0836               	movf	liga_buzzer@tempoSegundos+1,w
  2704  0BC2  00AD               	movwf	___flsub@b+1
  2705  0BC3  0835               	movf	liga_buzzer@tempoSegundos,w
  2706  0BC4  00AC               	movwf	___flsub@b
  2707  0BC5  120A  158A  2134  120A  158A  	fcall	___flsub
  2708  0BCA  1283               	bcf	3,5	;RP0=0, select bank0
  2709  0BCB  1303               	bcf	3,6	;RP1=0, select bank0
  2710  0BCC  082B               	movf	?___flsub+3,w
  2711  0BCD  00B8               	movwf	liga_buzzer@tempoSegundos+3
  2712  0BCE  082A               	movf	?___flsub+2,w
  2713  0BCF  00B7               	movwf	liga_buzzer@tempoSegundos+2
  2714  0BD0  0829               	movf	?___flsub+1,w
  2715  0BD1  00B6               	movwf	liga_buzzer@tempoSegundos+1
  2716  0BD2  0828               	movf	?___flsub,w
  2717  0BD3  00B5               	movwf	liga_buzzer@tempoSegundos
  2718  0BD4                     l2199:
  2719                           
  2720                           ;main.c: 101:     while(tempoSegundos > 0){
  2721  0BD4  3000               	movlw	0
  2722  0BD5  00F3               	movwf	___flge@ff1+3
  2723  0BD6  3000               	movlw	0
  2724  0BD7  00F2               	movwf	___flge@ff1+2
  2725  0BD8  3000               	movlw	0
  2726  0BD9  00F1               	movwf	___flge@ff1+1
  2727  0BDA  3000               	movlw	0
  2728  0BDB  00F0               	movwf	___flge@ff1
  2729  0BDC  1283               	bcf	3,5	;RP0=0, select bank0
  2730  0BDD  1303               	bcf	3,6	;RP1=0, select bank0
  2731  0BDE  0838               	movf	liga_buzzer@tempoSegundos+3,w
  2732  0BDF  00F7               	movwf	___flge@ff2+3
  2733  0BE0  0837               	movf	liga_buzzer@tempoSegundos+2,w
  2734  0BE1  00F6               	movwf	___flge@ff2+2
  2735  0BE2  0836               	movf	liga_buzzer@tempoSegundos+1,w
  2736  0BE3  00F5               	movwf	___flge@ff2+1
  2737  0BE4  0835               	movf	liga_buzzer@tempoSegundos,w
  2738  0BE5  00F4               	movwf	___flge@ff2
  2739  0BE6  120A  158A  23F4  120A  158A  	fcall	___flge
  2740  0BEB  1C03               	btfss	3,0
  2741  0BEC  2BEE               	goto	u2391
  2742  0BED  2BEF               	goto	u2390
  2743  0BEE                     u2391:
  2744  0BEE  2BA5               	goto	l2193
  2745  0BEF                     u2390:
  2746  0BEF                     l2201:
  2747                           
  2748                           ;main.c: 106:     PORTE = 0x0F;
  2749  0BEF  300F               	movlw	15
  2750  0BF0  1283               	bcf	3,5	;RP0=0, select bank0
  2751  0BF1  1303               	bcf	3,6	;RP1=0, select bank0
  2752  0BF2  0089               	movwf	9	;volatile
  2753  0BF3                     l162:
  2754  0BF3  0008               	return
  2755  0BF4                     __end_of_liga_buzzer:
  2756                           
  2757                           	psect	text4
  2758  0934                     __ptext4:	
  2759 ;; *************** function ___flsub *****************
  2760 ;; Defined at:
  2761 ;;		line 242 in file "C:\Program Files\Microchip\xc8\v2.32\pic\sources\c90\common\sprcadd.c"
  2762 ;; Parameters:    Size  Location     Type
  2763 ;;  a               4    8[BANK0 ] void 
  2764 ;;  b               4   12[BANK0 ] void 
  2765 ;; Auto vars:     Size  Location     Type
  2766 ;;		None
  2767 ;; Return value:  Size  Location     Type
  2768 ;;                  4    8[BANK0 ] void 
  2769 ;; Registers used:
  2770 ;;		wreg, status,2, status,0, btemp+1, pclath, cstack
  2771 ;; Tracked objects:
  2772 ;;		On entry : 0/0
  2773 ;;		On exit  : 0/0
  2774 ;;		Unchanged: 0/0
  2775 ;; Data sizes:     COMMON   BANK0   BANK1   BANK3   BANK2
  2776 ;;      Params:         0       8       0       0       0
  2777 ;;      Locals:         0       0       0       0       0
  2778 ;;      Temps:          0       0       0       0       0
  2779 ;;      Totals:         0       8       0       0       0
  2780 ;;Total ram usage:        8 bytes
  2781 ;; Hardware stack levels used: 1
  2782 ;; Hardware stack levels required when called: 1
  2783 ;; This function calls:
  2784 ;;		___fladd
  2785 ;; This function is called by:
  2786 ;;		_liga_buzzer
  2787 ;; This function uses a non-reentrant model
  2788 ;;
  2789                           
  2790                           
  2791                           ;psect for function ___flsub
  2792  0934                     ___flsub:
  2793  0934                     l2019:	
  2794                           ;incstack = 0
  2795                           ; Regs used in ___flsub: [wreg+status,2+status,0+btemp+1+pclath+cstack]
  2796                           
  2797  0934  3080               	movlw	128
  2798  0935  1283               	bcf	3,5	;RP0=0, select bank0
  2799  0936  1303               	bcf	3,6	;RP1=0, select bank0
  2800  0937  06AB               	xorwf	___flsub@a+3,f
  2801  0938                     l2021:
  2802  0938  082F               	movf	___flsub@b+3,w
  2803  0939  00F3               	movwf	___fladd@b+3
  2804  093A  082E               	movf	___flsub@b+2,w
  2805  093B  00F2               	movwf	___fladd@b+2
  2806  093C  082D               	movf	___flsub@b+1,w
  2807  093D  00F1               	movwf	___fladd@b+1
  2808  093E  082C               	movf	___flsub@b,w
  2809  093F  00F0               	movwf	___fladd@b
  2810  0940  082B               	movf	___flsub@a+3,w
  2811  0941  00F7               	movwf	___fladd@a+3
  2812  0942  082A               	movf	___flsub@a+2,w
  2813  0943  00F6               	movwf	___fladd@a+2
  2814  0944  0829               	movf	___flsub@a+1,w
  2815  0945  00F5               	movwf	___fladd@a+1
  2816  0946  0828               	movf	___flsub@a,w
  2817  0947  00F4               	movwf	___fladd@a
  2818  0948  120A  158A  2568  120A  158A  	fcall	___fladd
  2819  094D  0873               	movf	?___fladd+3,w
  2820  094E  1283               	bcf	3,5	;RP0=0, select bank0
  2821  094F  1303               	bcf	3,6	;RP1=0, select bank0
  2822  0950  00AB               	movwf	?___flsub+3
  2823  0951  0872               	movf	?___fladd+2,w
  2824  0952  00AA               	movwf	?___flsub+2
  2825  0953  0871               	movf	?___fladd+1,w
  2826  0954  00A9               	movwf	?___flsub+1
  2827  0955  0870               	movf	?___fladd,w
  2828  0956  00A8               	movwf	?___flsub
  2829  0957                     l674:
  2830  0957  0008               	return
  2831  0958                     __end_of___flsub:
  2832                           
  2833                           	psect	text5
  2834  0D68                     __ptext5:	
  2835 ;; *************** function ___fladd *****************
  2836 ;; Defined at:
  2837 ;;		line 10 in file "C:\Program Files\Microchip\xc8\v2.32\pic\sources\c90\common\sprcadd.c"
  2838 ;; Parameters:    Size  Location     Type
  2839 ;;  b               4    0[COMMON] void 
  2840 ;;  a               4    4[COMMON] void 
  2841 ;; Auto vars:     Size  Location     Type
  2842 ;;  grs             1   11[COMMON] unsigned char 
  2843 ;;  bexp            1   10[COMMON] unsigned char 
  2844 ;;  aexp            1    9[COMMON] unsigned char 
  2845 ;;  signs           1    8[COMMON] unsigned char 
  2846 ;; Return value:  Size  Location     Type
  2847 ;;                  4    0[COMMON] unsigned char 
  2848 ;; Registers used:
  2849 ;;		wreg, status,2, status,0, btemp+1
  2850 ;; Tracked objects:
  2851 ;;		On entry : 0/0
  2852 ;;		On exit  : 0/0
  2853 ;;		Unchanged: 0/0
  2854 ;; Data sizes:     COMMON   BANK0   BANK1   BANK3   BANK2
  2855 ;;      Params:         8       0       0       0       0
  2856 ;;      Locals:         4       0       0       0       0
  2857 ;;      Temps:          0       8       0       0       0
  2858 ;;      Totals:        12       8       0       0       0
  2859 ;;Total ram usage:       20 bytes
  2860 ;; Hardware stack levels used: 1
  2861 ;; This function calls:
  2862 ;;		Nothing
  2863 ;; This function is called by:
  2864 ;;		___flsub
  2865 ;; This function uses a non-reentrant model
  2866 ;;
  2867                           
  2868                           
  2869                           ;psect for function ___fladd
  2870  0D68                     ___fladd:
  2871  0D68                     l1781:	
  2872                           ;incstack = 0
  2873                           ; Regs used in ___fladd: [wreg+status,2+status,0+btemp+1]
  2874                           
  2875  0D68  0873               	movf	___fladd@b+3,w
  2876  0D69  3980               	andlw	128
  2877  0D6A  1283               	bcf	3,5	;RP0=0, select bank0
  2878  0D6B  1303               	bcf	3,6	;RP1=0, select bank0
  2879  0D6C  00A0               	movwf	??___fladd
  2880  0D6D  0820               	movf	??___fladd,w
  2881  0D6E  00F8               	movwf	___fladd@signs
  2882  0D6F                     l1783:
  2883  0D6F  0873               	movf	___fladd@b+3,w
  2884  0D70  00A0               	movwf	??___fladd
  2885  0D71  0720               	addwf	??___fladd,w
  2886  0D72  00A1               	movwf	??___fladd+1
  2887  0D73  0821               	movf	??___fladd+1,w
  2888  0D74  00FA               	movwf	___fladd@bexp
  2889  0D75                     l1785:
  2890  0D75  1FF2               	btfss	___fladd@b+2,7
  2891  0D76  2D78               	goto	u1451
  2892  0D77  2D79               	goto	u1450
  2893  0D78                     u1451:
  2894  0D78  2D7A               	goto	l1789
  2895  0D79                     u1450:
  2896  0D79                     l1787:
  2897  0D79  147A               	bsf	___fladd@bexp,0
  2898  0D7A                     l1789:
  2899  0D7A  087A               	movf	___fladd@bexp,w
  2900  0D7B  1903               	btfsc	3,2
  2901  0D7C  2D7E               	goto	u1461
  2902  0D7D  2D7F               	goto	u1460
  2903  0D7E                     u1461:
  2904  0D7E  2D8F               	goto	l1799
  2905  0D7F                     u1460:
  2906  0D7F                     l1791:
  2907  0D7F  0A7A               	incf	___fladd@bexp,w
  2908  0D80  1D03               	btfss	3,2
  2909  0D81  2D83               	goto	u1471
  2910  0D82  2D84               	goto	u1470
  2911  0D83                     u1471:
  2912  0D83  2D8C               	goto	l1795
  2913  0D84                     u1470:
  2914  0D84                     l1793:
  2915  0D84  3000               	movlw	0
  2916  0D85  00F3               	movwf	___fladd@b+3
  2917  0D86  3000               	movlw	0
  2918  0D87  00F2               	movwf	___fladd@b+2
  2919  0D88  3000               	movlw	0
  2920  0D89  00F1               	movwf	___fladd@b+1
  2921  0D8A  3000               	movlw	0
  2922  0D8B  00F0               	movwf	___fladd@b
  2923  0D8C                     l1795:
  2924  0D8C  17F2               	bsf	___fladd@b+2,7
  2925  0D8D                     l1797:
  2926  0D8D  01F3               	clrf	___fladd@b+3
  2927  0D8E  2D97               	goto	l1801
  2928  0D8F                     l1799:
  2929  0D8F  3000               	movlw	0
  2930  0D90  00F3               	movwf	___fladd@b+3
  2931  0D91  3000               	movlw	0
  2932  0D92  00F2               	movwf	___fladd@b+2
  2933  0D93  3000               	movlw	0
  2934  0D94  00F1               	movwf	___fladd@b+1
  2935  0D95  3000               	movlw	0
  2936  0D96  00F0               	movwf	___fladd@b
  2937  0D97                     l1801:
  2938  0D97  0877               	movf	___fladd@a+3,w
  2939  0D98  3980               	andlw	128
  2940  0D99  00A0               	movwf	??___fladd
  2941  0D9A  0820               	movf	??___fladd,w
  2942  0D9B  00F9               	movwf	___fladd@aexp
  2943  0D9C                     l1803:
  2944  0D9C  0879               	movf	___fladd@aexp,w
  2945  0D9D  0678               	xorwf	___fladd@signs,w
  2946  0D9E  1903               	skipnz
  2947  0D9F  2DA1               	goto	u1481
  2948  0DA0  2DA2               	goto	u1480
  2949  0DA1                     u1481:
  2950  0DA1  2DA3               	goto	l1807
  2951  0DA2                     u1480:
  2952  0DA2                     l1805:
  2953  0DA2  1778               	bsf	___fladd@signs,6
  2954  0DA3                     l1807:
  2955  0DA3  0877               	movf	___fladd@a+3,w
  2956  0DA4  00A0               	movwf	??___fladd
  2957  0DA5  0720               	addwf	??___fladd,w
  2958  0DA6  00A1               	movwf	??___fladd+1
  2959  0DA7  0821               	movf	??___fladd+1,w
  2960  0DA8  00F9               	movwf	___fladd@aexp
  2961  0DA9                     l1809:
  2962  0DA9  1FF6               	btfss	___fladd@a+2,7
  2963  0DAA  2DAC               	goto	u1491
  2964  0DAB  2DAD               	goto	u1490
  2965  0DAC                     u1491:
  2966  0DAC  2DAE               	goto	l1813
  2967  0DAD                     u1490:
  2968  0DAD                     l1811:
  2969  0DAD  1479               	bsf	___fladd@aexp,0
  2970  0DAE                     l1813:
  2971  0DAE  0879               	movf	___fladd@aexp,w
  2972  0DAF  1903               	btfsc	3,2
  2973  0DB0  2DB2               	goto	u1501
  2974  0DB1  2DB3               	goto	u1500
  2975  0DB2                     u1501:
  2976  0DB2  2DC3               	goto	l1823
  2977  0DB3                     u1500:
  2978  0DB3                     l1815:
  2979  0DB3  0A79               	incf	___fladd@aexp,w
  2980  0DB4  1D03               	btfss	3,2
  2981  0DB5  2DB7               	goto	u1511
  2982  0DB6  2DB8               	goto	u1510
  2983  0DB7                     u1511:
  2984  0DB7  2DC0               	goto	l1819
  2985  0DB8                     u1510:
  2986  0DB8                     l1817:
  2987  0DB8  3000               	movlw	0
  2988  0DB9  00F7               	movwf	___fladd@a+3
  2989  0DBA  3000               	movlw	0
  2990  0DBB  00F6               	movwf	___fladd@a+2
  2991  0DBC  3000               	movlw	0
  2992  0DBD  00F5               	movwf	___fladd@a+1
  2993  0DBE  3000               	movlw	0
  2994  0DBF  00F4               	movwf	___fladd@a
  2995  0DC0                     l1819:
  2996  0DC0  17F6               	bsf	___fladd@a+2,7
  2997  0DC1                     l1821:
  2998  0DC1  01F7               	clrf	___fladd@a+3
  2999  0DC2  2DCB               	goto	l628
  3000  0DC3                     l1823:
  3001  0DC3  3000               	movlw	0
  3002  0DC4  00F7               	movwf	___fladd@a+3
  3003  0DC5  3000               	movlw	0
  3004  0DC6  00F6               	movwf	___fladd@a+2
  3005  0DC7  3000               	movlw	0
  3006  0DC8  00F5               	movwf	___fladd@a+1
  3007  0DC9  3000               	movlw	0
  3008  0DCA  00F4               	movwf	___fladd@a
  3009  0DCB                     l628:
  3010  0DCB  087A               	movf	___fladd@bexp,w
  3011  0DCC  0279               	subwf	___fladd@aexp,w
  3012  0DCD  1803               	skipnc
  3013  0DCE  2DD0               	goto	u1521
  3014  0DCF  2DD1               	goto	u1520
  3015  0DD0                     u1521:
  3016  0DD0  2E15               	goto	l1859
  3017  0DD1                     u1520:
  3018  0DD1                     l1825:
  3019  0DD1  1F78               	btfss	___fladd@signs,6
  3020  0DD2  2DD4               	goto	u1531
  3021  0DD3  2DD5               	goto	u1530
  3022  0DD4                     u1531:
  3023  0DD4  2DD9               	goto	l1829
  3024  0DD5                     u1530:
  3025  0DD5                     l1827:
  3026  0DD5  3080               	movlw	128
  3027  0DD6  00A0               	movwf	??___fladd
  3028  0DD7  0820               	movf	??___fladd,w
  3029  0DD8  06F8               	xorwf	___fladd@signs,f
  3030  0DD9                     l1829:
  3031  0DD9  087A               	movf	___fladd@bexp,w
  3032  0DDA  00A0               	movwf	??___fladd
  3033  0DDB  0820               	movf	??___fladd,w
  3034  0DDC  00FB               	movwf	___fladd@grs
  3035  0DDD                     l1831:
  3036  0DDD  0879               	movf	___fladd@aexp,w
  3037  0DDE  00A0               	movwf	??___fladd
  3038  0DDF  0820               	movf	??___fladd,w
  3039  0DE0  00FA               	movwf	___fladd@bexp
  3040  0DE1                     l1833:
  3041  0DE1  087B               	movf	___fladd@grs,w
  3042  0DE2  00A0               	movwf	??___fladd
  3043  0DE3  0820               	movf	??___fladd,w
  3044  0DE4  00F9               	movwf	___fladd@aexp
  3045  0DE5                     l1835:
  3046  0DE5  0870               	movf	___fladd@b,w
  3047  0DE6  00A0               	movwf	??___fladd
  3048  0DE7  0820               	movf	??___fladd,w
  3049  0DE8  00FB               	movwf	___fladd@grs
  3050  0DE9                     l1837:
  3051  0DE9  0874               	movf	___fladd@a,w
  3052  0DEA  00A0               	movwf	??___fladd
  3053  0DEB  0820               	movf	??___fladd,w
  3054  0DEC  00F0               	movwf	___fladd@b
  3055  0DED                     l1839:
  3056  0DED  087B               	movf	___fladd@grs,w
  3057  0DEE  00A0               	movwf	??___fladd
  3058  0DEF  0820               	movf	??___fladd,w
  3059  0DF0  00F4               	movwf	___fladd@a
  3060  0DF1                     l1841:
  3061  0DF1  0871               	movf	___fladd@b+1,w
  3062  0DF2  00A0               	movwf	??___fladd
  3063  0DF3  0820               	movf	??___fladd,w
  3064  0DF4  00FB               	movwf	___fladd@grs
  3065  0DF5                     l1843:
  3066  0DF5  0875               	movf	___fladd@a+1,w
  3067  0DF6  00A0               	movwf	??___fladd
  3068  0DF7  0820               	movf	??___fladd,w
  3069  0DF8  00F1               	movwf	___fladd@b+1
  3070  0DF9                     l1845:
  3071  0DF9  087B               	movf	___fladd@grs,w
  3072  0DFA  00A0               	movwf	??___fladd
  3073  0DFB  0820               	movf	??___fladd,w
  3074  0DFC  00F5               	movwf	___fladd@a+1
  3075  0DFD                     l1847:
  3076  0DFD  0872               	movf	___fladd@b+2,w
  3077  0DFE  00A0               	movwf	??___fladd
  3078  0DFF  0820               	movf	??___fladd,w
  3079  0E00  00FB               	movwf	___fladd@grs
  3080  0E01                     l1849:
  3081  0E01  0876               	movf	___fladd@a+2,w
  3082  0E02  00A0               	movwf	??___fladd
  3083  0E03  0820               	movf	??___fladd,w
  3084  0E04  00F2               	movwf	___fladd@b+2
  3085  0E05                     l1851:
  3086  0E05  087B               	movf	___fladd@grs,w
  3087  0E06  00A0               	movwf	??___fladd
  3088  0E07  0820               	movf	??___fladd,w
  3089  0E08  00F6               	movwf	___fladd@a+2
  3090  0E09                     l1853:
  3091  0E09  0873               	movf	___fladd@b+3,w
  3092  0E0A  00A0               	movwf	??___fladd
  3093  0E0B  0820               	movf	??___fladd,w
  3094  0E0C  00FB               	movwf	___fladd@grs
  3095  0E0D                     l1855:
  3096  0E0D  0877               	movf	___fladd@a+3,w
  3097  0E0E  00A0               	movwf	??___fladd
  3098  0E0F  0820               	movf	??___fladd,w
  3099  0E10  00F3               	movwf	___fladd@b+3
  3100  0E11                     l1857:
  3101  0E11  087B               	movf	___fladd@grs,w
  3102  0E12  00A0               	movwf	??___fladd
  3103  0E13  0820               	movf	??___fladd,w
  3104  0E14  00F7               	movwf	___fladd@a+3
  3105  0E15                     l1859:
  3106  0E15  01FB               	clrf	___fladd@grs
  3107  0E16                     l1861:
  3108  0E16  0879               	movf	___fladd@aexp,w
  3109  0E17  00A0               	movwf	??___fladd
  3110  0E18  01A1               	clrf	??___fladd+1
  3111  0E19  0821               	movf	??___fladd+1,w
  3112  0E1A  00A3               	movwf	??___fladd+3
  3113  0E1B  087A               	movf	___fladd@bexp,w
  3114  0E1C  0220               	subwf	??___fladd,w
  3115  0E1D  00A2               	movwf	??___fladd+2
  3116  0E1E  1C03               	skipc
  3117  0E1F  03A3               	decf	??___fladd+3,f
  3118  0E20  0823               	movf	??___fladd+3,w
  3119  0E21  3A80               	xorlw	128
  3120  0E22  00FF               	movwf	btemp+1
  3121  0E23  3080               	movlw	128
  3122  0E24  027F               	subwf	btemp+1,w
  3123  0E25  1D03               	skipz
  3124  0E26  2E29               	goto	u1545
  3125  0E27  301A               	movlw	26
  3126  0E28  0222               	subwf	??___fladd+2,w
  3127  0E29                     u1545:
  3128  0E29  1C03               	skipc
  3129  0E2A  2E2C               	goto	u1541
  3130  0E2B  2E2D               	goto	u1540
  3131  0E2C                     u1541:
  3132  0E2C  2E6E               	goto	l1877
  3133  0E2D                     u1540:
  3134  0E2D                     l1863:
  3135  0E2D  0873               	movf	___fladd@b+3,w
  3136  0E2E  0472               	iorwf	___fladd@b+2,w
  3137  0E2F  0471               	iorwf	___fladd@b+1,w
  3138  0E30  0470               	iorwf	___fladd@b,w
  3139  0E31  1D03               	skipz
  3140  0E32  2E34               	goto	u1551
  3141  0E33  2E36               	goto	u1550
  3142  0E34                     u1551:
  3143  0E34  3001               	movlw	1
  3144  0E35  2E37               	goto	u1560
  3145  0E36                     u1550:
  3146  0E36  3000               	movlw	0
  3147  0E37                     u1560:
  3148  0E37  1283               	bcf	3,5	;RP0=0, select bank0
  3149  0E38  1303               	bcf	3,6	;RP1=0, select bank0
  3150  0E39  00A0               	movwf	??___fladd
  3151  0E3A  0820               	movf	??___fladd,w
  3152  0E3B  00FB               	movwf	___fladd@grs
  3153  0E3C  3000               	movlw	0
  3154  0E3D  00F3               	movwf	___fladd@b+3
  3155  0E3E  3000               	movlw	0
  3156  0E3F  00F2               	movwf	___fladd@b+2
  3157  0E40  3000               	movlw	0
  3158  0E41  00F1               	movwf	___fladd@b+1
  3159  0E42  3000               	movlw	0
  3160  0E43  00F0               	movwf	___fladd@b
  3161  0E44  0879               	movf	___fladd@aexp,w
  3162  0E45  00A0               	movwf	??___fladd
  3163  0E46  0820               	movf	??___fladd,w
  3164  0E47  00FA               	movwf	___fladd@bexp
  3165  0E48  2E74               	goto	l632
  3166  0E49                     l634:
  3167  0E49  1C7B               	btfss	___fladd@grs,0
  3168  0E4A  2E4C               	goto	u1571
  3169  0E4B  2E4D               	goto	u1570
  3170  0E4C                     u1571:
  3171  0E4C  2E58               	goto	l1867
  3172  0E4D                     u1570:
  3173  0E4D                     l1865:
  3174  0E4D  087B               	movf	___fladd@grs,w
  3175  0E4E  1283               	bcf	3,5	;RP0=0, select bank0
  3176  0E4F  1303               	bcf	3,6	;RP1=0, select bank0
  3177  0E50  00A0               	movwf	??___fladd
  3178  0E51  1003               	clrc
  3179  0E52  0C20               	rrf	??___fladd,w
  3180  0E53  3801               	iorlw	1
  3181  0E54  00A1               	movwf	??___fladd+1
  3182  0E55  0821               	movf	??___fladd+1,w
  3183  0E56  00FB               	movwf	___fladd@grs
  3184  0E57  2E5A               	goto	l1869
  3185  0E58                     l1867:
  3186  0E58  1003               	clrc
  3187  0E59  0CFB               	rrf	___fladd@grs,f
  3188  0E5A                     l1869:
  3189  0E5A  1C70               	btfss	___fladd@b,0
  3190  0E5B  2E5D               	goto	u1581
  3191  0E5C  2E5E               	goto	u1580
  3192  0E5D                     u1581:
  3193  0E5D  2E5F               	goto	l1873
  3194  0E5E                     u1580:
  3195  0E5E                     l1871:
  3196  0E5E  17FB               	bsf	___fladd@grs,7
  3197  0E5F                     l1873:
  3198  0E5F  3001               	movlw	1
  3199  0E60  1283               	bcf	3,5	;RP0=0, select bank0
  3200  0E61  1303               	bcf	3,6	;RP1=0, select bank0
  3201  0E62  00A0               	movwf	??___fladd
  3202  0E63                     u1595:
  3203  0E63  0D73               	rlf	___fladd@b+3,w
  3204  0E64  0CF3               	rrf	___fladd@b+3,f
  3205  0E65  0CF2               	rrf	___fladd@b+2,f
  3206  0E66  0CF1               	rrf	___fladd@b+1,f
  3207  0E67  0CF0               	rrf	___fladd@b,f
  3208  0E68  0BA0               	decfsz	??___fladd& (0+127),f
  3209  0E69  2E63               	goto	u1595
  3210  0E6A                     l1875:
  3211  0E6A  3001               	movlw	1
  3212  0E6B  00A0               	movwf	??___fladd
  3213  0E6C  0820               	movf	??___fladd,w
  3214  0E6D  07FA               	addwf	___fladd@bexp,f
  3215  0E6E                     l1877:
  3216  0E6E  0879               	movf	___fladd@aexp,w
  3217  0E6F  027A               	subwf	___fladd@bexp,w
  3218  0E70  1C03               	skipc
  3219  0E71  2E73               	goto	u1601
  3220  0E72  2E74               	goto	u1600
  3221  0E73                     u1601:
  3222  0E73  2E49               	goto	l634
  3223  0E74                     u1600:
  3224  0E74                     l632:
  3225  0E74  1B78               	btfsc	___fladd@signs,6
  3226  0E75  2E77               	goto	u1611
  3227  0E76  2E78               	goto	u1610
  3228  0E77                     u1611:
  3229  0E77  2EC7               	goto	l1903
  3230  0E78                     u1610:
  3231  0E78                     l1879:
  3232  0E78  087A               	movf	___fladd@bexp,w
  3233  0E79  1D03               	btfss	3,2
  3234  0E7A  2E7C               	goto	u1621
  3235  0E7B  2E7D               	goto	u1620
  3236  0E7C                     u1621:
  3237  0E7C  2E86               	goto	l1885
  3238  0E7D                     u1620:
  3239  0E7D                     l1881:
  3240  0E7D  3000               	movlw	0
  3241  0E7E  00F3               	movwf	?___fladd+3
  3242  0E7F  3000               	movlw	0
  3243  0E80  00F2               	movwf	?___fladd+2
  3244  0E81  3000               	movlw	0
  3245  0E82  00F1               	movwf	?___fladd+1
  3246  0E83  3000               	movlw	0
  3247  0E84  00F0               	movwf	?___fladd
  3248  0E85  2FFF               	goto	l641
  3249  0E86                     l1885:
  3250  0E86  0874               	movf	___fladd@a,w
  3251  0E87  07F0               	addwf	___fladd@b,f
  3252  0E88  0875               	movf	___fladd@a+1,w
  3253  0E89  1103               	clrz
  3254  0E8A  1803               	skipnc
  3255  0E8B  3E01               	addlw	1
  3256  0E8C  1903               	skipnz
  3257  0E8D  2E8F               	goto	u1631
  3258  0E8E  07F1               	addwf	___fladd@b+1,f
  3259  0E8F                     u1631:
  3260  0E8F  0876               	movf	___fladd@a+2,w
  3261  0E90  1103               	clrz
  3262  0E91  1803               	skipnc
  3263  0E92  3E01               	addlw	1
  3264  0E93  1903               	skipnz
  3265  0E94  2E96               	goto	u1632
  3266  0E95  07F2               	addwf	___fladd@b+2,f
  3267  0E96                     u1632:
  3268  0E96  0877               	movf	___fladd@a+3,w
  3269  0E97  1103               	clrz
  3270  0E98  1803               	skipnc
  3271  0E99  3E01               	addlw	1
  3272  0E9A  1903               	skipnz
  3273  0E9B  2E9D               	goto	u1633
  3274  0E9C  07F3               	addwf	___fladd@b+3,f
  3275  0E9D                     u1633:
  3276  0E9D                     l1887:
  3277  0E9D  1C73               	btfss	___fladd@b+3,0
  3278  0E9E  2EA0               	goto	u1641
  3279  0E9F  2EA1               	goto	u1640
  3280  0EA0                     u1641:
  3281  0EA0  2F7F               	goto	l1937
  3282  0EA1                     u1640:
  3283  0EA1                     l1889:
  3284  0EA1  1C7B               	btfss	___fladd@grs,0
  3285  0EA2  2EA4               	goto	u1651
  3286  0EA3  2EA5               	goto	u1650
  3287  0EA4                     u1651:
  3288  0EA4  2EB0               	goto	l1893
  3289  0EA5                     u1650:
  3290  0EA5                     l1891:
  3291  0EA5  087B               	movf	___fladd@grs,w
  3292  0EA6  1283               	bcf	3,5	;RP0=0, select bank0
  3293  0EA7  1303               	bcf	3,6	;RP1=0, select bank0
  3294  0EA8  00A0               	movwf	??___fladd
  3295  0EA9  1003               	clrc
  3296  0EAA  0C20               	rrf	??___fladd,w
  3297  0EAB  3801               	iorlw	1
  3298  0EAC  00A1               	movwf	??___fladd+1
  3299  0EAD  0821               	movf	??___fladd+1,w
  3300  0EAE  00FB               	movwf	___fladd@grs
  3301  0EAF  2EB2               	goto	l1895
  3302  0EB0                     l1893:
  3303  0EB0  1003               	clrc
  3304  0EB1  0CFB               	rrf	___fladd@grs,f
  3305  0EB2                     l1895:
  3306  0EB2  1C70               	btfss	___fladd@b,0
  3307  0EB3  2EB5               	goto	u1661
  3308  0EB4  2EB6               	goto	u1660
  3309  0EB5                     u1661:
  3310  0EB5  2EB7               	goto	l1899
  3311  0EB6                     u1660:
  3312  0EB6                     l1897:
  3313  0EB6  17FB               	bsf	___fladd@grs,7
  3314  0EB7                     l1899:
  3315  0EB7  3001               	movlw	1
  3316  0EB8  1283               	bcf	3,5	;RP0=0, select bank0
  3317  0EB9  1303               	bcf	3,6	;RP1=0, select bank0
  3318  0EBA  00A0               	movwf	??___fladd
  3319  0EBB                     u1675:
  3320  0EBB  0D73               	rlf	___fladd@b+3,w
  3321  0EBC  0CF3               	rrf	___fladd@b+3,f
  3322  0EBD  0CF2               	rrf	___fladd@b+2,f
  3323  0EBE  0CF1               	rrf	___fladd@b+1,f
  3324  0EBF  0CF0               	rrf	___fladd@b,f
  3325  0EC0  0BA0               	decfsz	??___fladd& (0+127),f
  3326  0EC1  2EBB               	goto	u1675
  3327  0EC2                     l1901:
  3328  0EC2  3001               	movlw	1
  3329  0EC3  00A0               	movwf	??___fladd
  3330  0EC4  0820               	movf	??___fladd,w
  3331  0EC5  07FA               	addwf	___fladd@bexp,f
  3332  0EC6  2F7F               	goto	l1937
  3333  0EC7                     l1903:
  3334  0EC7  0873               	movf	___fladd@b+3,w
  3335  0EC8  3A80               	xorlw	128
  3336  0EC9  00FF               	movwf	btemp+1
  3337  0ECA  0877               	movf	___fladd@a+3,w
  3338  0ECB  3A80               	xorlw	128
  3339  0ECC  027F               	subwf	btemp+1,w
  3340  0ECD  1D03               	skipz
  3341  0ECE  2ED9               	goto	u1683
  3342  0ECF  0876               	movf	___fladd@a+2,w
  3343  0ED0  0272               	subwf	___fladd@b+2,w
  3344  0ED1  1D03               	skipz
  3345  0ED2  2ED9               	goto	u1683
  3346  0ED3  0875               	movf	___fladd@a+1,w
  3347  0ED4  0271               	subwf	___fladd@b+1,w
  3348  0ED5  1D03               	skipz
  3349  0ED6  2ED9               	goto	u1683
  3350  0ED7  0874               	movf	___fladd@a,w
  3351  0ED8  0270               	subwf	___fladd@b,w
  3352  0ED9                     u1683:
  3353  0ED9  1803               	skipnc
  3354  0EDA  2EDC               	goto	u1681
  3355  0EDB  2EDD               	goto	u1680
  3356  0EDC                     u1681:
  3357  0EDC  2F37               	goto	l1913
  3358  0EDD                     u1680:
  3359  0EDD                     l1905:
  3360  0EDD  30FF               	movlw	255
  3361  0EDE  1283               	bcf	3,5	;RP0=0, select bank0
  3362  0EDF  1303               	bcf	3,6	;RP1=0, select bank0
  3363  0EE0  00A0               	movwf	??___fladd
  3364  0EE1  30FF               	movlw	255
  3365  0EE2  00A1               	movwf	??___fladd+1
  3366  0EE3  30FF               	movlw	255
  3367  0EE4  00A2               	movwf	??___fladd+2
  3368  0EE5  30FF               	movlw	255
  3369  0EE6  00A3               	movwf	??___fladd+3
  3370  0EE7  0874               	movf	___fladd@a,w
  3371  0EE8  00A4               	movwf	??___fladd+4
  3372  0EE9  0875               	movf	___fladd@a+1,w
  3373  0EEA  00A5               	movwf	??___fladd+5
  3374  0EEB  0876               	movf	___fladd@a+2,w
  3375  0EEC  00A6               	movwf	??___fladd+6
  3376  0EED  0877               	movf	___fladd@a+3,w
  3377  0EEE  00A7               	movwf	??___fladd+7
  3378  0EEF  0870               	movf	___fladd@b,w
  3379  0EF0  02A4               	subwf	??___fladd+4,f
  3380  0EF1  0871               	movf	___fladd@b+1,w
  3381  0EF2  1C03               	skipc
  3382  0EF3  0F71               	incfsz	___fladd@b+1,w
  3383  0EF4  2EF6               	goto	u1691
  3384  0EF5  2EF7               	goto	u1692
  3385  0EF6                     u1691:
  3386  0EF6  02A5               	subwf	??___fladd+5,f
  3387  0EF7                     u1692:
  3388  0EF7  0872               	movf	___fladd@b+2,w
  3389  0EF8  1C03               	skipc
  3390  0EF9  0F72               	incfsz	___fladd@b+2,w
  3391  0EFA  2EFC               	goto	u1693
  3392  0EFB  2EFD               	goto	u1694
  3393  0EFC                     u1693:
  3394  0EFC  02A6               	subwf	??___fladd+6,f
  3395  0EFD                     u1694:
  3396  0EFD  0873               	movf	___fladd@b+3,w
  3397  0EFE  1C03               	skipc
  3398  0EFF  0F73               	incfsz	___fladd@b+3,w
  3399  0F00  2F02               	goto	u1695
  3400  0F01  2F03               	goto	u1696
  3401  0F02                     u1695:
  3402  0F02  02A7               	subwf	??___fladd+7,f
  3403  0F03                     u1696:
  3404  0F03  0824               	movf	??___fladd+4,w
  3405  0F04  07A0               	addwf	??___fladd,f
  3406  0F05  0825               	movf	??___fladd+5,w
  3407  0F06  1803               	skipnc
  3408  0F07  0F25               	incfsz	??___fladd+5,w
  3409  0F08  2F0A               	goto	u1700
  3410  0F09  2F0B               	goto	u1701
  3411  0F0A                     u1700:
  3412  0F0A  07A1               	addwf	??___fladd+1,f
  3413  0F0B                     u1701:
  3414  0F0B  0826               	movf	??___fladd+6,w
  3415  0F0C  1803               	skipnc
  3416  0F0D  0F26               	incfsz	??___fladd+6,w
  3417  0F0E  2F10               	goto	u1702
  3418  0F0F  2F11               	goto	u1703
  3419  0F10                     u1702:
  3420  0F10  07A2               	addwf	??___fladd+2,f
  3421  0F11                     u1703:
  3422  0F11  0827               	movf	??___fladd+7,w
  3423  0F12  1803               	skipnc
  3424  0F13  0A27               	incf	??___fladd+7,w
  3425  0F14  07A3               	addwf	??___fladd+3,f
  3426  0F15  0823               	movf	??___fladd+3,w
  3427  0F16  00F3               	movwf	___fladd@b+3
  3428  0F17  0822               	movf	??___fladd+2,w
  3429  0F18  00F2               	movwf	___fladd@b+2
  3430  0F19  0821               	movf	??___fladd+1,w
  3431  0F1A  00F1               	movwf	___fladd@b+1
  3432  0F1B  0820               	movf	??___fladd,w
  3433  0F1C  00F0               	movwf	___fladd@b
  3434  0F1D                     l1907:
  3435  0F1D  3080               	movlw	128
  3436  0F1E  00A0               	movwf	??___fladd
  3437  0F1F  0820               	movf	??___fladd,w
  3438  0F20  06F8               	xorwf	___fladd@signs,f
  3439  0F21  09FB               	comf	___fladd@grs,f
  3440  0F22  0AFB               	incf	___fladd@grs,f
  3441  0F23                     l1909:
  3442  0F23  087B               	movf	___fladd@grs,w
  3443  0F24  1D03               	btfss	3,2
  3444  0F25  2F27               	goto	u1711
  3445  0F26  2F28               	goto	u1710
  3446  0F27                     u1711:
  3447  0F27  2F45               	goto	l649
  3448  0F28                     u1710:
  3449  0F28                     l1911:
  3450  0F28  3001               	movlw	1
  3451  0F29  07F0               	addwf	___fladd@b,f
  3452  0F2A  3000               	movlw	0
  3453  0F2B  1803               	skipnc
  3454  0F2C  3001               	movlw	1
  3455  0F2D  07F1               	addwf	___fladd@b+1,f
  3456  0F2E  3000               	movlw	0
  3457  0F2F  1803               	skipnc
  3458  0F30  3001               	movlw	1
  3459  0F31  07F2               	addwf	___fladd@b+2,f
  3460  0F32  3000               	movlw	0
  3461  0F33  1803               	skipnc
  3462  0F34  3001               	movlw	1
  3463  0F35  07F3               	addwf	___fladd@b+3,f
  3464  0F36  2F45               	goto	l649
  3465  0F37                     l1913:
  3466  0F37  0874               	movf	___fladd@a,w
  3467  0F38  02F0               	subwf	___fladd@b,f
  3468  0F39  0875               	movf	___fladd@a+1,w
  3469  0F3A  1C03               	skipc
  3470  0F3B  0F75               	incfsz	___fladd@a+1,w
  3471  0F3C  02F1               	subwf	___fladd@b+1,f
  3472  0F3D  0876               	movf	___fladd@a+2,w
  3473  0F3E  1C03               	skipc
  3474  0F3F  0F76               	incfsz	___fladd@a+2,w
  3475  0F40  02F2               	subwf	___fladd@b+2,f
  3476  0F41  0877               	movf	___fladd@a+3,w
  3477  0F42  1C03               	skipc
  3478  0F43  0F77               	incfsz	___fladd@a+3,w
  3479  0F44  02F3               	subwf	___fladd@b+3,f
  3480  0F45                     l649:
  3481  0F45  0873               	movf	___fladd@b+3,w
  3482  0F46  0472               	iorwf	___fladd@b+2,w
  3483  0F47  0471               	iorwf	___fladd@b+1,w
  3484  0F48  0470               	iorwf	___fladd@b,w
  3485  0F49  1D03               	skipz
  3486  0F4A  2F4C               	goto	u1721
  3487  0F4B  2F4D               	goto	u1720
  3488  0F4C                     u1721:
  3489  0F4C  2F7B               	goto	l1935
  3490  0F4D                     u1720:
  3491  0F4D                     l1915:
  3492  0F4D  087B               	movf	___fladd@grs,w
  3493  0F4E  1D03               	btfss	3,2
  3494  0F4F  2F51               	goto	u1731
  3495  0F50  2F52               	goto	u1730
  3496  0F51                     u1731:
  3497  0F51  2F7B               	goto	l1935
  3498  0F52                     u1730:
  3499  0F52                     l1917:
  3500  0F52  3000               	movlw	0
  3501  0F53  00F3               	movwf	?___fladd+3
  3502  0F54  3000               	movlw	0
  3503  0F55  00F2               	movwf	?___fladd+2
  3504  0F56  3000               	movlw	0
  3505  0F57  00F1               	movwf	?___fladd+1
  3506  0F58  3000               	movlw	0
  3507  0F59  00F0               	movwf	?___fladd
  3508  0F5A  2FFF               	goto	l641
  3509  0F5B                     l1921:
  3510  0F5B  3001               	movlw	1
  3511  0F5C  1283               	bcf	3,5	;RP0=0, select bank0
  3512  0F5D  1303               	bcf	3,6	;RP1=0, select bank0
  3513  0F5E  00A0               	movwf	??___fladd
  3514  0F5F                     u1745:
  3515  0F5F  1003               	clrc
  3516  0F60  0DF0               	rlf	___fladd@b,f
  3517  0F61  0DF1               	rlf	___fladd@b+1,f
  3518  0F62  0DF2               	rlf	___fladd@b+2,f
  3519  0F63  0DF3               	rlf	___fladd@b+3,f
  3520  0F64  0BA0               	decfsz	??___fladd,f
  3521  0F65  2F5F               	goto	u1745
  3522  0F66                     l1923:
  3523  0F66  1FFB               	btfss	___fladd@grs,7
  3524  0F67  2F69               	goto	u1751
  3525  0F68  2F6A               	goto	u1750
  3526  0F69                     u1751:
  3527  0F69  2F6B               	goto	l653
  3528  0F6A                     u1750:
  3529  0F6A                     l1925:
  3530  0F6A  1470               	bsf	___fladd@b,0
  3531  0F6B                     l653:
  3532  0F6B  1C7B               	btfss	___fladd@grs,0
  3533  0F6C  2F6E               	goto	u1761
  3534  0F6D  2F6F               	goto	u1760
  3535  0F6E                     u1761:
  3536  0F6E  2F72               	goto	l1929
  3537  0F6F                     u1760:
  3538  0F6F                     l1927:
  3539  0F6F  1403               	setc
  3540  0F70  0DFB               	rlf	___fladd@grs,f
  3541  0F71  2F74               	goto	l1931
  3542  0F72                     l1929:
  3543  0F72  1003               	clrc
  3544  0F73  0DFB               	rlf	___fladd@grs,f
  3545  0F74                     l1931:
  3546  0F74  087A               	movf	___fladd@bexp,w
  3547  0F75  1903               	btfsc	3,2
  3548  0F76  2F78               	goto	u1771
  3549  0F77  2F79               	goto	u1770
  3550  0F78                     u1771:
  3551  0F78  2F7B               	goto	l1935
  3552  0F79                     u1770:
  3553  0F79                     l1933:
  3554  0F79  3001               	movlw	1
  3555  0F7A  02FA               	subwf	___fladd@bexp,f
  3556  0F7B                     l1935:
  3557  0F7B  1FF2               	btfss	___fladd@b+2,7
  3558  0F7C  2F7E               	goto	u1781
  3559  0F7D  2F7F               	goto	u1780
  3560  0F7E                     u1781:
  3561  0F7E  2F5B               	goto	l1921
  3562  0F7F                     u1780:
  3563  0F7F                     l1937:
  3564  0F7F  01F9               	clrf	___fladd@aexp
  3565  0F80                     l1939:
  3566  0F80  1FFB               	btfss	___fladd@grs,7
  3567  0F81  2F83               	goto	u1791
  3568  0F82  2F84               	goto	u1790
  3569  0F83                     u1791:
  3570  0F83  2F92               	goto	l1947
  3571  0F84                     u1790:
  3572  0F84                     l1941:
  3573  0F84  087B               	movf	___fladd@grs,w
  3574  0F85  397F               	andlw	127
  3575  0F86  1903               	btfsc	3,2
  3576  0F87  2F89               	goto	u1801
  3577  0F88  2F8A               	goto	u1800
  3578  0F89                     u1801:
  3579  0F89  2F8D               	goto	l659
  3580  0F8A                     u1800:
  3581  0F8A                     l1943:
  3582  0F8A  01F9               	clrf	___fladd@aexp
  3583  0F8B  0AF9               	incf	___fladd@aexp,f
  3584  0F8C  2F92               	goto	l1947
  3585  0F8D                     l659:
  3586  0F8D  1C70               	btfss	___fladd@b,0
  3587  0F8E  2F90               	goto	u1811
  3588  0F8F  2F91               	goto	u1810
  3589  0F90                     u1811:
  3590  0F90  2F92               	goto	l1947
  3591  0F91                     u1810:
  3592  0F91  2F8A               	goto	l1943
  3593  0F92                     l1947:
  3594  0F92  0879               	movf	___fladd@aexp,w
  3595  0F93  1903               	btfsc	3,2
  3596  0F94  2F96               	goto	u1821
  3597  0F95  2F97               	goto	u1820
  3598  0F96                     u1821:
  3599  0F96  2FCD               	goto	l662
  3600  0F97                     u1820:
  3601  0F97                     l1949:
  3602  0F97  3001               	movlw	1
  3603  0F98  07F0               	addwf	___fladd@b,f
  3604  0F99  3000               	movlw	0
  3605  0F9A  1803               	skipnc
  3606  0F9B  3001               	movlw	1
  3607  0F9C  07F1               	addwf	___fladd@b+1,f
  3608  0F9D  3000               	movlw	0
  3609  0F9E  1803               	skipnc
  3610  0F9F  3001               	movlw	1
  3611  0FA0  07F2               	addwf	___fladd@b+2,f
  3612  0FA1  3000               	movlw	0
  3613  0FA2  1803               	skipnc
  3614  0FA3  3001               	movlw	1
  3615  0FA4  07F3               	addwf	___fladd@b+3,f
  3616  0FA5                     l1951:
  3617  0FA5  1C73               	btfss	___fladd@b+3,0
  3618  0FA6  2FA8               	goto	u1831
  3619  0FA7  2FA9               	goto	u1830
  3620  0FA8                     u1831:
  3621  0FA8  2FCD               	goto	l662
  3622  0FA9                     u1830:
  3623  0FA9                     l1953:
  3624  0FA9  0870               	movf	___fladd@b,w
  3625  0FAA  1283               	bcf	3,5	;RP0=0, select bank0
  3626  0FAB  1303               	bcf	3,6	;RP1=0, select bank0
  3627  0FAC  00A0               	movwf	??___fladd
  3628  0FAD  0871               	movf	___fladd@b+1,w
  3629  0FAE  00A1               	movwf	??___fladd+1
  3630  0FAF  0872               	movf	___fladd@b+2,w
  3631  0FB0  00A2               	movwf	??___fladd+2
  3632  0FB1  0873               	movf	___fladd@b+3,w
  3633  0FB2  00A3               	movwf	??___fladd+3
  3634  0FB3  3001               	movlw	1
  3635  0FB4  00A4               	movwf	??___fladd+4
  3636  0FB5                     u1845:
  3637  0FB5  0D23               	rlf	??___fladd+3,w
  3638  0FB6  0CA3               	rrf	??___fladd+3,f
  3639  0FB7  0CA2               	rrf	??___fladd+2,f
  3640  0FB8  0CA1               	rrf	??___fladd+1,f
  3641  0FB9  0CA0               	rrf	??___fladd,f
  3642  0FBA                     u1840:
  3643  0FBA  0BA4               	decfsz	??___fladd+4,f
  3644  0FBB  2FB5               	goto	u1845
  3645  0FBC  0823               	movf	??___fladd+3,w
  3646  0FBD  00F3               	movwf	___fladd@b+3
  3647  0FBE  0822               	movf	??___fladd+2,w
  3648  0FBF  00F2               	movwf	___fladd@b+2
  3649  0FC0  0821               	movf	??___fladd+1,w
  3650  0FC1  00F1               	movwf	___fladd@b+1
  3651  0FC2  0820               	movf	??___fladd,w
  3652  0FC3  00F0               	movwf	___fladd@b
  3653  0FC4  0A7A               	incf	___fladd@bexp,w
  3654  0FC5  1903               	btfsc	3,2
  3655  0FC6  2FC8               	goto	u1851
  3656  0FC7  2FC9               	goto	u1850
  3657  0FC8                     u1851:
  3658  0FC8  2FCD               	goto	l662
  3659  0FC9                     u1850:
  3660  0FC9                     l1955:
  3661  0FC9  3001               	movlw	1
  3662  0FCA  00A0               	movwf	??___fladd
  3663  0FCB  0820               	movf	??___fladd,w
  3664  0FCC  07FA               	addwf	___fladd@bexp,f
  3665  0FCD                     l662:
  3666  0FCD  0A7A               	incf	___fladd@bexp,w
  3667  0FCE  1903               	btfsc	3,2
  3668  0FCF  2FD1               	goto	u1861
  3669  0FD0  2FD2               	goto	u1860
  3670  0FD1                     u1861:
  3671  0FD1  2FD7               	goto	l1959
  3672  0FD2                     u1860:
  3673  0FD2                     l1957:
  3674  0FD2  087A               	movf	___fladd@bexp,w
  3675  0FD3  1D03               	btfss	3,2
  3676  0FD4  2FD6               	goto	u1871
  3677  0FD5  2FD7               	goto	u1870
  3678  0FD6                     u1871:
  3679  0FD6  2FE5               	goto	l1965
  3680  0FD7                     u1870:
  3681  0FD7                     l1959:
  3682  0FD7  3000               	movlw	0
  3683  0FD8  00F3               	movwf	___fladd@b+3
  3684  0FD9  3000               	movlw	0
  3685  0FDA  00F2               	movwf	___fladd@b+2
  3686  0FDB  3000               	movlw	0
  3687  0FDC  00F1               	movwf	___fladd@b+1
  3688  0FDD  3000               	movlw	0
  3689  0FDE  00F0               	movwf	___fladd@b
  3690  0FDF                     l1961:
  3691  0FDF  087A               	movf	___fladd@bexp,w
  3692  0FE0  1D03               	btfss	3,2
  3693  0FE1  2FE3               	goto	u1881
  3694  0FE2  2FE4               	goto	u1880
  3695  0FE3                     u1881:
  3696  0FE3  2FE5               	goto	l1965
  3697  0FE4                     u1880:
  3698  0FE4                     l1963:
  3699  0FE4  01F8               	clrf	___fladd@signs
  3700  0FE5                     l1965:
  3701  0FE5  1C7A               	btfss	___fladd@bexp,0
  3702  0FE6  2FE8               	goto	u1891
  3703  0FE7  2FE9               	goto	u1890
  3704  0FE8                     u1891:
  3705  0FE8  2FEB               	goto	l1969
  3706  0FE9                     u1890:
  3707  0FE9                     l1967:
  3708  0FE9  17F2               	bsf	___fladd@b+2,7
  3709  0FEA  2FF1               	goto	l670
  3710  0FEB                     l1969:
  3711  0FEB  307F               	movlw	127
  3712  0FEC  1283               	bcf	3,5	;RP0=0, select bank0
  3713  0FED  1303               	bcf	3,6	;RP1=0, select bank0
  3714  0FEE  00A0               	movwf	??___fladd
  3715  0FEF  0820               	movf	??___fladd,w
  3716  0FF0  05F2               	andwf	___fladd@b+2,f
  3717  0FF1                     l670:
  3718  0FF1  087A               	movf	___fladd@bexp,w
  3719  0FF2  1283               	bcf	3,5	;RP0=0, select bank0
  3720  0FF3  1303               	bcf	3,6	;RP1=0, select bank0
  3721  0FF4  00A0               	movwf	??___fladd
  3722  0FF5  1003               	clrc
  3723  0FF6  0C20               	rrf	??___fladd,w
  3724  0FF7  00A1               	movwf	??___fladd+1
  3725  0FF8  0821               	movf	??___fladd+1,w
  3726  0FF9  00F3               	movwf	___fladd@b+3
  3727  0FFA                     l1971:
  3728  0FFA  1FF8               	btfss	___fladd@signs,7
  3729  0FFB  2FFD               	goto	u1901
  3730  0FFC  2FFE               	goto	u1900
  3731  0FFD                     u1901:
  3732  0FFD  2FFF               	goto	l671
  3733  0FFE                     u1900:
  3734  0FFE                     l1973:
  3735  0FFE  17F3               	bsf	___fladd@b+3,7
  3736  0FFF                     l671:
  3737  0FFF                     l641:
  3738  0FFF  0008               	return
  3739  1000                     __end_of___fladd:
  3740                           
  3741                           	psect	text6
  3742  045F                     __ptext6:	
  3743 ;; *************** function ___flmul *****************
  3744 ;; Defined at:
  3745 ;;		line 8 in file "C:\Program Files\Microchip\xc8\v2.32\pic\sources\c90\common\sprcmul.c"
  3746 ;; Parameters:    Size  Location     Type
  3747 ;;  b               4    0[BANK0 ] unsigned char 
  3748 ;;  a               4    4[BANK0 ] unsigned char 
  3749 ;; Auto vars:     Size  Location     Type
  3750 ;;  prod            4   15[BANK0 ] struct .
  3751 ;;  grs             4    9[BANK0 ] unsigned long 
  3752 ;;  temp            2   19[BANK0 ] struct .
  3753 ;;  bexp            1   14[BANK0 ] unsigned char 
  3754 ;;  aexp            1   13[BANK0 ] unsigned char 
  3755 ;;  sign            1    8[BANK0 ] unsigned char 
  3756 ;; Return value:  Size  Location     Type
  3757 ;;                  4    0[BANK0 ] unsigned char 
  3758 ;; Registers used:
  3759 ;;		wreg, status,2, status,0, btemp+1, pclath, cstack
  3760 ;; Tracked objects:
  3761 ;;		On entry : 0/0
  3762 ;;		On exit  : 0/0
  3763 ;;		Unchanged: 0/0
  3764 ;; Data sizes:     COMMON   BANK0   BANK1   BANK3   BANK2
  3765 ;;      Params:         0       8       0       0       0
  3766 ;;      Locals:         0      13       0       0       0
  3767 ;;      Temps:          5       0       0       0       0
  3768 ;;      Totals:         5      21       0       0       0
  3769 ;;Total ram usage:       26 bytes
  3770 ;; Hardware stack levels used: 1
  3771 ;; Hardware stack levels required when called: 1
  3772 ;; This function calls:
  3773 ;;		__Umul8_16
  3774 ;; This function is called by:
  3775 ;;		_liga_buzzer
  3776 ;; This function uses a non-reentrant model
  3777 ;;
  3778                           
  3779                           
  3780                           ;psect for function ___flmul
  3781  045F                     ___flmul:
  3782  045F                     l2025:	
  3783                           ;incstack = 0
  3784                           ; Regs used in ___flmul: [wreg+status,2+status,0+btemp+1+pclath+cstack]
  3785                           
  3786  045F  1283               	bcf	3,5	;RP0=0, select bank0
  3787  0460  1303               	bcf	3,6	;RP1=0, select bank0
  3788  0461  0823               	movf	___flmul@b+3,w
  3789  0462  3980               	andlw	128
  3790  0463  00F9               	movwf	??___flmul
  3791  0464  0879               	movf	??___flmul,w
  3792  0465  00A8               	movwf	___flmul@sign
  3793  0466                     l2027:
  3794  0466  0823               	movf	___flmul@b+3,w
  3795  0467  00F9               	movwf	??___flmul
  3796  0468  0779               	addwf	??___flmul,w
  3797  0469  00FA               	movwf	??___flmul+1
  3798  046A  087A               	movf	??___flmul+1,w
  3799  046B  00AE               	movwf	___flmul@bexp
  3800  046C                     l2029:
  3801  046C  1FA2               	btfss	___flmul@b+2,7
  3802  046D  2C6F               	goto	u2021
  3803  046E  2C70               	goto	u2020
  3804  046F                     u2021:
  3805  046F  2C71               	goto	l2033
  3806  0470                     u2020:
  3807  0470                     l2031:
  3808  0470  142E               	bsf	___flmul@bexp,0
  3809  0471                     l2033:
  3810  0471  082E               	movf	___flmul@bexp,w
  3811  0472  1903               	btfsc	3,2
  3812  0473  2C75               	goto	u2031
  3813  0474  2C76               	goto	u2030
  3814  0475                     u2031:
  3815  0475  2C85               	goto	l2041
  3816  0476                     u2030:
  3817  0476                     l2035:
  3818  0476  0A2E               	incf	___flmul@bexp,w
  3819  0477  1D03               	btfss	3,2
  3820  0478  2C7A               	goto	u2041
  3821  0479  2C7B               	goto	u2040
  3822  047A                     u2041:
  3823  047A  2C83               	goto	l2039
  3824  047B                     u2040:
  3825  047B                     l2037:
  3826  047B  3000               	movlw	0
  3827  047C  00A3               	movwf	___flmul@b+3
  3828  047D  3000               	movlw	0
  3829  047E  00A2               	movwf	___flmul@b+2
  3830  047F  3000               	movlw	0
  3831  0480  00A1               	movwf	___flmul@b+1
  3832  0481  3000               	movlw	0
  3833  0482  00A0               	movwf	___flmul@b
  3834  0483                     l2039:
  3835  0483  17A2               	bsf	___flmul@b+2,7
  3836  0484  2C8D               	goto	l2043
  3837  0485                     l2041:
  3838  0485  3000               	movlw	0
  3839  0486  00A3               	movwf	___flmul@b+3
  3840  0487  3000               	movlw	0
  3841  0488  00A2               	movwf	___flmul@b+2
  3842  0489  3000               	movlw	0
  3843  048A  00A1               	movwf	___flmul@b+1
  3844  048B  3000               	movlw	0
  3845  048C  00A0               	movwf	___flmul@b
  3846  048D                     l2043:
  3847  048D  0827               	movf	___flmul@a+3,w
  3848  048E  3980               	andlw	128
  3849  048F  00F9               	movwf	??___flmul
  3850  0490  0879               	movf	??___flmul,w
  3851  0491  06A8               	xorwf	___flmul@sign,f
  3852  0492                     l2045:
  3853  0492  0827               	movf	___flmul@a+3,w
  3854  0493  00F9               	movwf	??___flmul
  3855  0494  0779               	addwf	??___flmul,w
  3856  0495  00FA               	movwf	??___flmul+1
  3857  0496  087A               	movf	??___flmul+1,w
  3858  0497  00AD               	movwf	___flmul@aexp
  3859  0498                     l2047:
  3860  0498  1FA6               	btfss	___flmul@a+2,7
  3861  0499  2C9B               	goto	u2051
  3862  049A  2C9C               	goto	u2050
  3863  049B                     u2051:
  3864  049B  2C9D               	goto	l2051
  3865  049C                     u2050:
  3866  049C                     l2049:
  3867  049C  142D               	bsf	___flmul@aexp,0
  3868  049D                     l2051:
  3869  049D  082D               	movf	___flmul@aexp,w
  3870  049E  1903               	btfsc	3,2
  3871  049F  2CA1               	goto	u2061
  3872  04A0  2CA2               	goto	u2060
  3873  04A1                     u2061:
  3874  04A1  2CB1               	goto	l2059
  3875  04A2                     u2060:
  3876  04A2                     l2053:
  3877  04A2  0A2D               	incf	___flmul@aexp,w
  3878  04A3  1D03               	btfss	3,2
  3879  04A4  2CA6               	goto	u2071
  3880  04A5  2CA7               	goto	u2070
  3881  04A6                     u2071:
  3882  04A6  2CAF               	goto	l2057
  3883  04A7                     u2070:
  3884  04A7                     l2055:
  3885  04A7  3000               	movlw	0
  3886  04A8  00A7               	movwf	___flmul@a+3
  3887  04A9  3000               	movlw	0
  3888  04AA  00A6               	movwf	___flmul@a+2
  3889  04AB  3000               	movlw	0
  3890  04AC  00A5               	movwf	___flmul@a+1
  3891  04AD  3000               	movlw	0
  3892  04AE  00A4               	movwf	___flmul@a
  3893  04AF                     l2057:
  3894  04AF  17A6               	bsf	___flmul@a+2,7
  3895  04B0  2CB9               	goto	l2061
  3896  04B1                     l2059:
  3897  04B1  3000               	movlw	0
  3898  04B2  00A7               	movwf	___flmul@a+3
  3899  04B3  3000               	movlw	0
  3900  04B4  00A6               	movwf	___flmul@a+2
  3901  04B5  3000               	movlw	0
  3902  04B6  00A5               	movwf	___flmul@a+1
  3903  04B7  3000               	movlw	0
  3904  04B8  00A4               	movwf	___flmul@a
  3905  04B9                     l2061:
  3906  04B9  082D               	movf	___flmul@aexp,w
  3907  04BA  1903               	btfsc	3,2
  3908  04BB  2CBD               	goto	u2081
  3909  04BC  2CBE               	goto	u2080
  3910  04BD                     u2081:
  3911  04BD  2CC3               	goto	l2065
  3912  04BE                     u2080:
  3913  04BE                     l2063:
  3914  04BE  082E               	movf	___flmul@bexp,w
  3915  04BF  1D03               	btfss	3,2
  3916  04C0  2CC2               	goto	u2091
  3917  04C1  2CC3               	goto	u2090
  3918  04C2                     u2091:
  3919  04C2  2CCC               	goto	l2069
  3920  04C3                     u2090:
  3921  04C3                     l2065:
  3922  04C3  3000               	movlw	0
  3923  04C4  00A3               	movwf	?___flmul+3
  3924  04C5  3000               	movlw	0
  3925  04C6  00A2               	movwf	?___flmul+2
  3926  04C7  3000               	movlw	0
  3927  04C8  00A1               	movwf	?___flmul+1
  3928  04C9  3000               	movlw	0
  3929  04CA  00A0               	movwf	?___flmul
  3930  04CB  2FBF               	goto	l724
  3931  04CC                     l2069:
  3932  04CC  0820               	movf	___flmul@b,w
  3933  04CD  00F9               	movwf	??___flmul
  3934  04CE  0879               	movf	??___flmul,w
  3935  04CF  00F0               	movwf	__Umul8_16@multiplicand
  3936  04D0  0826               	movf	___flmul@a+2,w
  3937  04D1  120A  158A  2158  120A  118A  	fcall	__Umul8_16
  3938  04D6  0871               	movf	?__Umul8_16+1,w
  3939  04D7  1283               	bcf	3,5	;RP0=0, select bank0
  3940  04D8  1303               	bcf	3,6	;RP1=0, select bank0
  3941  04D9  00B4               	movwf	___flmul@temp+1
  3942  04DA  0870               	movf	?__Umul8_16,w
  3943  04DB  00B3               	movwf	___flmul@temp
  3944  04DC                     l2071:
  3945  04DC  0833               	movf	___flmul@temp,w
  3946  04DD  00F9               	movwf	??___flmul
  3947  04DE  01FA               	clrf	??___flmul+1
  3948  04DF  01FB               	clrf	??___flmul+2
  3949  04E0  01FC               	clrf	??___flmul+3
  3950  04E1  087C               	movf	??___flmul+3,w
  3951  04E2  00AC               	movwf	___flmul@grs+3
  3952  04E3  087B               	movf	??___flmul+2,w
  3953  04E4  00AB               	movwf	___flmul@grs+2
  3954  04E5  087A               	movf	??___flmul+1,w
  3955  04E6  00AA               	movwf	___flmul@grs+1
  3956  04E7  0879               	movf	??___flmul,w
  3957  04E8  00A9               	movwf	___flmul@grs
  3958  04E9                     l2073:
  3959  04E9  0834               	movf	___flmul@temp+1,w
  3960  04EA  00F9               	movwf	??___flmul
  3961  04EB  01FA               	clrf	??___flmul+1
  3962  04EC  01FB               	clrf	??___flmul+2
  3963  04ED  01FC               	clrf	??___flmul+3
  3964  04EE  087C               	movf	??___flmul+3,w
  3965  04EF  00B2               	movwf	___flmul@prod+3
  3966  04F0  087B               	movf	??___flmul+2,w
  3967  04F1  00B1               	movwf	___flmul@prod+2
  3968  04F2  087A               	movf	??___flmul+1,w
  3969  04F3  00B0               	movwf	___flmul@prod+1
  3970  04F4  0879               	movf	??___flmul,w
  3971  04F5  00AF               	movwf	___flmul@prod
  3972  04F6  0821               	movf	___flmul@b+1,w
  3973  04F7  00F9               	movwf	??___flmul
  3974  04F8  0879               	movf	??___flmul,w
  3975  04F9  00F0               	movwf	__Umul8_16@multiplicand
  3976  04FA  0825               	movf	___flmul@a+1,w
  3977  04FB  120A  158A  2158  120A  118A  	fcall	__Umul8_16
  3978  0500  0871               	movf	?__Umul8_16+1,w
  3979  0501  1283               	bcf	3,5	;RP0=0, select bank0
  3980  0502  1303               	bcf	3,6	;RP1=0, select bank0
  3981  0503  00B4               	movwf	___flmul@temp+1
  3982  0504  0870               	movf	?__Umul8_16,w
  3983  0505  00B3               	movwf	___flmul@temp
  3984  0506                     l2075:
  3985  0506  0833               	movf	___flmul@temp,w
  3986  0507  00F9               	movwf	??___flmul
  3987  0508  01FA               	clrf	??___flmul+1
  3988  0509  01FB               	clrf	??___flmul+2
  3989  050A  01FC               	clrf	??___flmul+3
  3990  050B  0879               	movf	??___flmul,w
  3991  050C  07A9               	addwf	___flmul@grs,f
  3992  050D  087A               	movf	??___flmul+1,w
  3993  050E  1103               	clrz
  3994  050F  1803               	skipnc
  3995  0510  3E01               	addlw	1
  3996  0511  1903               	skipnz
  3997  0512  2D14               	goto	u2101
  3998  0513  07AA               	addwf	___flmul@grs+1,f
  3999  0514                     u2101:
  4000  0514  087B               	movf	??___flmul+2,w
  4001  0515  1103               	clrz
  4002  0516  1803               	skipnc
  4003  0517  3E01               	addlw	1
  4004  0518  1903               	skipnz
  4005  0519  2D1B               	goto	u2102
  4006  051A  07AB               	addwf	___flmul@grs+2,f
  4007  051B                     u2102:
  4008  051B  087C               	movf	??___flmul+3,w
  4009  051C  1103               	clrz
  4010  051D  1803               	skipnc
  4011  051E  3E01               	addlw	1
  4012  051F  1903               	skipnz
  4013  0520  2D22               	goto	u2103
  4014  0521  07AC               	addwf	___flmul@grs+3,f
  4015  0522                     u2103:
  4016  0522                     l2077:
  4017  0522  0834               	movf	___flmul@temp+1,w
  4018  0523  00F9               	movwf	??___flmul
  4019  0524  01FA               	clrf	??___flmul+1
  4020  0525  01FB               	clrf	??___flmul+2
  4021  0526  01FC               	clrf	??___flmul+3
  4022  0527  0879               	movf	??___flmul,w
  4023  0528  07AF               	addwf	___flmul@prod,f
  4024  0529  087A               	movf	??___flmul+1,w
  4025  052A  1103               	clrz
  4026  052B  1803               	skipnc
  4027  052C  3E01               	addlw	1
  4028  052D  1903               	skipnz
  4029  052E  2D30               	goto	u2111
  4030  052F  07B0               	addwf	___flmul@prod+1,f
  4031  0530                     u2111:
  4032  0530  087B               	movf	??___flmul+2,w
  4033  0531  1103               	clrz
  4034  0532  1803               	skipnc
  4035  0533  3E01               	addlw	1
  4036  0534  1903               	skipnz
  4037  0535  2D37               	goto	u2112
  4038  0536  07B1               	addwf	___flmul@prod+2,f
  4039  0537                     u2112:
  4040  0537  087C               	movf	??___flmul+3,w
  4041  0538  1103               	clrz
  4042  0539  1803               	skipnc
  4043  053A  3E01               	addlw	1
  4044  053B  1903               	skipnz
  4045  053C  2D3E               	goto	u2113
  4046  053D  07B2               	addwf	___flmul@prod+3,f
  4047  053E                     u2113:
  4048  053E  0822               	movf	___flmul@b+2,w
  4049  053F  00F9               	movwf	??___flmul
  4050  0540  0879               	movf	??___flmul,w
  4051  0541  00F0               	movwf	__Umul8_16@multiplicand
  4052  0542  0824               	movf	___flmul@a,w
  4053  0543  120A  158A  2158  120A  118A  	fcall	__Umul8_16
  4054  0548  0871               	movf	?__Umul8_16+1,w
  4055  0549  1283               	bcf	3,5	;RP0=0, select bank0
  4056  054A  1303               	bcf	3,6	;RP1=0, select bank0
  4057  054B  00B4               	movwf	___flmul@temp+1
  4058  054C  0870               	movf	?__Umul8_16,w
  4059  054D  00B3               	movwf	___flmul@temp
  4060  054E                     l2079:
  4061  054E  0833               	movf	___flmul@temp,w
  4062  054F  00F9               	movwf	??___flmul
  4063  0550  01FA               	clrf	??___flmul+1
  4064  0551  01FB               	clrf	??___flmul+2
  4065  0552  01FC               	clrf	??___flmul+3
  4066  0553  0879               	movf	??___flmul,w
  4067  0554  07A9               	addwf	___flmul@grs,f
  4068  0555  087A               	movf	??___flmul+1,w
  4069  0556  1103               	clrz
  4070  0557  1803               	skipnc
  4071  0558  3E01               	addlw	1
  4072  0559  1903               	skipnz
  4073  055A  2D5C               	goto	u2121
  4074  055B  07AA               	addwf	___flmul@grs+1,f
  4075  055C                     u2121:
  4076  055C  087B               	movf	??___flmul+2,w
  4077  055D  1103               	clrz
  4078  055E  1803               	skipnc
  4079  055F  3E01               	addlw	1
  4080  0560  1903               	skipnz
  4081  0561  2D63               	goto	u2122
  4082  0562  07AB               	addwf	___flmul@grs+2,f
  4083  0563                     u2122:
  4084  0563  087C               	movf	??___flmul+3,w
  4085  0564  1103               	clrz
  4086  0565  1803               	skipnc
  4087  0566  3E01               	addlw	1
  4088  0567  1903               	skipnz
  4089  0568  2D6A               	goto	u2123
  4090  0569  07AC               	addwf	___flmul@grs+3,f
  4091  056A                     u2123:
  4092  056A                     l2081:
  4093  056A  0834               	movf	___flmul@temp+1,w
  4094  056B  00F9               	movwf	??___flmul
  4095  056C  01FA               	clrf	??___flmul+1
  4096  056D  01FB               	clrf	??___flmul+2
  4097  056E  01FC               	clrf	??___flmul+3
  4098  056F  0879               	movf	??___flmul,w
  4099  0570  07AF               	addwf	___flmul@prod,f
  4100  0571  087A               	movf	??___flmul+1,w
  4101  0572  1103               	clrz
  4102  0573  1803               	skipnc
  4103  0574  3E01               	addlw	1
  4104  0575  1903               	skipnz
  4105  0576  2D78               	goto	u2131
  4106  0577  07B0               	addwf	___flmul@prod+1,f
  4107  0578                     u2131:
  4108  0578  087B               	movf	??___flmul+2,w
  4109  0579  1103               	clrz
  4110  057A  1803               	skipnc
  4111  057B  3E01               	addlw	1
  4112  057C  1903               	skipnz
  4113  057D  2D7F               	goto	u2132
  4114  057E  07B1               	addwf	___flmul@prod+2,f
  4115  057F                     u2132:
  4116  057F  087C               	movf	??___flmul+3,w
  4117  0580  1103               	clrz
  4118  0581  1803               	skipnc
  4119  0582  3E01               	addlw	1
  4120  0583  1903               	skipnz
  4121  0584  2D86               	goto	u2133
  4122  0585  07B2               	addwf	___flmul@prod+3,f
  4123  0586                     u2133:
  4124  0586                     l2083:
  4125  0586  3008               	movlw	8
  4126  0587  00F9               	movwf	??___flmul
  4127  0588                     u2145:
  4128  0588  1003               	clrc
  4129  0589  0DA9               	rlf	___flmul@grs,f
  4130  058A  0DAA               	rlf	___flmul@grs+1,f
  4131  058B  0DAB               	rlf	___flmul@grs+2,f
  4132  058C  0DAC               	rlf	___flmul@grs+3,f
  4133  058D  0BF9               	decfsz	??___flmul,f
  4134  058E  2D88               	goto	u2145
  4135  058F                     l2085:
  4136  058F  0821               	movf	___flmul@b+1,w
  4137  0590  00F9               	movwf	??___flmul
  4138  0591  0879               	movf	??___flmul,w
  4139  0592  00F0               	movwf	__Umul8_16@multiplicand
  4140  0593  0824               	movf	___flmul@a,w
  4141  0594  120A  158A  2158  120A  118A  	fcall	__Umul8_16
  4142  0599  0871               	movf	?__Umul8_16+1,w
  4143  059A  1283               	bcf	3,5	;RP0=0, select bank0
  4144  059B  1303               	bcf	3,6	;RP1=0, select bank0
  4145  059C  00B4               	movwf	___flmul@temp+1
  4146  059D  0870               	movf	?__Umul8_16,w
  4147  059E  00B3               	movwf	___flmul@temp
  4148  059F                     l2087:
  4149  059F  0833               	movf	___flmul@temp,w
  4150  05A0  00F9               	movwf	??___flmul
  4151  05A1  0834               	movf	___flmul@temp+1,w
  4152  05A2  00FA               	movwf	??___flmul+1
  4153  05A3  01FB               	clrf	??___flmul+2
  4154  05A4  01FC               	clrf	??___flmul+3
  4155  05A5  0879               	movf	??___flmul,w
  4156  05A6  07A9               	addwf	___flmul@grs,f
  4157  05A7  087A               	movf	??___flmul+1,w
  4158  05A8  1103               	clrz
  4159  05A9  1803               	skipnc
  4160  05AA  3E01               	addlw	1
  4161  05AB  1903               	skipnz
  4162  05AC  2DAE               	goto	u2151
  4163  05AD  07AA               	addwf	___flmul@grs+1,f
  4164  05AE                     u2151:
  4165  05AE  087B               	movf	??___flmul+2,w
  4166  05AF  1103               	clrz
  4167  05B0  1803               	skipnc
  4168  05B1  3E01               	addlw	1
  4169  05B2  1903               	skipnz
  4170  05B3  2DB5               	goto	u2152
  4171  05B4  07AB               	addwf	___flmul@grs+2,f
  4172  05B5                     u2152:
  4173  05B5  087C               	movf	??___flmul+3,w
  4174  05B6  1103               	clrz
  4175  05B7  1803               	skipnc
  4176  05B8  3E01               	addlw	1
  4177  05B9  1903               	skipnz
  4178  05BA  2DBC               	goto	u2153
  4179  05BB  07AC               	addwf	___flmul@grs+3,f
  4180  05BC                     u2153:
  4181  05BC                     l2089:
  4182  05BC  0820               	movf	___flmul@b,w
  4183  05BD  00F9               	movwf	??___flmul
  4184  05BE  0879               	movf	??___flmul,w
  4185  05BF  00F0               	movwf	__Umul8_16@multiplicand
  4186  05C0  0825               	movf	___flmul@a+1,w
  4187  05C1  120A  158A  2158  120A  118A  	fcall	__Umul8_16
  4188  05C6  0871               	movf	?__Umul8_16+1,w
  4189  05C7  1283               	bcf	3,5	;RP0=0, select bank0
  4190  05C8  1303               	bcf	3,6	;RP1=0, select bank0
  4191  05C9  00B4               	movwf	___flmul@temp+1
  4192  05CA  0870               	movf	?__Umul8_16,w
  4193  05CB  00B3               	movwf	___flmul@temp
  4194  05CC                     l2091:
  4195  05CC  0833               	movf	___flmul@temp,w
  4196  05CD  00F9               	movwf	??___flmul
  4197  05CE  0834               	movf	___flmul@temp+1,w
  4198  05CF  00FA               	movwf	??___flmul+1
  4199  05D0  01FB               	clrf	??___flmul+2
  4200  05D1  01FC               	clrf	??___flmul+3
  4201  05D2  0879               	movf	??___flmul,w
  4202  05D3  07A9               	addwf	___flmul@grs,f
  4203  05D4  087A               	movf	??___flmul+1,w
  4204  05D5  1103               	clrz
  4205  05D6  1803               	skipnc
  4206  05D7  3E01               	addlw	1
  4207  05D8  1903               	skipnz
  4208  05D9  2DDB               	goto	u2161
  4209  05DA  07AA               	addwf	___flmul@grs+1,f
  4210  05DB                     u2161:
  4211  05DB  087B               	movf	??___flmul+2,w
  4212  05DC  1103               	clrz
  4213  05DD  1803               	skipnc
  4214  05DE  3E01               	addlw	1
  4215  05DF  1903               	skipnz
  4216  05E0  2DE2               	goto	u2162
  4217  05E1  07AB               	addwf	___flmul@grs+2,f
  4218  05E2                     u2162:
  4219  05E2  087C               	movf	??___flmul+3,w
  4220  05E3  1103               	clrz
  4221  05E4  1803               	skipnc
  4222  05E5  3E01               	addlw	1
  4223  05E6  1903               	skipnz
  4224  05E7  2DE9               	goto	u2163
  4225  05E8  07AC               	addwf	___flmul@grs+3,f
  4226  05E9                     u2163:
  4227  05E9                     l2093:
  4228  05E9  3008               	movlw	8
  4229  05EA  00F9               	movwf	??___flmul
  4230  05EB                     u2175:
  4231  05EB  1003               	clrc
  4232  05EC  0DA9               	rlf	___flmul@grs,f
  4233  05ED  0DAA               	rlf	___flmul@grs+1,f
  4234  05EE  0DAB               	rlf	___flmul@grs+2,f
  4235  05EF  0DAC               	rlf	___flmul@grs+3,f
  4236  05F0  0BF9               	decfsz	??___flmul,f
  4237  05F1  2DEB               	goto	u2175
  4238  05F2  0820               	movf	___flmul@b,w
  4239  05F3  00F9               	movwf	??___flmul
  4240  05F4  0879               	movf	??___flmul,w
  4241  05F5  00F0               	movwf	__Umul8_16@multiplicand
  4242  05F6  0824               	movf	___flmul@a,w
  4243  05F7  120A  158A  2158  120A  118A  	fcall	__Umul8_16
  4244  05FC  0871               	movf	?__Umul8_16+1,w
  4245  05FD  1283               	bcf	3,5	;RP0=0, select bank0
  4246  05FE  1303               	bcf	3,6	;RP1=0, select bank0
  4247  05FF  00B4               	movwf	___flmul@temp+1
  4248  0600  0870               	movf	?__Umul8_16,w
  4249  0601  00B3               	movwf	___flmul@temp
  4250  0602                     l2095:
  4251  0602  0833               	movf	___flmul@temp,w
  4252  0603  00F9               	movwf	??___flmul
  4253  0604  0834               	movf	___flmul@temp+1,w
  4254  0605  00FA               	movwf	??___flmul+1
  4255  0606  01FB               	clrf	??___flmul+2
  4256  0607  01FC               	clrf	??___flmul+3
  4257  0608  0879               	movf	??___flmul,w
  4258  0609  07A9               	addwf	___flmul@grs,f
  4259  060A  087A               	movf	??___flmul+1,w
  4260  060B  1103               	clrz
  4261  060C  1803               	skipnc
  4262  060D  3E01               	addlw	1
  4263  060E  1903               	skipnz
  4264  060F  2E11               	goto	u2181
  4265  0610  07AA               	addwf	___flmul@grs+1,f
  4266  0611                     u2181:
  4267  0611  087B               	movf	??___flmul+2,w
  4268  0612  1103               	clrz
  4269  0613  1803               	skipnc
  4270  0614  3E01               	addlw	1
  4271  0615  1903               	skipnz
  4272  0616  2E18               	goto	u2182
  4273  0617  07AB               	addwf	___flmul@grs+2,f
  4274  0618                     u2182:
  4275  0618  087C               	movf	??___flmul+3,w
  4276  0619  1103               	clrz
  4277  061A  1803               	skipnc
  4278  061B  3E01               	addlw	1
  4279  061C  1903               	skipnz
  4280  061D  2E1F               	goto	u2183
  4281  061E  07AC               	addwf	___flmul@grs+3,f
  4282  061F                     u2183:
  4283  061F                     l2097:
  4284  061F  0821               	movf	___flmul@b+1,w
  4285  0620  00F9               	movwf	??___flmul
  4286  0621  0879               	movf	??___flmul,w
  4287  0622  00F0               	movwf	__Umul8_16@multiplicand
  4288  0623  0826               	movf	___flmul@a+2,w
  4289  0624  120A  158A  2158  120A  118A  	fcall	__Umul8_16
  4290  0629  0871               	movf	?__Umul8_16+1,w
  4291  062A  1283               	bcf	3,5	;RP0=0, select bank0
  4292  062B  1303               	bcf	3,6	;RP1=0, select bank0
  4293  062C  00B4               	movwf	___flmul@temp+1
  4294  062D  0870               	movf	?__Umul8_16,w
  4295  062E  00B3               	movwf	___flmul@temp
  4296  062F  0833               	movf	___flmul@temp,w
  4297  0630  00F9               	movwf	??___flmul
  4298  0631  0834               	movf	___flmul@temp+1,w
  4299  0632  00FA               	movwf	??___flmul+1
  4300  0633  01FB               	clrf	??___flmul+2
  4301  0634  01FC               	clrf	??___flmul+3
  4302  0635  0879               	movf	??___flmul,w
  4303  0636  07AF               	addwf	___flmul@prod,f
  4304  0637  087A               	movf	??___flmul+1,w
  4305  0638  1103               	clrz
  4306  0639  1803               	skipnc
  4307  063A  3E01               	addlw	1
  4308  063B  1903               	skipnz
  4309  063C  2E3E               	goto	u2191
  4310  063D  07B0               	addwf	___flmul@prod+1,f
  4311  063E                     u2191:
  4312  063E  087B               	movf	??___flmul+2,w
  4313  063F  1103               	clrz
  4314  0640  1803               	skipnc
  4315  0641  3E01               	addlw	1
  4316  0642  1903               	skipnz
  4317  0643  2E45               	goto	u2192
  4318  0644  07B1               	addwf	___flmul@prod+2,f
  4319  0645                     u2192:
  4320  0645  087C               	movf	??___flmul+3,w
  4321  0646  1103               	clrz
  4322  0647  1803               	skipnc
  4323  0648  3E01               	addlw	1
  4324  0649  1903               	skipnz
  4325  064A  2E4C               	goto	u2193
  4326  064B  07B2               	addwf	___flmul@prod+3,f
  4327  064C                     u2193:
  4328  064C                     l2099:
  4329  064C  0822               	movf	___flmul@b+2,w
  4330  064D  00F9               	movwf	??___flmul
  4331  064E  0879               	movf	??___flmul,w
  4332  064F  00F0               	movwf	__Umul8_16@multiplicand
  4333  0650  0825               	movf	___flmul@a+1,w
  4334  0651  120A  158A  2158  120A  118A  	fcall	__Umul8_16
  4335  0656  0871               	movf	?__Umul8_16+1,w
  4336  0657  1283               	bcf	3,5	;RP0=0, select bank0
  4337  0658  1303               	bcf	3,6	;RP1=0, select bank0
  4338  0659  00B4               	movwf	___flmul@temp+1
  4339  065A  0870               	movf	?__Umul8_16,w
  4340  065B  00B3               	movwf	___flmul@temp
  4341  065C                     l2101:
  4342  065C  0833               	movf	___flmul@temp,w
  4343  065D  00F9               	movwf	??___flmul
  4344  065E  0834               	movf	___flmul@temp+1,w
  4345  065F  00FA               	movwf	??___flmul+1
  4346  0660  01FB               	clrf	??___flmul+2
  4347  0661  01FC               	clrf	??___flmul+3
  4348  0662  0879               	movf	??___flmul,w
  4349  0663  07AF               	addwf	___flmul@prod,f
  4350  0664  087A               	movf	??___flmul+1,w
  4351  0665  1103               	clrz
  4352  0666  1803               	skipnc
  4353  0667  3E01               	addlw	1
  4354  0668  1903               	skipnz
  4355  0669  2E6B               	goto	u2201
  4356  066A  07B0               	addwf	___flmul@prod+1,f
  4357  066B                     u2201:
  4358  066B  087B               	movf	??___flmul+2,w
  4359  066C  1103               	clrz
  4360  066D  1803               	skipnc
  4361  066E  3E01               	addlw	1
  4362  066F  1903               	skipnz
  4363  0670  2E72               	goto	u2202
  4364  0671  07B1               	addwf	___flmul@prod+2,f
  4365  0672                     u2202:
  4366  0672  087C               	movf	??___flmul+3,w
  4367  0673  1103               	clrz
  4368  0674  1803               	skipnc
  4369  0675  3E01               	addlw	1
  4370  0676  1903               	skipnz
  4371  0677  2E79               	goto	u2203
  4372  0678  07B2               	addwf	___flmul@prod+3,f
  4373  0679                     u2203:
  4374  0679  0822               	movf	___flmul@b+2,w
  4375  067A  00F9               	movwf	??___flmul
  4376  067B  0879               	movf	??___flmul,w
  4377  067C  00F0               	movwf	__Umul8_16@multiplicand
  4378  067D  0826               	movf	___flmul@a+2,w
  4379  067E  120A  158A  2158  120A  118A  	fcall	__Umul8_16
  4380  0683  0871               	movf	?__Umul8_16+1,w
  4381  0684  1283               	bcf	3,5	;RP0=0, select bank0
  4382  0685  1303               	bcf	3,6	;RP1=0, select bank0
  4383  0686  00B4               	movwf	___flmul@temp+1
  4384  0687  0870               	movf	?__Umul8_16,w
  4385  0688  00B3               	movwf	___flmul@temp
  4386  0689                     l2103:
  4387  0689  0833               	movf	___flmul@temp,w
  4388  068A  00F9               	movwf	??___flmul
  4389  068B  0834               	movf	___flmul@temp+1,w
  4390  068C  00FA               	movwf	??___flmul+1
  4391  068D  01FB               	clrf	??___flmul+2
  4392  068E  01FC               	clrf	??___flmul+3
  4393  068F  3008               	movlw	8
  4394  0690                     u2215:
  4395  0690  1003               	clrc
  4396  0691  0DF9               	rlf	??___flmul,f
  4397  0692  0DFA               	rlf	??___flmul+1,f
  4398  0693  0DFB               	rlf	??___flmul+2,f
  4399  0694  0DFC               	rlf	??___flmul+3,f
  4400  0695                     u2210:
  4401  0695  3EFF               	addlw	-1
  4402  0696  1D03               	skipz
  4403  0697  2E90               	goto	u2215
  4404  0698  0879               	movf	??___flmul,w
  4405  0699  07AF               	addwf	___flmul@prod,f
  4406  069A  087A               	movf	??___flmul+1,w
  4407  069B  1103               	clrz
  4408  069C  1803               	skipnc
  4409  069D  3E01               	addlw	1
  4410  069E  1903               	skipnz
  4411  069F  2EA1               	goto	u2221
  4412  06A0  07B0               	addwf	___flmul@prod+1,f
  4413  06A1                     u2221:
  4414  06A1  087B               	movf	??___flmul+2,w
  4415  06A2  1103               	clrz
  4416  06A3  1803               	skipnc
  4417  06A4  3E01               	addlw	1
  4418  06A5  1903               	skipnz
  4419  06A6  2EA8               	goto	u2222
  4420  06A7  07B1               	addwf	___flmul@prod+2,f
  4421  06A8                     u2222:
  4422  06A8  087C               	movf	??___flmul+3,w
  4423  06A9  1103               	clrz
  4424  06AA  1803               	skipnc
  4425  06AB  3E01               	addlw	1
  4426  06AC  1903               	skipnz
  4427  06AD  2EAF               	goto	u2223
  4428  06AE  07B2               	addwf	___flmul@prod+3,f
  4429  06AF                     u2223:
  4430  06AF                     l2105:
  4431  06AF  0829               	movf	___flmul@grs,w
  4432  06B0  00F9               	movwf	??___flmul
  4433  06B1  082A               	movf	___flmul@grs+1,w
  4434  06B2  00FA               	movwf	??___flmul+1
  4435  06B3  082B               	movf	___flmul@grs+2,w
  4436  06B4  00FB               	movwf	??___flmul+2
  4437  06B5  082C               	movf	___flmul@grs+3,w
  4438  06B6  00FC               	movwf	??___flmul+3
  4439  06B7  3018               	movlw	24
  4440  06B8                     u2235:
  4441  06B8  1003               	clrc
  4442  06B9  0CFC               	rrf	??___flmul+3,f
  4443  06BA  0CFB               	rrf	??___flmul+2,f
  4444  06BB  0CFA               	rrf	??___flmul+1,f
  4445  06BC  0CF9               	rrf	??___flmul,f
  4446  06BD                     u2230:
  4447  06BD  3EFF               	addlw	-1
  4448  06BE  1D03               	skipz
  4449  06BF  2EB8               	goto	u2235
  4450  06C0  0879               	movf	??___flmul,w
  4451  06C1  07AF               	addwf	___flmul@prod,f
  4452  06C2  087A               	movf	??___flmul+1,w
  4453  06C3  1103               	clrz
  4454  06C4  1803               	skipnc
  4455  06C5  3E01               	addlw	1
  4456  06C6  1903               	skipnz
  4457  06C7  2EC9               	goto	u2241
  4458  06C8  07B0               	addwf	___flmul@prod+1,f
  4459  06C9                     u2241:
  4460  06C9  087B               	movf	??___flmul+2,w
  4461  06CA  1103               	clrz
  4462  06CB  1803               	skipnc
  4463  06CC  3E01               	addlw	1
  4464  06CD  1903               	skipnz
  4465  06CE  2ED0               	goto	u2242
  4466  06CF  07B1               	addwf	___flmul@prod+2,f
  4467  06D0                     u2242:
  4468  06D0  087C               	movf	??___flmul+3,w
  4469  06D1  1103               	clrz
  4470  06D2  1803               	skipnc
  4471  06D3  3E01               	addlw	1
  4472  06D4  1903               	skipnz
  4473  06D5  2ED7               	goto	u2243
  4474  06D6  07B2               	addwf	___flmul@prod+3,f
  4475  06D7                     u2243:
  4476  06D7                     l2107:
  4477  06D7  3008               	movlw	8
  4478  06D8  00F9               	movwf	??___flmul
  4479  06D9                     u2255:
  4480  06D9  1003               	clrc
  4481  06DA  0DA9               	rlf	___flmul@grs,f
  4482  06DB  0DAA               	rlf	___flmul@grs+1,f
  4483  06DC  0DAB               	rlf	___flmul@grs+2,f
  4484  06DD  0DAC               	rlf	___flmul@grs+3,f
  4485  06DE  0BF9               	decfsz	??___flmul,f
  4486  06DF  2ED9               	goto	u2255
  4487  06E0                     l2109:
  4488  06E0  082E               	movf	___flmul@bexp,w
  4489  06E1  072D               	addwf	___flmul@aexp,w
  4490  06E2  00F9               	movwf	??___flmul
  4491  06E3  01FA               	clrf	??___flmul+1
  4492  06E4  0DFA               	rlf	??___flmul+1,f
  4493  06E5  0879               	movf	??___flmul,w
  4494  06E6  3E82               	addlw	130
  4495  06E7  00B3               	movwf	___flmul@temp
  4496  06E8  087A               	movf	??___flmul+1,w
  4497  06E9  1803               	skipnc
  4498  06EA  3E01               	addlw	1
  4499  06EB  3EFF               	addlw	255
  4500  06EC  00B4               	movwf	___flmul@temp+1
  4501  06ED  2F0B               	goto	l2121
  4502  06EE                     l2111:
  4503  06EE  3001               	movlw	1
  4504  06EF  00F9               	movwf	??___flmul
  4505  06F0                     u2265:
  4506  06F0  1003               	clrc
  4507  06F1  0DAF               	rlf	___flmul@prod,f
  4508  06F2  0DB0               	rlf	___flmul@prod+1,f
  4509  06F3  0DB1               	rlf	___flmul@prod+2,f
  4510  06F4  0DB2               	rlf	___flmul@prod+3,f
  4511  06F5  0BF9               	decfsz	??___flmul,f
  4512  06F6  2EF0               	goto	u2265
  4513  06F7                     l2113:
  4514  06F7  1FAC               	btfss	___flmul@grs+3,7
  4515  06F8  2EFA               	goto	u2271
  4516  06F9  2EFB               	goto	u2270
  4517  06FA                     u2271:
  4518  06FA  2EFC               	goto	l2117
  4519  06FB                     u2270:
  4520  06FB                     l2115:
  4521  06FB  142F               	bsf	___flmul@prod,0
  4522  06FC                     l2117:
  4523  06FC  3001               	movlw	1
  4524  06FD  00F9               	movwf	??___flmul
  4525  06FE                     u2285:
  4526  06FE  1003               	clrc
  4527  06FF  0DA9               	rlf	___flmul@grs,f
  4528  0700  0DAA               	rlf	___flmul@grs+1,f
  4529  0701  0DAB               	rlf	___flmul@grs+2,f
  4530  0702  0DAC               	rlf	___flmul@grs+3,f
  4531  0703  0BF9               	decfsz	??___flmul,f
  4532  0704  2EFE               	goto	u2285
  4533  0705                     l2119:
  4534  0705  30FF               	movlw	255
  4535  0706  07B3               	addwf	___flmul@temp,f
  4536  0707  1803               	skipnc
  4537  0708  0AB4               	incf	___flmul@temp+1,f
  4538  0709  30FF               	movlw	255
  4539  070A  07B4               	addwf	___flmul@temp+1,f
  4540  070B                     l2121:
  4541  070B  1FB1               	btfss	___flmul@prod+2,7
  4542  070C  2F0E               	goto	u2291
  4543  070D  2F0F               	goto	u2290
  4544  070E                     u2291:
  4545  070E  2EEE               	goto	l2111
  4546  070F                     u2290:
  4547  070F                     l2123:
  4548  070F  01AD               	clrf	___flmul@aexp
  4549  0710                     l2125:
  4550  0710  1FAC               	btfss	___flmul@grs+3,7
  4551  0711  2F13               	goto	u2301
  4552  0712  2F14               	goto	u2300
  4553  0713                     u2301:
  4554  0713  2F30               	goto	l2133
  4555  0714                     u2300:
  4556  0714                     l2127:
  4557  0714  30FF               	movlw	255
  4558  0715  0529               	andwf	___flmul@grs,w
  4559  0716  00F9               	movwf	??___flmul
  4560  0717  30FF               	movlw	255
  4561  0718  052A               	andwf	___flmul@grs+1,w
  4562  0719  00FA               	movwf	??___flmul+1
  4563  071A  30FF               	movlw	255
  4564  071B  052B               	andwf	___flmul@grs+2,w
  4565  071C  00FB               	movwf	??___flmul+2
  4566  071D  307F               	movlw	127
  4567  071E  052C               	andwf	___flmul@grs+3,w
  4568  071F  00FC               	movwf	??___flmul+3
  4569  0720  087C               	movf	??___flmul+3,w
  4570  0721  047B               	iorwf	??___flmul+2,w
  4571  0722  047A               	iorwf	??___flmul+1,w
  4572  0723  0479               	iorwf	??___flmul,w
  4573  0724  1903               	skipnz
  4574  0725  2F27               	goto	u2311
  4575  0726  2F28               	goto	u2310
  4576  0727                     u2311:
  4577  0727  2F2B               	goto	l730
  4578  0728                     u2310:
  4579  0728                     l2129:
  4580  0728  01AD               	clrf	___flmul@aexp
  4581  0729  0AAD               	incf	___flmul@aexp,f
  4582  072A  2F30               	goto	l2133
  4583  072B                     l730:
  4584  072B  1C2F               	btfss	___flmul@prod,0
  4585  072C  2F2E               	goto	u2321
  4586  072D  2F2F               	goto	u2320
  4587  072E                     u2321:
  4588  072E  2F30               	goto	l2133
  4589  072F                     u2320:
  4590  072F  2F28               	goto	l2129
  4591  0730                     l2133:
  4592  0730  082D               	movf	___flmul@aexp,w
  4593  0731  1903               	btfsc	3,2
  4594  0732  2F34               	goto	u2331
  4595  0733  2F35               	goto	u2330
  4596  0734                     u2331:
  4597  0734  2F66               	goto	l2143
  4598  0735                     u2330:
  4599  0735                     l2135:
  4600  0735  3001               	movlw	1
  4601  0736  07AF               	addwf	___flmul@prod,f
  4602  0737  3000               	movlw	0
  4603  0738  1803               	skipnc
  4604  0739  3001               	movlw	1
  4605  073A  07B0               	addwf	___flmul@prod+1,f
  4606  073B  3000               	movlw	0
  4607  073C  1803               	skipnc
  4608  073D  3001               	movlw	1
  4609  073E  07B1               	addwf	___flmul@prod+2,f
  4610  073F  3000               	movlw	0
  4611  0740  1803               	skipnc
  4612  0741  3001               	movlw	1
  4613  0742  07B2               	addwf	___flmul@prod+3,f
  4614  0743                     l2137:
  4615  0743  1C32               	btfss	___flmul@prod+3,0
  4616  0744  2F46               	goto	u2341
  4617  0745  2F47               	goto	u2340
  4618  0746                     u2341:
  4619  0746  2F66               	goto	l2143
  4620  0747                     u2340:
  4621  0747                     l2139:
  4622  0747  082F               	movf	___flmul@prod,w
  4623  0748  00F9               	movwf	??___flmul
  4624  0749  0830               	movf	___flmul@prod+1,w
  4625  074A  00FA               	movwf	??___flmul+1
  4626  074B  0831               	movf	___flmul@prod+2,w
  4627  074C  00FB               	movwf	??___flmul+2
  4628  074D  0832               	movf	___flmul@prod+3,w
  4629  074E  00FC               	movwf	??___flmul+3
  4630  074F  3001               	movlw	1
  4631  0750  00FD               	movwf	??___flmul+4
  4632  0751                     u2355:
  4633  0751  0D7C               	rlf	??___flmul+3,w
  4634  0752  0CFC               	rrf	??___flmul+3,f
  4635  0753  0CFB               	rrf	??___flmul+2,f
  4636  0754  0CFA               	rrf	??___flmul+1,f
  4637  0755  0CF9               	rrf	??___flmul,f
  4638  0756                     u2350:
  4639  0756  0BFD               	decfsz	??___flmul+4,f
  4640  0757  2F51               	goto	u2355
  4641  0758  087C               	movf	??___flmul+3,w
  4642  0759  00B2               	movwf	___flmul@prod+3
  4643  075A  087B               	movf	??___flmul+2,w
  4644  075B  00B1               	movwf	___flmul@prod+2
  4645  075C  087A               	movf	??___flmul+1,w
  4646  075D  00B0               	movwf	___flmul@prod+1
  4647  075E  0879               	movf	??___flmul,w
  4648  075F  00AF               	movwf	___flmul@prod
  4649  0760                     l2141:
  4650  0760  3001               	movlw	1
  4651  0761  07B3               	addwf	___flmul@temp,f
  4652  0762  1803               	skipnc
  4653  0763  0AB4               	incf	___flmul@temp+1,f
  4654  0764  3000               	movlw	0
  4655  0765  07B4               	addwf	___flmul@temp+1,f
  4656  0766                     l2143:
  4657  0766  0834               	movf	___flmul@temp+1,w
  4658  0767  3A80               	xorlw	128
  4659  0768  00FF               	movwf	btemp+1
  4660  0769  3080               	movlw	128
  4661  076A  027F               	subwf	btemp+1,w
  4662  076B  1D03               	skipz
  4663  076C  2F6F               	goto	u2365
  4664  076D  30FF               	movlw	255
  4665  076E  0233               	subwf	___flmul@temp,w
  4666  076F                     u2365:
  4667  076F  1C03               	skipc
  4668  0770  2F72               	goto	u2361
  4669  0771  2F73               	goto	u2360
  4670  0772                     u2361:
  4671  0772  2F7E               	goto	l2147
  4672  0773                     u2360:
  4673  0773                     l2145:
  4674  0773  307F               	movlw	127
  4675  0774  1283               	bcf	3,5	;RP0=0, select bank0
  4676  0775  1303               	bcf	3,6	;RP1=0, select bank0
  4677  0776  00B2               	movwf	___flmul@prod+3
  4678  0777  3080               	movlw	128
  4679  0778  00B1               	movwf	___flmul@prod+2
  4680  0779  3000               	movlw	0
  4681  077A  00B0               	movwf	___flmul@prod+1
  4682  077B  3000               	movlw	0
  4683  077C  00AF               	movwf	___flmul@prod
  4684  077D  2FB3               	goto	l736
  4685  077E                     l2147:
  4686  077E  1283               	bcf	3,5	;RP0=0, select bank0
  4687  077F  1303               	bcf	3,6	;RP1=0, select bank0
  4688  0780  0834               	movf	___flmul@temp+1,w
  4689  0781  3A80               	xorlw	128
  4690  0782  00FF               	movwf	btemp+1
  4691  0783  3080               	movlw	128
  4692  0784  027F               	subwf	btemp+1,w
  4693  0785  1D03               	skipz
  4694  0786  2F89               	goto	u2375
  4695  0787  3001               	movlw	1
  4696  0788  0233               	subwf	___flmul@temp,w
  4697  0789                     u2375:
  4698  0789  1803               	skipnc
  4699  078A  2F8C               	goto	u2371
  4700  078B  2F8D               	goto	u2370
  4701  078C                     u2371:
  4702  078C  2F99               	goto	l2153
  4703  078D                     u2370:
  4704  078D                     l2149:
  4705  078D  3000               	movlw	0
  4706  078E  1283               	bcf	3,5	;RP0=0, select bank0
  4707  078F  1303               	bcf	3,6	;RP1=0, select bank0
  4708  0790  00B2               	movwf	___flmul@prod+3
  4709  0791  3000               	movlw	0
  4710  0792  00B1               	movwf	___flmul@prod+2
  4711  0793  3000               	movlw	0
  4712  0794  00B0               	movwf	___flmul@prod+1
  4713  0795  3000               	movlw	0
  4714  0796  00AF               	movwf	___flmul@prod
  4715  0797                     l2151:
  4716  0797  01A8               	clrf	___flmul@sign
  4717  0798  2FB3               	goto	l736
  4718  0799                     l2153:
  4719  0799  1283               	bcf	3,5	;RP0=0, select bank0
  4720  079A  1303               	bcf	3,6	;RP1=0, select bank0
  4721  079B  0833               	movf	___flmul@temp,w
  4722  079C  00F9               	movwf	??___flmul
  4723  079D  0879               	movf	??___flmul,w
  4724  079E  00AE               	movwf	___flmul@bexp
  4725  079F  30FF               	movlw	255
  4726  07A0  05AF               	andwf	___flmul@prod,f
  4727  07A1  30FF               	movlw	255
  4728  07A2  05B0               	andwf	___flmul@prod+1,f
  4729  07A3  307F               	movlw	127
  4730  07A4  05B1               	andwf	___flmul@prod+2,f
  4731  07A5  3000               	movlw	0
  4732  07A6  05B2               	andwf	___flmul@prod+3,f
  4733  07A7                     l2155:
  4734  07A7  1C2E               	btfss	___flmul@bexp,0
  4735  07A8  2FAA               	goto	u2381
  4736  07A9  2FAB               	goto	u2380
  4737  07AA                     u2381:
  4738  07AA  2FAC               	goto	l2159
  4739  07AB                     u2380:
  4740  07AB                     l2157:
  4741  07AB  17B1               	bsf	___flmul@prod+2,7
  4742  07AC                     l2159:
  4743  07AC  082E               	movf	___flmul@bexp,w
  4744  07AD  00F9               	movwf	??___flmul
  4745  07AE  1003               	clrc
  4746  07AF  0C79               	rrf	??___flmul,w
  4747  07B0  00FA               	movwf	??___flmul+1
  4748  07B1  087A               	movf	??___flmul+1,w
  4749  07B2  00B2               	movwf	___flmul@prod+3
  4750  07B3                     l736:
  4751  07B3  0828               	movf	___flmul@sign,w
  4752  07B4  00F9               	movwf	??___flmul
  4753  07B5  0879               	movf	??___flmul,w
  4754  07B6  04B2               	iorwf	___flmul@prod+3,f
  4755  07B7                     l2161:
  4756  07B7  0832               	movf	___flmul@prod+3,w
  4757  07B8  00A3               	movwf	?___flmul+3
  4758  07B9  0831               	movf	___flmul@prod+2,w
  4759  07BA  00A2               	movwf	?___flmul+2
  4760  07BB  0830               	movf	___flmul@prod+1,w
  4761  07BC  00A1               	movwf	?___flmul+1
  4762  07BD  082F               	movf	___flmul@prod,w
  4763  07BE  00A0               	movwf	?___flmul
  4764  07BF                     l724:
  4765  07BF  0008               	return
  4766  07C0                     __end_of___flmul:
  4767                           
  4768                           	psect	text7
  4769  0958                     __ptext7:	
  4770 ;; *************** function __Umul8_16 *****************
  4771 ;; Defined at:
  4772 ;;		line 4 in file "C:\Program Files\Microchip\xc8\v2.32\pic\sources\c90\common\Umul8_16.c"
  4773 ;; Parameters:    Size  Location     Type
  4774 ;;  multiplier      1    wreg     unsigned char 
  4775 ;;  multiplicand    1    0[COMMON] unsigned char 
  4776 ;; Auto vars:     Size  Location     Type
  4777 ;;  multiplier      1    8[COMMON] unsigned char 
  4778 ;;  word_mpld       2    6[COMMON] unsigned int 
  4779 ;;  product         2    4[COMMON] unsigned int 
  4780 ;; Return value:  Size  Location     Type
  4781 ;;                  2    0[COMMON] unsigned int 
  4782 ;; Registers used:
  4783 ;;		wreg, status,2, status,0
  4784 ;; Tracked objects:
  4785 ;;		On entry : 0/0
  4786 ;;		On exit  : 0/0
  4787 ;;		Unchanged: 0/0
  4788 ;; Data sizes:     COMMON   BANK0   BANK1   BANK3   BANK2
  4789 ;;      Params:         2       0       0       0       0
  4790 ;;      Locals:         5       0       0       0       0
  4791 ;;      Temps:          2       0       0       0       0
  4792 ;;      Totals:         9       0       0       0       0
  4793 ;;Total ram usage:        9 bytes
  4794 ;; Hardware stack levels used: 1
  4795 ;; This function calls:
  4796 ;;		Nothing
  4797 ;; This function is called by:
  4798 ;;		___flmul
  4799 ;; This function uses a non-reentrant model
  4800 ;;
  4801                           
  4802                           
  4803                           ;psect for function __Umul8_16
  4804  0958                     __Umul8_16:
  4805                           
  4806                           ;incstack = 0
  4807                           ; Regs used in __Umul8_16: [wreg+status,2+status,0]
  4808                           ;__Umul8_16@multiplier stored from wreg
  4809  0958  00F8               	movwf	__Umul8_16@multiplier
  4810  0959                     l1975:
  4811  0959  01F4               	clrf	__Umul8_16@product
  4812  095A  01F5               	clrf	__Umul8_16@product+1
  4813  095B                     l1977:
  4814  095B  0870               	movf	__Umul8_16@multiplicand,w
  4815  095C  00F2               	movwf	??__Umul8_16
  4816  095D  01F3               	clrf	??__Umul8_16+1
  4817  095E  0872               	movf	??__Umul8_16,w
  4818  095F  00F6               	movwf	__Umul8_16@word_mpld
  4819  0960  0873               	movf	??__Umul8_16+1,w
  4820  0961  00F7               	movwf	__Umul8_16@word_mpld+1
  4821  0962                     l1979:
  4822  0962  1C78               	btfss	__Umul8_16@multiplier,0
  4823  0963  2965               	goto	u1911
  4824  0964  2966               	goto	u1910
  4825  0965                     u1911:
  4826  0965  296C               	goto	l743
  4827  0966                     u1910:
  4828  0966                     l1981:
  4829  0966  0876               	movf	__Umul8_16@word_mpld,w
  4830  0967  07F4               	addwf	__Umul8_16@product,f
  4831  0968  1803               	skipnc
  4832  0969  0AF5               	incf	__Umul8_16@product+1,f
  4833  096A  0877               	movf	__Umul8_16@word_mpld+1,w
  4834  096B  07F5               	addwf	__Umul8_16@product+1,f
  4835  096C                     l743:
  4836  096C  3001               	movlw	1
  4837  096D                     u1925:
  4838  096D  1003               	clrc
  4839  096E  0DF6               	rlf	__Umul8_16@word_mpld,f
  4840  096F  0DF7               	rlf	__Umul8_16@word_mpld+1,f
  4841  0970  3EFF               	addlw	-1
  4842  0971  1D03               	skipz
  4843  0972  296D               	goto	u1925
  4844  0973  1003               	clrc
  4845  0974  0CF8               	rrf	__Umul8_16@multiplier,f
  4846  0975                     l1983:
  4847  0975  0878               	movf	__Umul8_16@multiplier,w
  4848  0976  1D03               	btfss	3,2
  4849  0977  2979               	goto	u1931
  4850  0978  297A               	goto	u1930
  4851  0979                     u1931:
  4852  0979  2962               	goto	l1979
  4853  097A                     u1930:
  4854  097A                     l1985:
  4855  097A  0875               	movf	__Umul8_16@product+1,w
  4856  097B  00F1               	movwf	?__Umul8_16+1
  4857  097C  0874               	movf	__Umul8_16@product,w
  4858  097D  00F0               	movwf	?__Umul8_16
  4859  097E                     l745:
  4860  097E  0008               	return
  4861  097F                     __end_of__Umul8_16:
  4862                           
  4863                           	psect	text8
  4864  0BF4                     __ptext8:	
  4865 ;; *************** function ___flge *****************
  4866 ;; Defined at:
  4867 ;;		line 4 in file "C:\Program Files\Microchip\xc8\v2.32\pic\sources\c90\common\flge.c"
  4868 ;; Parameters:    Size  Location     Type
  4869 ;;  ff1             4    0[COMMON] unsigned int 
  4870 ;;  ff2             4    4[COMMON] unsigned int 
  4871 ;; Auto vars:     Size  Location     Type
  4872 ;;		None
  4873 ;; Return value:  Size  Location     Type
  4874 ;;		None               void
  4875 ;; Registers used:
  4876 ;;		wreg, status,2, status,0
  4877 ;; Tracked objects:
  4878 ;;		On entry : 0/0
  4879 ;;		On exit  : 0/0
  4880 ;;		Unchanged: 0/0
  4881 ;; Data sizes:     COMMON   BANK0   BANK1   BANK3   BANK2
  4882 ;;      Params:         8       0       0       0       0
  4883 ;;      Locals:         0       0       0       0       0
  4884 ;;      Temps:          4       0       0       0       0
  4885 ;;      Totals:        12       0       0       0       0
  4886 ;;Total ram usage:       12 bytes
  4887 ;; Hardware stack levels used: 1
  4888 ;; This function calls:
  4889 ;;		Nothing
  4890 ;; This function is called by:
  4891 ;;		_liga_buzzer
  4892 ;; This function uses a non-reentrant model
  4893 ;;
  4894                           
  4895                           
  4896                           ;psect for function ___flge
  4897  0BF4                     ___flge:
  4898  0BF4                     l1999:	
  4899                           ;incstack = 0
  4900                           ; Regs used in ___flge: [wreg+status,2+status,0]
  4901                           
  4902  0BF4  3000               	movlw	0
  4903  0BF5  0570               	andwf	___flge@ff1,w
  4904  0BF6  00F8               	movwf	??___flge
  4905  0BF7  3000               	movlw	0
  4906  0BF8  0571               	andwf	___flge@ff1+1,w
  4907  0BF9  00F9               	movwf	??___flge+1
  4908  0BFA  3080               	movlw	128
  4909  0BFB  0572               	andwf	___flge@ff1+2,w
  4910  0BFC  00FA               	movwf	??___flge+2
  4911  0BFD  307F               	movlw	127
  4912  0BFE  0573               	andwf	___flge@ff1+3,w
  4913  0BFF  00FB               	movwf	??___flge+3
  4914  0C00  087B               	movf	??___flge+3,w
  4915  0C01  047A               	iorwf	??___flge+2,w
  4916  0C02  0479               	iorwf	??___flge+1,w
  4917  0C03  0478               	iorwf	??___flge,w
  4918  0C04  1D03               	skipz
  4919  0C05  2C07               	goto	u1951
  4920  0C06  2C08               	goto	u1950
  4921  0C07                     u1951:
  4922  0C07  2C10               	goto	l509
  4923  0C08                     u1950:
  4924  0C08                     l2001:
  4925  0C08  3000               	movlw	0
  4926  0C09  00F3               	movwf	___flge@ff1+3
  4927  0C0A  3000               	movlw	0
  4928  0C0B  00F2               	movwf	___flge@ff1+2
  4929  0C0C  3000               	movlw	0
  4930  0C0D  00F1               	movwf	___flge@ff1+1
  4931  0C0E  3000               	movlw	0
  4932  0C0F  00F0               	movwf	___flge@ff1
  4933  0C10                     l509:
  4934  0C10  3000               	movlw	0
  4935  0C11  0574               	andwf	___flge@ff2,w
  4936  0C12  00F8               	movwf	??___flge
  4937  0C13  3000               	movlw	0
  4938  0C14  0575               	andwf	___flge@ff2+1,w
  4939  0C15  00F9               	movwf	??___flge+1
  4940  0C16  3080               	movlw	128
  4941  0C17  0576               	andwf	___flge@ff2+2,w
  4942  0C18  00FA               	movwf	??___flge+2
  4943  0C19  307F               	movlw	127
  4944  0C1A  0577               	andwf	___flge@ff2+3,w
  4945  0C1B  00FB               	movwf	??___flge+3
  4946  0C1C  087B               	movf	??___flge+3,w
  4947  0C1D  047A               	iorwf	??___flge+2,w
  4948  0C1E  0479               	iorwf	??___flge+1,w
  4949  0C1F  0478               	iorwf	??___flge,w
  4950  0C20  1D03               	skipz
  4951  0C21  2C23               	goto	u1961
  4952  0C22  2C24               	goto	u1960
  4953  0C23                     u1961:
  4954  0C23  2C2C               	goto	l2005
  4955  0C24                     u1960:
  4956  0C24                     l2003:
  4957  0C24  3000               	movlw	0
  4958  0C25  00F7               	movwf	___flge@ff2+3
  4959  0C26  3000               	movlw	0
  4960  0C27  00F6               	movwf	___flge@ff2+2
  4961  0C28  3000               	movlw	0
  4962  0C29  00F5               	movwf	___flge@ff2+1
  4963  0C2A  3000               	movlw	0
  4964  0C2B  00F4               	movwf	___flge@ff2
  4965  0C2C                     l2005:
  4966  0C2C  1FF3               	btfss	___flge@ff1+3,7
  4967  0C2D  2C2F               	goto	u1971
  4968  0C2E  2C30               	goto	u1970
  4969  0C2F                     u1971:
  4970  0C2F  2C54               	goto	l2009
  4971  0C30                     u1970:
  4972  0C30                     l2007:
  4973  0C30  3000               	movlw	0
  4974  0C31  00F8               	movwf	??___flge
  4975  0C32  3000               	movlw	0
  4976  0C33  00F9               	movwf	??___flge+1
  4977  0C34  3000               	movlw	0
  4978  0C35  00FA               	movwf	??___flge+2
  4979  0C36  3080               	movlw	128
  4980  0C37  00FB               	movwf	??___flge+3
  4981  0C38  0870               	movf	___flge@ff1,w
  4982  0C39  02F8               	subwf	??___flge,f
  4983  0C3A  0871               	movf	___flge@ff1+1,w
  4984  0C3B  1C03               	skipc
  4985  0C3C  0F71               	incfsz	___flge@ff1+1,w
  4986  0C3D  2C3F               	goto	u1981
  4987  0C3E  2C40               	goto	u1982
  4988  0C3F                     u1981:
  4989  0C3F  02F9               	subwf	??___flge+1,f
  4990  0C40                     u1982:
  4991  0C40  0872               	movf	___flge@ff1+2,w
  4992  0C41  1C03               	skipc
  4993  0C42  0F72               	incfsz	___flge@ff1+2,w
  4994  0C43  2C45               	goto	u1983
  4995  0C44  2C46               	goto	u1984
  4996  0C45                     u1983:
  4997  0C45  02FA               	subwf	??___flge+2,f
  4998  0C46                     u1984:
  4999  0C46  0873               	movf	___flge@ff1+3,w
  5000  0C47  1C03               	skipc
  5001  0C48  0F73               	incfsz	___flge@ff1+3,w
  5002  0C49  2C4B               	goto	u1985
  5003  0C4A  2C4C               	goto	u1986
  5004  0C4B                     u1985:
  5005  0C4B  02FB               	subwf	??___flge+3,f
  5006  0C4C                     u1986:
  5007  0C4C  087B               	movf	??___flge+3,w
  5008  0C4D  00F3               	movwf	___flge@ff1+3
  5009  0C4E  087A               	movf	??___flge+2,w
  5010  0C4F  00F2               	movwf	___flge@ff1+2
  5011  0C50  0879               	movf	??___flge+1,w
  5012  0C51  00F1               	movwf	___flge@ff1+1
  5013  0C52  0878               	movf	??___flge,w
  5014  0C53  00F0               	movwf	___flge@ff1
  5015  0C54                     l2009:
  5016  0C54  1FF7               	btfss	___flge@ff2+3,7
  5017  0C55  2C57               	goto	u1991
  5018  0C56  2C58               	goto	u1990
  5019  0C57                     u1991:
  5020  0C57  2C7C               	goto	l512
  5021  0C58                     u1990:
  5022  0C58                     l2011:
  5023  0C58  3000               	movlw	0
  5024  0C59  00F8               	movwf	??___flge
  5025  0C5A  3000               	movlw	0
  5026  0C5B  00F9               	movwf	??___flge+1
  5027  0C5C  3000               	movlw	0
  5028  0C5D  00FA               	movwf	??___flge+2
  5029  0C5E  3080               	movlw	128
  5030  0C5F  00FB               	movwf	??___flge+3
  5031  0C60  0874               	movf	___flge@ff2,w
  5032  0C61  02F8               	subwf	??___flge,f
  5033  0C62  0875               	movf	___flge@ff2+1,w
  5034  0C63  1C03               	skipc
  5035  0C64  0F75               	incfsz	___flge@ff2+1,w
  5036  0C65  2C67               	goto	u2001
  5037  0C66  2C68               	goto	u2002
  5038  0C67                     u2001:
  5039  0C67  02F9               	subwf	??___flge+1,f
  5040  0C68                     u2002:
  5041  0C68  0876               	movf	___flge@ff2+2,w
  5042  0C69  1C03               	skipc
  5043  0C6A  0F76               	incfsz	___flge@ff2+2,w
  5044  0C6B  2C6D               	goto	u2003
  5045  0C6C  2C6E               	goto	u2004
  5046  0C6D                     u2003:
  5047  0C6D  02FA               	subwf	??___flge+2,f
  5048  0C6E                     u2004:
  5049  0C6E  0877               	movf	___flge@ff2+3,w
  5050  0C6F  1C03               	skipc
  5051  0C70  0F77               	incfsz	___flge@ff2+3,w
  5052  0C71  2C73               	goto	u2005
  5053  0C72  2C74               	goto	u2006
  5054  0C73                     u2005:
  5055  0C73  02FB               	subwf	??___flge+3,f
  5056  0C74                     u2006:
  5057  0C74  087B               	movf	??___flge+3,w
  5058  0C75  00F7               	movwf	___flge@ff2+3
  5059  0C76  087A               	movf	??___flge+2,w
  5060  0C77  00F6               	movwf	___flge@ff2+2
  5061  0C78  0879               	movf	??___flge+1,w
  5062  0C79  00F5               	movwf	___flge@ff2+1
  5063  0C7A  0878               	movf	??___flge,w
  5064  0C7B  00F4               	movwf	___flge@ff2
  5065  0C7C                     l512:
  5066  0C7C  3080               	movlw	128
  5067  0C7D  06F3               	xorwf	___flge@ff1+3,f
  5068  0C7E  3080               	movlw	128
  5069  0C7F  06F7               	xorwf	___flge@ff2+3,f
  5070  0C80  0877               	movf	___flge@ff2+3,w
  5071  0C81  0273               	subwf	___flge@ff1+3,w
  5072  0C82  1D03               	skipz
  5073  0C83  2C8E               	goto	u2015
  5074  0C84  0876               	movf	___flge@ff2+2,w
  5075  0C85  0272               	subwf	___flge@ff1+2,w
  5076  0C86  1D03               	skipz
  5077  0C87  2C8E               	goto	u2015
  5078  0C88  0875               	movf	___flge@ff2+1,w
  5079  0C89  0271               	subwf	___flge@ff1+1,w
  5080  0C8A  1D03               	skipz
  5081  0C8B  2C8E               	goto	u2015
  5082  0C8C  0874               	movf	___flge@ff2,w
  5083  0C8D  0270               	subwf	___flge@ff1,w
  5084  0C8E                     u2015:
  5085  0C8E  1803               	skipnc
  5086  0C8F  2C91               	goto	u2011
  5087  0C90  2C92               	goto	u2010
  5088  0C91                     u2011:
  5089  0C91  2C94               	goto	l2015
  5090  0C92                     u2010:
  5091  0C92                     l2013:
  5092  0C92  1003               	clrc
  5093  0C93  2C95               	goto	l513
  5094  0C94                     l2015:
  5095  0C94  1403               	setc
  5096  0C95                     l513:
  5097  0C95  0008               	return
  5098  0C96                     __end_of___flge:
  5099                           
  5100                           	psect	text9
  5101  097F                     __ptext9:	
  5102 ;; *************** function _strcmp *****************
  5103 ;; Defined at:
  5104 ;;		line 33 in file "C:\Program Files\Microchip\xc8\v2.32\pic\sources\c90\common\strcmp.c"
  5105 ;; Parameters:    Size  Location     Type
  5106 ;;  s1              1    wreg     PTR const unsigned char 
  5107 ;;		 -> senhaUser(5), 
  5108 ;;  s2              1    0[COMMON] PTR const unsigned char 
  5109 ;;		 -> senhaUserConfere(5), 
  5110 ;; Auto vars:     Size  Location     Type
  5111 ;;  s1              1    6[COMMON] PTR const unsigned char 
  5112 ;;		 -> senhaUser(5), 
  5113 ;;  r               1    5[COMMON] char 
  5114 ;; Return value:  Size  Location     Type
  5115 ;;                  2    0[COMMON] int 
  5116 ;; Registers used:
  5117 ;;		wreg, fsr0l, fsr0h, status,2, status,0
  5118 ;; Tracked objects:
  5119 ;;		On entry : 0/0
  5120 ;;		On exit  : 0/0
  5121 ;;		Unchanged: 0/0
  5122 ;; Data sizes:     COMMON   BANK0   BANK1   BANK3   BANK2
  5123 ;;      Params:         2       0       0       0       0
  5124 ;;      Locals:         2       0       0       0       0
  5125 ;;      Temps:          3       0       0       0       0
  5126 ;;      Totals:         7       0       0       0       0
  5127 ;;Total ram usage:        7 bytes
  5128 ;; Hardware stack levels used: 1
  5129 ;; This function calls:
  5130 ;;		Nothing
  5131 ;; This function is called by:
  5132 ;;		_validaUser
  5133 ;; This function uses a non-reentrant model
  5134 ;;
  5135                           
  5136                           
  5137                           ;psect for function _strcmp
  5138  097F                     _strcmp:
  5139                           
  5140                           ;incstack = 0
  5141                           ; Regs used in _strcmp: [wreg-fsr0h+status,2+status,0]
  5142                           ;strcmp@s1 stored from wreg
  5143  097F  00F6               	movwf	strcmp@s1
  5144  0980                     l2435:
  5145  0980  2989               	goto	l2441
  5146  0981                     l2437:
  5147  0981  3001               	movlw	1
  5148  0982  00F2               	movwf	??_strcmp
  5149  0983  0872               	movf	??_strcmp,w
  5150  0984  07F6               	addwf	strcmp@s1,f
  5151  0985                     l2439:
  5152  0985  3001               	movlw	1
  5153  0986  00F2               	movwf	??_strcmp
  5154  0987  0872               	movf	??_strcmp,w
  5155  0988  07F0               	addwf	strcmp@s2,f
  5156  0989                     l2441:
  5157  0989  0870               	movf	strcmp@s2,w
  5158  098A  0084               	movwf	4
  5159  098B  1383               	bcf	3,7	;select IRP bank0
  5160  098C  0800               	movf	0,w
  5161  098D  00F2               	movwf	??_strcmp
  5162  098E  0876               	movf	strcmp@s1,w
  5163  098F  0084               	movwf	4
  5164  0990  0800               	movf	0,w
  5165  0991  00F3               	movwf	??_strcmp+1
  5166  0992  0872               	movf	??_strcmp,w
  5167  0993  0273               	subwf	??_strcmp+1,w
  5168  0994  00F4               	movwf	??_strcmp+2
  5169  0995  0874               	movf	??_strcmp+2,w
  5170  0996  00F5               	movwf	strcmp@r
  5171  0997  0875               	movf	strcmp@r,w
  5172  0998  1D03               	btfss	3,2
  5173  0999  299B               	goto	u2681
  5174  099A  299C               	goto	u2680
  5175  099B                     u2681:
  5176  099B  29A3               	goto	l2445
  5177  099C                     u2680:
  5178  099C                     l2443:
  5179  099C  0876               	movf	strcmp@s1,w
  5180  099D  0084               	movwf	4
  5181  099E  0800               	movf	0,w
  5182  099F  1D03               	btfss	3,2
  5183  09A0  29A2               	goto	u2691
  5184  09A1  29A3               	goto	u2690
  5185  09A2                     u2691:
  5186  09A2  2981               	goto	l2437
  5187  09A3                     u2690:
  5188  09A3                     l2445:
  5189  09A3  0875               	movf	strcmp@r,w
  5190  09A4  00F0               	movwf	?_strcmp
  5191  09A5  01F1               	clrf	?_strcmp+1
  5192  09A6  1BF0               	btfsc	?_strcmp,7
  5193  09A7  03F1               	decf	?_strcmp+1,f
  5194  09A8                     l791:
  5195  09A8  0008               	return
  5196  09A9                     __end_of_strcmp:
  5197                           
  5198                           	psect	text10
  5199  08A7                     __ptext10:	
  5200 ;; *************** function _LCD_limpa *****************
  5201 ;; Defined at:
  5202 ;;		line 56 in file "./lcd.h"
  5203 ;; Parameters:    Size  Location     Type
  5204 ;;		None
  5205 ;; Auto vars:     Size  Location     Type
  5206 ;;		None
  5207 ;; Return value:  Size  Location     Type
  5208 ;;                  1    wreg      void 
  5209 ;; Registers used:
  5210 ;;		wreg, status,2, status,0, btemp+1, pclath, cstack
  5211 ;; Tracked objects:
  5212 ;;		On entry : 0/0
  5213 ;;		On exit  : 0/0
  5214 ;;		Unchanged: 0/0
  5215 ;; Data sizes:     COMMON   BANK0   BANK1   BANK3   BANK2
  5216 ;;      Params:         0       0       0       0       0
  5217 ;;      Locals:         0       0       0       0       0
  5218 ;;      Temps:          0       0       0       0       0
  5219 ;;      Totals:         0       0       0       0       0
  5220 ;;Total ram usage:        0 bytes
  5221 ;; Hardware stack levels used: 1
  5222 ;; Hardware stack levels required when called: 1
  5223 ;; This function calls:
  5224 ;;		_delay
  5225 ;; This function is called by:
  5226 ;;		_main
  5227 ;;		_validaUser
  5228 ;; This function uses a non-reentrant model
  5229 ;;
  5230                           
  5231                           
  5232                           ;psect for function _LCD_limpa
  5233  08A7                     _LCD_limpa:
  5234  08A7                     l2217:	
  5235                           ;incstack = 0
  5236                           ; Regs used in _LCD_limpa: [wreg+status,2+status,0+btemp+1+pclath+cstack]
  5237                           
  5238                           
  5239                           ;./lcd.h: 57:     PORTD = 0x01;
  5240  08A7  3001               	movlw	1
  5241  08A8  1283               	bcf	3,5	;RP0=0, select bank0
  5242  08A9  1303               	bcf	3,6	;RP1=0, select bank0
  5243  08AA  0088               	movwf	8	;volatile
  5244  08AB                     l2219:
  5245                           
  5246                           ;./lcd.h: 58:     RA5 = 0;
  5247  08AB  1285               	bcf	5,5	;volatile
  5248  08AC                     l2221:
  5249                           
  5250                           ;./lcd.h: 59:     RA4 = 0;
  5251  08AC  1205               	bcf	5,4	;volatile
  5252  08AD                     l2223:
  5253                           
  5254                           ;./lcd.h: 60:     RA3=0;
  5255  08AD  1185               	bcf	5,3	;volatile
  5256  08AE                     l2225:
  5257                           
  5258                           ;./lcd.h: 61:     delay();
  5259  08AE  120A  118A  2004  120A  158A  	fcall	_delay
  5260  08B3                     l2227:
  5261                           
  5262                           ;./lcd.h: 62:  RA3 = 1;
  5263  08B3  1283               	bcf	3,5	;RP0=0, select bank0
  5264  08B4  1303               	bcf	3,6	;RP1=0, select bank0
  5265  08B5  1585               	bsf	5,3	;volatile
  5266  08B6                     l68:
  5267  08B6  0008               	return
  5268  08B7                     __end_of_LCD_limpa:
  5269                           
  5270                           	psect	text11
  5271  0A7C                     __ptext11:	
  5272 ;; *************** function _telaInicial *****************
  5273 ;; Defined at:
  5274 ;;		line 289 in file "main.c"
  5275 ;; Parameters:    Size  Location     Type
  5276 ;;		None
  5277 ;; Auto vars:     Size  Location     Type
  5278 ;;  i               2    7[COMMON] int 
  5279 ;; Return value:  Size  Location     Type
  5280 ;;                  1    wreg      void 
  5281 ;; Registers used:
  5282 ;;		wreg, fsr0l, fsr0h, status,2, status,0, btemp+1, pclath, cstack
  5283 ;; Tracked objects:
  5284 ;;		On entry : 0/0
  5285 ;;		On exit  : 0/0
  5286 ;;		Unchanged: 0/0
  5287 ;; Data sizes:     COMMON   BANK0   BANK1   BANK3   BANK2
  5288 ;;      Params:         0       0       0       0       0
  5289 ;;      Locals:         2       0       0       0       0
  5290 ;;      Temps:          2       0       0       0       0
  5291 ;;      Totals:         4       0       0       0       0
  5292 ;;Total ram usage:        4 bytes
  5293 ;; Hardware stack levels used: 1
  5294 ;; Hardware stack levels required when called: 2
  5295 ;; This function calls:
  5296 ;;		_LCD_escreve
  5297 ;;		_LCD_linha1
  5298 ;;		_strlen
  5299 ;; This function is called by:
  5300 ;;		_main
  5301 ;; This function uses a non-reentrant model
  5302 ;;
  5303                           
  5304                           
  5305                           ;psect for function _telaInicial
  5306  0A7C                     _telaInicial:
  5307  0A7C                     l2479:	
  5308                           ;incstack = 0
  5309                           ; Regs used in _telaInicial: [wreg-fsr0h+status,2+status,0+btemp+1+pclath+cstack]
  5310                           
  5311                           
  5312                           ;main.c: 290:     LCD_linha1();
  5313  0A7C  120A  158A  2097  120A  158A  	fcall	_LCD_linha1
  5314                           
  5315                           ;main.c: 291:     LCD_escreve(' ');
  5316  0A81  3020               	movlw	32
  5317  0A82  120A  158A  20B7  120A  158A  	fcall	_LCD_escreve
  5318  0A87                     l2481:
  5319                           
  5320                           ;main.c: 292:     for (int i = 0; i <= strlen(msgDigiteSenha)-1; i++){
  5321  0A87  01F7               	clrf	telaInicial@i
  5322  0A88  01F8               	clrf	telaInicial@i+1
  5323  0A89  2A9A               	goto	l2487
  5324  0A8A                     l2483:
  5325                           
  5326                           ;main.c: 293:         LCD_escreve(msgDigiteSenha[i]);
  5327  0A8A  0877               	movf	telaInicial@i,w
  5328  0A8B  3EA0               	addlw	(low (_msgDigiteSenha| 0))& (0+255)
  5329  0A8C  0084               	movwf	4
  5330  0A8D  1383               	bcf	3,7	;select IRP bank1
  5331  0A8E  0800               	movf	0,w
  5332  0A8F  120A  158A  20B7  120A  158A  	fcall	_LCD_escreve
  5333  0A94                     l2485:
  5334                           
  5335                           ;main.c: 294:     }
  5336  0A94  3001               	movlw	1
  5337  0A95  07F7               	addwf	telaInicial@i,f
  5338  0A96  1803               	skipnc
  5339  0A97  0AF8               	incf	telaInicial@i+1,f
  5340  0A98  3000               	movlw	0
  5341  0A99  07F8               	addwf	telaInicial@i+1,f
  5342  0A9A                     l2487:
  5343  0A9A  30A0               	movlw	(low (_msgDigiteSenha| 0))& (0+255)
  5344  0A9B  120A  158A  20DB  120A  158A  	fcall	_strlen
  5345  0AA0  0870               	movf	?_strlen,w
  5346  0AA1  3EFF               	addlw	255
  5347  0AA2  00F5               	movwf	??_telaInicial
  5348  0AA3  0871               	movf	?_strlen+1,w
  5349  0AA4  1803               	skipnc
  5350  0AA5  3E01               	addlw	1
  5351  0AA6  3EFF               	addlw	255
  5352  0AA7  00F6               	movwf	??_telaInicial+1
  5353  0AA8  0878               	movf	telaInicial@i+1,w
  5354  0AA9  0276               	subwf	??_telaInicial+1,w
  5355  0AAA  1D03               	skipz
  5356  0AAB  2AAE               	goto	u2735
  5357  0AAC  0877               	movf	telaInicial@i,w
  5358  0AAD  0275               	subwf	??_telaInicial,w
  5359  0AAE                     u2735:
  5360  0AAE  1803               	skipnc
  5361  0AAF  2AB1               	goto	u2731
  5362  0AB0  2AB2               	goto	u2730
  5363  0AB1                     u2731:
  5364  0AB1  2A8A               	goto	l2483
  5365  0AB2                     u2730:
  5366  0AB2                     l2489:
  5367                           
  5368                           ;main.c: 295:     LCD_escreve(' ');
  5369  0AB2  3020               	movlw	32
  5370  0AB3  120A  158A  20B7  120A  158A  	fcall	_LCD_escreve
  5371  0AB8                     l197:
  5372  0AB8  0008               	return
  5373  0AB9                     __end_of_telaInicial:
  5374                           
  5375                           	psect	text12
  5376  0C96                     __ptext12:	
  5377 ;; *************** function _listaZonas *****************
  5378 ;; Defined at:
  5379 ;;		line 380 in file "main.c"
  5380 ;; Parameters:    Size  Location     Type
  5381 ;;  valorSensor     2   10[COMMON] int 
  5382 ;; Auto vars:     Size  Location     Type
  5383 ;;		None
  5384 ;; Return value:  Size  Location     Type
  5385 ;;                  1    wreg      void 
  5386 ;; Registers used:
  5387 ;;		wreg, fsr0l, fsr0h, status,2, status,0, btemp+1, pclath, cstack
  5388 ;; Tracked objects:
  5389 ;;		On entry : 0/0
  5390 ;;		On exit  : 0/0
  5391 ;;		Unchanged: 0/0
  5392 ;; Data sizes:     COMMON   BANK0   BANK1   BANK3   BANK2
  5393 ;;      Params:         2       0       0       0       0
  5394 ;;      Locals:         0       0       0       0       0
  5395 ;;      Temps:          0       0       0       0       0
  5396 ;;      Totals:         2       0       0       0       0
  5397 ;;Total ram usage:        2 bytes
  5398 ;; Hardware stack levels used: 1
  5399 ;; Hardware stack levels required when called: 3
  5400 ;; This function calls:
  5401 ;;		_LCD_linha1
  5402 ;;		_LCD_linha2
  5403 ;;		_escreveMesagem
  5404 ;; This function is called by:
  5405 ;;		_main
  5406 ;; This function uses a non-reentrant model
  5407 ;;
  5408                           
  5409                           
  5410                           ;psect for function _listaZonas
  5411  0C96                     _listaZonas:
  5412  0C96                     l2773:	
  5413                           ;incstack = 0
  5414                           ; Regs used in _listaZonas: [wreg-fsr0h+status,2+status,0+btemp+1+pclath+cstack]
  5415                           
  5416                           
  5417                           ;main.c: 382:     if (valorSensor == 1){
  5418  0C96  037A               	decf	listaZonas@valorSensor,w
  5419  0C97  047B               	iorwf	listaZonas@valorSensor+1,w
  5420  0C98  1D03               	btfss	3,2
  5421  0C99  2C9B               	goto	u3001
  5422  0C9A  2C9C               	goto	u3000
  5423  0C9B                     u3001:
  5424  0C9B  2CB8               	goto	l2781
  5425  0C9C                     u3000:
  5426  0C9C                     l2775:
  5427                           
  5428                           ;main.c: 383:         LCD_linha1();
  5429  0C9C  120A  158A  2097  120A  158A  	fcall	_LCD_linha1
  5430  0CA1                     l2777:
  5431                           
  5432                           ;main.c: 384:         escreveMesagem(msgSenhaConfigActive);
  5433  0CA1  30C9               	movlw	(low (_msgSenhaConfigActive| (0+256)))& (0+255)
  5434  0CA2  00F3               	movwf	escreveMesagem@texto
  5435  0CA3  3001               	movlw	1
  5436  0CA4  00F4               	movwf	escreveMesagem@texto+1
  5437  0CA5  120A  158A  220A  120A  158A  	fcall	_escreveMesagem
  5438  0CAA                     l2779:
  5439                           
  5440                           ;main.c: 385:         LCD_linha2();
  5441  0CAA  120A  158A  2087  120A  158A  	fcall	_LCD_linha2
  5442                           
  5443                           ;main.c: 386:         escreveMesagem(msgSenhaUsuario);
  5444  0CAF  30BB               	movlw	(low (_msgSenhaUsuario| (0+256)))& (0+255)
  5445  0CB0  00F3               	movwf	escreveMesagem@texto
  5446  0CB1  3001               	movlw	1
  5447  0CB2  00F4               	movwf	escreveMesagem@texto+1
  5448  0CB3  120A  158A  220A  120A  158A  	fcall	_escreveMesagem
  5449  0CB8                     l2781:
  5450                           
  5451                           ;main.c: 388:     if (valorSensor == 2){
  5452  0CB8  3002               	movlw	2
  5453  0CB9  067A               	xorwf	listaZonas@valorSensor,w
  5454  0CBA  047B               	iorwf	listaZonas@valorSensor+1,w
  5455  0CBB  1D03               	btfss	3,2
  5456  0CBC  2CBE               	goto	u3011
  5457  0CBD  2CBF               	goto	u3010
  5458  0CBE                     u3011:
  5459  0CBE  2CDB               	goto	l2789
  5460  0CBF                     u3010:
  5461  0CBF                     l2783:
  5462                           
  5463                           ;main.c: 389:         LCD_linha1();
  5464  0CBF  120A  158A  2097  120A  158A  	fcall	_LCD_linha1
  5465  0CC4                     l2785:
  5466                           
  5467                           ;main.c: 390:         escreveMesagem(msgSenhaConfig);
  5468  0CC4  30BC               	movlw	(low (_msgSenhaConfig| 0))& (0+255)
  5469  0CC5  00F3               	movwf	escreveMesagem@texto
  5470  0CC6  3000               	movlw	0
  5471  0CC7  00F4               	movwf	escreveMesagem@texto+1
  5472  0CC8  120A  158A  220A  120A  158A  	fcall	_escreveMesagem
  5473  0CCD                     l2787:
  5474                           
  5475                           ;main.c: 391:         LCD_linha2();
  5476  0CCD  120A  158A  2087  120A  158A  	fcall	_LCD_linha2
  5477                           
  5478                           ;main.c: 392:         escreveMesagem(msgSenhaUsuarioActive);
  5479  0CD2  3090               	movlw	(low (_msgSenhaUsuarioActive| (0+256)))& (0+255)
  5480  0CD3  00F3               	movwf	escreveMesagem@texto
  5481  0CD4  3001               	movlw	1
  5482  0CD5  00F4               	movwf	escreveMesagem@texto+1
  5483  0CD6  120A  158A  220A  120A  158A  	fcall	_escreveMesagem
  5484  0CDB                     l2789:
  5485                           
  5486                           ;main.c: 394:     if (valorSensor == 3){
  5487  0CDB  3003               	movlw	3
  5488  0CDC  067A               	xorwf	listaZonas@valorSensor,w
  5489  0CDD  047B               	iorwf	listaZonas@valorSensor+1,w
  5490  0CDE  1D03               	btfss	3,2
  5491  0CDF  2CE1               	goto	u3021
  5492  0CE0  2CE2               	goto	u3020
  5493  0CE1                     u3021:
  5494  0CE1  2CFE               	goto	l2797
  5495  0CE2                     u3020:
  5496  0CE2                     l2791:
  5497                           
  5498                           ;main.c: 395:         LCD_linha1();
  5499  0CE2  120A  158A  2097  120A  158A  	fcall	_LCD_linha1
  5500  0CE7                     l2793:
  5501                           
  5502                           ;main.c: 396:         escreveMesagem(msgSenhaCoacaoActive);
  5503  0CE7  30AD               	movlw	(low (_msgSenhaCoacaoActive| (0+256)))& (0+255)
  5504  0CE8  00F3               	movwf	escreveMesagem@texto
  5505  0CE9  3001               	movlw	1
  5506  0CEA  00F4               	movwf	escreveMesagem@texto+1
  5507  0CEB  120A  158A  220A  120A  158A  	fcall	_escreveMesagem
  5508  0CF0                     l2795:
  5509                           
  5510                           ;main.c: 397:         LCD_linha2();
  5511  0CF0  120A  158A  2087  120A  158A  	fcall	_LCD_linha2
  5512                           
  5513                           ;main.c: 398:         escreveMesagem(msgSenhaDisparo);
  5514  0CF5  309F               	movlw	(low (_msgSenhaDisparo| (0+256)))& (0+255)
  5515  0CF6  00F3               	movwf	escreveMesagem@texto
  5516  0CF7  3001               	movlw	1
  5517  0CF8  00F4               	movwf	escreveMesagem@texto+1
  5518  0CF9  120A  158A  220A  120A  158A  	fcall	_escreveMesagem
  5519  0CFE                     l2797:
  5520                           
  5521                           ;main.c: 400:     if (valorSensor == 4){
  5522  0CFE  3004               	movlw	4
  5523  0CFF  067A               	xorwf	listaZonas@valorSensor,w
  5524  0D00  047B               	iorwf	listaZonas@valorSensor+1,w
  5525  0D01  1D03               	btfss	3,2
  5526  0D02  2D04               	goto	u3031
  5527  0D03  2D05               	goto	u3030
  5528  0D04                     u3031:
  5529  0D04  2D21               	goto	l2805
  5530  0D05                     u3030:
  5531  0D05                     l2799:
  5532                           
  5533                           ;main.c: 401:         LCD_linha1();
  5534  0D05  120A  158A  2097  120A  158A  	fcall	_LCD_linha1
  5535  0D0A                     l2801:
  5536                           
  5537                           ;main.c: 402:         escreveMesagem(msgSenhaCoacao);
  5538  0D0A  30AF               	movlw	(low (_msgSenhaCoacao| 0))& (0+255)
  5539  0D0B  00F3               	movwf	escreveMesagem@texto
  5540  0D0C  3000               	movlw	0
  5541  0D0D  00F4               	movwf	escreveMesagem@texto+1
  5542  0D0E  120A  158A  220A  120A  158A  	fcall	_escreveMesagem
  5543  0D13                     l2803:
  5544                           
  5545                           ;main.c: 403:         LCD_linha2();
  5546  0D13  120A  158A  2087  120A  158A  	fcall	_LCD_linha2
  5547                           
  5548                           ;main.c: 404:         escreveMesagem(msgSenhaDisparoActive);
  5549  0D18  302F               	movlw	(low (_msgSenhaDisparoActive| (0+256)))& (0+255)
  5550  0D19  00F3               	movwf	escreveMesagem@texto
  5551  0D1A  3001               	movlw	1
  5552  0D1B  00F4               	movwf	escreveMesagem@texto+1
  5553  0D1C  120A  158A  220A  120A  158A  	fcall	_escreveMesagem
  5554  0D21                     l2805:
  5555                           
  5556                           ;main.c: 406:     if (valorSensor == 5){
  5557  0D21  3005               	movlw	5
  5558  0D22  067A               	xorwf	listaZonas@valorSensor,w
  5559  0D23  047B               	iorwf	listaZonas@valorSensor+1,w
  5560  0D24  1D03               	btfss	3,2
  5561  0D25  2D27               	goto	u3041
  5562  0D26  2D28               	goto	u3040
  5563  0D27                     u3041:
  5564  0D27  2D44               	goto	l2813
  5565  0D28                     u3040:
  5566  0D28                     l2807:
  5567                           
  5568                           ;main.c: 407:         LCD_linha1();
  5569  0D28  120A  158A  2097  120A  158A  	fcall	_LCD_linha1
  5570  0D2D                     l2809:
  5571                           
  5572                           ;main.c: 408:         escreveMesagem(msgDesativarZonaActive);
  5573  0D2D  3010               	movlw	(low (_msgDesativarZonaActive| (0+256)))& (0+255)
  5574  0D2E  00F3               	movwf	escreveMesagem@texto
  5575  0D2F  3001               	movlw	1
  5576  0D30  00F4               	movwf	escreveMesagem@texto+1
  5577  0D31  120A  158A  220A  120A  158A  	fcall	_escreveMesagem
  5578  0D36                     l2811:
  5579                           
  5580                           ;main.c: 409:         LCD_linha2();
  5581  0D36  120A  158A  2087  120A  158A  	fcall	_LCD_linha2
  5582                           
  5583                           ;main.c: 410:         escreveMesagem(msgReativar);
  5584  0D3B  30E0               	movlw	(low (_msgReativar| 0))& (0+255)
  5585  0D3C  00F3               	movwf	escreveMesagem@texto
  5586  0D3D  3000               	movlw	0
  5587  0D3E  00F4               	movwf	escreveMesagem@texto+1
  5588  0D3F  120A  158A  220A  120A  158A  	fcall	_escreveMesagem
  5589  0D44                     l2813:
  5590                           
  5591                           ;main.c: 412:     if (valorSensor == 6){
  5592  0D44  3006               	movlw	6
  5593  0D45  067A               	xorwf	listaZonas@valorSensor,w
  5594  0D46  047B               	iorwf	listaZonas@valorSensor+1,w
  5595  0D47  1D03               	btfss	3,2
  5596  0D48  2D4A               	goto	u3051
  5597  0D49  2D4B               	goto	u3050
  5598  0D4A                     u3051:
  5599  0D4A  2D67               	goto	l243
  5600  0D4B                     u3050:
  5601  0D4B                     l2815:
  5602                           
  5603                           ;main.c: 413:         LCD_linha1();
  5604  0D4B  120A  158A  2097  120A  158A  	fcall	_LCD_linha1
  5605  0D50                     l2817:
  5606                           
  5607                           ;main.c: 414:         escreveMesagem(msgDesativarZona);
  5608  0D50  3020               	movlw	(low (_msgDesativarZona| (0+256)))& (0+255)
  5609  0D51  00F3               	movwf	escreveMesagem@texto
  5610  0D52  3001               	movlw	1
  5611  0D53  00F4               	movwf	escreveMesagem@texto+1
  5612  0D54  120A  158A  220A  120A  158A  	fcall	_escreveMesagem
  5613  0D59                     l2819:
  5614                           
  5615                           ;main.c: 415:         LCD_linha2();
  5616  0D59  120A  158A  2087  120A  158A  	fcall	_LCD_linha2
  5617                           
  5618                           ;main.c: 416:         escreveMesagem(msgReativarActive);
  5619  0D5E  30D6               	movlw	(low (_msgReativarActive| 0))& (0+255)
  5620  0D5F  00F3               	movwf	escreveMesagem@texto
  5621  0D60  3000               	movlw	0
  5622  0D61  00F4               	movwf	escreveMesagem@texto+1
  5623  0D62  120A  158A  220A  120A  158A  	fcall	_escreveMesagem
  5624  0D67                     l243:
  5625  0D67  0008               	return
  5626  0D68                     __end_of_listaZonas:
  5627                           
  5628                           	psect	text13
  5629  0A0A                     __ptext13:	
  5630 ;; *************** function _escreveMesagem *****************
  5631 ;; Defined at:
  5632 ;;		line 420 in file "main.c"
  5633 ;; Parameters:    Size  Location     Type
  5634 ;;  texto           2    3[COMMON] PTR unsigned char 
  5635 ;;		 -> msgReativarActive(10), msgDesativarZona(15), msgReativar(9), msgDesativarZonaActive(16), 
  5636 ;;		 -> msgSenhaDisparoActive(15), msgSenhaCoacao(13), msgSenhaDisparo(14), msgSenhaCoacaoActive(14), 
  5637 ;;		 -> msgSenhaUsuarioActive(15), msgSenhaConfig(13), msgSenhaUsuario(14), msgSenhaConfigActive(14), 
  5638 ;;		 -> msgSenhaCorreta(14), msgSenhaErrada(13), 
  5639 ;; Auto vars:     Size  Location     Type
  5640 ;;  i               2    8[COMMON] int 
  5641 ;; Return value:  Size  Location     Type
  5642 ;;                  1    wreg      void 
  5643 ;; Registers used:
  5644 ;;		wreg, fsr0l, fsr0h, status,2, status,0, btemp+1, pclath, cstack
  5645 ;; Tracked objects:
  5646 ;;		On entry : 0/0
  5647 ;;		On exit  : 0/0
  5648 ;;		Unchanged: 0/0
  5649 ;; Data sizes:     COMMON   BANK0   BANK1   BANK3   BANK2
  5650 ;;      Params:         2       0       0       0       0
  5651 ;;      Locals:         2       0       0       0       0
  5652 ;;      Temps:          3       0       0       0       0
  5653 ;;      Totals:         7       0       0       0       0
  5654 ;;Total ram usage:        7 bytes
  5655 ;; Hardware stack levels used: 1
  5656 ;; Hardware stack levels required when called: 2
  5657 ;; This function calls:
  5658 ;;		_LCD_escreve
  5659 ;; This function is called by:
  5660 ;;		_validaUser
  5661 ;;		_listaZonas
  5662 ;; This function uses a non-reentrant model
  5663 ;;
  5664                           
  5665                           
  5666                           ;psect for function _escreveMesagem
  5667  0A0A                     _escreveMesagem:
  5668  0A0A                     l2691:	
  5669                           ;incstack = 0
  5670                           ; Regs used in _escreveMesagem: [wreg-fsr0h+status,2+status,0+btemp+1+pclath+cstack]
  5671                           
  5672                           
  5673                           ;main.c: 421:     for (int i = 0; texto[i] != '\0'; i++){
  5674  0A0A  01F8               	clrf	escreveMesagem@i
  5675  0A0B  01F9               	clrf	escreveMesagem@i+1
  5676  0A0C  2A2A               	goto	l2697
  5677  0A0D                     l2693:
  5678                           
  5679                           ;main.c: 422:         LCD_escreve(texto[i]);
  5680  0A0D  0878               	movf	escreveMesagem@i,w
  5681  0A0E  0773               	addwf	escreveMesagem@texto,w
  5682  0A0F  00F6               	movwf	??_escreveMesagem+1
  5683  0A10  0874               	movf	escreveMesagem@texto+1,w
  5684  0A11  00F5               	movwf	??_escreveMesagem
  5685  0A12  1803               	skipnc
  5686  0A13  0AF5               	incf	??_escreveMesagem,f
  5687  0A14  1FF8               	btfss	escreveMesagem@i,7
  5688  0A15  2A17               	goto	u2910
  5689  0A16  03F5               	decf	??_escreveMesagem,f
  5690  0A17                     u2910:
  5691  0A17  0875               	movf	??_escreveMesagem,w
  5692  0A18  00F7               	movwf	??_escreveMesagem+2
  5693  0A19  0876               	movf	??_escreveMesagem+1,w
  5694  0A1A  0084               	movwf	4
  5695  0A1B  1783               	bsf	3,7
  5696  0A1C  1C77               	btfss	??_escreveMesagem+2,0
  5697  0A1D  1383               	bcf	3,7
  5698  0A1E  0800               	movf	0,w
  5699  0A1F  120A  158A  20B7  120A  158A  	fcall	_LCD_escreve
  5700  0A24                     l2695:
  5701                           
  5702                           ;main.c: 423:     }
  5703  0A24  3001               	movlw	1
  5704  0A25  07F8               	addwf	escreveMesagem@i,f
  5705  0A26  1803               	skipnc
  5706  0A27  0AF9               	incf	escreveMesagem@i+1,f
  5707  0A28  3000               	movlw	0
  5708  0A29  07F9               	addwf	escreveMesagem@i+1,f
  5709  0A2A                     l2697:
  5710  0A2A  0878               	movf	escreveMesagem@i,w
  5711  0A2B  0773               	addwf	escreveMesagem@texto,w
  5712  0A2C  00F6               	movwf	??_escreveMesagem+1
  5713  0A2D  0874               	movf	escreveMesagem@texto+1,w
  5714  0A2E  00F5               	movwf	??_escreveMesagem
  5715  0A2F  1803               	skipnc
  5716  0A30  0AF5               	incf	??_escreveMesagem,f
  5717  0A31  1FF8               	btfss	escreveMesagem@i,7
  5718  0A32  2A34               	goto	u2920
  5719  0A33  03F5               	decf	??_escreveMesagem,f
  5720  0A34                     u2920:
  5721  0A34  0875               	movf	??_escreveMesagem,w
  5722  0A35  00F7               	movwf	??_escreveMesagem+2
  5723  0A36  0876               	movf	??_escreveMesagem+1,w
  5724  0A37  0084               	movwf	4
  5725  0A38  1783               	bsf	3,7
  5726  0A39  1C77               	btfss	??_escreveMesagem+2,0
  5727  0A3A  1383               	bcf	3,7
  5728  0A3B  0800               	movf	0,w
  5729  0A3C  1D03               	btfss	3,2
  5730  0A3D  2A3F               	goto	u2931
  5731  0A3E  2A40               	goto	u2930
  5732  0A3F                     u2931:
  5733  0A3F  2A0D               	goto	l2693
  5734  0A40                     u2930:
  5735  0A40                     l249:
  5736  0A40  0008               	return
  5737  0A41                     __end_of_escreveMesagem:
  5738                           
  5739                           	psect	text14
  5740  0897                     __ptext14:	
  5741 ;; *************** function _LCD_linha1 *****************
  5742 ;; Defined at:
  5743 ;;		line 65 in file "./lcd.h"
  5744 ;; Parameters:    Size  Location     Type
  5745 ;;		None
  5746 ;; Auto vars:     Size  Location     Type
  5747 ;;		None
  5748 ;; Return value:  Size  Location     Type
  5749 ;;                  1    wreg      void 
  5750 ;; Registers used:
  5751 ;;		wreg, status,2, status,0, btemp+1, pclath, cstack
  5752 ;; Tracked objects:
  5753 ;;		On entry : 0/0
  5754 ;;		On exit  : 0/0
  5755 ;;		Unchanged: 0/0
  5756 ;; Data sizes:     COMMON   BANK0   BANK1   BANK3   BANK2
  5757 ;;      Params:         0       0       0       0       0
  5758 ;;      Locals:         0       0       0       0       0
  5759 ;;      Temps:          0       0       0       0       0
  5760 ;;      Totals:         0       0       0       0       0
  5761 ;;Total ram usage:        0 bytes
  5762 ;; Hardware stack levels used: 1
  5763 ;; Hardware stack levels required when called: 1
  5764 ;; This function calls:
  5765 ;;		_delay
  5766 ;; This function is called by:
  5767 ;;		_telaInicial
  5768 ;;		_validaUser
  5769 ;;		_listaZonas
  5770 ;; This function uses a non-reentrant model
  5771 ;;
  5772                           
  5773                           
  5774                           ;psect for function _LCD_linha1
  5775  0897                     _LCD_linha1:
  5776  0897                     l2229:	
  5777                           ;incstack = 0
  5778                           ; Regs used in _LCD_linha1: [wreg+status,2+status,0+btemp+1+pclath+cstack]
  5779                           
  5780                           
  5781                           ;./lcd.h: 66:     PORTD = 0x02;
  5782  0897  3002               	movlw	2
  5783  0898  1283               	bcf	3,5	;RP0=0, select bank0
  5784  0899  1303               	bcf	3,6	;RP1=0, select bank0
  5785  089A  0088               	movwf	8	;volatile
  5786  089B                     l2231:
  5787                           
  5788                           ;./lcd.h: 67:     RA5 = 0;
  5789  089B  1285               	bcf	5,5	;volatile
  5790  089C                     l2233:
  5791                           
  5792                           ;./lcd.h: 68:     RA4 = 0;
  5793  089C  1205               	bcf	5,4	;volatile
  5794  089D                     l2235:
  5795                           
  5796                           ;./lcd.h: 69:     RA3=0;
  5797  089D  1185               	bcf	5,3	;volatile
  5798  089E                     l2237:
  5799                           
  5800                           ;./lcd.h: 70:     delay();
  5801  089E  120A  118A  2004  120A  158A  	fcall	_delay
  5802  08A3                     l2239:
  5803                           
  5804                           ;./lcd.h: 71:  RA3 = 1;
  5805  08A3  1283               	bcf	3,5	;RP0=0, select bank0
  5806  08A4  1303               	bcf	3,6	;RP1=0, select bank0
  5807  08A5  1585               	bsf	5,3	;volatile
  5808  08A6                     l71:
  5809  08A6  0008               	return
  5810  08A7                     __end_of_LCD_linha1:
  5811                           
  5812                           	psect	text15
  5813  0A41                     __ptext15:	
  5814 ;; *************** function _Linha2 *****************
  5815 ;; Defined at:
  5816 ;;		line 301 in file "main.c"
  5817 ;; Parameters:    Size  Location     Type
  5818 ;;		None
  5819 ;; Auto vars:     Size  Location     Type
  5820 ;;  i               2    7[COMMON] int 
  5821 ;; Return value:  Size  Location     Type
  5822 ;;                  1    wreg      void 
  5823 ;; Registers used:
  5824 ;;		wreg, fsr0l, fsr0h, status,2, status,0, btemp+1, pclath, cstack
  5825 ;; Tracked objects:
  5826 ;;		On entry : 0/0
  5827 ;;		On exit  : 0/0
  5828 ;;		Unchanged: 0/0
  5829 ;; Data sizes:     COMMON   BANK0   BANK1   BANK3   BANK2
  5830 ;;      Params:         0       0       0       0       0
  5831 ;;      Locals:         2       0       0       0       0
  5832 ;;      Temps:          2       0       0       0       0
  5833 ;;      Totals:         4       0       0       0       0
  5834 ;;Total ram usage:        4 bytes
  5835 ;; Hardware stack levels used: 1
  5836 ;; Hardware stack levels required when called: 3
  5837 ;; This function calls:
  5838 ;;		_LCD_escreve
  5839 ;;		_LCD_linha2
  5840 ;;		_espacoLivre
  5841 ;;		_strlen
  5842 ;; This function is called by:
  5843 ;;		_main
  5844 ;; This function uses a non-reentrant model
  5845 ;;
  5846                           
  5847                           
  5848                           ;psect for function _Linha2
  5849  0A41                     _Linha2:
  5850  0A41                     l2491:	
  5851                           ;incstack = 0
  5852                           ; Regs used in _Linha2: [wreg-fsr0h+status,2+status,0+btemp+1+pclath+cstack]
  5853                           
  5854                           
  5855                           ;main.c: 302:     LCD_linha2();
  5856  0A41  120A  158A  2087  120A  158A  	fcall	_LCD_linha2
  5857                           
  5858                           ;main.c: 303:     espacoLivre();
  5859  0A46  120A  158A  2113  120A  158A  	fcall	_espacoLivre
  5860  0A4B                     l2493:
  5861                           
  5862                           ;main.c: 304:     for (int i = 0; i <= strlen(msgMascara)-1; i++){
  5863  0A4B  01F7               	clrf	Linha2@i
  5864  0A4C  01F8               	clrf	Linha2@i+1
  5865  0A4D  2A5E               	goto	l2499
  5866  0A4E                     l2495:
  5867                           
  5868                           ;main.c: 305:         LCD_escreve(msgMascara[i]);
  5869  0A4E  0877               	movf	Linha2@i,w
  5870  0A4F  3E56               	addlw	(low (_msgMascara| 0))& (0+255)
  5871  0A50  0084               	movwf	4
  5872  0A51  1383               	bcf	3,7	;select IRP bank0
  5873  0A52  0800               	movf	0,w
  5874  0A53  120A  158A  20B7  120A  158A  	fcall	_LCD_escreve
  5875  0A58                     l2497:
  5876                           
  5877                           ;main.c: 306:     }
  5878  0A58  3001               	movlw	1
  5879  0A59  07F7               	addwf	Linha2@i,f
  5880  0A5A  1803               	skipnc
  5881  0A5B  0AF8               	incf	Linha2@i+1,f
  5882  0A5C  3000               	movlw	0
  5883  0A5D  07F8               	addwf	Linha2@i+1,f
  5884  0A5E                     l2499:
  5885  0A5E  3056               	movlw	(low (_msgMascara| 0))& (0+255)
  5886  0A5F  120A  158A  20DB  120A  158A  	fcall	_strlen
  5887  0A64  0870               	movf	?_strlen,w
  5888  0A65  3EFF               	addlw	255
  5889  0A66  00F5               	movwf	??_Linha2
  5890  0A67  0871               	movf	?_strlen+1,w
  5891  0A68  1803               	skipnc
  5892  0A69  3E01               	addlw	1
  5893  0A6A  3EFF               	addlw	255
  5894  0A6B  00F6               	movwf	??_Linha2+1
  5895  0A6C  0878               	movf	Linha2@i+1,w
  5896  0A6D  0276               	subwf	??_Linha2+1,w
  5897  0A6E  1D03               	skipz
  5898  0A6F  2A72               	goto	u2745
  5899  0A70  0877               	movf	Linha2@i,w
  5900  0A71  0275               	subwf	??_Linha2,w
  5901  0A72                     u2745:
  5902  0A72  1803               	skipnc
  5903  0A73  2A75               	goto	u2741
  5904  0A74  2A76               	goto	u2740
  5905  0A75                     u2741:
  5906  0A75  2A4E               	goto	l2495
  5907  0A76                     u2740:
  5908  0A76                     l2501:
  5909                           
  5910                           ;main.c: 307:     espacoLivre();
  5911  0A76  120A  158A  2113  120A  158A  	fcall	_espacoLivre
  5912  0A7B                     l203:
  5913  0A7B  0008               	return
  5914  0A7C                     __end_of_Linha2:
  5915                           
  5916                           	psect	text16
  5917  08DB                     __ptext16:	
  5918 ;; *************** function _strlen *****************
  5919 ;; Defined at:
  5920 ;;		line 4 in file "C:\Program Files\Microchip\xc8\v2.32\pic\sources\c90\common\strlen.c"
  5921 ;; Parameters:    Size  Location     Type
  5922 ;;  s               1    wreg     PTR const unsigned char 
  5923 ;;		 -> msgMascara(5), msgDigiteSenha(15), 
  5924 ;; Auto vars:     Size  Location     Type
  5925 ;;  s               1    4[COMMON] PTR const unsigned char 
  5926 ;;		 -> msgMascara(5), msgDigiteSenha(15), 
  5927 ;;  cp              1    3[COMMON] PTR const unsigned char 
  5928 ;;		 -> msgMascara(5), msgDigiteSenha(15), 
  5929 ;; Return value:  Size  Location     Type
  5930 ;;                  2    0[COMMON] unsigned int 
  5931 ;; Registers used:
  5932 ;;		wreg, fsr0l, fsr0h, status,2, status,0
  5933 ;; Tracked objects:
  5934 ;;		On entry : 0/0
  5935 ;;		On exit  : 0/0
  5936 ;;		Unchanged: 0/0
  5937 ;; Data sizes:     COMMON   BANK0   BANK1   BANK3   BANK2
  5938 ;;      Params:         2       0       0       0       0
  5939 ;;      Locals:         2       0       0       0       0
  5940 ;;      Temps:          1       0       0       0       0
  5941 ;;      Totals:         5       0       0       0       0
  5942 ;;Total ram usage:        5 bytes
  5943 ;; Hardware stack levels used: 1
  5944 ;; This function calls:
  5945 ;;		Nothing
  5946 ;; This function is called by:
  5947 ;;		_telaInicial
  5948 ;;		_Linha2
  5949 ;; This function uses a non-reentrant model
  5950 ;;
  5951                           
  5952                           
  5953                           ;psect for function _strlen
  5954  08DB                     _strlen:
  5955                           
  5956                           ;incstack = 0
  5957                           ; Regs used in _strlen: [wreg-fsr0h+status,2+status,0]
  5958                           ;strlen@s stored from wreg
  5959  08DB  00F4               	movwf	strlen@s
  5960  08DC                     l2411:
  5961  08DC  0874               	movf	strlen@s,w
  5962  08DD  00F2               	movwf	??_strlen
  5963  08DE  0872               	movf	??_strlen,w
  5964  08DF  00F3               	movwf	strlen@cp
  5965  08E0  28E5               	goto	l2415
  5966  08E1                     l2413:
  5967  08E1  3001               	movlw	1
  5968  08E2  00F2               	movwf	??_strlen
  5969  08E3  0872               	movf	??_strlen,w
  5970  08E4  07F3               	addwf	strlen@cp,f
  5971  08E5                     l2415:
  5972  08E5  0873               	movf	strlen@cp,w
  5973  08E6  0084               	movwf	4
  5974  08E7  1383               	bcf	3,7	;select IRP bank0
  5975  08E8  0800               	movf	0,w
  5976  08E9  1D03               	btfss	3,2
  5977  08EA  28EC               	goto	u2661
  5978  08EB  28ED               	goto	u2660
  5979  08EC                     u2661:
  5980  08EC  28E1               	goto	l2413
  5981  08ED                     u2660:
  5982  08ED                     l2417:
  5983  08ED  0874               	movf	strlen@s,w
  5984  08EE  0273               	subwf	strlen@cp,w
  5985  08EF  00F0               	movwf	?_strlen
  5986  08F0  01F1               	clrf	?_strlen+1
  5987  08F1  1BF0               	btfsc	?_strlen,7
  5988  08F2  03F1               	decf	?_strlen+1,f
  5989  08F3                     l797:
  5990  08F3  0008               	return
  5991  08F4                     __end_of_strlen:
  5992                           
  5993                           	psect	text17
  5994  0913                     __ptext17:	
  5995 ;; *************** function _espacoLivre *****************
  5996 ;; Defined at:
  5997 ;;		line 312 in file "main.c"
  5998 ;; Parameters:    Size  Location     Type
  5999 ;;		None
  6000 ;; Auto vars:     Size  Location     Type
  6001 ;;  i               2    3[COMMON] int 
  6002 ;; Return value:  Size  Location     Type
  6003 ;;                  1    wreg      void 
  6004 ;; Registers used:
  6005 ;;		wreg, status,2, status,0, btemp+1, pclath, cstack
  6006 ;; Tracked objects:
  6007 ;;		On entry : 0/0
  6008 ;;		On exit  : 0/0
  6009 ;;		Unchanged: 0/0
  6010 ;; Data sizes:     COMMON   BANK0   BANK1   BANK3   BANK2
  6011 ;;      Params:         0       0       0       0       0
  6012 ;;      Locals:         2       0       0       0       0
  6013 ;;      Temps:          0       0       0       0       0
  6014 ;;      Totals:         2       0       0       0       0
  6015 ;;Total ram usage:        2 bytes
  6016 ;; Hardware stack levels used: 1
  6017 ;; Hardware stack levels required when called: 2
  6018 ;; This function calls:
  6019 ;;		_LCD_escreve
  6020 ;;		_LCD_linha2
  6021 ;; This function is called by:
  6022 ;;		_Linha2
  6023 ;; This function uses a non-reentrant model
  6024 ;;
  6025                           
  6026                           
  6027                           ;psect for function _espacoLivre
  6028  0913                     _espacoLivre:
  6029  0913                     l2421:	
  6030                           ;incstack = 0
  6031                           ; Regs used in _espacoLivre: [wreg+status,2+status,0+btemp+1+pclath+cstack]
  6032                           
  6033                           
  6034                           ;main.c: 313:     LCD_linha2();
  6035  0913  120A  158A  2087  120A  158A  	fcall	_LCD_linha2
  6036  0918                     l2423:
  6037                           
  6038                           ;main.c: 314:     for (int i = 0; i < 6; i++){
  6039  0918  01F3               	clrf	espacoLivre@i
  6040  0919  01F4               	clrf	espacoLivre@i+1
  6041  091A                     l2429:
  6042                           
  6043                           ;main.c: 315:         LCD_escreve(' ');
  6044  091A  3020               	movlw	32
  6045  091B  120A  158A  20B7  120A  158A  	fcall	_LCD_escreve
  6046  0920                     l2431:
  6047                           
  6048                           ;main.c: 316:     }
  6049  0920  3001               	movlw	1
  6050  0921  07F3               	addwf	espacoLivre@i,f
  6051  0922  1803               	skipnc
  6052  0923  0AF4               	incf	espacoLivre@i+1,f
  6053  0924  3000               	movlw	0
  6054  0925  07F4               	addwf	espacoLivre@i+1,f
  6055  0926                     l2433:
  6056  0926  0874               	movf	espacoLivre@i+1,w
  6057  0927  3A80               	xorlw	128
  6058  0928  00FF               	movwf	btemp+1
  6059  0929  3080               	movlw	128
  6060  092A  027F               	subwf	btemp+1,w
  6061  092B  1D03               	skipz
  6062  092C  292F               	goto	u2675
  6063  092D  3006               	movlw	6
  6064  092E  0273               	subwf	espacoLivre@i,w
  6065  092F                     u2675:
  6066  092F  1C03               	skipc
  6067  0930  2932               	goto	u2671
  6068  0931  2933               	goto	u2670
  6069  0932                     u2671:
  6070  0932  291A               	goto	l2429
  6071  0933                     u2670:
  6072  0933                     l208:
  6073  0933  0008               	return
  6074  0934                     __end_of_espacoLivre:
  6075                           
  6076                           	psect	text18
  6077  0887                     __ptext18:	
  6078 ;; *************** function _LCD_linha2 *****************
  6079 ;; Defined at:
  6080 ;;		line 73 in file "./lcd.h"
  6081 ;; Parameters:    Size  Location     Type
  6082 ;;		None
  6083 ;; Auto vars:     Size  Location     Type
  6084 ;;		None
  6085 ;; Return value:  Size  Location     Type
  6086 ;;                  1    wreg      void 
  6087 ;; Registers used:
  6088 ;;		wreg, status,2, status,0, btemp+1, pclath, cstack
  6089 ;; Tracked objects:
  6090 ;;		On entry : 0/0
  6091 ;;		On exit  : 0/0
  6092 ;;		Unchanged: 0/0
  6093 ;; Data sizes:     COMMON   BANK0   BANK1   BANK3   BANK2
  6094 ;;      Params:         0       0       0       0       0
  6095 ;;      Locals:         0       0       0       0       0
  6096 ;;      Temps:          0       0       0       0       0
  6097 ;;      Totals:         0       0       0       0       0
  6098 ;;Total ram usage:        0 bytes
  6099 ;; Hardware stack levels used: 1
  6100 ;; Hardware stack levels required when called: 1
  6101 ;; This function calls:
  6102 ;;		_delay
  6103 ;; This function is called by:
  6104 ;;		_Linha2
  6105 ;;		_espacoLivre
  6106 ;;		_listaZonas
  6107 ;; This function uses a non-reentrant model
  6108 ;;
  6109                           
  6110                           
  6111                           ;psect for function _LCD_linha2
  6112  0887                     _LCD_linha2:
  6113  0887                     l2177:	
  6114                           ;incstack = 0
  6115                           ; Regs used in _LCD_linha2: [wreg+status,2+status,0+btemp+1+pclath+cstack]
  6116                           
  6117                           
  6118                           ;./lcd.h: 74:     PORTD = 0xC0;
  6119  0887  30C0               	movlw	192
  6120  0888  1283               	bcf	3,5	;RP0=0, select bank0
  6121  0889  1303               	bcf	3,6	;RP1=0, select bank0
  6122  088A  0088               	movwf	8	;volatile
  6123  088B                     l2179:
  6124                           
  6125                           ;./lcd.h: 75:     RA5 = 0;
  6126  088B  1285               	bcf	5,5	;volatile
  6127  088C                     l2181:
  6128                           
  6129                           ;./lcd.h: 76:     RA4 = 0;
  6130  088C  1205               	bcf	5,4	;volatile
  6131  088D                     l2183:
  6132                           
  6133                           ;./lcd.h: 77:     RA3=0;
  6134  088D  1185               	bcf	5,3	;volatile
  6135  088E                     l2185:
  6136                           
  6137                           ;./lcd.h: 78:     delay();
  6138  088E  120A  118A  2004  120A  158A  	fcall	_delay
  6139  0893                     l2187:
  6140                           
  6141                           ;./lcd.h: 79:  RA3 = 1;
  6142  0893  1283               	bcf	3,5	;RP0=0, select bank0
  6143  0894  1303               	bcf	3,6	;RP1=0, select bank0
  6144  0895  1585               	bsf	5,3	;volatile
  6145  0896                     l74:
  6146  0896  0008               	return
  6147  0897                     __end_of_LCD_linha2:
  6148                           
  6149                           	psect	text19
  6150  08B7                     __ptext19:	
  6151 ;; *************** function _LCD_escreve *****************
  6152 ;; Defined at:
  6153 ;;		line 46 in file "./lcd.h"
  6154 ;; Parameters:    Size  Location     Type
  6155 ;;  x               1    wreg     unsigned char 
  6156 ;; Auto vars:     Size  Location     Type
  6157 ;;  x               1    2[COMMON] unsigned char 
  6158 ;; Return value:  Size  Location     Type
  6159 ;;                  1    wreg      void 
  6160 ;; Registers used:
  6161 ;;		wreg, status,2, status,0, btemp+1, pclath, cstack
  6162 ;; Tracked objects:
  6163 ;;		On entry : 0/0
  6164 ;;		On exit  : 0/0
  6165 ;;		Unchanged: 0/0
  6166 ;; Data sizes:     COMMON   BANK0   BANK1   BANK3   BANK2
  6167 ;;      Params:         0       0       0       0       0
  6168 ;;      Locals:         1       0       0       0       0
  6169 ;;      Temps:          0       0       0       0       0
  6170 ;;      Totals:         1       0       0       0       0
  6171 ;;Total ram usage:        1 bytes
  6172 ;; Hardware stack levels used: 1
  6173 ;; Hardware stack levels required when called: 1
  6174 ;; This function calls:
  6175 ;;		_delay
  6176 ;; This function is called by:
  6177 ;;		_teclado
  6178 ;;		_telaInicial
  6179 ;;		_Linha2
  6180 ;;		_espacoLivre
  6181 ;;		_escreveMesagem
  6182 ;;		_LCD_escreveFrase
  6183 ;; This function uses a non-reentrant model
  6184 ;;
  6185                           
  6186                           
  6187                           ;psect for function _LCD_escreve
  6188  08B7                     _LCD_escreve:
  6189                           
  6190                           ;incstack = 0
  6191                           ; Regs used in _LCD_escreve: [wreg+status,2+status,0+btemp+1+pclath+cstack]
  6192                           ;LCD_escreve@x stored from wreg
  6193  08B7  00F2               	movwf	LCD_escreve@x
  6194  08B8                     l2165:
  6195                           
  6196                           ;./lcd.h: 46: void LCD_escreve(char x);./lcd.h: 47: {;./lcd.h: 48:  PORTD = x;
  6197  08B8  0872               	movf	LCD_escreve@x,w
  6198  08B9  1283               	bcf	3,5	;RP0=0, select bank0
  6199  08BA  1303               	bcf	3,6	;RP1=0, select bank0
  6200  08BB  0088               	movwf	8	;volatile
  6201  08BC                     l2167:
  6202                           
  6203                           ;./lcd.h: 49:  RA5 = 1;
  6204  08BC  1685               	bsf	5,5	;volatile
  6205  08BD                     l2169:
  6206                           
  6207                           ;./lcd.h: 50:  RA4 = 0;
  6208  08BD  1205               	bcf	5,4	;volatile
  6209  08BE                     l2171:
  6210                           
  6211                           ;./lcd.h: 51:  RA3 = 0;
  6212  08BE  1185               	bcf	5,3	;volatile
  6213  08BF                     l2173:
  6214                           
  6215                           ;./lcd.h: 52:  delay();
  6216  08BF  120A  118A  2004  120A  158A  	fcall	_delay
  6217  08C4                     l2175:
  6218                           
  6219                           ;./lcd.h: 53:  RA3 = 1;
  6220  08C4  1283               	bcf	3,5	;RP0=0, select bank0
  6221  08C5  1303               	bcf	3,6	;RP1=0, select bank0
  6222  08C6  1585               	bsf	5,3	;volatile
  6223  08C7                     l65:
  6224  08C7  0008               	return
  6225  08C8                     __end_of_LCD_escreve:
  6226                           
  6227                           	psect	text20
  6228  09D7                     __ptext20:	
  6229 ;; *************** function _LCD_init *****************
  6230 ;; Defined at:
  6231 ;;		line 31 in file "./lcd.h"
  6232 ;; Parameters:    Size  Location     Type
  6233 ;;		None
  6234 ;; Auto vars:     Size  Location     Type
  6235 ;;		None
  6236 ;; Return value:  Size  Location     Type
  6237 ;;                  1    wreg      void 
  6238 ;; Registers used:
  6239 ;;		wreg, status,2, status,0, btemp+1, pclath, cstack
  6240 ;; Tracked objects:
  6241 ;;		On entry : 0/0
  6242 ;;		On exit  : 0/0
  6243 ;;		Unchanged: 0/0
  6244 ;; Data sizes:     COMMON   BANK0   BANK1   BANK3   BANK2
  6245 ;;      Params:         0       0       0       0       0
  6246 ;;      Locals:         0       0       0       0       0
  6247 ;;      Temps:          0       0       0       0       0
  6248 ;;      Totals:         0       0       0       0       0
  6249 ;;Total ram usage:        0 bytes
  6250 ;; Hardware stack levels used: 1
  6251 ;; Hardware stack levels required when called: 2
  6252 ;; This function calls:
  6253 ;;		_LCD_enable
  6254 ;;		_init
  6255 ;; This function is called by:
  6256 ;;		_main
  6257 ;; This function uses a non-reentrant model
  6258 ;;
  6259                           
  6260                           
  6261                           ;psect for function _LCD_init
  6262  09D7                     _LCD_init:
  6263  09D7                     l2457:	
  6264                           ;incstack = 0
  6265                           ; Regs used in _LCD_init: [wreg+status,2+status,0+btemp+1+pclath+cstack]
  6266                           
  6267                           
  6268                           ;./lcd.h: 33:     init();
  6269  09D7  120A  158A  206D  120A  158A  	fcall	_init
  6270  09DC                     l2459:
  6271                           
  6272                           ;./lcd.h: 34:  PORTD = 0X1;
  6273  09DC  3001               	movlw	1
  6274  09DD  1283               	bcf	3,5	;RP0=0, select bank0
  6275  09DE  1303               	bcf	3,6	;RP1=0, select bank0
  6276  09DF  0088               	movwf	8	;volatile
  6277  09E0                     l2461:
  6278                           
  6279                           ;./lcd.h: 35:  LCD_enable();
  6280  09E0  120A  158A  2079  120A  158A  	fcall	_LCD_enable
  6281  09E5                     l2463:
  6282                           
  6283                           ;./lcd.h: 36:  PORTD = 0X38;
  6284  09E5  3038               	movlw	56
  6285  09E6  1283               	bcf	3,5	;RP0=0, select bank0
  6286  09E7  1303               	bcf	3,6	;RP1=0, select bank0
  6287  09E8  0088               	movwf	8	;volatile
  6288  09E9                     l2465:
  6289                           
  6290                           ;./lcd.h: 37:  LCD_enable();
  6291  09E9  120A  158A  2079  120A  158A  	fcall	_LCD_enable
  6292  09EE                     l2467:
  6293                           
  6294                           ;./lcd.h: 38:  PORTD = 0X0e;
  6295  09EE  300E               	movlw	14
  6296  09EF  1283               	bcf	3,5	;RP0=0, select bank0
  6297  09F0  1303               	bcf	3,6	;RP1=0, select bank0
  6298  09F1  0088               	movwf	8	;volatile
  6299  09F2                     l2469:
  6300                           
  6301                           ;./lcd.h: 39:  LCD_enable();
  6302  09F2  120A  158A  2079  120A  158A  	fcall	_LCD_enable
  6303  09F7                     l2471:
  6304                           
  6305                           ;./lcd.h: 40:  PORTD = 0X06;
  6306  09F7  3006               	movlw	6
  6307  09F8  1283               	bcf	3,5	;RP0=0, select bank0
  6308  09F9  1303               	bcf	3,6	;RP1=0, select bank0
  6309  09FA  0088               	movwf	8	;volatile
  6310  09FB                     l2473:
  6311                           
  6312                           ;./lcd.h: 41:  LCD_enable();
  6313  09FB  120A  158A  2079  120A  158A  	fcall	_LCD_enable
  6314  0A00                     l2475:
  6315                           
  6316                           ;./lcd.h: 42:  PORTD = 0X80;
  6317  0A00  3080               	movlw	128
  6318  0A01  1283               	bcf	3,5	;RP0=0, select bank0
  6319  0A02  1303               	bcf	3,6	;RP1=0, select bank0
  6320  0A03  0088               	movwf	8	;volatile
  6321  0A04                     l2477:
  6322                           
  6323                           ;./lcd.h: 43:  LCD_enable();
  6324  0A04  120A  158A  2079  120A  158A  	fcall	_LCD_enable
  6325  0A09                     l62:
  6326  0A09  0008               	return
  6327  0A0A                     __end_of_LCD_init:
  6328                           
  6329                           	psect	text21
  6330  086D                     __ptext21:	
  6331 ;; *************** function _init *****************
  6332 ;; Defined at:
  6333 ;;		line 23 in file "./lcd.h"
  6334 ;; Parameters:    Size  Location     Type
  6335 ;;		None
  6336 ;; Auto vars:     Size  Location     Type
  6337 ;;		None
  6338 ;; Return value:  Size  Location     Type
  6339 ;;                  1    wreg      void 
  6340 ;; Registers used:
  6341 ;;		wreg, status,2
  6342 ;; Tracked objects:
  6343 ;;		On entry : 0/0
  6344 ;;		On exit  : 0/0
  6345 ;;		Unchanged: 0/0
  6346 ;; Data sizes:     COMMON   BANK0   BANK1   BANK3   BANK2
  6347 ;;      Params:         0       0       0       0       0
  6348 ;;      Locals:         0       0       0       0       0
  6349 ;;      Temps:          0       0       0       0       0
  6350 ;;      Totals:         0       0       0       0       0
  6351 ;;Total ram usage:        0 bytes
  6352 ;; Hardware stack levels used: 1
  6353 ;; This function calls:
  6354 ;;		Nothing
  6355 ;; This function is called by:
  6356 ;;		_LCD_init
  6357 ;; This function uses a non-reentrant model
  6358 ;;
  6359                           
  6360                           
  6361                           ;psect for function _init
  6362  086D                     _init:
  6363  086D                     l2203:	
  6364                           ;incstack = 0
  6365                           ; Regs used in _init: [wreg+status,2]
  6366                           
  6367                           
  6368                           ;./lcd.h: 25:  ADCON1 = 0X07;
  6369  086D  3007               	movlw	7
  6370  086E  1683               	bsf	3,5	;RP0=1, select bank1
  6371  086F  1303               	bcf	3,6	;RP1=0, select bank1
  6372  0870  009F               	movwf	31	;volatile
  6373  0871                     l2205:
  6374                           
  6375                           ;./lcd.h: 26:      RA1=1;
  6376  0871  1283               	bcf	3,5	;RP0=0, select bank0
  6377  0872  1303               	bcf	3,6	;RP1=0, select bank0
  6378  0873  1485               	bsf	5,1	;volatile
  6379  0874                     l2207:
  6380                           
  6381                           ;./lcd.h: 27:  TRISA = 0X00;
  6382  0874  1683               	bsf	3,5	;RP0=1, select bank1
  6383  0875  1303               	bcf	3,6	;RP1=0, select bank1
  6384  0876  0185               	clrf	5	;volatile
  6385  0877                     l2209:
  6386                           
  6387                           ;./lcd.h: 28:  TRISD = 0X00;
  6388  0877  0188               	clrf	8	;volatile
  6389  0878                     l59:
  6390  0878  0008               	return
  6391  0879                     __end_of_init:
  6392                           
  6393                           	psect	text22
  6394  0879                     __ptext22:	
  6395 ;; *************** function _LCD_enable *****************
  6396 ;; Defined at:
  6397 ;;		line 85 in file "./lcd.h"
  6398 ;; Parameters:    Size  Location     Type
  6399 ;;		None
  6400 ;; Auto vars:     Size  Location     Type
  6401 ;;		None
  6402 ;; Return value:  Size  Location     Type
  6403 ;;                  1    wreg      void 
  6404 ;; Registers used:
  6405 ;;		wreg, status,2, status,0, btemp+1, pclath, cstack
  6406 ;; Tracked objects:
  6407 ;;		On entry : 0/0
  6408 ;;		On exit  : 0/0
  6409 ;;		Unchanged: 0/0
  6410 ;; Data sizes:     COMMON   BANK0   BANK1   BANK3   BANK2
  6411 ;;      Params:         0       0       0       0       0
  6412 ;;      Locals:         0       0       0       0       0
  6413 ;;      Temps:          0       0       0       0       0
  6414 ;;      Totals:         0       0       0       0       0
  6415 ;;Total ram usage:        0 bytes
  6416 ;; Hardware stack levels used: 1
  6417 ;; Hardware stack levels required when called: 1
  6418 ;; This function calls:
  6419 ;;		_delay
  6420 ;; This function is called by:
  6421 ;;		_LCD_init
  6422 ;; This function uses a non-reentrant model
  6423 ;;
  6424                           
  6425                           
  6426                           ;psect for function _LCD_enable
  6427  0879                     _LCD_enable:
  6428  0879                     l2211:	
  6429                           ;incstack = 0
  6430                           ; Regs used in _LCD_enable: [wreg+status,2+status,0+btemp+1+pclath+cstack]
  6431                           
  6432                           
  6433                           ;./lcd.h: 87:  RA5 = 0;
  6434  0879  1283               	bcf	3,5	;RP0=0, select bank0
  6435  087A  1303               	bcf	3,6	;RP1=0, select bank0
  6436  087B  1285               	bcf	5,5	;volatile
  6437                           
  6438                           ;./lcd.h: 88:  RA4 = 0;
  6439  087C  1205               	bcf	5,4	;volatile
  6440                           
  6441                           ;./lcd.h: 89:  RA3 = 0;
  6442  087D  1185               	bcf	5,3	;volatile
  6443  087E                     l2213:
  6444                           
  6445                           ;./lcd.h: 90:  delay();
  6446  087E  120A  118A  2004  120A  158A  	fcall	_delay
  6447  0883                     l2215:
  6448                           
  6449                           ;./lcd.h: 91:  RA3 = 1;
  6450  0883  1283               	bcf	3,5	;RP0=0, select bank0
  6451  0884  1303               	bcf	3,6	;RP1=0, select bank0
  6452  0885  1585               	bsf	5,3	;volatile
  6453  0886                     l77:
  6454  0886  0008               	return
  6455  0887                     __end_of_LCD_enable:
  6456                           
  6457                           	psect	text23
  6458  0004                     __ptext23:	
  6459 ;; *************** function _delay *****************
  6460 ;; Defined at:
  6461 ;;		line 94 in file "./lcd.h"
  6462 ;; Parameters:    Size  Location     Type
  6463 ;;		None
  6464 ;; Auto vars:     Size  Location     Type
  6465 ;;  i               2    0[COMMON] int 
  6466 ;; Return value:  Size  Location     Type
  6467 ;;                  1    wreg      void 
  6468 ;; Registers used:
  6469 ;;		wreg, status,2, btemp+1
  6470 ;; Tracked objects:
  6471 ;;		On entry : 0/0
  6472 ;;		On exit  : 0/0
  6473 ;;		Unchanged: 0/0
  6474 ;; Data sizes:     COMMON   BANK0   BANK1   BANK3   BANK2
  6475 ;;      Params:         0       0       0       0       0
  6476 ;;      Locals:         2       0       0       0       0
  6477 ;;      Temps:          0       0       0       0       0
  6478 ;;      Totals:         2       0       0       0       0
  6479 ;;Total ram usage:        2 bytes
  6480 ;; Hardware stack levels used: 1
  6481 ;; This function calls:
  6482 ;;		Nothing
  6483 ;; This function is called by:
  6484 ;;		_LCD_escreve
  6485 ;;		_LCD_limpa
  6486 ;;		_LCD_linha1
  6487 ;;		_LCD_linha2
  6488 ;;		_LCD_enable
  6489 ;; This function uses a non-reentrant model
  6490 ;;
  6491                           
  6492                           
  6493                           ;psect for function _delay
  6494  0004                     _delay:
  6495  0004                     l1989:	
  6496                           ;incstack = 0
  6497                           ; Regs used in _delay: [wreg+status,2+btemp+1]
  6498                           
  6499                           
  6500                           ;./lcd.h: 96:  int i;;./lcd.h: 97:  for (i = 0;i < 5000;i++);
  6501  0004  01F0               	clrf	delay@i
  6502  0005  01F1               	clrf	delay@i+1
  6503  0006                     l1995:
  6504  0006  3001               	movlw	1
  6505  0007  07F0               	addwf	delay@i,f
  6506  0008  1803               	skipnc
  6507  0009  0AF1               	incf	delay@i+1,f
  6508  000A  3000               	movlw	0
  6509  000B  07F1               	addwf	delay@i+1,f
  6510  000C                     l1997:
  6511  000C  0871               	movf	delay@i+1,w
  6512  000D  3A80               	xorlw	128
  6513  000E  00FF               	movwf	btemp+1
  6514  000F  3093               	movlw	147
  6515  0010  027F               	subwf	btemp+1,w
  6516  0011  1D03               	skipz
  6517  0012  2815               	goto	u1945
  6518  0013  3088               	movlw	136
  6519  0014  0270               	subwf	delay@i,w
  6520  0015                     u1945:
  6521  0015  1C03               	skipc
  6522  0016  2818               	goto	u1941
  6523  0017  2819               	goto	u1940
  6524  0018                     u1941:
  6525  0018  2806               	goto	l1995
  6526  0019                     u1940:
  6527  0019                     l82:
  6528  0019  0008               	return
  6529  001A                     __end_of_delay:
  6530  007E                     btemp	set	126	;btemp
  6531  007E                     wtemp0	set	126

Data Sizes:
    Strings     0
    Constant    0
    Data        235
    BSS         6
    Persistent  0
    Stack       0

Auto Spaces:
    Space          Size  Autos    Used
    COMMON           14     14      14
    BANK0            80     38      75
    BANK1            80      0      73
    BANK3            96      0      85
    BANK2            96      0      46

Pointer List with Targets:

    strlen@s	PTR const unsigned char  size(1) Largest target is 15
		 -> msgMascara(BANK0[5]), msgDigiteSenha(BANK1[15]), 

    strlen@cp	PTR const unsigned char  size(1) Largest target is 15
		 -> msgMascara(BANK0[5]), msgDigiteSenha(BANK1[15]), 

    strcmp@s2	PTR const unsigned char  size(1) Largest target is 5
		 -> senhaUserConfere(BANK0[5]), 

    strcmp@s1	PTR const unsigned char  size(1) Largest target is 5
		 -> senhaUser(BANK0[5]), 

    escreveMesagem@texto	PTR unsigned char  size(2) Largest target is 16
		 -> msgReativarActive(BANK1[10]), msgDesativarZona(BANK2[15]), msgReativar(BANK1[9]), msgDesativarZonaActive(BANK2[16]), 
		 -> msgSenhaDisparoActive(BANK2[15]), msgSenhaCoacao(BANK1[13]), msgSenhaDisparo(BANK3[14]), msgSenhaCoacaoActive(BANK3[14]), 
		 -> msgSenhaUsuarioActive(BANK3[15]), msgSenhaConfig(BANK1[13]), msgSenhaUsuario(BANK3[14]), msgSenhaConfigActive(BANK3[14]), 
		 -> msgSenhaCorreta(BANK3[14]), msgSenhaErrada(BANK1[13]), 

    aux	PTR unsigned char  size(2) Largest target is 512
		 -> RAM(DATA[512]), RAM(DATA[512]), RAM(DATA[512]), RAM(DATA[512]), 
		 -> RAM(DATA[512]), RAM(DATA[512]), RAM(DATA[512]), RAM(DATA[512]), 
		 -> RAM(DATA[512]), RAM(DATA[512]), NULL(NULL[0]), RAM(DATA[512]), 
		 -> RAM(DATA[512]), RAM(DATA[512]), 


Critical Paths under _main in COMMON

    _liga_buzzer->___flmul
    ___flsub->___fladd
    ___flmul->__Umul8_16
    _LCD_limpa->_delay
    _telaInicial->_strlen
    _listaZonas->_escreveMesagem
    _escreveMesagem->_LCD_escreve
    _LCD_linha1->_delay
    _Linha2->_espacoLivre
    _Linha2->_strlen
    _espacoLivre->_LCD_escreve
    _LCD_linha2->_delay
    _LCD_escreve->_delay
    _LCD_enable->_delay

Critical Paths under _main in BANK0

    _main->_validaUser
    _validaUser->_teclado
    _teclado->_liga_buzzer
    _liga_buzzer->___flmul
    ___flsub->___fladd

Critical Paths under _main in BANK1

    None.

Critical Paths under _main in BANK3

    None.

Critical Paths under _main in BANK2

    None.

Call Graph Tables:

 ---------------------------------------------------------------------------------
 (Depth) Function   	        Calls       Base Space   Used Autos Params    Refs
 ---------------------------------------------------------------------------------
 (0) _main                                                 5     5      0   16273
                                             33 BANK0      5     5      0
                           _LCD_init
                          _LCD_limpa
                             _Linha2
                         _listaZonas
                            _teclado
                        _telaInicial
                         _validaUser
 ---------------------------------------------------------------------------------
 (1) _validaUser                                           3     3      0    7728
                                             30 BANK0      3     3      0
                          _LCD_limpa
                         _LCD_linha1
                     _escreveMesagem
                             _strcmp
                            _teclado
 ---------------------------------------------------------------------------------
 (2) _teclado                                              3     3      0    6436
                                             27 BANK0      3     3      0
                        _LCD_escreve
                        _liga_buzzer
 ---------------------------------------------------------------------------------
 (3) _liga_buzzer                                          6     2      4    6368
                                             21 BANK0      6     2      4
                             ___flge
                            ___flmul
                            ___flsub
 ---------------------------------------------------------------------------------
 (4) ___flsub                                              8     0      8    2333
                                              8 BANK0      8     0      8
                            ___fladd
 ---------------------------------------------------------------------------------
 (5) ___fladd                                             20    12      8    2136
                                              0 COMMON    12     4      8
                                              0 BANK0      8     8      0
 ---------------------------------------------------------------------------------
 (4) ___flmul                                             26    18      8    2417
                                              9 COMMON     5     5      0
                                              0 BANK0     21    13      8
                          __Umul8_16
 ---------------------------------------------------------------------------------
 (5) __Umul8_16                                            9     7      2     799
                                              0 COMMON     9     7      2
 ---------------------------------------------------------------------------------
 (4) ___flge                                              12     4      8     334
                                              0 COMMON    12     4      8
 ---------------------------------------------------------------------------------
 (2) _strcmp                                               7     5      2     309
                                              0 COMMON     7     5      2
 ---------------------------------------------------------------------------------
 (2) _LCD_limpa                                            0     0      0      46
                              _delay
 ---------------------------------------------------------------------------------
 (1) _telaInicial                                          4     4      0     316
                                              5 COMMON     4     4      0
                        _LCD_escreve
                         _LCD_linha1
                             _strlen
 ---------------------------------------------------------------------------------
 (1) _listaZonas                                           2     0      2    1126
                                             10 COMMON     2     0      2
                         _LCD_linha1
                         _LCD_linha2
                     _escreveMesagem
 ---------------------------------------------------------------------------------
 (2) _escreveMesagem                                       7     5      2     758
                                              3 COMMON     7     5      2
                        _LCD_escreve
 ---------------------------------------------------------------------------------
 (2) _LCD_linha1                                           0     0      0      46
                              _delay
 ---------------------------------------------------------------------------------
 (1) _Linha2                                               4     4      0     476
                                              5 COMMON     4     4      0
                        _LCD_escreve
                         _LCD_linha2
                        _espacoLivre
                             _strlen
 ---------------------------------------------------------------------------------
 (2) _strlen                                               5     3      2     156
                                              0 COMMON     5     3      2
 ---------------------------------------------------------------------------------
 (2) _espacoLivre                                          2     2      0     160
                                              3 COMMON     2     2      0
                        _LCD_escreve
                         _LCD_linha2
 ---------------------------------------------------------------------------------
 (2) _LCD_linha2                                           0     0      0      46
                              _delay
 ---------------------------------------------------------------------------------
 (3) _LCD_escreve                                          1     1      0      68
                                              2 COMMON     1     1      0
                              _delay
 ---------------------------------------------------------------------------------
 (1) _LCD_init                                             0     0      0      46
                         _LCD_enable
                               _init
 ---------------------------------------------------------------------------------
 (2) _init                                                 0     0      0       0
 ---------------------------------------------------------------------------------
 (2) _LCD_enable                                           0     0      0      46
                              _delay
 ---------------------------------------------------------------------------------
 (4) _delay                                                2     2      0      46
                                              0 COMMON     2     2      0
 ---------------------------------------------------------------------------------
 Estimated maximum stack depth 5
 ---------------------------------------------------------------------------------

 Call Graph Graphs:

 _main (ROOT)
   _LCD_init
     _LCD_enable
       _delay
     _init
   _LCD_limpa
     _delay
   _Linha2
     _LCD_escreve
       _delay
     _LCD_linha2
       _delay
     _espacoLivre
       _LCD_escreve
       _LCD_linha2
     _strlen
   _listaZonas
     _LCD_linha1
       _delay
     _LCD_linha2
     _escreveMesagem
       _LCD_escreve
   _teclado
     _LCD_escreve
     _liga_buzzer
       ___flge
       ___flmul
         __Umul8_16
       ___flsub
         ___fladd
   _telaInicial
     _LCD_escreve
     _LCD_linha1
     _strlen
   _validaUser
     _LCD_limpa
     _LCD_linha1
     _escreveMesagem
     _strcmp
     _teclado

 Address spaces:
Name               Size   Autos  Total    Cost      Usage
BANK3               60      0      55       9       88.5%
BITBANK3            60      0       0       8        0.0%
SFR3                 0      0       0       4        0.0%
BITSFR3              0      0       0       4        0.0%
BANK2               60      0      2E      11       47.9%
BITBANK2            60      0       0      10        0.0%
SFR2                 0      0       0       5        0.0%
BITSFR2              0      0       0       5        0.0%
BANK1               50      0      49       7       91.2%
BITBANK1            50      0       0       6        0.0%
SFR1                 0      0       0       2        0.0%
BITSFR1              0      0       0       2        0.0%
BANK0               50     26      4B       5       93.8%
BITBANK0            50      0       0       4        0.0%
SFR0                 0      0       0       1        0.0%
BITSFR0              0      0       0       1        0.0%
COMMON               E      E       E       1      100.0%
BITCOMMON            E      0       0       0        0.0%
CODE                 0      0       0       0        0.0%
DATA                 0      0     125      12        0.0%
ABS                  0      0     125       3        0.0%
NULL                 0      0       0       0        0.0%
STACK                0      0       0       2        0.0%
EEDATA             100      0       0       0        0.0%


Microchip Technology PIC Macro Assembler V2.32 build 20210201212658 
Symbol Table                                                                                   Sun Oct 03 11:43:17 2021

                       pc 0002                        l62 0A09                        l71 08A6  
                      l65 08C7                        l82 0019                        l74 0896  
                      l59 0878                        l68 08B6                        l77 0886  
                      fsr 0004       __Umul8_16@word_mpld 0076           escreveMesagem@i 0078  
             ?_LCD_enable 0070                       l203 0A7B                       l208 0933  
                     l162 0BF3                       l234 0161                       l243 0D67  
                     l171 0232                       l191 045E                       l512 0C7C  
                     l249 0A40                       l513 0C95                       l186 03B8  
                     l179 0300                       l197 0AB8                       l509 0C10  
                     l632 0E74                       l641 0FFF                       l730 072B  
                     l634 0E49                       l724 07BF                       l628 0DCB  
                     l653 0F6B                       l670 0FF1                       l662 0FCD  
                     l743 096C                       l671 0FFF                       l736 07B3  
                     l745 097E                       l649 0F45                       l674 0957  
                     l659 0F8D                       l791 09A8                       l797 08F3  
                     _RA1 0029                       _RB0 0030                       _RA3 002B  
                     _RB1 0031                       _RA4 002C                       _RB2 0032  
                     _RA5 002D                       _RB3 0033               ?_LCD_linha1 0070  
             ?_LCD_linha2 0070                       _aux 0069                       fsr0 0004  
                     indf 0000              ___flmul@aexp 002D              ___flmul@bexp 002E  
            ___flmul@sign 0028              ___flmul@temp 0033              ___flmul@prod 002F  
 __size_of_escreveMesagem 0037                      l2001 0C08                      l2011 0C58  
                    l2003 0C24                      l2013 0C92                      l2005 0C2C  
                    l2101 065C                      l2021 0938                      l2015 0C94  
                    l2007 0C30                      l2111 06EE                      l2103 0689  
                    l2031 0470                      l2009 0C54                      l2113 06F7  
                    l2121 070B                      l2105 06AF                      l2041 0485  
                    l2033 0471                      l2025 045F                      l2201 0BEF  
                    l2211 0879                      l2203 086D                      l2123 070F  
                    l2115 06FB                      l2107 06D7                      l2051 049D  
                    l2043 048D                      l2035 0476                      l2027 0466  
                    l2019 0934                      l2213 087E                      l2205 0871  
                    l2221 08AC                      l2141 0760                      l2133 0730  
                    l2125 0710                      l2117 06FC                      l2109 06E0  
                    l2061 04B9                      l2053 04A2                      l2045 0492  
                    l2037 047B                      l2029 046C                      l2301 0263  
                    l2215 0883                      l2207 0874                      l2231 089B  
                    l2223 08AD                      l2151 0797                      l2135 0735  
                    l2143 0766                      l2127 0714                      l2119 0705  
                    l2071 04DC                      l2063 04BE                      l2055 04A7  
                    l2047 0498                      l2039 0483                      l2311 028E  
                    l2303 0267                      l2209 0877                      l2233 089C  
                    l2225 08AE                      l2217 08A7                      l2161 07B7  
                    l2153 0799                      l2145 0773                      l2137 0743  
                    l2129 0728                      l2081 056A                      l2073 04E9  
                    l2065 04C3                      l2057 04AF                      l2049 049C  
                    l2401 042F                      l2321 02BB                      l2313 0296  
                    l2305 026B                      l2241 0162                      l2171 08BE  
                    l2411 08DC                      l2235 089D                      l2227 08B3  
                    l2219 08AB                      l2155 07A7                      l2147 077E  
                    l2139 0747                      l2091 05CC                      l2083 0586  
                    l2075 0506                      l2059 04B1                      l2403 0435  
                    l2331 02DF                      l2323 02C1                      l2307 0279  
                    l2315 029A                      l2251 018F                      l2243 0168  
                    l2173 08BF                      l2165 08B8                      l2181 088C  
                    l2421 0913                      l2413 08E1                      l2501 0A76  
                    l2237 089E                      l2229 0897                      l2157 07AB  
                    l2149 078D                      l2093 05E9                      l2085 058F  
                    l2077 0522                      l2069 04CC                      l2405 043B  
                    l2341 0306                      l2333 02EE                      l2325 02C9  
                    l2317 029E                      l2309 0288                      l2261 01BA  
                    l2253 0197                      l2245 016C                      l2175 08C4  
                    l2167 08BC                      l2183 088D                      l2431 0920  
                    l2423 0918                      l2415 08E5                      l2239 08A3  
                    l2159 07AC                      l2095 0602                      l2087 059F  
                    l2079 054E                      l2191 0B99                      l2407 0449  
                    l2343 0314                      l2351 0335                      l2335 02F4  
                    l2319 02AC                      l2327 02CD                      l2271 01DE  
                    l2263 01C0                      l2247 017A                      l2255 0199  
                    l2169 08BD                      l2185 088E                      l2177 0887  
                    l2433 0926                      l2417 08ED                      l2441 0989  
                    l2097 061F                      l2089 05BC                      l1801 0D97  
                    l2193 0BA5                      l2409 0458                      l2361 0364  
                    l2353 0339                      l2345 0323                      l2337 02FC  
                    l2329 02D1                      l2281 0203                      l2273 01ED  
                    l2265 01C8                      l2257 019D                      l2249 0189  
                    l2187 0893                      l2179 088B                      l2443 099C  
                    l2435 0980                      l2099 064C                      l1811 0DAD  
                    l1803 0D9C                      l2195 0BA8                      l2371 038F  
                    l2355 0347                      l2363 0368                      l2347 0329  
                    l2339 0302                      l2291 0234                      l2283 0211  
                    l2275 01F3                      l2259 01AB                      l2267 01CC  
                    l2461 09E0                      l2429 091A                      l2445 09A3  
                    l2437 0981                      l1901 0EC2                      l1821 0DC1  
                    l1813 0DAE                      l1805 0DA2                      l2197 0BB3  
                    l2189 0B78                      l2381 03C0                      l2373 0395  
                    l2365 036C                      l2357 0356                      l2349 0331  
                    l2293 0238                      l2285 0220                      l2277 01FB  
                    l2269 01D0                      l2701 0070                      l2471 09F7  
                    l2463 09E5                      l2439 0985                      l1911 0F28  
                    l1903 0EC7                      l1831 0DDD                      l1815 0DB3  
                    l1823 0DC3                      l1807 0DA3                      l2199 0BD4  
                    l2391 03F7                      l2383 03CE                      l2375 03A3  
                    l2367 037A                      l2359 035C                      l2295 0246  
                    l2287 0226                      l2279 01FF                      l2711 007E  
                    l2473 09FB                      l2465 09E9                      l2457 09D7  
                    l2801 0D0A                      l2481 0A87                      l1921 0F5B  
                    l1905 0EDD                      l1913 0F37                      l1841 0DF1  
                    l1833 0DE1                      l1825 0DD1                      l1817 0DB8  
                    l1809 0DA9                      l2393 0406                      l2385 03DD  
                    l2377 03B2                      l2369 0389                      l2297 0255  
                    l2289 022E                      l2721 009C                      l2713 0088  
                    l2475 0A00                      l2467 09EE                      l2459 09DC  
                    l2491 0A41                      l2811 0D36                      l2803 0D13  
                    l2483 0A8A                      l1931 0F74                      l1923 0F66  
                    l1915 0F4D                      l1907 0F1D                      l1851 0E05  
                    l1843 0DF5                      l1835 0DE5                      l1827 0DD5  
                    l1819 0DC0                      l2395 040C                      l2387 03E3  
                    l2379 03BC                      l2299 025B                      l2731 00B5  
                    l2723 00A1                      l2715 008D                      l2707 0072  
                    l2477 0A04                      l2469 09F2                      l2493 0A4B  
                    l2813 0D44                      l2805 0D21                      l2485 0A94  
                    l1941 0F84                      l1933 0F79                      l1925 0F6A  
                    l1917 0F52                      l1909 0F23                      l1861 0E16  
                    l1853 0E09                      l1845 0DF9                      l1837 0DE9  
                    l1829 0DD9                      l1781 0D68                      l2397 0412  
                    l2389 03E9                      l2741 00EE                      l2725 00A6  
                    l2717 0092                      l2709 0079                      l2821 0B02  
                    l2495 0A4E                      l2815 0D4B                      l2807 0D28  
                    l2487 0A9A                      l2479 0A7C                      l1951 0FA5  
                    l1943 0F8A                      l1927 0F6F                      l1935 0F7B  
                    l1871 0E5E                      l1863 0E2D                      l1855 0E0D  
                    l1847 0DFD                      l1839 0DED                      l1791 0D7F  
                    l1783 0D6F                      l2399 0420                      l2743 00FE  
                    l2751 0117                      l2727 00AB                      l2719 0097  
                    l2735 00BA                      l2831 0B17                      l2823 0B06  
                    l2497 0A58                      l2817 0D50                      l2809 0D2D  
                    l2489 0AB2                      l1961 0FDF                      l1953 0FA9  
                    l1929 0F72                      l1937 0F7F                      l1881 0E7D  
                    l1873 0E5F                      l1865 0E4D                      l1857 0E11  
                    l1849 0E01                      l1793 0D84                      l1785 0D75  
                    l2761 013B                      l2753 0129                      l2745 0104  
                    l2729 00B0                      l2737 00DF                      l2841 0B3B  
                    l2833 0B21                      l2825 0B08                      l2499 0A5E  
                    l2691 0A0A                      l2819 0D59                      l1971 0FFA  
                    l1963 0FE4                      l1955 0FC9                      l1947 0F92  
                    l1939 0F80                      l1891 0EA5                      l1875 0E6A  
                    l1867 0E58                      l1859 0E15                      l1795 0D8C  
                    l1787 0D79                      l2755 012D                      l2763 0144  
                    l2747 0109                      l2739 00E7                      l2851 0B4C  
                    l2835 0B25                      l2827 0B0C                      l2693 0A0D  
                    l2781 0CB8                      l2773 0C96                      l1981 0966  
                    l1973 0FFE                      l1965 0FE5                      l1957 0FD2  
                    l1949 0F97                      l1893 0EB0                      l1885 0E86  
                    l1869 0E5A                      l1877 0E6E                      l1797 0D8D  
                    l1789 0D7A                      l2765 014C                      l2757 0131  
                    l2749 010E                      l2853 0B5A                      l2837 0B2E  
                    l2829 0B11                      l2695 0A24                      l2791 0CE2  
                    l2783 0CBF                      l2775 0C9C                      l1983 0975  
                    l1975 0959                      l1967 0FE9                      l1959 0FD7  
                    l1895 0EB2                      l1887 0E9D                      l1879 0E78  
                    l1799 0D8F                      l2759 0136                      l2767 0159  
                    l2855 0B62                      l2847 0B3D                      l2839 0B33  
                    l2697 0A2A                      l2793 0CE7                      l2785 0CC4  
                    l2777 0CA1                      l1985 097A                      l1977 095B  
                    l1969 0FEB                      l1897 0EB6                      l1889 0EA1  
                    l2857 0B6F                      l2849 0B43                      l1995 0006  
                    l2795 0CF0                      l2787 0CCD                      l2779 0CAA  
                    l1979 0962                      l1899 0EB7                      l2699 006F  
                    l1997 000C                      l1989 0004                      l2797 0CFE  
                    l2789 0CDB                      l2799 0D05                      l1999 0BF4  
                    l2879 00BF                      u2001 0C67                      u2010 0C92  
                    u2002 0C68                      u2011 0C91                      u2003 0C6D  
                    u2004 0C6E                      u2020 0470                      u2005 0C73  
                    u2101 0514                      u2021 046F                      u2006 0C74  
                    u2102 051B                      u2030 0476                      u2015 0C8E  
                    u2111 0530                      u2103 0522                      u2031 0475  
                    u3000 0C9C                      u2112 0537                      u2040 047B  
                    u3001 0C9B                      u2201 066B                      u2121 055C  
                    u2113 053E                      u2041 047A                      u3010 0CBF  
                    u2210 0695                      u2202 0672                      u2122 0563  
                    u2050 049C                      u3011 0CBE                      u2203 0679  
                    u2131 0578                      u2123 056A                      u2051 049B  
                    u3020 0CE2                      u2300 0714                      u2132 057F  
                    u2060 04A2                      u1500 0DB3                      u3021 0CE1  
                    u2301 0713                      u2221 06A1                      u2133 0586  
                    u2061 04A1                      u1501 0DB2                      u3030 0D05  
                    u2310 0728                      u2230 06BD                      u2222 06A8  
                    u2070 04A7                      u1510 0DB8                      u3031 0D04  
                    u2311 0727                      u2223 06AF                      u2215 0690  
                    u2151 05AE                      u2071 04A6                      u1511 0DB7  
                    u3040 0D28                      u2320 072F                      u2152 05B5  
                    u2080 04BE                      u1600 0E74                      u1520 0DD1  
                    u2400 016C                      u3041 0D27                      u2321 072E  
                    u2241 06C9                      u2161 05DB                      u2153 05BC  
                    u2145 0588                      u2081 04BD                      u1601 0E73  
                    u1521 0DD0                      u2401 016B                      u3050 0D4B  
                    u2330 0735                      u2242 06D0                      u2162 05E2  
                    u2090 04C3                      u1610 0E78                      u1530 0DD5  
                    u1450 0D79                      u2410 0197                      u3051 0D4A  
                    u2331 0734                      u2243 06D7                      u2235 06B8  
                    u2163 05E9                      u2091 04C2                      u1611 0E77  
                    u1531 0DD4                      u1451 0D78                      u2411 0196  
                    u3107 0174                      u2340 0747                      u1700 0F0A  
                    u1620 0E7D                      u1540 0E2D                      u1460 0D7F  
                    u2500 026B                      u2420 019D                      u3060 0B2D  
                    u2341 0746                      u2181 0611                      u1701 0F0B  
                    u1621 0E7C                      u1541 0E2C                      u1461 0D7E  
                    u2501 026A                      u3117 01A5                      u2421 019C  
                    u3061 0B2C                      u2350 0756                      u2270 06FB  
                    u2182 0618                      u1710 0F28                      u1702 0F10  
                    u1550 0E36                      u1470 0D84                      u2510 0296  
                    u2430 01C8                      u3070 0B3B                      u2271 06FA  
                    u2255 06D9                      u2191 063E                      u2183 061F  
                    u2175 05EB                      u1711 0F27                      u1703 0F11  
                    u1631 0E8F                      u1551 0E34                      u1471 0D83  
                    u3207 0374                      u2511 0295                      u3127 01D8  
                    u2431 01C7                      u3071 0B3A                      u2360 0773  
                    u2192 0645                      u1800 0F8A                      u1720 0F4D  
                    u1640 0EA1                      u1632 0E96                      u1560 0E37  
                    u1480 0DA2                      u2600 036C                      u2520 029E  
                    u2440 01D0                      u3080 0B6F                      u2361 0772  
                    u2265 06F0                      u2193 064C                      u1801 0F89  
                    u1721 0F4C                      u1641 0EA0                      u1633 0E9D  
                    u1545 0E29                      u1481 0DA1                      u3217 039D  
                    u2601 036B                      u2521 029D                      u3137 020B  
                    u2441 01CF                      u3081 0B6E                      u2370 078D  
                    u2290 070F                      u1810 0F91                      u1730 0F52  
                    u1650 0EA5                      u1570 0E4D                      u1490 0DAD  
                    u2610 0395                      u2530 02C9                      u2450 01FB  
                    u2371 078C                      u2355 0751                      u2291 070E  
                    u1811 0F90                      u1731 0F51                      u1651 0EA4  
                    u1571 0E4C                      u1491 0DAC                      u3227 03C8  
                    u2611 0394                      u2531 02C8                      u3147 0240  
                    u2451 01FA                      u2380 07AB                      u1900 0FFE  
                    u1820 0F97                      u1660 0EB6                      u1580 0E5E  
                    u2620 03C0                      u2540 02D1                      u2460 0203  
                    u2381 07AA                      u2365 076F                      u2285 06FE  
                    u1901 0FFD                      u1821 0F96                      u1661 0EB5  
                    u1581 0E5D                      u3237 03F1                      u2621 03BF  
                    u2541 02D0                      u3157 0273                      u2461 0202  
                    u3085 0B6B                      u1910 0966                      u1830 0FA9  
                    u1750 0F6A                      u2390 0BEF                      u2630 03E9  
                    u2550 02FC                      u2470 022E                      u1911 0965  
                    u2375 0789                      u1831 0FA8                      u1751 0F69  
                    u2391 0BEE                      u3247 041A                      u2631 03E8  
                    u2551 02FB                      u3167 02A6                      u2471 022D  
                    u1840 0FBA                      u1760 0F6F                      u1680 0EDD  
                    u2640 0412                      u2560 0306                      u2480 0238  
                    u1761 0F6E                      u1745 0F5F                      u1681 0EDC  
                    u3257 0443                      u2641 0411                      u2561 0305  
                    u3177 02D9                      u2481 0237                      u3097 0B54  
                    u2730 0AB2                      u1930 097A                      u1850 0FC9  
                    u1770 0F79                      u2650 043B                      u2570 0331  
                    u2490 0263                      u2731 0AB1                      u1931 0979  
                    u1851 0FC8                      u1771 0F78                      u1691 0EF6  
                    u1683 0ED9                      u1675 0EBB                      u1595 0E63  
                    u3267 0B9F                      u2651 043A                      u2571 0330  
                    u3187 030E                      u2491 0262                      u1940 0019  
                    u2660 08ED                      u2740 0A76                      u1860 0FD2  
                    u1780 0F7F                      u1692 0EF7                      u2580 0339  
                    u1941 0018                      u2661 08EC                      u2741 0A75  
                    u1925 096D                      u1861 0FD1                      u1845 0FB5  
                    u1781 0F7E                      u1693 0EFC                      u3277 0BAE  
                    u3197 0341                      u2581 0338                      u2670 0933  
                    u2910 0A17                      u1950 0C08                      u1870 0FD7  
                    u1790 0F84                      u1694 0EFD                      u2590 0364  
                    u2671 0932                      u2735 0AAE                      u1951 0C07  
                    u1871 0FD6                      u1791 0F83                      u1695 0F02  
                    u2591 0363                      u2920 0A34                      u2680 099C  
                    u1960 0C24                      u1880 0FE4                      u1696 0F03  
                    u1945 0015                      u2745 0A72                      u2681 099B  
                    u1961 0C23                      u1881 0FE3                      u2930 0A40  
                    u2690 09A3                      u1970 0C30                      u1890 0FE9  
                    u2675 092F                      u2931 0A3F                      u2691 09A2  
                    u1971 0C2F                      u1891 0FE8                      u2940 0087  
                    u1981 0C3F                      u2941 0086                      u1990 0C58  
                    u1982 0C40                      u2950 00EE                      u1991 0C57  
                    u1983 0C45                      u2951 00ED                      u1984 0C46  
                    u2960 00FE                      u1985 0C4B                      u2961 00FD  
                    u1986 0C4C                      u2970 0129                      u2971 0128  
                    u2980 0159                      u2981 0158                      u2990 0161  
                    u2991 0160                      u2985 0155              ?_LCD_escreve 0070  
                    _main 0B02                      _init 086D              ?_liga_buzzer 0035  
                    btemp 007E              ?_espacoLivre 0070          _senhaUserConfere 005B  
                    start 0000        __size_of_LCD_limpa 0010          __end_of_LCD_init 0A0A  
         __end_of___fladd 1000                     ?_main 0070                     ?_init 0070  
         __end_of___flmul 07C0           __end_of___flsub 0958                     _PORTB 0006  
                   _PORTD 0008                     _PORTE 0009                     _TRISA 0085  
                   _TRISB 0086                     _TRISD 0088                     _TRISE 0089  
                   _delay 0004                     _input 0054                     main@i 0044  
         __end_of_teclado 045F         _msgReativarActive 00D6                     pclath 000A  
                   status 0003                     wtemp0 007E       __size_of_LCD_enable 000E  
     __size_of_LCD_linha1 0010       __size_of_LCD_linha2 0010           __initialization 07C0  
            __end_of_main 0B78              __end_of_init 0879              ?_telaInicial 0070  
                  ??_main 0041                    ??_init 0070         __end_of_LCD_limpa 08B7  
                  ?_delay 0070                    _ADCON1 009F                    _Linha2 0A41  
                  ___flge 0BF4                 ??___fladd 0020                 ??___flmul 0079  
               ??___flsub 007C                    _config 0067                    _painel 0052  
                  delay@i 0070                    _strcmp 097F                    _strlen 08DB  
      __size_of__Umul8_16 0027                 ??_teclado 003B            _escreveMesagem 0A0A  
              ___flge@ff1 0070                ___flge@ff2 0074   __end_of__initialization 07FC  
               ?_LCD_init 0070      __size_of_LCD_escreve 0011              LCD_escreve@x 0072  
    __size_of_liga_buzzer 007C      __size_of_espacoLivre 0021            __pcstackCOMMON 0070  
            __pidataBANK0 08F4              __pidataBANK1 0AB9              __pidataBANK2 09A9  
            __pidataBANK3 001A             __end_of_delay 001A              ??_LCD_enable 0072  
            ??_LCD_linha1 0072              ??_LCD_linha2 0072    __end_of_escreveMesagem 0A41  
            espacoLivre@i 0073                   ??_delay 0070                __pbssBANK0 0065  
     escreveMesagem@texto 0073                ??_LCD_init 0072                   ?_Linha2 0070  
      __end_of_LCD_enable 0887         __end_of__Umul8_16 097F        __end_of_LCD_linha1 08A7  
      __end_of_LCD_linha2 0897                __pmaintext 0B02                   ?___flge 0070  
                 ?_strcmp 0070                   ?_strlen 0070           ?_escreveMesagem 0073  
    __size_of_telaInicial 003D     _msgSenhaUsuarioActive 0190                   Linha2@i 0077  
liga_buzzer@tempoSegundos 0035           __size_of_Linha2 003B           __size_of___flge 00A2  
                 ___fladd 0D68                   ___flmul 045F                   ___flsub 0934  
             validaUser@n 003F                   __ptext1 006F                   __ptext2 0162  
                 __ptext3 0B78                   __ptext4 0934                   __ptext5 0D68  
                 __ptext6 045F                   __ptext7 0958                   __ptext8 0BF4  
                 __ptext9 097F           __size_of_strcmp 002A           __size_of_strlen 0019  
              _msgMascara 0056                   _teclado 0162                _listaZonas 0C96  
    end_of_initialization 07FC                 _LCD_limpa 08A7                _validaUser 006F  
                 strcmp@r 0075                   strlen@s 0074               ___fladd@grs 007B  
              ?_LCD_limpa 0070               ___flmul@grs 0029         __size_of_LCD_init 0033  
          __end_of_Linha2 0A7C            __end_of___flge 0C96            __end_of_strcmp 09A9  
          __end_of_strlen 08F4       start_initialization 07C0               ?_listaZonas 007A  
           ??_LCD_escreve 0072             ??_liga_buzzer 0039             ??_espacoLivre 0073  
             ?_validaUser 0070                  ??_Linha2 0075                  ??___flge 0078  
              init_fetch0 08C8                 __Umul8_16 0958               __pdataBANK0 0046  
             __pdataBANK1 00A0               __pdataBANK2 0110               __pdataBANK3 0190  
        ??_escreveMesagem 0075                  ??_strcmp 0072                  ??_strlen 0072  
               ___fladd@a 0074                 ___fladd@b 0070                 ___flmul@a 0024  
               ___flmul@b 0020                 ___flsub@a 0028                 ___flsub@b 002C  
               ___latbits 0002             __pcstackBANK0 0020               ??_LCD_limpa 0072  
     __end_of_LCD_escreve 08C8       __end_of_liga_buzzer 0BF4                  ?___fladd 0070  
     __end_of_espacoLivre 0934       __size_of_listaZonas 00D2                  ?___flmul 0020  
                ?___flsub 0028                ?__Umul8_16 0070              telaInicial@i 0077  
           ??_telaInicial 0075            _msgDigiteSenha 00A0                  ?_teclado 0070  
     __size_of_validaUser 00F3            __size_of_delay 0016                  _LCD_init 09D7  
               _senhaUser 0060                 _userFalse 0050       __end_of_telaInicial 0AB9  
             _LCD_escreve 08B7               _liga_buzzer 0B78               _espacoLivre 0913  
        _msgDesativarZona 0120      _msgSenhaCoacaoActive 01AD               ??__Umul8_16 0072  
        __size_of___fladd 0298           _msgSenhaDisparo 019F          __size_of___flmul 0361  
        __size_of___flsub 0024           _msgSenhaCorreta 01D7           _msgSenhaUsuario 01BB  
            ??_listaZonas 007C          __size_of_teclado 02FD                  __ptext10 08A7  
                __ptext11 0A7C                  __ptext20 09D7                  __ptext12 0C96  
                __ptext21 086D                  __ptext13 0A0A                  __ptext22 0879  
                __ptext14 0897                  __ptext23 0004                  __ptext15 0A41  
                __ptext16 08DB                  __ptext17 0913                  __ptext18 0887  
                __ptext19 08B7             __size_of_main 0076             __size_of_init 000C  
            ??_validaUser 003E               _msgReativar 00E0                  _senhaCoa 004B  
  _msgDesativarZonaActive 0110        __end_of_listaZonas 0D68               _telaInicial 0A7C  
              _LCD_enable 0879                _LCD_linha1 0897                _LCD_linha2 0887  
             _senhaConfig 0046                  init_ram0 08CC        __end_of_validaUser 0162  
          _msgSenhaCoacao 00AF            _msgSenhaConfig 00BC            _msgSenhaErrada 00C9  
   _msgSenhaDisparoActive 012F      _msgSenhaConfigActive 01C9               _valorSensor 0065  
  __Umul8_16@multiplicand 0070     listaZonas@valorSensor 007A                  strcmp@s1 0076  
                strcmp@s2 0070                  strlen@cp 0073             ___fladd@signs 0078  
            ___fladd@aexp 0079              ___fladd@bexp 007A      __Umul8_16@multiplier 0078  
       __Umul8_16@product 0074  
