Microchip MPLAB XC8 Compiler V2.32

Linker command line:

-W-3 --edf=C:\Program Files\Microchip\xc8\v2.32\pic\dat\en_msgs.txt -cn \
  -h+dist/default/production\CentralAlarme.X.production.sym \
  --cmf=dist/default/production\CentralAlarme.X.production.cmf -z -Q16F877A \
  -oC:\Users\joaog\AppData\Local\Temp\xcAs2ts.4 --defsym=__MPLAB_BUILD=1 \
  -Mdist/default/production/CentralAlarme.X.production.map -E1 \
  -ver=XC8 Compiler --acfsm=1493 -ASTACK=013Eh-016Fh -pstack=STACK \
  -ACODE=00h-07FFhx4 -ASTRCODE=00h-01FFFh -ASTRING=00h-0FFhx32 \
  -ACONST=00h-0FFhx32 -AENTRY=00h-0FFhx32 -ACOMMON=070h-07Fh \
  -ABANK0=020h-06Fh -ABANK1=0A0h-0EFh -ABANK2=0110h-016Fh \
  -ABANK3=0190h-01EFh -ARAM=020h-06Fh,0A0h-0EFh,0110h-016Fh,0190h-01EFh \
  -AABS1=020h-07Fh,0A0h-0EFh,0110h-016Fh,0190h-01EFh -ASFR0=00h-01Fh \
  -ASFR1=080h-09Fh -ASFR2=0100h-010Fh -ASFR3=0180h-018Fh \
  -ACONFIG=02007h-02007h -DCONFIG=2 -AIDLOC=02000h-02003h -DIDLOC=2 \
  -AEEDATA=00h-0FFh/02100h -peeprom_data=EEDATA -DEEDATA=2 -DCODE=2 \
  -DSTRCODE=2 -DSTRING=2 -DCONST=2 -DENTRY=2 \
  -preset_vec=00h,intentry,init,end_init -ppowerup=CODE -pcinit=CODE \
  -pfunctab=ENTRY -k C:\Users\joaog\AppData\Local\Temp\xcAs2ts.o \
  dist/default/production\CentralAlarme.X.production.o 

Object code version is 3.11

Machine type is 16F877A



                Name                               Link     Load   Length Selector   Space Scale
C:\Users\joaog\AppData\Local\Temp\xcAs2ts.o
                end_init                              0        0        3        0       0
dist/default/production\CentralAlarme.X.production.o
                cinit                               7C0      7C0       40      F80       0
                text23                                4        4       16        8       0
                text22                              879      879        E     10F2       0
                text21                              86D      86D        C     10DA       0
                text20                              9D7      9D7       33     13AE       0
                text19                              8B7      8B7       11     116E       0
                text18                              887      887       10     110E       0
                text17                              913      913       21     1226       0
                text16                              8DB      8DB       19     11B6       0
                text15                              A41      A41       3B     1482       0
                text14                              897      897       10     112E       0
                text13                              A0A      A0A       37     1414       0
                text12                              C96      C96       D2     192C       0
                text11                              A7C      A7C       3D     14F8       0
                text10                              8A7      8A7       10     114E       0
                text9                               97F      97F       2A     12FE       0
                text8                               BF4      BF4       A2     17E8       0
                text7                               958      958       27     12B0       0
                text6                               45F      45F      361      8BE       0
                text5                               D68      D68      298     1AD0       0
                text4                               934      934       24     1268       0
                text3                               B78      B78       7C     16F0       0
                text2                               162      162      2FD      2C4       0
                text1                                6F       6F       F3       DE       0
                maintext                            B02      B02       76     1604       0
                cstackBANK0                          20       20       26       20       1
                cstackCOMMON                         70       70        E       70       1
                inittext                            8C8      8C8       13     1190       0
                dataBANK2                           110      110       2E      110       1
                dataBANK3                           190      190       55      190       1
                dataBANK1                            A0       A0       49       A0       1
                dataBANK0                            46       46       1F       20       1
                bssBANK0                             65       65        6       20       1
                idataBANK3                           1A       1A       55       34       0
                idataBANK2                          9A9      9A9       2E     1352       0
                idataBANK1                          AB9      AB9       49     1572       0
                idataBANK0                          8F4      8F4       1F     11E8       0

TOTAL           Name                               Link     Load   Length     Space
        CLASS   STACK          

        CLASS   CODE           
                end_init                              0        0        3         0
                cinit                               7C0      7C0       40         0
                text23                                4        4       16         0
                text22                              879      879        E         0
                text21                              86D      86D        C         0
                text20                              9D7      9D7       33         0
                text19                              8B7      8B7       11         0
                text18                              887      887       10         0
                text17                              913      913       21         0
                text16                              8DB      8DB       19         0
                text15                              A41      A41       3B         0
                text14                              897      897       10         0
                text13                              A0A      A0A       37         0
                text12                              C96      C96       D2         0
                text11                              A7C      A7C       3D         0
                text10                              8A7      8A7       10         0
                text9                               97F      97F       2A         0
                text8                               BF4      BF4       A2         0
                text7                               958      958       27         0
                text6                               45F      45F      361         0
                text5                               D68      D68      298         0
                text4                               934      934       24         0
                text3                               B78      B78       7C         0
                text2                               162      162      2FD         0
                text1                                6F       6F       F3         0
                maintext                            B02      B02       76         0
                inittext                            8C8      8C8       13         0
                idataBANK3                           1A       1A       55         0
                idataBANK2                          9A9      9A9       2E         0
                idataBANK1                          AB9      AB9       49         0
                idataBANK0                          8F4      8F4       1F         0

        CLASS   STRCODE        

        CLASS   STRING         

        CLASS   CONST          

        CLASS   ENTRY          

        CLASS   COMMON         
                cstackCOMMON                         70       70        E         1

        CLASS   BANK0          
                cstackBANK0                          20       20       26         1
                dataBANK0                            46       46       1F         1
                bssBANK0                             65       65        6         1

        CLASS   BANK1          
                dataBANK1                            A0       A0       49         1

        CLASS   BANK2          
                dataBANK2                           110      110       2E         1

        CLASS   BANK3          
                dataBANK3                           190      190       55         1

        CLASS   RAM            

        CLASS   ABS1           
                abs_s1                               7E       7E        2         1

        CLASS   SFR0           

        CLASS   SFR1           

        CLASS   SFR2           

        CLASS   SFR3           

        CLASS   CONFIG         

        CLASS   IDLOC          

        CLASS   EEDATA         



SEGMENTS        Name                           Load    Length   Top    Selector   Space  Class     Delta

                reset_vec                      000000  000003  000003         0       0  CODE        2
                text23                         000004  000016  00001A         8       0  CODE        2
                cstackBANK0                    000020  00004B  00006B        20       1  BANK0       1
                idataBANK3                     00001A  000055  00006F        34       0  CODE        2
                cstackCOMMON                   000070  00000E  00007E        70       1  COMMON      1
                dataBANK1                      0000A0  000049  0000E9        A0       1  BANK1       1
                text1                          00006F  0000F3  000162        DE       0  CODE        2
                dataBANK2                      000110  00002E  00013E       110       1  BANK2       1
                dataBANK3                      000190  000055  0001E5       190       1  BANK3       1
                text2                          000162  0002FD  00045F       2C4       0  CODE        2
                text6                          00045F  000361  0007C0       8BE       0  CODE        2
                cinit                          0007C0  000040  000800       F80       0  CODE        2
                text21                         00086D  00000C  000879      10DA       0  CODE        2
                text22                         000879  00000E  000887      10F2       0  CODE        2
                text18                         000887  000010  000897      110E       0  CODE        2
                text14                         000897  000010  0008A7      112E       0  CODE        2
                text10                         0008A7  000010  0008B7      114E       0  CODE        2
                text19                         0008B7  000011  0008C8      116E       0  CODE        2
                inittext                       0008C8  000013  0008DB      1190       0  CODE        2
                text16                         0008DB  000019  0008F4      11B6       0  CODE        2
                idataBANK0                     0008F4  00001F  000913      11E8       0  CODE        2
                text17                         000913  000021  000934      1226       0  CODE        2
                text4                          000934  000024  000958      1268       0  CODE        2
                text7                          000958  000027  00097F      12B0       0  CODE        2
                text9                          00097F  00002A  0009A9      12FE       0  CODE        2
                idataBANK2                     0009A9  00002E  0009D7      1352       0  CODE        2
                text20                         0009D7  000033  000A0A      13AE       0  CODE        2
                text13                         000A0A  000037  000A41      1414       0  CODE        2
                text15                         000A41  00003B  000A7C      1482       0  CODE        2
                text11                         000A7C  00003D  000AB9      14F8       0  CODE        2
                idataBANK1                     000AB9  000049  000B02      1572       0  CODE        2
                maintext                       000B02  000076  000B78      1604       0  CODE        2
                text3                          000B78  00007C  000BF4      16F0       0  CODE        2
                text8                          000BF4  0000A2  000C96      17E8       0  CODE        2
                text12                         000C96  0000D2  000D68      192C       0  CODE        2
                text5                          000D68  000298  001000      1AD0       0  CODE        2


UNUSED ADDRESS RANGES

        Name                Unused          Largest block    Delta
        BANK0            006B-006F              5           1
        BANK1            00E9-00EF              7           1
        BANK2            013E-016F             32           1
        BANK3            01E5-01EF              B           1
        CODE             0003-0003              1           2
                         0800-086C             6D
                         1000-1FFF            800
        CONFIG           2007-2007              1           2
        CONST            0003-0003              1           2
                         0800-086C             6D
                         1000-1FFF            100
        EEDATA           2100-21FF            100           2
        ENTRY            0003-0003              1           2
                         0800-086C             6D
                         1000-1FFF            100
        IDLOC            2000-2003              4           2
        RAM              006B-006F              5           1
                         00E9-00EF              7
                         013E-016F             32
                         01E5-01EF              B
        SFR0             0000-001F             20           1
        SFR1             0080-009F             20           1
        SFR2             0100-010F             10           1
        SFR3             0180-018F             10           1
        STACK            013E-016F             32           1
        STRCODE          0003-0003              1           2
                         0800-086C             6D
                         1000-1FFF           1000
        STRING           0003-0003              1           2
                         0800-086C             6D
                         1000-1FFF            100

                                  Symbol Table

?__Umul8_16               cstackCOMMON 0070
?___fladd                 cstackCOMMON 0070
?___flmul                 cstackBANK0  0020
?___flsub                 cstackBANK0  0028
?_strcmp                  cstackCOMMON 0070
?_strlen                  cstackCOMMON 0070
LCD_escreve@x             cstackCOMMON 0072
Linha2@i                  cstackCOMMON 0077
_ADCON1                   (abs)        009F
_LCD_enable               text22       0879
_LCD_escreve              text19       08B7
_LCD_init                 text20       09D7
_LCD_limpa                text10       08A7
_LCD_linha1               text14       0897
_LCD_linha2               text18       0887
_Linha2                   text15       0A41
_PORTB                    (abs)        0006
_PORTD                    (abs)        0008
_PORTE                    (abs)        0009
_RA1                      (abs)        0029
_RA3                      (abs)        002B
_RA4                      (abs)        002C
_RA5                      (abs)        002D
_RB0                      (abs)        0030
_RB1                      (abs)        0031
_RB2                      (abs)        0032
_RB3                      (abs)        0033
_TRISA                    (abs)        0085
_TRISB                    (abs)        0086
_TRISD                    (abs)        0088
_TRISE                    (abs)        0089
__Habs1                   abs1         0000
__Hbank0                  bank0        0000
__Hbank1                  bank1        0000
__Hbank2                  bank2        0000
__Hbank3                  bank3        0000
__HbssBANK0               bssBANK0     0000
__Hcinit                  cinit        0800
__Hclrtext                clrtext      0000
__Hcode                   code         0000
__Hcommon                 common       0000
__HcstackBANK0            cstackBANK0  0000
__HcstackCOMMON           cstackCOMMON 0000
__HdataBANK0              dataBANK0    0000
__HdataBANK1              dataBANK1    0000
__HdataBANK2              dataBANK2    0000
__HdataBANK3              dataBANK3    0000
__Heeprom_data            eeprom_data  0000
__Hend_init               end_init     0003
__Hfunctab                functab      0000
__HidataBANK0             idataBANK0   0000
__HidataBANK1             idataBANK1   0000
__HidataBANK2             idataBANK2   0000
__HidataBANK3             idataBANK3   0000
__Hinit                   init         0000
__Hinittext               inittext     0000
__Hintentry               intentry     0000
__Hmaintext               maintext     0000
__Hpowerup                powerup      0000
__Hram                    ram          0000
__Hreset_vec              reset_vec    0000
__Hsfr0                   sfr0         0000
__Hsfr1                   sfr1         0000
__Hsfr2                   sfr2         0000
__Hsfr3                   sfr3         0000
__Hspace_0                (abs)        1000
__Hspace_1                (abs)        01E5
__Hspace_2                (abs)        0000
__Hspace_3                (abs)        0000
__Hstack                  stack        0000
__Hstrings                strings      0000
__Htext                   text         0000
__Labs1                   abs1         0000
__Lbank0                  bank0        0000
__Lbank1                  bank1        0000
__Lbank2                  bank2        0000
__Lbank3                  bank3        0000
__LbssBANK0               bssBANK0     0000
__Lcinit                  cinit        07C0
__Lclrtext                clrtext      0000
__Lcode                   code         0000
__Lcommon                 common       0000
__LcstackBANK0            cstackBANK0  0000
__LcstackCOMMON           cstackCOMMON 0000
__LdataBANK0              dataBANK0    0000
__LdataBANK1              dataBANK1    0000
__LdataBANK2              dataBANK2    0000
__LdataBANK3              dataBANK3    0000
__Leeprom_data            eeprom_data  0000
__Lend_init               end_init     0000
__Lfunctab                functab      0000
__LidataBANK0             idataBANK0   0000
__LidataBANK1             idataBANK1   0000
__LidataBANK2             idataBANK2   0000
__LidataBANK3             idataBANK3   0000
__Linit                   init         0000
__Linittext               inittext     0000
__Lintentry               intentry     0000
__Lmaintext               maintext     0000
__Lpowerup                powerup      0000
__Lram                    ram          0000
__Lreset_vec              reset_vec    0000
__Lsfr0                   sfr0         0000
__Lsfr1                   sfr1         0000
__Lsfr2                   sfr2         0000
__Lsfr3                   sfr3         0000
__Lspace_0                (abs)        0000
__Lspace_1                (abs)        0000
__Lspace_2                (abs)        0000
__Lspace_3                (abs)        0000
__Lstack                  stack        0000
__Lstrings                strings      0000
__Ltext                   text         0000
__S0                      (abs)        1000
__S1                      (abs)        01E5
__S2                      (abs)        0000
__S3                      (abs)        0000
__Umul8_16                text7        0958
__Umul8_16@multiplicand   cstackCOMMON 0070
__Umul8_16@multiplier     cstackCOMMON 0078
__Umul8_16@product        cstackCOMMON 0074
__Umul8_16@word_mpld      cstackCOMMON 0076
___fladd                  text5        0D68
___fladd@a                cstackCOMMON 0074
___fladd@aexp             cstackCOMMON 0079
___fladd@b                cstackCOMMON 0070
___fladd@bexp             cstackCOMMON 007A
___fladd@grs              cstackCOMMON 007B
___fladd@signs            cstackCOMMON 0078
___flge                   text8        0BF4
___flge@ff1               cstackCOMMON 0070
___flge@ff2               cstackCOMMON 0074
___flmul                  text6        045F
___flmul@a                cstackBANK0  0024
___flmul@aexp             cstackBANK0  002D
___flmul@b                cstackBANK0  0020
___flmul@bexp             cstackBANK0  002E
___flmul@grs              cstackBANK0  0029
___flmul@prod             cstackBANK0  002F
___flmul@sign             cstackBANK0  0028
___flmul@temp             cstackBANK0  0033
___flsub                  text4        0934
___flsub@a                cstackBANK0  0028
___flsub@b                cstackBANK0  002C
___int_sp                 stack        0000
___latbits                (abs)        0002
___sp                     stack        0000
___stackhi                (abs)        0000
___stacklo                (abs)        0000
__end_of_LCD_enable       text22       0887
__end_of_LCD_escreve      text19       08C8
__end_of_LCD_init         text20       0A0A
__end_of_LCD_limpa        text10       08B7
__end_of_LCD_linha1       text14       08A7
__end_of_LCD_linha2       text18       0897
__end_of_Linha2           text15       0A7C
__end_of__Umul8_16        text7        097F
__end_of___fladd          text5        1000
__end_of___flge           text8        0C96
__end_of___flmul          text6        07C0
__end_of___flsub          text4        0958
__end_of__initialization  cinit        07FC
__end_of_delay            text23       001A
__end_of_escreveMesagem   text13       0A41
__end_of_espacoLivre      text17       0934
__end_of_init             text21       0879
__end_of_liga_buzzer      text3        0BF4
__end_of_listaZonas       text12       0D68
__end_of_main             maintext     0B78
__end_of_strcmp           text9        09A9
__end_of_strlen           text16       08F4
__end_of_teclado          text2        045F
__end_of_telaInicial      text11       0AB9
__end_of_validaUser       text1        0162
__initialization          cinit        07C0
__pbssBANK0               bssBANK0     0065
__pcstackBANK0            cstackBANK0  0020
__pcstackCOMMON           cstackCOMMON 0070
__pdataBANK0              dataBANK0    0046
__pdataBANK1              dataBANK1    00A0
__pdataBANK2              dataBANK2    0110
__pdataBANK3              dataBANK3    0190
__pidataBANK0             idataBANK0   08F4
__pidataBANK1             idataBANK1   0AB9
__pidataBANK2             idataBANK2   09A9
__pidataBANK3             idataBANK3   001A
__pmaintext               maintext     0B02
__ptext1                  text1        006F
__ptext10                 text10       08A7
__ptext11                 text11       0A7C
__ptext12                 text12       0C96
__ptext13                 text13       0A0A
__ptext14                 text14       0897
__ptext15                 text15       0A41
__ptext16                 text16       08DB
__ptext17                 text17       0913
__ptext18                 text18       0887
__ptext19                 text19       08B7
__ptext2                  text2        0162
__ptext20                 text20       09D7
__ptext21                 text21       086D
__ptext22                 text22       0879
__ptext23                 text23       0004
__ptext3                  text3        0B78
__ptext4                  text4        0934
__ptext5                  text5        0D68
__ptext6                  text6        045F
__ptext7                  text7        0958
__ptext8                  text8        0BF4
__ptext9                  text9        097F
__size_of_LCD_enable      (abs)        0000
__size_of_LCD_escreve     (abs)        0000
__size_of_LCD_init        (abs)        0000
__size_of_LCD_limpa       (abs)        0000
__size_of_LCD_linha1      (abs)        0000
__size_of_LCD_linha2      (abs)        0000
__size_of_Linha2          (abs)        0000
__size_of__Umul8_16       (abs)        0000
__size_of___fladd         (abs)        0000
__size_of___flge          (abs)        0000
__size_of___flmul         (abs)        0000
__size_of___flsub         (abs)        0000
__size_of_delay           (abs)        0000
__size_of_escreveMesagem  (abs)        0000
__size_of_espacoLivre     (abs)        0000
__size_of_init            (abs)        0000
__size_of_liga_buzzer     (abs)        0000
__size_of_listaZonas      (abs)        0000
__size_of_main            (abs)        0000
__size_of_strcmp          (abs)        0000
__size_of_strlen          (abs)        0000
__size_of_teclado         (abs)        0000
__size_of_telaInicial     (abs)        0000
__size_of_validaUser      (abs)        0000
_aux                      bssBANK0     0069
_delay                    text23       0004
_escreveMesagem           text13       0A0A
_espacoLivre              text17       0913
_init                     text21       086D
_input                    dataBANK0    0054
_liga_buzzer              text3        0B78
_listaZonas               text12       0C96
_main                     maintext     0B02
_msgDesativarZona         dataBANK2    0120
_msgDesativarZonaActive   dataBANK2    0110
_msgDigiteSenha           dataBANK1    00A0
_msgMascara               dataBANK0    0056
_msgReativar              dataBANK1    00E0
_msgReativarActive        dataBANK1    00D6
_msgSenhaCoacao           dataBANK1    00AF
_msgSenhaCoacaoActive     dataBANK3    01AD
_msgSenhaConfig           dataBANK1    00BC
_msgSenhaConfigActive     dataBANK3    01C9
_msgSenhaCorreta          dataBANK3    01D7
_msgSenhaDisparo          dataBANK3    019F
_msgSenhaDisparoActive    dataBANK2    012F
_msgSenhaErrada           dataBANK1    00C9
_msgSenhaUsuario          dataBANK3    01BB
_msgSenhaUsuarioActive    dataBANK3    0190
_painel                   dataBANK0    0052
_senhaUser                dataBANK0    0060
_senhaUserConfere         dataBANK0    005B
_strcmp                   text9        097F
_strlen                   text16       08DB
_teclado                  text2        0162
_telaInicial              text11       0A7C
_userFalse                dataBANK0    0050
_validaUser               text1        006F
_valorSensor              bssBANK0     0065
btemp                     (abs)        007E
delay@i                   cstackCOMMON 0070
end_of_initialization     cinit        07FC
escreveMesagem@i          cstackCOMMON 0078
escreveMesagem@texto      cstackCOMMON 0073
espacoLivre@i             cstackCOMMON 0073
init_fetch0               inittext     08C8
init_ram0                 inittext     08CC
intlevel0                 functab      0000
intlevel1                 functab      0000
intlevel2                 functab      0000
intlevel3                 functab      0000
intlevel4                 functab      0000
intlevel5                 functab      0000
liga_buzzer@tempoSegundos cstackBANK0  0035
listaZonas@valorSensor    cstackCOMMON 007A
main@i                    cstackBANK0  0044
reset_vec                 reset_vec    0000
start                     init         0000
start_initialization      cinit        07C0
strcmp@r                  cstackCOMMON 0075
strcmp@s1                 cstackCOMMON 0076
strcmp@s2                 cstackCOMMON 0070
strlen@cp                 cstackCOMMON 0073
strlen@s                  cstackCOMMON 0074
telaInicial@i             cstackCOMMON 0077
validaUser@n              cstackBANK0  003F
wtemp0                    (abs)        007E


MODULE INFORMATION

Module		Function		Class		Link	Load	Size
C:\Program Files\Microchip\xc8\v2.32\pic\sources\c90\common\sprcadd.c
		___flsub       		CODE           	0934	0000	36
		___fladd       		CODE           	0D68	0000	664

C:\Program Files\Microchip\xc8\v2.32\pic\sources\c90\common\sprcadd.c estimated size: 700

C:\Program Files\Microchip\xc8\v2.32\pic\sources\c90\common\flge.c
		___flge        		CODE           	0BF4	0000	162

C:\Program Files\Microchip\xc8\v2.32\pic\sources\c90\common\flge.c estimated size: 162

./lcd.h
		_init          		CODE           	086D	0000	12
		_LCD_limpa     		CODE           	08A7	0000	16
		_delay         		CODE           	0004	0000	22
		_LCD_enable    		CODE           	0879	0000	14
		_LCD_escreve   		CODE           	08B7	0000	17
		_LCD_init      		CODE           	09D7	0000	51
		_LCD_linha1    		CODE           	0897	0000	16
		_LCD_linha2    		CODE           	0887	0000	16

./lcd.h estimated size: 164

C:\Program Files\Microchip\xc8\v2.32\pic\sources\c90\common\Umul8_16.c
		__Umul8_16     		CODE           	0958	0000	39

C:\Program Files\Microchip\xc8\v2.32\pic\sources\c90\common\Umul8_16.c estimated size: 39

C:\Program Files\Microchip\xc8\v2.32\pic\sources\c90\common\strlen.c
		_strlen        		CODE           	08DB	0000	25

C:\Program Files\Microchip\xc8\v2.32\pic\sources\c90\common\strlen.c estimated size: 25

C:\Program Files\Microchip\xc8\v2.32\pic\sources\c90\common\strcmp.c
		_strcmp        		CODE           	097F	0000	42

C:\Program Files\Microchip\xc8\v2.32\pic\sources\c90\common\strcmp.c estimated size: 42

shared
		__initialization		CODE           	07C0	0000	60

shared estimated size: 60

C:\Program Files\Microchip\xc8\v2.32\pic\sources\c90\common\sprcmul.c
		___flmul       		CODE           	045F	0000	865

C:\Program Files\Microchip\xc8\v2.32\pic\sources\c90\common\sprcmul.c estimated size: 865

main.c
		_telaInicial   		CODE           	0A7C	0000	61
		_validaUser    		CODE           	006F	0000	243
		_main          		CODE           	0B02	0000	118
		_espacoLivre   		CODE           	0913	0000	33
		_escreveMesagem		CODE           	0A0A	0000	55
		_listaZonas    		CODE           	0C96	0000	210
		_teclado       		CODE           	0162	0000	765
		_Linha2        		CODE           	0A41	0000	59
		_liga_buzzer   		CODE           	0B78	0000	124

main.c estimated size: 1668

