

Microchip MPLAB XC8 Assembler V2.32 build 20210201212658 
                                                                                               Sat Oct 02 00:05:53 2021

Microchip MPLAB XC8 C Compiler v2.32 (Free license) build 20210201212658 Og1 
     1                           	processor	16F877A
     2                           	pagewidth 120
     3                           	opt	flic
     4                           	psect	idataBANK0,global,class=CODE,delta=2,noexec
     5                           	psect	idataBANK1,global,class=CODE,delta=2,noexec
     6                           	psect	idataBANK2,global,class=CODE,delta=2,noexec
     7                           	psect	idataBANK3,global,class=CODE,delta=2,noexec
     8                           	psect	cinit,global,class=CODE,merge=1,delta=2
     9                           	psect	bssBANK0,global,class=BANK0,space=1,delta=1,noexec
    10                           	psect	dataBANK0,global,class=BANK0,space=1,delta=1,noexec
    11                           	psect	dataBANK1,global,class=BANK1,space=1,delta=1,noexec
    12                           	psect	dataBANK3,global,class=BANK3,space=1,delta=1,noexec
    13                           	psect	dataBANK2,global,class=BANK2,space=1,delta=1,noexec
    14                           	psect	inittext,global,class=CODE,delta=2
    15                           	psect	cstackCOMMON,global,class=COMMON,space=1,delta=1,noexec
    16                           	psect	cstackBANK0,global,class=BANK0,space=1,delta=1,noexec
    17                           	psect	maintext,global,class=CODE,split=1,delta=2
    18                           	psect	text1,local,class=CODE,merge=1,delta=2
    19                           	psect	text2,local,class=CODE,merge=1,delta=2
    20                           	psect	text3,local,class=CODE,merge=1,delta=2
    21                           	psect	text4,local,class=CODE,merge=1,delta=2,group=1
    22                           	psect	text5,local,class=CODE,merge=1,delta=2,group=1
    23                           	psect	text6,local,class=CODE,merge=1,delta=2,group=1
    24                           	psect	text7,local,class=CODE,merge=1,delta=2,group=1
    25                           	psect	text8,local,class=CODE,merge=1,delta=2,group=1
    26                           	psect	text9,local,class=CODE,merge=1,delta=2
    27                           	psect	text10,local,class=CODE,merge=1,delta=2
    28                           	psect	text11,local,class=CODE,merge=1,delta=2
    29                           	psect	text12,local,class=CODE,merge=1,delta=2
    30                           	psect	text13,local,class=CODE,merge=1,delta=2,group=2
    31                           	psect	text14,local,class=CODE,merge=1,delta=2
    32                           	psect	text15,local,class=CODE,merge=1,delta=2
    33                           	psect	text16,local,class=CODE,merge=1,delta=2
    34                           	psect	text17,local,class=CODE,merge=1,delta=2
    35                           	psect	text18,local,class=CODE,merge=1,delta=2
    36                           	psect	text19,local,class=CODE,merge=1,delta=2
    37                           	psect	text20,local,class=CODE,merge=1,delta=2
    38                           	dabs	1,0x7E,2
    39  0000                     
    40                           ; Version 2.20
    41                           ; Generated 12/02/2020 GMT
    42                           ; 
    43                           ; Copyright © 2020, Microchip Technology Inc. and its subsidiaries ("Microchip")
    44                           ; All rights reserved.
    45                           ; 
    46                           ; This software is developed by Microchip Technology Inc. and its subsidiaries ("Microch
      +                          ip").
    47                           ; 
    48                           ; Redistribution and use in source and binary forms, with or without modification, are
    49                           ; permitted provided that the following conditions are met:
    50                           ; 
    51                           ;     1. Redistributions of source code must retain the above copyright notice, this lis
      +                          t of
    52                           ;        conditions and the following disclaimer.
    53                           ; 
    54                           ;     2. Redistributions in binary form must reproduce the above copyright notice, this 
      +                          list
    55                           ;        of conditions and the following disclaimer in the documentation and/or other
    56                           ;        materials provided with the distribution.
    57                           ; 
    58                           ;     3. Microchip's name may not be used to endorse or promote products derived from th
      +                          is
    59                           ;        software without specific prior written permission.
    60                           ; 
    61                           ; THIS SOFTWARE IS PROVIDED BY MICROCHIP "AS IS" AND ANY EXPRESS OR IMPLIED WARRANTIES,
    62                           ; INCLUDING, BUT NOT LIMITED TO, THE IMPLIED WARRANTIES OF MERCHANTABILITY AND FITNESS F
      +                          OR
    63                           ; PURPOSE ARE DISCLAIMED.  IN NO EVENT SHALL MICROCHIP BE LIABLE FOR ANY DIRECT, INDIREC
      +                          T,
    64                           ; INCIDENTAL, SPECIAL, EXEMPLARY, OR CONSEQUENTIAL DAMAGES (INCLUDING BUT NOT LIMITED TO
    65                           ; PROCUREMENT OF SUBSTITUTE GOODS OR SERVICES; LOSS OF USE, DATA OR PROFITS; OR BUSINESS
    66                           ; INTERRUPTION) HOWSOEVER CAUSED AND ON ANY THEORY OF LIABILITY, WHETHER IN CONTRACT, ST
      +                          RICT
    67                           ; LIABILITY, OR TORT (INCLUDING NEGLIGENCE OR OTHERWISE) ARISING IN ANY WAY OUT OF THE U
      +                          SE OF
    68                           ; THIS SOFTWARE, EVEN IF ADVISED OF THE POSSIBILITY OF SUCH DAMAGE.
    69                           ; 
    70                           ; 
    71                           ; Code-generator required, PIC16F877A Definitions
    72                           ; 
    73                           ; SFR Addresses
    74  0000                     	;# 
    75  0001                     	;# 
    76  0002                     	;# 
    77  0003                     	;# 
    78  0004                     	;# 
    79  0005                     	;# 
    80  0006                     	;# 
    81  0007                     	;# 
    82  0008                     	;# 
    83  0009                     	;# 
    84  000A                     	;# 
    85  000B                     	;# 
    86  000C                     	;# 
    87  000D                     	;# 
    88  000E                     	;# 
    89  000E                     	;# 
    90  000F                     	;# 
    91  0010                     	;# 
    92  0011                     	;# 
    93  0012                     	;# 
    94  0013                     	;# 
    95  0014                     	;# 
    96  0015                     	;# 
    97  0015                     	;# 
    98  0016                     	;# 
    99  0017                     	;# 
   100  0018                     	;# 
   101  0019                     	;# 
   102  001A                     	;# 
   103  001B                     	;# 
   104  001B                     	;# 
   105  001C                     	;# 
   106  001D                     	;# 
   107  001E                     	;# 
   108  001F                     	;# 
   109  0081                     	;# 
   110  0085                     	;# 
   111  0086                     	;# 
   112  0087                     	;# 
   113  0088                     	;# 
   114  0089                     	;# 
   115  008C                     	;# 
   116  008D                     	;# 
   117  008E                     	;# 
   118  0091                     	;# 
   119  0092                     	;# 
   120  0093                     	;# 
   121  0094                     	;# 
   122  0098                     	;# 
   123  0099                     	;# 
   124  009C                     	;# 
   125  009D                     	;# 
   126  009E                     	;# 
   127  009F                     	;# 
   128  010C                     	;# 
   129  010D                     	;# 
   130  010E                     	;# 
   131  010F                     	;# 
   132  018C                     	;# 
   133  018D                     	;# 
   134  0000                     	;# 
   135  0001                     	;# 
   136  0002                     	;# 
   137  0003                     	;# 
   138  0004                     	;# 
   139  0005                     	;# 
   140  0006                     	;# 
   141  0007                     	;# 
   142  0008                     	;# 
   143  0009                     	;# 
   144  000A                     	;# 
   145  000B                     	;# 
   146  000C                     	;# 
   147  000D                     	;# 
   148  000E                     	;# 
   149  000E                     	;# 
   150  000F                     	;# 
   151  0010                     	;# 
   152  0011                     	;# 
   153  0012                     	;# 
   154  0013                     	;# 
   155  0014                     	;# 
   156  0015                     	;# 
   157  0015                     	;# 
   158  0016                     	;# 
   159  0017                     	;# 
   160  0018                     	;# 
   161  0019                     	;# 
   162  001A                     	;# 
   163  001B                     	;# 
   164  001B                     	;# 
   165  001C                     	;# 
   166  001D                     	;# 
   167  001E                     	;# 
   168  001F                     	;# 
   169  0081                     	;# 
   170  0085                     	;# 
   171  0086                     	;# 
   172  0087                     	;# 
   173  0088                     	;# 
   174  0089                     	;# 
   175  008C                     	;# 
   176  008D                     	;# 
   177  008E                     	;# 
   178  0091                     	;# 
   179  0092                     	;# 
   180  0093                     	;# 
   181  0094                     	;# 
   182  0098                     	;# 
   183  0099                     	;# 
   184  009C                     	;# 
   185  009D                     	;# 
   186  009E                     	;# 
   187  009F                     	;# 
   188  010C                     	;# 
   189  010D                     	;# 
   190  010E                     	;# 
   191  010F                     	;# 
   192  018C                     	;# 
   193  018D                     	;# 
   194                           
   195                           	psect	idataBANK0
   196  0AB6                     __pidataBANK0:
   197                           
   198                           ;initializer for _senhaConfig
   199  0AB6  3430               	retlw	48
   200  0AB7  3430               	retlw	48
   201  0AB8  3430               	retlw	48
   202  0AB9  3430               	retlw	48
   203  0ABA  3400               	retlw	0
   204                           
   205                           ;initializer for _senhaCoa
   206  0ABB  3435               	retlw	53
   207  0ABC  3435               	retlw	53
   208  0ABD  3435               	retlw	53
   209  0ABE  3435               	retlw	53
   210  0ABF  3400               	retlw	0
   211                           
   212                           ;initializer for _senhaUserConfere
   213  0AC0  3430               	retlw	48
   214  0AC1  3430               	retlw	48
   215  0AC2  3430               	retlw	48
   216  0AC3  3430               	retlw	48
   217  0AC4  3400               	retlw	0
   218                           
   219                           ;initializer for _senhaUser
   220  0AC5  3431               	retlw	49
   221  0AC6  3432               	retlw	50
   222  0AC7  3431               	retlw	49
   223  0AC8  3432               	retlw	50
   224  0AC9  3400               	retlw	0
   225                           
   226                           ;initializer for _userFalse
   227  0ACA  3401               	retlw	1
   228  0ACB  3400               	retlw	0
   229                           
   230                           ;initializer for _painel
   231  0ACC  3401               	retlw	1
   232  0ACD  3400               	retlw	0
   233                           
   234                           ;initializer for _input
   235  0ACE  340A               	retlw	10
   236  0ACF  3400               	retlw	0
   237                           
   238                           ;initializer for _msgMascara
   239  0AD0  345F               	retlw	95
   240  0AD1  345F               	retlw	95
   241  0AD2  345F               	retlw	95
   242  0AD3  345F               	retlw	95
   243  0AD4  3400               	retlw	0
   244                           
   245                           	psect	idataBANK1
   246  0C4B                     __pidataBANK1:
   247                           
   248                           ;initializer for _msgDigiteSenha
   249  0C4B  3444               	retlw	68
   250  0C4C  3469               	retlw	105
   251  0C4D  3467               	retlw	103
   252  0C4E  3469               	retlw	105
   253  0C4F  3474               	retlw	116
   254  0C50  3465               	retlw	101
   255  0C51  3420               	retlw	32
   256  0C52  3461               	retlw	97
   257  0C53  3420               	retlw	32
   258  0C54  3473               	retlw	115
   259  0C55  3465               	retlw	101
   260  0C56  346E               	retlw	110
   261  0C57  3468               	retlw	104
   262  0C58  3461               	retlw	97
   263  0C59  3400               	retlw	0
   264                           
   265                           ;initializer for _msgSenhaConfigActive
   266  0C5A  343E               	retlw	62
   267  0C5B  3453               	retlw	83
   268  0C5C  3465               	retlw	101
   269  0C5D  346E               	retlw	110
   270  0C5E  3468               	retlw	104
   271  0C5F  3461               	retlw	97
   272  0C60  3420               	retlw	32
   273  0C61  3443               	retlw	67
   274  0C62  346F               	retlw	111
   275  0C63  346E               	retlw	110
   276  0C64  3466               	retlw	102
   277  0C65  3469               	retlw	105
   278  0C66  3467               	retlw	103
   279  0C67  3400               	retlw	0
   280                           
   281                           ;initializer for _msgSenhaCoacao
   282  0C68  3453               	retlw	83
   283  0C69  3465               	retlw	101
   284  0C6A  346E               	retlw	110
   285  0C6B  3468               	retlw	104
   286  0C6C  3461               	retlw	97
   287  0C6D  3420               	retlw	32
   288  0C6E  3443               	retlw	67
   289  0C6F  346F               	retlw	111
   290  0C70  3461               	retlw	97
   291  0C71  3463               	retlw	99
   292  0C72  3461               	retlw	97
   293  0C73  346F               	retlw	111
   294  0C74  3400               	retlw	0
   295                           
   296                           ;initializer for _msgSenhaConfig
   297  0C75  3453               	retlw	83
   298  0C76  3465               	retlw	101
   299  0C77  346E               	retlw	110
   300  0C78  3468               	retlw	104
   301  0C79  3461               	retlw	97
   302  0C7A  3420               	retlw	32
   303  0C7B  3443               	retlw	67
   304  0C7C  346F               	retlw	111
   305  0C7D  346E               	retlw	110
   306  0C7E  3466               	retlw	102
   307  0C7F  3469               	retlw	105
   308  0C80  3467               	retlw	103
   309  0C81  3400               	retlw	0
   310                           
   311                           ;initializer for _msgReativarActive
   312  0C82  343E               	retlw	62
   313  0C83  3452               	retlw	82
   314  0C84  3465               	retlw	101
   315  0C85  3461               	retlw	97
   316  0C86  3474               	retlw	116
   317  0C87  3469               	retlw	105
   318  0C88  3476               	retlw	118
   319  0C89  3461               	retlw	97
   320  0C8A  3472               	retlw	114
   321  0C8B  3400               	retlw	0
   322                           
   323                           ;initializer for _msgReativar
   324  0C8C  3452               	retlw	82
   325  0C8D  3465               	retlw	101
   326  0C8E  3461               	retlw	97
   327  0C8F  3474               	retlw	116
   328  0C90  3469               	retlw	105
   329  0C91  3476               	retlw	118
   330  0C92  3461               	retlw	97
   331  0C93  3472               	retlw	114
   332  0C94  3400               	retlw	0
   333                           
   334                           	psect	idataBANK2
   335  0B41                     __pidataBANK2:
   336                           
   337                           ;initializer for _msgSenhaCorreta
   338  0B41  3453               	retlw	83
   339  0B42  3465               	retlw	101
   340  0B43  346E               	retlw	110
   341  0B44  3468               	retlw	104
   342  0B45  3461               	retlw	97
   343  0B46  3420               	retlw	32
   344  0B47  3463               	retlw	99
   345  0B48  346F               	retlw	111
   346  0B49  3472               	retlw	114
   347  0B4A  3472               	retlw	114
   348  0B4B  3465               	retlw	101
   349  0B4C  3474               	retlw	116
   350  0B4D  3461               	retlw	97
   351  0B4E  3400               	retlw	0
   352                           
   353                           ;initializer for _msgSenhaErrada
   354  0B4F  3453               	retlw	83
   355  0B50  3465               	retlw	101
   356  0B51  346E               	retlw	110
   357  0B52  3468               	retlw	104
   358  0B53  3461               	retlw	97
   359  0B54  3420               	retlw	32
   360  0B55  3465               	retlw	101
   361  0B56  3472               	retlw	114
   362  0B57  3472               	retlw	114
   363  0B58  3461               	retlw	97
   364  0B59  3464               	retlw	100
   365  0B5A  3461               	retlw	97
   366  0B5B  3400               	retlw	0
   367                           
   368                           ;initializer for _msgDesativarZonaActive
   369  0B5C  343E               	retlw	62
   370  0B5D  3444               	retlw	68
   371  0B5E  3465               	retlw	101
   372  0B5F  3473               	retlw	115
   373  0B60  3461               	retlw	97
   374  0B61  3474               	retlw	116
   375  0B62  3469               	retlw	105
   376  0B63  3476               	retlw	118
   377  0B64  3461               	retlw	97
   378  0B65  3472               	retlw	114
   379  0B66  3420               	retlw	32
   380  0B67  345A               	retlw	90
   381  0B68  346F               	retlw	111
   382  0B69  346E               	retlw	110
   383  0B6A  3461               	retlw	97
   384  0B6B  3400               	retlw	0
   385                           
   386                           	psect	idataBANK3
   387  0C95                     __pidataBANK3:
   388                           
   389                           ;initializer for _msgDesativarZona
   390  0C95  3444               	retlw	68
   391  0C96  3465               	retlw	101
   392  0C97  3473               	retlw	115
   393  0C98  3461               	retlw	97
   394  0C99  3474               	retlw	116
   395  0C9A  3469               	retlw	105
   396  0C9B  3476               	retlw	118
   397  0C9C  3461               	retlw	97
   398  0C9D  3472               	retlw	114
   399  0C9E  3420               	retlw	32
   400  0C9F  345A               	retlw	90
   401  0CA0  346F               	retlw	111
   402  0CA1  346E               	retlw	110
   403  0CA2  3461               	retlw	97
   404  0CA3  3400               	retlw	0
   405                           
   406                           ;initializer for _msgSenhaDisparoActive
   407  0CA4  343E               	retlw	62
   408  0CA5  3453               	retlw	83
   409  0CA6  3465               	retlw	101
   410  0CA7  346E               	retlw	110
   411  0CA8  3468               	retlw	104
   412  0CA9  3461               	retlw	97
   413  0CAA  3420               	retlw	32
   414  0CAB  3444               	retlw	68
   415  0CAC  3469               	retlw	105
   416  0CAD  3473               	retlw	115
   417  0CAE  3470               	retlw	112
   418  0CAF  3461               	retlw	97
   419  0CB0  3472               	retlw	114
   420  0CB1  346F               	retlw	111
   421  0CB2  3400               	retlw	0
   422                           
   423                           ;initializer for _msgSenhaUsuarioActive
   424  0CB3  343E               	retlw	62
   425  0CB4  3453               	retlw	83
   426  0CB5  3465               	retlw	101
   427  0CB6  346E               	retlw	110
   428  0CB7  3468               	retlw	104
   429  0CB8  3461               	retlw	97
   430  0CB9  3420               	retlw	32
   431  0CBA  3455               	retlw	85
   432  0CBB  3473               	retlw	115
   433  0CBC  3475               	retlw	117
   434  0CBD  3461               	retlw	97
   435  0CBE  3472               	retlw	114
   436  0CBF  3469               	retlw	105
   437  0CC0  346F               	retlw	111
   438  0CC1  3400               	retlw	0
   439                           
   440                           ;initializer for _msgSenhaDisparo
   441  0CC2  3453               	retlw	83
   442  0CC3  3465               	retlw	101
   443  0CC4  346E               	retlw	110
   444  0CC5  3468               	retlw	104
   445  0CC6  3461               	retlw	97
   446  0CC7  3420               	retlw	32
   447  0CC8  3444               	retlw	68
   448  0CC9  3469               	retlw	105
   449  0CCA  3473               	retlw	115
   450  0CCB  3470               	retlw	112
   451  0CCC  3461               	retlw	97
   452  0CCD  3472               	retlw	114
   453  0CCE  346F               	retlw	111
   454  0CCF  3400               	retlw	0
   455                           
   456                           ;initializer for _msgSenhaCoacaoActive
   457  0CD0  343E               	retlw	62
   458  0CD1  3453               	retlw	83
   459  0CD2  3465               	retlw	101
   460  0CD3  346E               	retlw	110
   461  0CD4  3468               	retlw	104
   462  0CD5  3461               	retlw	97
   463  0CD6  3420               	retlw	32
   464  0CD7  3443               	retlw	67
   465  0CD8  346F               	retlw	111
   466  0CD9  3461               	retlw	97
   467  0CDA  3463               	retlw	99
   468  0CDB  3461               	retlw	97
   469  0CDC  346F               	retlw	111
   470  0CDD  3400               	retlw	0
   471                           
   472                           ;initializer for _msgSenhaUsuario
   473  0CDE  3453               	retlw	83
   474  0CDF  3465               	retlw	101
   475  0CE0  346E               	retlw	110
   476  0CE1  3468               	retlw	104
   477  0CE2  3461               	retlw	97
   478  0CE3  3420               	retlw	32
   479  0CE4  3455               	retlw	85
   480  0CE5  3473               	retlw	115
   481  0CE6  3475               	retlw	117
   482  0CE7  3461               	retlw	97
   483  0CE8  3472               	retlw	114
   484  0CE9  3469               	retlw	105
   485  0CEA  346F               	retlw	111
   486  0CEB  3400               	retlw	0
   487  0006                     _PORTB	set	6
   488  0009                     _PORTE	set	9
   489  0008                     _PORTD	set	8
   490  0033                     _RB3	set	51
   491  0032                     _RB2	set	50
   492  0031                     _RB1	set	49
   493  0030                     _RB0	set	48
   494  002B                     _RA3	set	43
   495  002C                     _RA4	set	44
   496  002D                     _RA5	set	45
   497  0029                     _RA1	set	41
   498  0086                     _TRISB	set	134
   499  0089                     _TRISE	set	137
   500  0088                     _TRISD	set	136
   501  0085                     _TRISA	set	133
   502  009F                     _ADCON1	set	159
   503                           
   504                           	psect	cinit
   505  07C0                     start_initialization:	
   506                           ; #config settings
   507                           
   508  07C0                     __initialization:
   509                           
   510                           ; Initialize objects allocated to BANK3
   511  07C0  1783               	bsf	3,7	;select IRP bank2
   512  07C1  30E7               	movlw	low (__pdataBANK3+87)
   513  07C2  00FD               	movwf	btemp+-1
   514  07C3  300C               	movlw	high __pidataBANK3
   515  07C4  00FE               	movwf	btemp
   516  07C5  3095               	movlw	low __pidataBANK3
   517  07C6  00FF               	movwf	btemp+1
   518  07C7  3090               	movlw	low __pdataBANK3
   519  07C8  0084               	movwf	4
   520  07C9  120A  158A  2291  120A  118A  	fcall	init_ram0
   521                           
   522                           ; Initialize objects allocated to BANK2
   523  07CE  303B               	movlw	low (__pdataBANK2+43)
   524  07CF  00FD               	movwf	btemp+-1
   525  07D0  300B               	movlw	high __pidataBANK2
   526  07D1  00FE               	movwf	btemp
   527  07D2  3041               	movlw	low __pidataBANK2
   528  07D3  00FF               	movwf	btemp+1
   529  07D4  3010               	movlw	low __pdataBANK2
   530  07D5  0084               	movwf	4
   531  07D6  120A  158A  2291  120A  118A  	fcall	init_ram0
   532                           
   533                           ; Initialize objects allocated to BANK1
   534  07DB  1383               	bcf	3,7	;select IRP bank0
   535  07DC  30EA               	movlw	low (__pdataBANK1+74)
   536  07DD  00FD               	movwf	btemp+-1
   537  07DE  300C               	movlw	high __pidataBANK1
   538  07DF  00FE               	movwf	btemp
   539  07E0  304B               	movlw	low __pidataBANK1
   540  07E1  00FF               	movwf	btemp+1
   541  07E2  30A0               	movlw	low __pdataBANK1
   542  07E3  0084               	movwf	4
   543  07E4  120A  158A  2291  120A  118A  	fcall	init_ram0
   544                           
   545                           ; Initialize objects allocated to BANK0
   546  07E9  3064               	movlw	low (__pdataBANK0+31)
   547  07EA  00FD               	movwf	btemp+-1
   548  07EB  300A               	movlw	high __pidataBANK0
   549  07EC  00FE               	movwf	btemp
   550  07ED  30B6               	movlw	low __pidataBANK0
   551  07EE  00FF               	movwf	btemp+1
   552  07EF  3045               	movlw	low __pdataBANK0
   553  07F0  0084               	movwf	4
   554  07F1  120A  158A  2291  120A  118A  	fcall	init_ram0
   555                           
   556                           ; Clear objects allocated to BANK0
   557  07F6  01E4               	clrf	__pbssBANK0& (0+127)
   558  07F7  01E5               	clrf	(__pbssBANK0+1)& (0+127)
   559  07F8  01E6               	clrf	(__pbssBANK0+2)& (0+127)
   560  07F9  01E7               	clrf	(__pbssBANK0+3)& (0+127)
   561  07FA  01E8               	clrf	(__pbssBANK0+4)& (0+127)
   562  07FB  01E9               	clrf	(__pbssBANK0+5)& (0+127)
   563  07FC                     end_of_initialization:	
   564                           ;End of C runtime variable initialization code
   565                           
   566  07FC                     __end_of__initialization:
   567  07FC  0183               	clrf	3
   568  07FD  120A  158A  2B9F   	ljmp	_main	;jump to C main() function
   569                           
   570                           	psect	bssBANK0
   571  0064                     __pbssBANK0:
   572  0064                     _valorSensor:
   573  0064                     	ds	2
   574  0066                     _config:
   575  0066                     	ds	2
   576  0068                     _aux:
   577  0068                     	ds	2
   578                           
   579                           	psect	dataBANK0
   580  0045                     __pdataBANK0:
   581  0045                     _senhaConfig:
   582  0045                     	ds	5
   583  004A                     _senhaCoa:
   584  004A                     	ds	5
   585  004F                     _senhaUserConfere:
   586  004F                     	ds	5
   587  0054                     _senhaUser:
   588  0054                     	ds	5
   589  0059                     _userFalse:
   590  0059                     	ds	2
   591  005B                     _painel:
   592  005B                     	ds	2
   593  005D                     _input:
   594  005D                     	ds	2
   595  005F                     _msgMascara:
   596  005F                     	ds	5
   597                           
   598                           	psect	dataBANK1
   599  00A0                     __pdataBANK1:
   600  00A0                     _msgDigiteSenha:
   601  00A0                     	ds	15
   602  00AF                     _msgSenhaConfigActive:
   603  00AF                     	ds	14
   604  00BD                     _msgSenhaCoacao:
   605  00BD                     	ds	13
   606  00CA                     _msgSenhaConfig:
   607  00CA                     	ds	13
   608  00D7                     _msgReativarActive:
   609  00D7                     	ds	10
   610  00E1                     _msgReativar:
   611  00E1                     	ds	9
   612                           
   613                           	psect	dataBANK3
   614  0190                     __pdataBANK3:
   615  0190                     _msgDesativarZona:
   616  0190                     	ds	15
   617  019F                     _msgSenhaDisparoActive:
   618  019F                     	ds	15
   619  01AE                     _msgSenhaUsuarioActive:
   620  01AE                     	ds	15
   621  01BD                     _msgSenhaDisparo:
   622  01BD                     	ds	14
   623  01CB                     _msgSenhaCoacaoActive:
   624  01CB                     	ds	14
   625  01D9                     _msgSenhaUsuario:
   626  01D9                     	ds	14
   627                           
   628                           	psect	dataBANK2
   629  0110                     __pdataBANK2:
   630  0110                     _msgSenhaCorreta:
   631  0110                     	ds	14
   632  011E                     _msgSenhaErrada:
   633  011E                     	ds	13
   634  012B                     _msgDesativarZonaActive:
   635  012B                     	ds	16
   636                           
   637                           	psect	inittext
   638  0A8D                     init_fetch0:	
   639                           ;	Called with low address in FSR and high address in W
   640                           
   641  0A8D  087E               	movf	btemp,w
   642  0A8E  008A               	movwf	10
   643  0A8F  087F               	movf	btemp+1,w
   644  0A90  0082               	movwf	2
   645  0A91                     init_ram0:	
   646                           ;Called with:
   647                           ;	high address of idata address in btemp 
   648                           ;	low address of idata address in btemp+1 
   649                           ;	low address of data in FSR
   650                           ;	high address + 1 of data in btemp-1
   651                           
   652  0A91  120A  158A  228D  120A  158A  	fcall	init_fetch0
   653  0A96  0080               	movwf	0
   654  0A97  0A84               	incf	4,f
   655  0A98  0804               	movf	4,w
   656  0A99  067D               	xorwf	btemp+-1,w
   657  0A9A  1903               	btfsc	3,2
   658  0A9B  3400               	retlw	0
   659  0A9C  0AFF               	incf	btemp+1,f
   660  0A9D  1903               	btfsc	3,2
   661  0A9E  0AFE               	incf	btemp,f
   662  0A9F  2A91               	goto	init_ram0
   663                           
   664                           	psect	cstackCOMMON
   665  0070                     __pcstackCOMMON:
   666  0070                     ?___flge:
   667  0070                     ?_LCD_enable:	
   668                           ; 1 bit 
   669                           
   670  0070                     ?_delay:	
   671                           ; 1 bytes @ 0x0
   672                           
   673  0070                     ??_delay:	
   674                           ; 1 bytes @ 0x0
   675                           
   676  0070                     ?_telaInicial:	
   677                           ; 1 bytes @ 0x0
   678                           
   679  0070                     ?_Linha2:	
   680                           ; 1 bytes @ 0x0
   681                           
   682  0070                     ?_validaUser:	
   683                           ; 1 bytes @ 0x0
   684                           
   685  0070                     ?_teclado:	
   686                           ; 1 bytes @ 0x0
   687                           
   688  0070                     ?_espacoLivre:	
   689                           ; 1 bytes @ 0x0
   690                           
   691  0070                     ?_init:	
   692                           ; 1 bytes @ 0x0
   693                           
   694  0070                     ??_init:	
   695                           ; 1 bytes @ 0x0
   696                           
   697  0070                     ?_LCD_init:	
   698                           ; 1 bytes @ 0x0
   699                           
   700  0070                     ?_LCD_escreve:	
   701                           ; 1 bytes @ 0x0
   702                           
   703  0070                     ?_LCD_limpa:	
   704                           ; 1 bytes @ 0x0
   705                           
   706  0070                     ?_LCD_linha1:	
   707                           ; 1 bytes @ 0x0
   708                           
   709  0070                     ?_LCD_linha2:	
   710                           ; 1 bytes @ 0x0
   711                           
   712  0070                     ?_main:	
   713                           ; 1 bytes @ 0x0
   714                           
   715  0070                     ?_strlen:	
   716                           ; 1 bytes @ 0x0
   717                           
   718  0070                     ?__Umul8_16:	
   719                           ; 2 bytes @ 0x0
   720                           
   721  0070                     ?___fladd:	
   722                           ; 2 bytes @ 0x0
   723                           
   724  0070                     __Umul8_16@multiplicand:	
   725                           ; 4 bytes @ 0x0
   726                           
   727  0070                     delay@i:	
   728                           ; 1 bytes @ 0x0
   729                           
   730  0070                     ___flge@ff1:	
   731                           ; 2 bytes @ 0x0
   732                           
   733  0070                     ___fladd@b:	
   734                           ; 4 bytes @ 0x0
   735                           
   736                           
   737                           ; 4 bytes @ 0x0
   738  0070                     	ds	2
   739  0072                     ??_LCD_enable:
   740  0072                     ??_strlen:	
   741                           ; 1 bytes @ 0x2
   742                           
   743  0072                     ??__Umul8_16:	
   744                           ; 1 bytes @ 0x2
   745                           
   746  0072                     ??_LCD_init:	
   747                           ; 1 bytes @ 0x2
   748                           
   749  0072                     ??_LCD_escreve:	
   750                           ; 1 bytes @ 0x2
   751                           
   752  0072                     ??_LCD_limpa:	
   753                           ; 1 bytes @ 0x2
   754                           
   755  0072                     ??_LCD_linha1:	
   756                           ; 1 bytes @ 0x2
   757                           
   758  0072                     ??_LCD_linha2:	
   759                           ; 1 bytes @ 0x2
   760                           
   761  0072                     LCD_escreve@x:	
   762                           ; 1 bytes @ 0x2
   763                           
   764                           
   765                           ; 1 bytes @ 0x2
   766  0072                     	ds	1
   767  0073                     ??_espacoLivre:
   768  0073                     strlen@cp:	
   769                           ; 1 bytes @ 0x3
   770                           
   771  0073                     espacoLivre@i:	
   772                           ; 1 bytes @ 0x3
   773                           
   774                           
   775                           ; 2 bytes @ 0x3
   776  0073                     	ds	1
   777  0074                     strlen@s:
   778  0074                     __Umul8_16@product:	
   779                           ; 1 bytes @ 0x4
   780                           
   781  0074                     ___flge@ff2:	
   782                           ; 2 bytes @ 0x4
   783                           
   784  0074                     ___fladd@a:	
   785                           ; 4 bytes @ 0x4
   786                           
   787                           
   788                           ; 4 bytes @ 0x4
   789  0074                     	ds	1
   790  0075                     ??_telaInicial:
   791  0075                     ??_Linha2:	
   792                           ; 1 bytes @ 0x5
   793                           
   794                           
   795                           ; 1 bytes @ 0x5
   796  0075                     	ds	1
   797  0076                     __Umul8_16@word_mpld:
   798                           
   799                           ; 2 bytes @ 0x6
   800  0076                     	ds	1
   801  0077                     telaInicial@i:
   802  0077                     Linha2@i:	
   803                           ; 2 bytes @ 0x7
   804                           
   805                           
   806                           ; 2 bytes @ 0x7
   807  0077                     	ds	1
   808  0078                     ??___flge:
   809  0078                     ___fladd@signs:	
   810                           ; 1 bytes @ 0x8
   811                           
   812  0078                     __Umul8_16@multiplier:	
   813                           ; 1 bytes @ 0x8
   814                           
   815                           
   816                           ; 1 bytes @ 0x8
   817  0078                     	ds	1
   818  0079                     ??___flmul:
   819  0079                     ___fladd@aexp:	
   820                           ; 1 bytes @ 0x9
   821                           
   822                           
   823                           ; 1 bytes @ 0x9
   824  0079                     	ds	1
   825  007A                     ___fladd@bexp:
   826                           
   827                           ; 1 bytes @ 0xA
   828  007A                     	ds	1
   829  007B                     ___fladd@grs:
   830                           
   831                           ; 1 bytes @ 0xB
   832  007B                     	ds	1
   833  007C                     ??___flsub:
   834                           
   835                           ; 1 bytes @ 0xC
   836  007C                     	ds	2
   837  007E                     ??_main:
   838                           
   839                           	psect	cstackBANK0
   840  0020                     __pcstackBANK0:	
   841                           ; 1 bytes @ 0xE
   842                           
   843  0020                     ??___fladd:
   844  0020                     ?___flmul:	
   845                           ; 1 bytes @ 0x0
   846                           
   847  0020                     ___flmul@b:	
   848                           ; 4 bytes @ 0x0
   849                           
   850                           
   851                           ; 4 bytes @ 0x0
   852  0020                     	ds	4
   853  0024                     ___flmul@a:
   854                           
   855                           ; 4 bytes @ 0x4
   856  0024                     	ds	4
   857  0028                     ?___flsub:
   858  0028                     ___flmul@sign:	
   859                           ; 4 bytes @ 0x8
   860                           
   861  0028                     ___flsub@a:	
   862                           ; 1 bytes @ 0x8
   863                           
   864                           
   865                           ; 4 bytes @ 0x8
   866  0028                     	ds	1
   867  0029                     ___flmul@grs:
   868                           
   869                           ; 4 bytes @ 0x9
   870  0029                     	ds	3
   871  002C                     ___flsub@b:
   872                           
   873                           ; 4 bytes @ 0xC
   874  002C                     	ds	1
   875  002D                     ___flmul@aexp:
   876                           
   877                           ; 1 bytes @ 0xD
   878  002D                     	ds	1
   879  002E                     ___flmul@bexp:
   880                           
   881                           ; 1 bytes @ 0xE
   882  002E                     	ds	1
   883  002F                     ___flmul@prod:
   884                           
   885                           ; 4 bytes @ 0xF
   886  002F                     	ds	4
   887  0033                     ___flmul@temp:
   888                           
   889                           ; 2 bytes @ 0x13
   890  0033                     	ds	2
   891  0035                     ?_liga_buzzer:
   892  0035                     liga_buzzer@tempoSegundos:	
   893                           ; 1 bytes @ 0x15
   894                           
   895                           
   896                           ; 4 bytes @ 0x15
   897  0035                     	ds	4
   898  0039                     ??_liga_buzzer:
   899                           
   900                           ; 1 bytes @ 0x19
   901  0039                     	ds	2
   902  003B                     ??_teclado:
   903                           
   904                           ; 1 bytes @ 0x1B
   905  003B                     	ds	3
   906  003E                     ??_validaUser:
   907                           
   908                           ; 1 bytes @ 0x1E
   909  003E                     	ds	3
   910  0041                     validaUser@n:
   911                           
   912                           ; 2 bytes @ 0x21
   913  0041                     	ds	2
   914  0043                     validaUser@i:
   915                           
   916                           ; 2 bytes @ 0x23
   917  0043                     	ds	2
   918                           
   919                           	psect	maintext
   920  0B9F                     __pmaintext:	
   921 ;;
   922 ;;Main: autosize = 0, tempsize = 0, incstack = 0, save=0
   923 ;;
   924 ;; *************** function _main *****************
   925 ;; Defined at:
   926 ;;		line 55 in file "main.c"
   927 ;; Parameters:    Size  Location     Type
   928 ;;		None
   929 ;; Auto vars:     Size  Location     Type
   930 ;;		None
   931 ;; Return value:  Size  Location     Type
   932 ;;                  1    wreg      void 
   933 ;; Registers used:
   934 ;;		wreg, fsr0l, fsr0h, status,2, status,0, btemp+1, pclath, cstack
   935 ;; Tracked objects:
   936 ;;		On entry : B00/0
   937 ;;		On exit  : 0/0
   938 ;;		Unchanged: 0/0
   939 ;; Data sizes:     COMMON   BANK0   BANK1   BANK3   BANK2
   940 ;;      Params:         0       0       0       0       0
   941 ;;      Locals:         0       0       0       0       0
   942 ;;      Temps:          0       0       0       0       0
   943 ;;      Totals:         0       0       0       0       0
   944 ;;Total ram usage:        0 bytes
   945 ;; Hardware stack levels required when called: 5
   946 ;; This function calls:
   947 ;;		_LCD_init
   948 ;;		_LCD_limpa
   949 ;;		_Linha2
   950 ;;		_teclado
   951 ;;		_telaInicial
   952 ;;		_validaUser
   953 ;; This function is called by:
   954 ;;		Startup code after reset
   955 ;; This function uses a non-reentrant model
   956 ;;
   957                           
   958                           
   959                           ;psect for function _main
   960  0B9F                     _main:
   961  0B9F                     l2408:	
   962                           ;incstack = 0
   963                           ; Regs used in _main: [wreg-fsr0h+status,2+status,0+btemp+1+pclath+cstack]
   964                           
   965                           
   966                           ;main.c: 56:     TRISE = 0;
   967  0B9F  1683               	bsf	3,5	;RP0=1, select bank1
   968  0BA0  1303               	bcf	3,6	;RP1=0, select bank1
   969  0BA1  0189               	clrf	9	;volatile
   970                           
   971                           ;main.c: 57:     TRISD = 0;
   972  0BA2  0188               	clrf	8	;volatile
   973  0BA3                     l2410:
   974                           
   975                           ;main.c: 58:     TRISB = 0x0F;
   976  0BA3  300F               	movlw	15
   977  0BA4  0086               	movwf	6	;volatile
   978  0BA5                     l2412:
   979                           
   980                           ;main.c: 60:     PORTE = 0x01;
   981  0BA5  3001               	movlw	1
   982  0BA6  1283               	bcf	3,5	;RP0=0, select bank0
   983  0BA7  1303               	bcf	3,6	;RP1=0, select bank0
   984  0BA8  0089               	movwf	9	;volatile
   985  0BA9                     l2414:
   986                           
   987                           ;main.c: 63:     LCD_init();
   988  0BA9  120A  158A  236C  120A  158A  	fcall	_LCD_init
   989  0BAE                     l2416:
   990                           
   991                           ;main.c: 64:     LCD_limpa();
   992  0BAE  120A  158A  226C  120A  158A  	fcall	_LCD_limpa
   993  0BB3  2BC2               	goto	l2422
   994  0BB4                     l2418:
   995                           
   996                           ;main.c: 70:             telaInicial();
   997  0BB4  120A  158A  240E  120A  158A  	fcall	_telaInicial
   998                           
   999                           ;main.c: 71:             Linha2();
  1000  0BB9  120A  158A  23D3  120A  158A  	fcall	_Linha2
  1001  0BBE                     l2420:
  1002                           
  1003                           ;main.c: 72:             painel = 0;
  1004  0BBE  1283               	bcf	3,5	;RP0=0, select bank0
  1005  0BBF  1303               	bcf	3,6	;RP1=0, select bank0
  1006  0BC0  01DB               	clrf	_painel
  1007  0BC1  01DC               	clrf	_painel+1
  1008  0BC2                     l2422:
  1009                           
  1010                           ;main.c: 69:         while (painel){
  1011  0BC2  1283               	bcf	3,5	;RP0=0, select bank0
  1012  0BC3  1303               	bcf	3,6	;RP1=0, select bank0
  1013  0BC4  085B               	movf	_painel,w
  1014  0BC5  045C               	iorwf	_painel+1,w
  1015  0BC6  1D03               	btfss	3,2
  1016  0BC7  2BC9               	goto	u2471
  1017  0BC8  2BCA               	goto	u2470
  1018  0BC9                     u2471:
  1019  0BC9  2BB4               	goto	l2418
  1020  0BCA                     u2470:
  1021  0BCA                     l2424:
  1022                           
  1023                           ;main.c: 77:            validaUser();
  1024  0BCA  120A  118A  20C3  120A  158A  	fcall	_validaUser
  1025  0BCF  2BCA               	goto	l2424
  1026  0BD0  120A  118A  2800   	ljmp	start
  1027  0BD3                     __end_of_main:
  1028                           
  1029                           	psect	text1
  1030  00C3                     __ptext1:	
  1031 ;; *************** function _validaUser *****************
  1032 ;; Defined at:
  1033 ;;		line 375 in file "main.c"
  1034 ;; Parameters:    Size  Location     Type
  1035 ;;		None
  1036 ;; Auto vars:     Size  Location     Type
  1037 ;;  i               2   35[BANK0 ] int 
  1038 ;;  n               2   33[BANK0 ] int 
  1039 ;; Return value:  Size  Location     Type
  1040 ;;                  1    wreg      void 
  1041 ;; Registers used:
  1042 ;;		wreg, fsr0l, fsr0h, status,2, status,0, btemp+1, pclath, cstack
  1043 ;; Tracked objects:
  1044 ;;		On entry : 0/0
  1045 ;;		On exit  : 0/0
  1046 ;;		Unchanged: 0/0
  1047 ;; Data sizes:     COMMON   BANK0   BANK1   BANK3   BANK2
  1048 ;;      Params:         0       0       0       0       0
  1049 ;;      Locals:         0       4       0       0       0
  1050 ;;      Temps:          0       3       0       0       0
  1051 ;;      Totals:         0       7       0       0       0
  1052 ;;Total ram usage:        7 bytes
  1053 ;; Hardware stack levels used: 1
  1054 ;; Hardware stack levels required when called: 4
  1055 ;; This function calls:
  1056 ;;		_LCD_escreve
  1057 ;;		_LCD_limpa
  1058 ;;		_teclado
  1059 ;; This function is called by:
  1060 ;;		_main
  1061 ;; This function uses a non-reentrant model
  1062 ;;
  1063                           
  1064                           
  1065                           ;psect for function _validaUser
  1066  00C3                     _validaUser:
  1067  00C3                     l2344:	
  1068                           ;incstack = 0
  1069                           ; Regs used in _validaUser: [wreg-fsr0h+status,2+status,0+btemp+1+pclath+cstack]
  1070                           
  1071                           
  1072                           ;main.c: 376:     int n = 0;
  1073  00C3  1283               	bcf	3,5	;RP0=0, select bank0
  1074  00C4  1303               	bcf	3,6	;RP1=0, select bank0
  1075  00C5  01C1               	clrf	validaUser@n
  1076  00C6  01C2               	clrf	validaUser@n+1
  1077                           
  1078                           ;main.c: 377:     for(int i =0; senhaUserConfere[i] != '\0'; i++){
  1079  00C7  01C3               	clrf	validaUser@i
  1080  00C8  01C4               	clrf	validaUser@i+1
  1081  00C9  28D4               	goto	l2350
  1082  00CA                     l2346:
  1083                           
  1084                           ;main.c: 378:         senhaUserConfere[i] = '\0';
  1085  00CA  0843               	movf	validaUser@i,w
  1086  00CB  3E4F               	addlw	(low (_senhaUserConfere| 0))& (0+255)
  1087  00CC  0084               	movwf	4
  1088  00CD  0180               	clrf	0
  1089  00CE                     l2348:
  1090                           
  1091                           ;main.c: 379:     }
  1092  00CE  3001               	movlw	1
  1093  00CF  07C3               	addwf	validaUser@i,f
  1094  00D0  1803               	skipnc
  1095  00D1  0AC4               	incf	validaUser@i+1,f
  1096  00D2  3000               	movlw	0
  1097  00D3  07C4               	addwf	validaUser@i+1,f
  1098  00D4                     l2350:
  1099  00D4  0843               	movf	validaUser@i,w
  1100  00D5  3E4F               	addlw	(low (_senhaUserConfere| 0))& (0+255)
  1101  00D6  0084               	movwf	4
  1102  00D7  1383               	bcf	3,7	;select IRP bank0
  1103  00D8  0800               	movf	0,w
  1104  00D9  1D03               	btfss	3,2
  1105  00DA  28DC               	goto	u2431
  1106  00DB  28DD               	goto	u2430
  1107  00DC                     u2431:
  1108  00DC  28CA               	goto	l2346
  1109  00DD                     u2430:
  1110  00DD  298D               	goto	l2394
  1111  00DE                     l2352:
  1112                           
  1113                           ;main.c: 383:             n++;
  1114  00DE  3001               	movlw	1
  1115  00DF  1283               	bcf	3,5	;RP0=0, select bank0
  1116  00E0  1303               	bcf	3,6	;RP1=0, select bank0
  1117  00E1  07C1               	addwf	validaUser@n,f
  1118  00E2  1803               	skipnc
  1119  00E3  0AC2               	incf	validaUser@n+1,f
  1120  00E4  3000               	movlw	0
  1121  00E5  07C2               	addwf	validaUser@n+1,f
  1122                           
  1123                           ;main.c: 384:             input = 10;
  1124  00E6  300A               	movlw	10
  1125  00E7  00DD               	movwf	_input
  1126  00E8  3000               	movlw	0
  1127  00E9  00DE               	movwf	_input+1
  1128  00EA                     l2354:
  1129                           
  1130                           ;main.c: 385:             LCD_limpa();
  1131  00EA  120A  158A  226C  120A  118A  	fcall	_LCD_limpa
  1132  00EF                     l2356:
  1133                           
  1134                           ;main.c: 386:             LCD_escreve('N');
  1135  00EF  304E               	movlw	78
  1136  00F0  120A  158A  227C  120A  118A  	fcall	_LCD_escreve
  1137  00F5                     l2358:
  1138                           
  1139                           ;main.c: 387:             LCD_escreve(':');
  1140  00F5  303A               	movlw	58
  1141  00F6  120A  158A  227C  120A  118A  	fcall	_LCD_escreve
  1142  00FB                     l2360:
  1143                           
  1144                           ;main.c: 388:             LCD_escreve(n + 48);
  1145  00FB  1283               	bcf	3,5	;RP0=0, select bank0
  1146  00FC  1303               	bcf	3,6	;RP1=0, select bank0
  1147  00FD  0841               	movf	validaUser@n,w
  1148  00FE  3E30               	addlw	48
  1149  00FF  120A  158A  227C  120A  118A  	fcall	_LCD_escreve
  1150                           
  1151                           ;main.c: 390:             while (input == 10){
  1152  0104  290A               	goto	l2364
  1153  0105                     l2362:
  1154                           
  1155                           ;main.c: 391:                 teclado();
  1156  0105  120A  118A  219E  120A  118A  	fcall	_teclado
  1157  010A                     l2364:
  1158                           
  1159                           ;main.c: 390:             while (input == 10){
  1160  010A  300A               	movlw	10
  1161  010B  1283               	bcf	3,5	;RP0=0, select bank0
  1162  010C  1303               	bcf	3,6	;RP1=0, select bank0
  1163  010D  065D               	xorwf	_input,w
  1164  010E  045E               	iorwf	_input+1,w
  1165  010F  1903               	btfsc	3,2
  1166  0110  2912               	goto	u2441
  1167  0111  2913               	goto	u2440
  1168  0112                     u2441:
  1169  0112  2905               	goto	l2362
  1170  0113                     u2440:
  1171  0113  2946               	goto	l2388
  1172  0114                     l2366:
  1173                           
  1174                           ;main.c: 395:                     aux = '1';
  1175  0114  3031               	movlw	49
  1176  0115  00E8               	movwf	_aux
  1177  0116  3000               	movlw	0
  1178  0117  00E9               	movwf	_aux+1
  1179                           
  1180                           ;main.c: 396:                 break;
  1181  0118  296B               	goto	l2390
  1182  0119                     l2368:
  1183                           
  1184                           ;main.c: 398:                     aux = '2';
  1185  0119  3032               	movlw	50
  1186  011A  00E8               	movwf	_aux
  1187  011B  3000               	movlw	0
  1188  011C  00E9               	movwf	_aux+1
  1189                           
  1190                           ;main.c: 399:                 break;
  1191  011D  296B               	goto	l2390
  1192  011E                     l2370:
  1193                           
  1194                           ;main.c: 401:                     aux = '3';
  1195  011E  3033               	movlw	51
  1196  011F  00E8               	movwf	_aux
  1197  0120  3000               	movlw	0
  1198  0121  00E9               	movwf	_aux+1
  1199                           
  1200                           ;main.c: 402:                 break;
  1201  0122  296B               	goto	l2390
  1202  0123                     l2372:
  1203                           
  1204                           ;main.c: 404:                     aux = '4';
  1205  0123  3034               	movlw	52
  1206  0124  00E8               	movwf	_aux
  1207  0125  3000               	movlw	0
  1208  0126  00E9               	movwf	_aux+1
  1209                           
  1210                           ;main.c: 405:                 break;
  1211  0127  296B               	goto	l2390
  1212  0128                     l2374:
  1213                           
  1214                           ;main.c: 407:                     aux = '5';
  1215  0128  3035               	movlw	53
  1216  0129  00E8               	movwf	_aux
  1217  012A  3000               	movlw	0
  1218  012B  00E9               	movwf	_aux+1
  1219                           
  1220                           ;main.c: 408:                 break;
  1221  012C  296B               	goto	l2390
  1222  012D                     l2376:
  1223                           
  1224                           ;main.c: 410:                     aux = '6';
  1225  012D  3036               	movlw	54
  1226  012E  00E8               	movwf	_aux
  1227  012F  3000               	movlw	0
  1228  0130  00E9               	movwf	_aux+1
  1229                           
  1230                           ;main.c: 411:                 break;
  1231  0131  296B               	goto	l2390
  1232  0132                     l2378:
  1233                           
  1234                           ;main.c: 413:                     aux = '7';
  1235  0132  3037               	movlw	55
  1236  0133  00E8               	movwf	_aux
  1237  0134  3000               	movlw	0
  1238  0135  00E9               	movwf	_aux+1
  1239                           
  1240                           ;main.c: 414:                 break;
  1241  0136  296B               	goto	l2390
  1242  0137                     l2380:
  1243                           
  1244                           ;main.c: 416:                     aux = '8';
  1245  0137  3038               	movlw	56
  1246  0138  00E8               	movwf	_aux
  1247  0139  3000               	movlw	0
  1248  013A  00E9               	movwf	_aux+1
  1249                           
  1250                           ;main.c: 417:                 break;
  1251  013B  296B               	goto	l2390
  1252  013C                     l2382:
  1253                           
  1254                           ;main.c: 419:                     aux = '9';
  1255  013C  3039               	movlw	57
  1256  013D  00E8               	movwf	_aux
  1257  013E  3000               	movlw	0
  1258  013F  00E9               	movwf	_aux+1
  1259                           
  1260                           ;main.c: 420:                 break;
  1261  0140  296B               	goto	l2390
  1262  0141                     l2384:
  1263                           
  1264                           ;main.c: 422:                     aux = '0';
  1265  0141  3030               	movlw	48
  1266  0142  00E8               	movwf	_aux
  1267  0143  3000               	movlw	0
  1268  0144  00E9               	movwf	_aux+1
  1269                           
  1270                           ;main.c: 423:                 break;
  1271  0145  296B               	goto	l2390
  1272  0146                     l2388:
  1273                           
  1274                           ; Switch on 2 bytes has been partitioned into a top level switch of size 1, and 1 sub-sw
      +                          itches
  1275                           ; Switch size 1, requested type "simple"
  1276                           ; Number of cases is 1, Range of values is 0 to 0
  1277                           ; switch strategies available:
  1278                           ; Name         Instructions Cycles
  1279                           ; simple_byte            4     3 (average)
  1280                           ; direct_byte           11     8 (fixed)
  1281                           ; jumptable            260     6 (fixed)
  1282                           ;	Chosen strategy is simple_byte
  1283  0146  085E               	movf	_input+1,w
  1284  0147  3A00               	xorlw	0	; case 0
  1285  0148  1903               	skipnz
  1286  0149  294B               	goto	l2584
  1287  014A  296B               	goto	l2390
  1288  014B                     l2584:
  1289                           
  1290                           ; Switch size 1, requested type "simple"
  1291                           ; Number of cases is 10, Range of values is 0 to 9
  1292                           ; switch strategies available:
  1293                           ; Name         Instructions Cycles
  1294                           ; simple_byte           31    16 (average)
  1295                           ; direct_byte           38     8 (fixed)
  1296                           ; jumptable            260     6 (fixed)
  1297                           ;	Chosen strategy is simple_byte
  1298  014B  085D               	movf	_input,w
  1299  014C  3A00               	xorlw	0	; case 0
  1300  014D  1903               	skipnz
  1301  014E  2941               	goto	l2384
  1302  014F  3A01               	xorlw	1	; case 1
  1303  0150  1903               	skipnz
  1304  0151  2914               	goto	l2366
  1305  0152  3A03               	xorlw	3	; case 2
  1306  0153  1903               	skipnz
  1307  0154  2919               	goto	l2368
  1308  0155  3A01               	xorlw	1	; case 3
  1309  0156  1903               	skipnz
  1310  0157  291E               	goto	l2370
  1311  0158  3A07               	xorlw	7	; case 4
  1312  0159  1903               	skipnz
  1313  015A  2923               	goto	l2372
  1314  015B  3A01               	xorlw	1	; case 5
  1315  015C  1903               	skipnz
  1316  015D  2928               	goto	l2374
  1317  015E  3A03               	xorlw	3	; case 6
  1318  015F  1903               	skipnz
  1319  0160  292D               	goto	l2376
  1320  0161  3A01               	xorlw	1	; case 7
  1321  0162  1903               	skipnz
  1322  0163  2932               	goto	l2378
  1323  0164  3A0F               	xorlw	15	; case 8
  1324  0165  1903               	skipnz
  1325  0166  2937               	goto	l2380
  1326  0167  3A01               	xorlw	1	; case 9
  1327  0168  1903               	skipnz
  1328  0169  293C               	goto	l2382
  1329  016A  296B               	goto	l2390
  1330  016B                     l2390:
  1331                           
  1332                           ;main.c: 426:             LCD_escreve('A');
  1333  016B  3041               	movlw	65
  1334  016C  120A  158A  227C  120A  118A  	fcall	_LCD_escreve
  1335                           
  1336                           ;main.c: 427:             LCD_escreve(':');
  1337  0171  303A               	movlw	58
  1338  0172  120A  158A  227C  120A  118A  	fcall	_LCD_escreve
  1339                           
  1340                           ;main.c: 428:             LCD_escreve(aux);
  1341  0177  1283               	bcf	3,5	;RP0=0, select bank0
  1342  0178  1303               	bcf	3,6	;RP1=0, select bank0
  1343  0179  0868               	movf	_aux,w
  1344  017A  120A  158A  227C  120A  118A  	fcall	_LCD_escreve
  1345  017F                     l2392:
  1346                           
  1347                           ;main.c: 429:             _delay((unsigned long)((3000)*(20000000/4000.0)));
  1348  017F  304D               	movlw	77
  1349  0180  1283               	bcf	3,5	;RP0=0, select bank0
  1350  0181  1303               	bcf	3,6	;RP1=0, select bank0
  1351  0182  00C0               	movwf	??_validaUser+2
  1352  0183  3019               	movlw	25
  1353  0184  00BF               	movwf	??_validaUser+1
  1354  0185  304F               	movlw	79
  1355  0186  00BE               	movwf	??_validaUser
  1356  0187                     u2667:
  1357  0187  0BBE               	decfsz	??_validaUser,f
  1358  0188  2987               	goto	u2667
  1359  0189  0BBF               	decfsz	??_validaUser+1,f
  1360  018A  2987               	goto	u2667
  1361  018B  0BC0               	decfsz	??_validaUser+2,f
  1362  018C  2987               	goto	u2667
  1363  018D                     l2394:
  1364                           
  1365                           ;main.c: 382:         while(n < 8){
  1366  018D  1283               	bcf	3,5	;RP0=0, select bank0
  1367  018E  1303               	bcf	3,6	;RP1=0, select bank0
  1368  018F  0842               	movf	validaUser@n+1,w
  1369  0190  3A80               	xorlw	128
  1370  0191  00FF               	movwf	btemp+1
  1371  0192  3080               	movlw	128
  1372  0193  027F               	subwf	btemp+1,w
  1373  0194  1D03               	skipz
  1374  0195  2998               	goto	u2455
  1375  0196  3008               	movlw	8
  1376  0197  0241               	subwf	validaUser@n,w
  1377  0198                     u2455:
  1378  0198  1C03               	skipc
  1379  0199  299B               	goto	u2451
  1380  019A  299C               	goto	u2450
  1381  019B                     u2451:
  1382  019B  28DE               	goto	l2352
  1383  019C                     u2450:
  1384  019C  298D               	goto	l2394
  1385  019D  0008               	return
  1386  019E                     __end_of_validaUser:
  1387                           
  1388                           	psect	text2
  1389  019E                     __ptext2:	
  1390 ;; *************** function _teclado *****************
  1391 ;; Defined at:
  1392 ;;		line 119 in file "main.c"
  1393 ;; Parameters:    Size  Location     Type
  1394 ;;		None
  1395 ;; Auto vars:     Size  Location     Type
  1396 ;;		None
  1397 ;; Return value:  Size  Location     Type
  1398 ;;                  1    wreg      void 
  1399 ;; Registers used:
  1400 ;;		wreg, status,2, status,0, btemp+1, pclath, cstack
  1401 ;; Tracked objects:
  1402 ;;		On entry : 0/0
  1403 ;;		On exit  : 0/0
  1404 ;;		Unchanged: 0/0
  1405 ;; Data sizes:     COMMON   BANK0   BANK1   BANK3   BANK2
  1406 ;;      Params:         0       0       0       0       0
  1407 ;;      Locals:         0       0       0       0       0
  1408 ;;      Temps:          0       3       0       0       0
  1409 ;;      Totals:         0       3       0       0       0
  1410 ;;Total ram usage:        3 bytes
  1411 ;; Hardware stack levels used: 1
  1412 ;; Hardware stack levels required when called: 3
  1413 ;; This function calls:
  1414 ;;		_LCD_escreve
  1415 ;;		_liga_buzzer
  1416 ;; This function is called by:
  1417 ;;		_main
  1418 ;;		_validaUser
  1419 ;; This function uses a non-reentrant model
  1420 ;;
  1421                           
  1422                           
  1423                           ;psect for function _teclado
  1424  019E                     _teclado:
  1425  019E                     l2142:	
  1426                           ;incstack = 0
  1427                           ; Regs used in _teclado: [wreg+status,2+status,0+btemp+1+pclath+cstack]
  1428                           
  1429                           
  1430                           ;main.c: 121:     PORTE = 0x01;
  1431  019E  3001               	movlw	1
  1432  019F  1283               	bcf	3,5	;RP0=0, select bank0
  1433  01A0  1303               	bcf	3,6	;RP1=0, select bank0
  1434  01A1  0089               	movwf	9	;volatile
  1435                           
  1436                           ;main.c: 125:     PORTB = 0b11101111;
  1437  01A2  30EF               	movlw	239
  1438  01A3  0086               	movwf	6	;volatile
  1439  01A4                     l2144:
  1440                           
  1441                           ;main.c: 129:     if (RB0 == 0){
  1442  01A4  1806               	btfsc	6,0	;volatile
  1443  01A5  29A7               	goto	u2231
  1444  01A6  29A8               	goto	u2230
  1445  01A7                     u2231:
  1446  01A7  29CF               	goto	l2154
  1447  01A8                     u2230:
  1448  01A8                     l2146:
  1449                           
  1450                           ;main.c: 130:         _delay((unsigned long)((200)*(20000000/4000.0)));
  1451  01A8  3006               	movlw	6
  1452  01A9  1283               	bcf	3,5	;RP0=0, select bank0
  1453  01AA  1303               	bcf	3,6	;RP1=0, select bank0
  1454  01AB  00BD               	movwf	??_teclado+2
  1455  01AC  3013               	movlw	19
  1456  01AD  00BC               	movwf	??_teclado+1
  1457  01AE  30AD               	movlw	173
  1458  01AF  00BB               	movwf	??_teclado
  1459  01B0                     u2677:
  1460  01B0  0BBB               	decfsz	??_teclado,f
  1461  01B1  29B0               	goto	u2677
  1462  01B2  0BBC               	decfsz	??_teclado+1,f
  1463  01B3  29B0               	goto	u2677
  1464  01B4  0BBD               	decfsz	??_teclado+2,f
  1465  01B5  29B0               	goto	u2677
  1466  01B6                     l2148:
  1467                           
  1468                           ;main.c: 131:         liga_buzzer(0.1);
  1469  01B6  303D               	movlw	61
  1470  01B7  1283               	bcf	3,5	;RP0=0, select bank0
  1471  01B8  1303               	bcf	3,6	;RP1=0, select bank0
  1472  01B9  00B8               	movwf	liga_buzzer@tempoSegundos+3
  1473  01BA  30CC               	movlw	204
  1474  01BB  00B7               	movwf	liga_buzzer@tempoSegundos+2
  1475  01BC  30CC               	movlw	204
  1476  01BD  00B6               	movwf	liga_buzzer@tempoSegundos+1
  1477  01BE  30CD               	movlw	205
  1478  01BF  00B5               	movwf	liga_buzzer@tempoSegundos
  1479  01C0  120A  158A  24EC  120A  118A  	fcall	_liga_buzzer
  1480  01C5                     l2150:
  1481                           
  1482                           ;main.c: 134:         if(userFalse == 1){
  1483  01C5  3030               	movlw	48
  1484  01C6  120A  158A  227C  120A  118A  	fcall	_LCD_escreve
  1485  01CB                     l2152:
  1486                           
  1487                           ;main.c: 135:             input = 0;
  1488  01CB  1283               	bcf	3,5	;RP0=0, select bank0
  1489  01CC  1303               	bcf	3,6	;RP1=0, select bank0
  1490  01CD  01DD               	clrf	_input
  1491  01CE  01DE               	clrf	_input+1
  1492  01CF                     l2154:
  1493                           
  1494                           ;main.c: 142:     if (RB1 == 0){
  1495  01CF  1886               	btfsc	6,1	;volatile
  1496  01D0  29D2               	goto	u2241
  1497  01D1  29D3               	goto	u2240
  1498  01D2                     u2241:
  1499  01D2  29FC               	goto	l2162
  1500  01D3                     u2240:
  1501  01D3                     l2156:
  1502                           
  1503                           ;main.c: 143:         _delay((unsigned long)((200)*(20000000/4000.0)));
  1504  01D3  3006               	movlw	6
  1505  01D4  1283               	bcf	3,5	;RP0=0, select bank0
  1506  01D5  1303               	bcf	3,6	;RP1=0, select bank0
  1507  01D6  00BD               	movwf	??_teclado+2
  1508  01D7  3013               	movlw	19
  1509  01D8  00BC               	movwf	??_teclado+1
  1510  01D9  30AD               	movlw	173
  1511  01DA  00BB               	movwf	??_teclado
  1512  01DB                     u2687:
  1513  01DB  0BBB               	decfsz	??_teclado,f
  1514  01DC  29DB               	goto	u2687
  1515  01DD  0BBC               	decfsz	??_teclado+1,f
  1516  01DE  29DB               	goto	u2687
  1517  01DF  0BBD               	decfsz	??_teclado+2,f
  1518  01E0  29DB               	goto	u2687
  1519  01E1                     l2158:
  1520                           
  1521                           ;main.c: 144:         liga_buzzer(0.1);
  1522  01E1  303D               	movlw	61
  1523  01E2  1283               	bcf	3,5	;RP0=0, select bank0
  1524  01E3  1303               	bcf	3,6	;RP1=0, select bank0
  1525  01E4  00B8               	movwf	liga_buzzer@tempoSegundos+3
  1526  01E5  30CC               	movlw	204
  1527  01E6  00B7               	movwf	liga_buzzer@tempoSegundos+2
  1528  01E7  30CC               	movlw	204
  1529  01E8  00B6               	movwf	liga_buzzer@tempoSegundos+1
  1530  01E9  30CD               	movlw	205
  1531  01EA  00B5               	movwf	liga_buzzer@tempoSegundos
  1532  01EB  120A  158A  24EC  120A  118A  	fcall	_liga_buzzer
  1533  01F0                     l2160:
  1534                           
  1535                           ;main.c: 147:         if(userFalse == 1){
  1536  01F0  3031               	movlw	49
  1537  01F1  120A  158A  227C  120A  118A  	fcall	_LCD_escreve
  1538                           
  1539                           ;main.c: 148:             input = 1;
  1540  01F6  3001               	movlw	1
  1541  01F7  1283               	bcf	3,5	;RP0=0, select bank0
  1542  01F8  1303               	bcf	3,6	;RP1=0, select bank0
  1543  01F9  00DD               	movwf	_input
  1544  01FA  3000               	movlw	0
  1545  01FB  00DE               	movwf	_input+1
  1546  01FC                     l2162:
  1547                           
  1548                           ;main.c: 156:     if (RB2 == 0){
  1549  01FC  1906               	btfsc	6,2	;volatile
  1550  01FD  29FF               	goto	u2251
  1551  01FE  2A00               	goto	u2250
  1552  01FF                     u2251:
  1553  01FF  2A29               	goto	l2170
  1554  0200                     u2250:
  1555  0200                     l2164:
  1556                           
  1557                           ;main.c: 157:         _delay((unsigned long)((200)*(20000000/4000.0)));
  1558  0200  3006               	movlw	6
  1559  0201  1283               	bcf	3,5	;RP0=0, select bank0
  1560  0202  1303               	bcf	3,6	;RP1=0, select bank0
  1561  0203  00BD               	movwf	??_teclado+2
  1562  0204  3013               	movlw	19
  1563  0205  00BC               	movwf	??_teclado+1
  1564  0206  30AD               	movlw	173
  1565  0207  00BB               	movwf	??_teclado
  1566  0208                     u2697:
  1567  0208  0BBB               	decfsz	??_teclado,f
  1568  0209  2A08               	goto	u2697
  1569  020A  0BBC               	decfsz	??_teclado+1,f
  1570  020B  2A08               	goto	u2697
  1571  020C  0BBD               	decfsz	??_teclado+2,f
  1572  020D  2A08               	goto	u2697
  1573  020E                     l2166:
  1574                           
  1575                           ;main.c: 158:         liga_buzzer(0.1);
  1576  020E  303D               	movlw	61
  1577  020F  1283               	bcf	3,5	;RP0=0, select bank0
  1578  0210  1303               	bcf	3,6	;RP1=0, select bank0
  1579  0211  00B8               	movwf	liga_buzzer@tempoSegundos+3
  1580  0212  30CC               	movlw	204
  1581  0213  00B7               	movwf	liga_buzzer@tempoSegundos+2
  1582  0214  30CC               	movlw	204
  1583  0215  00B6               	movwf	liga_buzzer@tempoSegundos+1
  1584  0216  30CD               	movlw	205
  1585  0217  00B5               	movwf	liga_buzzer@tempoSegundos
  1586  0218  120A  158A  24EC  120A  118A  	fcall	_liga_buzzer
  1587  021D                     l2168:
  1588                           
  1589                           ;main.c: 161:         if(userFalse == 1){
  1590  021D  3032               	movlw	50
  1591  021E  120A  158A  227C  120A  118A  	fcall	_LCD_escreve
  1592                           
  1593                           ;main.c: 162:             input = 2;
  1594  0223  3002               	movlw	2
  1595  0224  1283               	bcf	3,5	;RP0=0, select bank0
  1596  0225  1303               	bcf	3,6	;RP1=0, select bank0
  1597  0226  00DD               	movwf	_input
  1598  0227  3000               	movlw	0
  1599  0228  00DE               	movwf	_input+1
  1600  0229                     l2170:
  1601                           
  1602                           ;main.c: 169:     if (RB3 == 0){
  1603  0229  1986               	btfsc	6,3	;volatile
  1604  022A  2A2C               	goto	u2261
  1605  022B  2A2D               	goto	u2260
  1606  022C                     u2261:
  1607  022C  2A56               	goto	l165
  1608  022D                     u2260:
  1609  022D                     l2172:
  1610                           
  1611                           ;main.c: 170:         _delay((unsigned long)((200)*(20000000/4000.0)));
  1612  022D  3006               	movlw	6
  1613  022E  1283               	bcf	3,5	;RP0=0, select bank0
  1614  022F  1303               	bcf	3,6	;RP1=0, select bank0
  1615  0230  00BD               	movwf	??_teclado+2
  1616  0231  3013               	movlw	19
  1617  0232  00BC               	movwf	??_teclado+1
  1618  0233  30AD               	movlw	173
  1619  0234  00BB               	movwf	??_teclado
  1620  0235                     u2707:
  1621  0235  0BBB               	decfsz	??_teclado,f
  1622  0236  2A35               	goto	u2707
  1623  0237  0BBC               	decfsz	??_teclado+1,f
  1624  0238  2A35               	goto	u2707
  1625  0239  0BBD               	decfsz	??_teclado+2,f
  1626  023A  2A35               	goto	u2707
  1627  023B                     l2174:
  1628                           
  1629                           ;main.c: 171:         liga_buzzer(0.1);
  1630  023B  303D               	movlw	61
  1631  023C  1283               	bcf	3,5	;RP0=0, select bank0
  1632  023D  1303               	bcf	3,6	;RP1=0, select bank0
  1633  023E  00B8               	movwf	liga_buzzer@tempoSegundos+3
  1634  023F  30CC               	movlw	204
  1635  0240  00B7               	movwf	liga_buzzer@tempoSegundos+2
  1636  0241  30CC               	movlw	204
  1637  0242  00B6               	movwf	liga_buzzer@tempoSegundos+1
  1638  0243  30CD               	movlw	205
  1639  0244  00B5               	movwf	liga_buzzer@tempoSegundos
  1640  0245  120A  158A  24EC  120A  118A  	fcall	_liga_buzzer
  1641  024A                     l2176:
  1642                           
  1643                           ;main.c: 174:         if(userFalse == 1){
  1644  024A  3033               	movlw	51
  1645  024B  120A  158A  227C  120A  118A  	fcall	_LCD_escreve
  1646                           
  1647                           ;main.c: 175:             input = 3;
  1648  0250  3003               	movlw	3
  1649  0251  1283               	bcf	3,5	;RP0=0, select bank0
  1650  0252  1303               	bcf	3,6	;RP1=0, select bank0
  1651  0253  00DD               	movwf	_input
  1652  0254  3000               	movlw	0
  1653  0255  00DE               	movwf	_input+1
  1654  0256                     l165:	
  1655                           ;main.c: 178:     }
  1656                           
  1657                           
  1658                           ;main.c: 183:     PORTB = 0b11011111;
  1659  0256  30DF               	movlw	223
  1660  0257  0086               	movwf	6	;volatile
  1661  0258                     l2178:
  1662                           
  1663                           ;main.c: 188:     if (RB0 == 0){
  1664  0258  1806               	btfsc	6,0	;volatile
  1665  0259  2A5B               	goto	u2271
  1666  025A  2A5C               	goto	u2270
  1667  025B                     u2271:
  1668  025B  2A85               	goto	l2186
  1669  025C                     u2270:
  1670  025C                     l2180:
  1671                           
  1672                           ;main.c: 189:         _delay((unsigned long)((200)*(20000000/4000.0)));
  1673  025C  3006               	movlw	6
  1674  025D  1283               	bcf	3,5	;RP0=0, select bank0
  1675  025E  1303               	bcf	3,6	;RP1=0, select bank0
  1676  025F  00BD               	movwf	??_teclado+2
  1677  0260  3013               	movlw	19
  1678  0261  00BC               	movwf	??_teclado+1
  1679  0262  30AD               	movlw	173
  1680  0263  00BB               	movwf	??_teclado
  1681  0264                     u2717:
  1682  0264  0BBB               	decfsz	??_teclado,f
  1683  0265  2A64               	goto	u2717
  1684  0266  0BBC               	decfsz	??_teclado+1,f
  1685  0267  2A64               	goto	u2717
  1686  0268  0BBD               	decfsz	??_teclado+2,f
  1687  0269  2A64               	goto	u2717
  1688  026A                     l2182:
  1689                           
  1690                           ;main.c: 190:         liga_buzzer(0.1);
  1691  026A  303D               	movlw	61
  1692  026B  1283               	bcf	3,5	;RP0=0, select bank0
  1693  026C  1303               	bcf	3,6	;RP1=0, select bank0
  1694  026D  00B8               	movwf	liga_buzzer@tempoSegundos+3
  1695  026E  30CC               	movlw	204
  1696  026F  00B7               	movwf	liga_buzzer@tempoSegundos+2
  1697  0270  30CC               	movlw	204
  1698  0271  00B6               	movwf	liga_buzzer@tempoSegundos+1
  1699  0272  30CD               	movlw	205
  1700  0273  00B5               	movwf	liga_buzzer@tempoSegundos
  1701  0274  120A  158A  24EC  120A  118A  	fcall	_liga_buzzer
  1702  0279                     l2184:
  1703                           
  1704                           ;main.c: 193:         if(userFalse == 1){
  1705  0279  3034               	movlw	52
  1706  027A  120A  158A  227C  120A  118A  	fcall	_LCD_escreve
  1707                           
  1708                           ;main.c: 194:             input = 4;
  1709  027F  3004               	movlw	4
  1710  0280  1283               	bcf	3,5	;RP0=0, select bank0
  1711  0281  1303               	bcf	3,6	;RP1=0, select bank0
  1712  0282  00DD               	movwf	_input
  1713  0283  3000               	movlw	0
  1714  0284  00DE               	movwf	_input+1
  1715  0285                     l2186:
  1716                           
  1717                           ;main.c: 201:     if (RB1 == 0){
  1718  0285  1886               	btfsc	6,1	;volatile
  1719  0286  2A88               	goto	u2281
  1720  0287  2A89               	goto	u2280
  1721  0288                     u2281:
  1722  0288  2AB2               	goto	l2194
  1723  0289                     u2280:
  1724  0289                     l2188:
  1725                           
  1726                           ;main.c: 202:         _delay((unsigned long)((200)*(20000000/4000.0)));
  1727  0289  3006               	movlw	6
  1728  028A  1283               	bcf	3,5	;RP0=0, select bank0
  1729  028B  1303               	bcf	3,6	;RP1=0, select bank0
  1730  028C  00BD               	movwf	??_teclado+2
  1731  028D  3013               	movlw	19
  1732  028E  00BC               	movwf	??_teclado+1
  1733  028F  30AD               	movlw	173
  1734  0290  00BB               	movwf	??_teclado
  1735  0291                     u2727:
  1736  0291  0BBB               	decfsz	??_teclado,f
  1737  0292  2A91               	goto	u2727
  1738  0293  0BBC               	decfsz	??_teclado+1,f
  1739  0294  2A91               	goto	u2727
  1740  0295  0BBD               	decfsz	??_teclado+2,f
  1741  0296  2A91               	goto	u2727
  1742  0297                     l2190:
  1743                           
  1744                           ;main.c: 203:         liga_buzzer(0.1);
  1745  0297  303D               	movlw	61
  1746  0298  1283               	bcf	3,5	;RP0=0, select bank0
  1747  0299  1303               	bcf	3,6	;RP1=0, select bank0
  1748  029A  00B8               	movwf	liga_buzzer@tempoSegundos+3
  1749  029B  30CC               	movlw	204
  1750  029C  00B7               	movwf	liga_buzzer@tempoSegundos+2
  1751  029D  30CC               	movlw	204
  1752  029E  00B6               	movwf	liga_buzzer@tempoSegundos+1
  1753  029F  30CD               	movlw	205
  1754  02A0  00B5               	movwf	liga_buzzer@tempoSegundos
  1755  02A1  120A  158A  24EC  120A  118A  	fcall	_liga_buzzer
  1756  02A6                     l2192:
  1757                           
  1758                           ;main.c: 206:         if(userFalse == 1){
  1759  02A6  3035               	movlw	53
  1760  02A7  120A  158A  227C  120A  118A  	fcall	_LCD_escreve
  1761                           
  1762                           ;main.c: 207:             input = 5;
  1763  02AC  3005               	movlw	5
  1764  02AD  1283               	bcf	3,5	;RP0=0, select bank0
  1765  02AE  1303               	bcf	3,6	;RP1=0, select bank0
  1766  02AF  00DD               	movwf	_input
  1767  02B0  3000               	movlw	0
  1768  02B1  00DE               	movwf	_input+1
  1769  02B2                     l2194:
  1770                           
  1771                           ;main.c: 215:     if (RB2 == 0){
  1772  02B2  1906               	btfsc	6,2	;volatile
  1773  02B3  2AB5               	goto	u2291
  1774  02B4  2AB6               	goto	u2290
  1775  02B5                     u2291:
  1776  02B5  2ADF               	goto	l2202
  1777  02B6                     u2290:
  1778  02B6                     l2196:
  1779                           
  1780                           ;main.c: 216:         _delay((unsigned long)((200)*(20000000/4000.0)));
  1781  02B6  3006               	movlw	6
  1782  02B7  1283               	bcf	3,5	;RP0=0, select bank0
  1783  02B8  1303               	bcf	3,6	;RP1=0, select bank0
  1784  02B9  00BD               	movwf	??_teclado+2
  1785  02BA  3013               	movlw	19
  1786  02BB  00BC               	movwf	??_teclado+1
  1787  02BC  30AD               	movlw	173
  1788  02BD  00BB               	movwf	??_teclado
  1789  02BE                     u2737:
  1790  02BE  0BBB               	decfsz	??_teclado,f
  1791  02BF  2ABE               	goto	u2737
  1792  02C0  0BBC               	decfsz	??_teclado+1,f
  1793  02C1  2ABE               	goto	u2737
  1794  02C2  0BBD               	decfsz	??_teclado+2,f
  1795  02C3  2ABE               	goto	u2737
  1796  02C4                     l2198:
  1797                           
  1798                           ;main.c: 217:         liga_buzzer(0.1);
  1799  02C4  303D               	movlw	61
  1800  02C5  1283               	bcf	3,5	;RP0=0, select bank0
  1801  02C6  1303               	bcf	3,6	;RP1=0, select bank0
  1802  02C7  00B8               	movwf	liga_buzzer@tempoSegundos+3
  1803  02C8  30CC               	movlw	204
  1804  02C9  00B7               	movwf	liga_buzzer@tempoSegundos+2
  1805  02CA  30CC               	movlw	204
  1806  02CB  00B6               	movwf	liga_buzzer@tempoSegundos+1
  1807  02CC  30CD               	movlw	205
  1808  02CD  00B5               	movwf	liga_buzzer@tempoSegundos
  1809  02CE  120A  158A  24EC  120A  118A  	fcall	_liga_buzzer
  1810  02D3                     l2200:
  1811                           
  1812                           ;main.c: 220:         if(userFalse == 1){
  1813  02D3  3036               	movlw	54
  1814  02D4  120A  158A  227C  120A  118A  	fcall	_LCD_escreve
  1815                           
  1816                           ;main.c: 221:             input = 6;
  1817  02D9  3006               	movlw	6
  1818  02DA  1283               	bcf	3,5	;RP0=0, select bank0
  1819  02DB  1303               	bcf	3,6	;RP1=0, select bank0
  1820  02DC  00DD               	movwf	_input
  1821  02DD  3000               	movlw	0
  1822  02DE  00DE               	movwf	_input+1
  1823  02DF                     l2202:
  1824                           
  1825                           ;main.c: 228:     if (RB3 == 0){
  1826  02DF  1986               	btfsc	6,3	;volatile
  1827  02E0  2AE2               	goto	u2301
  1828  02E1  2AE3               	goto	u2300
  1829  02E2                     u2301:
  1830  02E2  2B0C               	goto	l173
  1831  02E3                     u2300:
  1832  02E3                     l2204:
  1833                           
  1834                           ;main.c: 229:         _delay((unsigned long)((200)*(20000000/4000.0)));
  1835  02E3  3006               	movlw	6
  1836  02E4  1283               	bcf	3,5	;RP0=0, select bank0
  1837  02E5  1303               	bcf	3,6	;RP1=0, select bank0
  1838  02E6  00BD               	movwf	??_teclado+2
  1839  02E7  3013               	movlw	19
  1840  02E8  00BC               	movwf	??_teclado+1
  1841  02E9  30AD               	movlw	173
  1842  02EA  00BB               	movwf	??_teclado
  1843  02EB                     u2747:
  1844  02EB  0BBB               	decfsz	??_teclado,f
  1845  02EC  2AEB               	goto	u2747
  1846  02ED  0BBC               	decfsz	??_teclado+1,f
  1847  02EE  2AEB               	goto	u2747
  1848  02EF  0BBD               	decfsz	??_teclado+2,f
  1849  02F0  2AEB               	goto	u2747
  1850  02F1                     l2206:
  1851                           
  1852                           ;main.c: 230:         liga_buzzer(0.1);
  1853  02F1  303D               	movlw	61
  1854  02F2  1283               	bcf	3,5	;RP0=0, select bank0
  1855  02F3  1303               	bcf	3,6	;RP1=0, select bank0
  1856  02F4  00B8               	movwf	liga_buzzer@tempoSegundos+3
  1857  02F5  30CC               	movlw	204
  1858  02F6  00B7               	movwf	liga_buzzer@tempoSegundos+2
  1859  02F7  30CC               	movlw	204
  1860  02F8  00B6               	movwf	liga_buzzer@tempoSegundos+1
  1861  02F9  30CD               	movlw	205
  1862  02FA  00B5               	movwf	liga_buzzer@tempoSegundos
  1863  02FB  120A  158A  24EC  120A  118A  	fcall	_liga_buzzer
  1864  0300                     l2208:
  1865                           
  1866                           ;main.c: 233:         if(userFalse == 1){
  1867  0300  3037               	movlw	55
  1868  0301  120A  158A  227C  120A  118A  	fcall	_LCD_escreve
  1869                           
  1870                           ;main.c: 234:             input = 7;
  1871  0306  3007               	movlw	7
  1872  0307  1283               	bcf	3,5	;RP0=0, select bank0
  1873  0308  1303               	bcf	3,6	;RP1=0, select bank0
  1874  0309  00DD               	movwf	_input
  1875  030A  3000               	movlw	0
  1876  030B  00DE               	movwf	_input+1
  1877  030C                     l173:	
  1878                           ;main.c: 237:     }
  1879                           
  1880                           
  1881                           ;main.c: 242:     PORTB = 0b10111111;
  1882  030C  30BF               	movlw	191
  1883  030D  0086               	movwf	6	;volatile
  1884  030E                     l2210:
  1885                           
  1886                           ;main.c: 247:     if (RB0 == 0){
  1887  030E  1806               	btfsc	6,0	;volatile
  1888  030F  2B11               	goto	u2311
  1889  0310  2B12               	goto	u2310
  1890  0311                     u2311:
  1891  0311  2B3B               	goto	l2218
  1892  0312                     u2310:
  1893  0312                     l2212:
  1894                           
  1895                           ;main.c: 248:         _delay((unsigned long)((200)*(20000000/4000.0)));
  1896  0312  3006               	movlw	6
  1897  0313  1283               	bcf	3,5	;RP0=0, select bank0
  1898  0314  1303               	bcf	3,6	;RP1=0, select bank0
  1899  0315  00BD               	movwf	??_teclado+2
  1900  0316  3013               	movlw	19
  1901  0317  00BC               	movwf	??_teclado+1
  1902  0318  30AD               	movlw	173
  1903  0319  00BB               	movwf	??_teclado
  1904  031A                     u2757:
  1905  031A  0BBB               	decfsz	??_teclado,f
  1906  031B  2B1A               	goto	u2757
  1907  031C  0BBC               	decfsz	??_teclado+1,f
  1908  031D  2B1A               	goto	u2757
  1909  031E  0BBD               	decfsz	??_teclado+2,f
  1910  031F  2B1A               	goto	u2757
  1911  0320                     l2214:
  1912                           
  1913                           ;main.c: 249:         liga_buzzer(0.1);
  1914  0320  303D               	movlw	61
  1915  0321  1283               	bcf	3,5	;RP0=0, select bank0
  1916  0322  1303               	bcf	3,6	;RP1=0, select bank0
  1917  0323  00B8               	movwf	liga_buzzer@tempoSegundos+3
  1918  0324  30CC               	movlw	204
  1919  0325  00B7               	movwf	liga_buzzer@tempoSegundos+2
  1920  0326  30CC               	movlw	204
  1921  0327  00B6               	movwf	liga_buzzer@tempoSegundos+1
  1922  0328  30CD               	movlw	205
  1923  0329  00B5               	movwf	liga_buzzer@tempoSegundos
  1924  032A  120A  158A  24EC  120A  118A  	fcall	_liga_buzzer
  1925  032F                     l2216:
  1926                           
  1927                           ;main.c: 252:         if(userFalse == 1){
  1928  032F  3038               	movlw	56
  1929  0330  120A  158A  227C  120A  118A  	fcall	_LCD_escreve
  1930                           
  1931                           ;main.c: 253:             input = 8;
  1932  0335  3008               	movlw	8
  1933  0336  1283               	bcf	3,5	;RP0=0, select bank0
  1934  0337  1303               	bcf	3,6	;RP1=0, select bank0
  1935  0338  00DD               	movwf	_input
  1936  0339  3000               	movlw	0
  1937  033A  00DE               	movwf	_input+1
  1938  033B                     l2218:
  1939                           
  1940                           ;main.c: 261:     if (RB1 == 0){
  1941  033B  1886               	btfsc	6,1	;volatile
  1942  033C  2B3E               	goto	u2321
  1943  033D  2B3F               	goto	u2320
  1944  033E                     u2321:
  1945  033E  2B68               	goto	l2226
  1946  033F                     u2320:
  1947  033F                     l2220:
  1948                           
  1949                           ;main.c: 262:         _delay((unsigned long)((200)*(20000000/4000.0)));
  1950  033F  3006               	movlw	6
  1951  0340  1283               	bcf	3,5	;RP0=0, select bank0
  1952  0341  1303               	bcf	3,6	;RP1=0, select bank0
  1953  0342  00BD               	movwf	??_teclado+2
  1954  0343  3013               	movlw	19
  1955  0344  00BC               	movwf	??_teclado+1
  1956  0345  30AD               	movlw	173
  1957  0346  00BB               	movwf	??_teclado
  1958  0347                     u2767:
  1959  0347  0BBB               	decfsz	??_teclado,f
  1960  0348  2B47               	goto	u2767
  1961  0349  0BBC               	decfsz	??_teclado+1,f
  1962  034A  2B47               	goto	u2767
  1963  034B  0BBD               	decfsz	??_teclado+2,f
  1964  034C  2B47               	goto	u2767
  1965  034D                     l2222:
  1966                           
  1967                           ;main.c: 263:         liga_buzzer(0.1);
  1968  034D  303D               	movlw	61
  1969  034E  1283               	bcf	3,5	;RP0=0, select bank0
  1970  034F  1303               	bcf	3,6	;RP1=0, select bank0
  1971  0350  00B8               	movwf	liga_buzzer@tempoSegundos+3
  1972  0351  30CC               	movlw	204
  1973  0352  00B7               	movwf	liga_buzzer@tempoSegundos+2
  1974  0353  30CC               	movlw	204
  1975  0354  00B6               	movwf	liga_buzzer@tempoSegundos+1
  1976  0355  30CD               	movlw	205
  1977  0356  00B5               	movwf	liga_buzzer@tempoSegundos
  1978  0357  120A  158A  24EC  120A  118A  	fcall	_liga_buzzer
  1979  035C                     l2224:
  1980                           
  1981                           ;main.c: 266:         if(userFalse == 1){
  1982  035C  3039               	movlw	57
  1983  035D  120A  158A  227C  120A  118A  	fcall	_LCD_escreve
  1984                           
  1985                           ;main.c: 267:             input = 9;
  1986  0362  3009               	movlw	9
  1987  0363  1283               	bcf	3,5	;RP0=0, select bank0
  1988  0364  1303               	bcf	3,6	;RP1=0, select bank0
  1989  0365  00DD               	movwf	_input
  1990  0366  3000               	movlw	0
  1991  0367  00DE               	movwf	_input+1
  1992  0368                     l2226:
  1993                           
  1994                           ;main.c: 275:     if (RB2 == 0){
  1995  0368  1906               	btfsc	6,2	;volatile
  1996  0369  2B6B               	goto	u2331
  1997  036A  2B6C               	goto	u2330
  1998  036B                     u2331:
  1999  036B  2B8F               	goto	l2234
  2000  036C                     u2330:
  2001  036C                     l2228:
  2002                           
  2003                           ;main.c: 276:         _delay((unsigned long)((200)*(20000000/4000.0)));
  2004  036C  3006               	movlw	6
  2005  036D  1283               	bcf	3,5	;RP0=0, select bank0
  2006  036E  1303               	bcf	3,6	;RP1=0, select bank0
  2007  036F  00BD               	movwf	??_teclado+2
  2008  0370  3013               	movlw	19
  2009  0371  00BC               	movwf	??_teclado+1
  2010  0372  30AD               	movlw	173
  2011  0373  00BB               	movwf	??_teclado
  2012  0374                     u2777:
  2013  0374  0BBB               	decfsz	??_teclado,f
  2014  0375  2B74               	goto	u2777
  2015  0376  0BBC               	decfsz	??_teclado+1,f
  2016  0377  2B74               	goto	u2777
  2017  0378  0BBD               	decfsz	??_teclado+2,f
  2018  0379  2B74               	goto	u2777
  2019  037A                     l2230:
  2020                           
  2021                           ;main.c: 277:         liga_buzzer(0.1);
  2022  037A  303D               	movlw	61
  2023  037B  1283               	bcf	3,5	;RP0=0, select bank0
  2024  037C  1303               	bcf	3,6	;RP1=0, select bank0
  2025  037D  00B8               	movwf	liga_buzzer@tempoSegundos+3
  2026  037E  30CC               	movlw	204
  2027  037F  00B7               	movwf	liga_buzzer@tempoSegundos+2
  2028  0380  30CC               	movlw	204
  2029  0381  00B6               	movwf	liga_buzzer@tempoSegundos+1
  2030  0382  30CD               	movlw	205
  2031  0383  00B5               	movwf	liga_buzzer@tempoSegundos
  2032  0384  120A  158A  24EC  120A  118A  	fcall	_liga_buzzer
  2033  0389                     l2232:
  2034                           
  2035                           ;main.c: 278:         LCD_escreve('A');
  2036  0389  3041               	movlw	65
  2037  038A  120A  158A  227C  120A  118A  	fcall	_LCD_escreve
  2038  038F                     l2234:
  2039                           
  2040                           ;main.c: 285:     if (RB3 == 0){
  2041  038F  1283               	bcf	3,5	;RP0=0, select bank0
  2042  0390  1303               	bcf	3,6	;RP1=0, select bank0
  2043  0391  1986               	btfsc	6,3	;volatile
  2044  0392  2B94               	goto	u2341
  2045  0393  2B95               	goto	u2340
  2046  0394                     u2341:
  2047  0394  2BB8               	goto	l180
  2048  0395                     u2340:
  2049  0395                     l2236:
  2050                           
  2051                           ;main.c: 286:         _delay((unsigned long)((200)*(20000000/4000.0)));
  2052  0395  3006               	movlw	6
  2053  0396  1283               	bcf	3,5	;RP0=0, select bank0
  2054  0397  1303               	bcf	3,6	;RP1=0, select bank0
  2055  0398  00BD               	movwf	??_teclado+2
  2056  0399  3013               	movlw	19
  2057  039A  00BC               	movwf	??_teclado+1
  2058  039B  30AD               	movlw	173
  2059  039C  00BB               	movwf	??_teclado
  2060  039D                     u2787:
  2061  039D  0BBB               	decfsz	??_teclado,f
  2062  039E  2B9D               	goto	u2787
  2063  039F  0BBC               	decfsz	??_teclado+1,f
  2064  03A0  2B9D               	goto	u2787
  2065  03A1  0BBD               	decfsz	??_teclado+2,f
  2066  03A2  2B9D               	goto	u2787
  2067  03A3                     l2238:
  2068                           
  2069                           ;main.c: 287:         liga_buzzer(0.1);
  2070  03A3  303D               	movlw	61
  2071  03A4  1283               	bcf	3,5	;RP0=0, select bank0
  2072  03A5  1303               	bcf	3,6	;RP1=0, select bank0
  2073  03A6  00B8               	movwf	liga_buzzer@tempoSegundos+3
  2074  03A7  30CC               	movlw	204
  2075  03A8  00B7               	movwf	liga_buzzer@tempoSegundos+2
  2076  03A9  30CC               	movlw	204
  2077  03AA  00B6               	movwf	liga_buzzer@tempoSegundos+1
  2078  03AB  30CD               	movlw	205
  2079  03AC  00B5               	movwf	liga_buzzer@tempoSegundos
  2080  03AD  120A  158A  24EC  120A  118A  	fcall	_liga_buzzer
  2081  03B2                     l2240:
  2082                           
  2083                           ;main.c: 288:         LCD_escreve('B');
  2084  03B2  3042               	movlw	66
  2085  03B3  120A  158A  227C  120A  118A  	fcall	_LCD_escreve
  2086  03B8                     l180:	
  2087                           ;main.c: 290:     }
  2088                           
  2089                           
  2090                           ;main.c: 295:     PORTB = 0b01111111;
  2091  03B8  307F               	movlw	127
  2092  03B9  1283               	bcf	3,5	;RP0=0, select bank0
  2093  03BA  1303               	bcf	3,6	;RP1=0, select bank0
  2094  03BB  0086               	movwf	6	;volatile
  2095  03BC                     l2242:
  2096                           
  2097                           ;main.c: 300:     if (RB0 == 0){
  2098  03BC  1806               	btfsc	6,0	;volatile
  2099  03BD  2BBF               	goto	u2351
  2100  03BE  2BC0               	goto	u2350
  2101  03BF                     u2351:
  2102  03BF  2BE3               	goto	l2250
  2103  03C0                     u2350:
  2104  03C0                     l2244:
  2105                           
  2106                           ;main.c: 301:         _delay((unsigned long)((200)*(20000000/4000.0)));
  2107  03C0  3006               	movlw	6
  2108  03C1  1283               	bcf	3,5	;RP0=0, select bank0
  2109  03C2  1303               	bcf	3,6	;RP1=0, select bank0
  2110  03C3  00BD               	movwf	??_teclado+2
  2111  03C4  3013               	movlw	19
  2112  03C5  00BC               	movwf	??_teclado+1
  2113  03C6  30AD               	movlw	173
  2114  03C7  00BB               	movwf	??_teclado
  2115  03C8                     u2797:
  2116  03C8  0BBB               	decfsz	??_teclado,f
  2117  03C9  2BC8               	goto	u2797
  2118  03CA  0BBC               	decfsz	??_teclado+1,f
  2119  03CB  2BC8               	goto	u2797
  2120  03CC  0BBD               	decfsz	??_teclado+2,f
  2121  03CD  2BC8               	goto	u2797
  2122  03CE                     l2246:
  2123                           
  2124                           ;main.c: 302:         liga_buzzer(0.1);
  2125  03CE  303D               	movlw	61
  2126  03CF  1283               	bcf	3,5	;RP0=0, select bank0
  2127  03D0  1303               	bcf	3,6	;RP1=0, select bank0
  2128  03D1  00B8               	movwf	liga_buzzer@tempoSegundos+3
  2129  03D2  30CC               	movlw	204
  2130  03D3  00B7               	movwf	liga_buzzer@tempoSegundos+2
  2131  03D4  30CC               	movlw	204
  2132  03D5  00B6               	movwf	liga_buzzer@tempoSegundos+1
  2133  03D6  30CD               	movlw	205
  2134  03D7  00B5               	movwf	liga_buzzer@tempoSegundos
  2135  03D8  120A  158A  24EC  120A  118A  	fcall	_liga_buzzer
  2136  03DD                     l2248:
  2137                           
  2138                           ;main.c: 303:         LCD_escreve('C');
  2139  03DD  3043               	movlw	67
  2140  03DE  120A  158A  227C  120A  118A  	fcall	_LCD_escreve
  2141  03E3                     l2250:
  2142                           
  2143                           ;main.c: 310:     if (RB1 == 0){
  2144  03E3  1283               	bcf	3,5	;RP0=0, select bank0
  2145  03E4  1303               	bcf	3,6	;RP1=0, select bank0
  2146  03E5  1886               	btfsc	6,1	;volatile
  2147  03E6  2BE8               	goto	u2361
  2148  03E7  2BE9               	goto	u2360
  2149  03E8                     u2361:
  2150  03E8  2C0C               	goto	l2258
  2151  03E9                     u2360:
  2152  03E9                     l2252:
  2153                           
  2154                           ;main.c: 311:         _delay((unsigned long)((200)*(20000000/4000.0)));
  2155  03E9  3006               	movlw	6
  2156  03EA  1283               	bcf	3,5	;RP0=0, select bank0
  2157  03EB  1303               	bcf	3,6	;RP1=0, select bank0
  2158  03EC  00BD               	movwf	??_teclado+2
  2159  03ED  3013               	movlw	19
  2160  03EE  00BC               	movwf	??_teclado+1
  2161  03EF  30AD               	movlw	173
  2162  03F0  00BB               	movwf	??_teclado
  2163  03F1                     u2807:
  2164  03F1  0BBB               	decfsz	??_teclado,f
  2165  03F2  2BF1               	goto	u2807
  2166  03F3  0BBC               	decfsz	??_teclado+1,f
  2167  03F4  2BF1               	goto	u2807
  2168  03F5  0BBD               	decfsz	??_teclado+2,f
  2169  03F6  2BF1               	goto	u2807
  2170  03F7                     l2254:
  2171                           
  2172                           ;main.c: 312:         liga_buzzer(0.1);
  2173  03F7  303D               	movlw	61
  2174  03F8  1283               	bcf	3,5	;RP0=0, select bank0
  2175  03F9  1303               	bcf	3,6	;RP1=0, select bank0
  2176  03FA  00B8               	movwf	liga_buzzer@tempoSegundos+3
  2177  03FB  30CC               	movlw	204
  2178  03FC  00B7               	movwf	liga_buzzer@tempoSegundos+2
  2179  03FD  30CC               	movlw	204
  2180  03FE  00B6               	movwf	liga_buzzer@tempoSegundos+1
  2181  03FF  30CD               	movlw	205
  2182  0400  00B5               	movwf	liga_buzzer@tempoSegundos
  2183  0401  120A  158A  24EC  120A  118A  	fcall	_liga_buzzer
  2184  0406                     l2256:
  2185                           
  2186                           ;main.c: 313:         LCD_escreve('D');
  2187  0406  3044               	movlw	68
  2188  0407  120A  158A  227C  120A  118A  	fcall	_LCD_escreve
  2189  040C                     l2258:
  2190                           
  2191                           ;main.c: 320:     if (RB2 == 0){
  2192  040C  1283               	bcf	3,5	;RP0=0, select bank0
  2193  040D  1303               	bcf	3,6	;RP1=0, select bank0
  2194  040E  1906               	btfsc	6,2	;volatile
  2195  040F  2C11               	goto	u2371
  2196  0410  2C12               	goto	u2370
  2197  0411                     u2371:
  2198  0411  2C35               	goto	l2266
  2199  0412                     u2370:
  2200  0412                     l2260:
  2201                           
  2202                           ;main.c: 321:         _delay((unsigned long)((200)*(20000000/4000.0)));
  2203  0412  3006               	movlw	6
  2204  0413  1283               	bcf	3,5	;RP0=0, select bank0
  2205  0414  1303               	bcf	3,6	;RP1=0, select bank0
  2206  0415  00BD               	movwf	??_teclado+2
  2207  0416  3013               	movlw	19
  2208  0417  00BC               	movwf	??_teclado+1
  2209  0418  30AD               	movlw	173
  2210  0419  00BB               	movwf	??_teclado
  2211  041A                     u2817:
  2212  041A  0BBB               	decfsz	??_teclado,f
  2213  041B  2C1A               	goto	u2817
  2214  041C  0BBC               	decfsz	??_teclado+1,f
  2215  041D  2C1A               	goto	u2817
  2216  041E  0BBD               	decfsz	??_teclado+2,f
  2217  041F  2C1A               	goto	u2817
  2218  0420                     l2262:
  2219                           
  2220                           ;main.c: 322:         liga_buzzer(0.1);
  2221  0420  303D               	movlw	61
  2222  0421  1283               	bcf	3,5	;RP0=0, select bank0
  2223  0422  1303               	bcf	3,6	;RP1=0, select bank0
  2224  0423  00B8               	movwf	liga_buzzer@tempoSegundos+3
  2225  0424  30CC               	movlw	204
  2226  0425  00B7               	movwf	liga_buzzer@tempoSegundos+2
  2227  0426  30CC               	movlw	204
  2228  0427  00B6               	movwf	liga_buzzer@tempoSegundos+1
  2229  0428  30CD               	movlw	205
  2230  0429  00B5               	movwf	liga_buzzer@tempoSegundos
  2231  042A  120A  158A  24EC  120A  118A  	fcall	_liga_buzzer
  2232  042F                     l2264:
  2233                           
  2234                           ;main.c: 323:         LCD_escreve('E');
  2235  042F  3045               	movlw	69
  2236  0430  120A  158A  227C  120A  118A  	fcall	_LCD_escreve
  2237  0435                     l2266:
  2238                           
  2239                           ;main.c: 330:     if (RB3 == 0){
  2240  0435  1283               	bcf	3,5	;RP0=0, select bank0
  2241  0436  1303               	bcf	3,6	;RP1=0, select bank0
  2242  0437  1986               	btfsc	6,3	;volatile
  2243  0438  2C3A               	goto	u2381
  2244  0439  2C3B               	goto	u2380
  2245  043A                     u2381:
  2246  043A  2C5E               	goto	l185
  2247  043B                     u2380:
  2248  043B                     l2268:
  2249                           
  2250                           ;main.c: 331:         _delay((unsigned long)((200)*(20000000/4000.0)));
  2251  043B  3006               	movlw	6
  2252  043C  1283               	bcf	3,5	;RP0=0, select bank0
  2253  043D  1303               	bcf	3,6	;RP1=0, select bank0
  2254  043E  00BD               	movwf	??_teclado+2
  2255  043F  3013               	movlw	19
  2256  0440  00BC               	movwf	??_teclado+1
  2257  0441  30AD               	movlw	173
  2258  0442  00BB               	movwf	??_teclado
  2259  0443                     u2827:
  2260  0443  0BBB               	decfsz	??_teclado,f
  2261  0444  2C43               	goto	u2827
  2262  0445  0BBC               	decfsz	??_teclado+1,f
  2263  0446  2C43               	goto	u2827
  2264  0447  0BBD               	decfsz	??_teclado+2,f
  2265  0448  2C43               	goto	u2827
  2266  0449                     l2270:
  2267                           
  2268                           ;main.c: 332:         liga_buzzer(0.1);
  2269  0449  303D               	movlw	61
  2270  044A  1283               	bcf	3,5	;RP0=0, select bank0
  2271  044B  1303               	bcf	3,6	;RP1=0, select bank0
  2272  044C  00B8               	movwf	liga_buzzer@tempoSegundos+3
  2273  044D  30CC               	movlw	204
  2274  044E  00B7               	movwf	liga_buzzer@tempoSegundos+2
  2275  044F  30CC               	movlw	204
  2276  0450  00B6               	movwf	liga_buzzer@tempoSegundos+1
  2277  0451  30CD               	movlw	205
  2278  0452  00B5               	movwf	liga_buzzer@tempoSegundos
  2279  0453  120A  158A  24EC  120A  118A  	fcall	_liga_buzzer
  2280  0458                     l2272:
  2281                           
  2282                           ;main.c: 333:         LCD_escreve('F');
  2283  0458  3046               	movlw	70
  2284  0459  120A  158A  227C  120A  118A  	fcall	_LCD_escreve
  2285  045E                     l185:
  2286  045E  0008               	return
  2287  045F                     __end_of_teclado:
  2288                           
  2289                           	psect	text3
  2290  0CEC                     __ptext3:	
  2291 ;; *************** function _liga_buzzer *****************
  2292 ;; Defined at:
  2293 ;;		line 103 in file "main.c"
  2294 ;; Parameters:    Size  Location     Type
  2295 ;;  tempoSegundo    4   21[BANK0 ] float 
  2296 ;; Auto vars:     Size  Location     Type
  2297 ;;		None
  2298 ;; Return value:  Size  Location     Type
  2299 ;;                  1    wreg      void 
  2300 ;; Registers used:
  2301 ;;		wreg, status,2, status,0, btemp+1, pclath, cstack
  2302 ;; Tracked objects:
  2303 ;;		On entry : 0/0
  2304 ;;		On exit  : 0/0
  2305 ;;		Unchanged: 0/0
  2306 ;; Data sizes:     COMMON   BANK0   BANK1   BANK3   BANK2
  2307 ;;      Params:         0       4       0       0       0
  2308 ;;      Locals:         0       0       0       0       0
  2309 ;;      Temps:          0       2       0       0       0
  2310 ;;      Totals:         0       6       0       0       0
  2311 ;;Total ram usage:        6 bytes
  2312 ;; Hardware stack levels used: 1
  2313 ;; Hardware stack levels required when called: 2
  2314 ;; This function calls:
  2315 ;;		___flge
  2316 ;;		___flmul
  2317 ;;		___flsub
  2318 ;; This function is called by:
  2319 ;;		_teclado
  2320 ;; This function uses a non-reentrant model
  2321 ;;
  2322                           
  2323                           
  2324                           ;psect for function _liga_buzzer
  2325  0CEC                     _liga_buzzer:
  2326  0CEC                     l2090:	
  2327                           ;incstack = 0
  2328                           ; Regs used in _liga_buzzer: [wreg+status,2+status,0+btemp+1+pclath+cstack]
  2329                           
  2330                           
  2331                           ;main.c: 104:     tempoSegundos = tempoSegundos * 1000;
  2332  0CEC  3044               	movlw	68
  2333  0CED  1283               	bcf	3,5	;RP0=0, select bank0
  2334  0CEE  1303               	bcf	3,6	;RP1=0, select bank0
  2335  0CEF  00A3               	movwf	___flmul@b+3
  2336  0CF0  307A               	movlw	122
  2337  0CF1  00A2               	movwf	___flmul@b+2
  2338  0CF2  3000               	movlw	0
  2339  0CF3  00A1               	movwf	___flmul@b+1
  2340  0CF4  3000               	movlw	0
  2341  0CF5  00A0               	movwf	___flmul@b
  2342  0CF6  0838               	movf	liga_buzzer@tempoSegundos+3,w
  2343  0CF7  00A7               	movwf	___flmul@a+3
  2344  0CF8  0837               	movf	liga_buzzer@tempoSegundos+2,w
  2345  0CF9  00A6               	movwf	___flmul@a+2
  2346  0CFA  0836               	movf	liga_buzzer@tempoSegundos+1,w
  2347  0CFB  00A5               	movwf	___flmul@a+1
  2348  0CFC  0835               	movf	liga_buzzer@tempoSegundos,w
  2349  0CFD  00A4               	movwf	___flmul@a
  2350  0CFE  120A  118A  245F  120A  158A  	fcall	___flmul
  2351  0D03  1283               	bcf	3,5	;RP0=0, select bank0
  2352  0D04  1303               	bcf	3,6	;RP1=0, select bank0
  2353  0D05  0823               	movf	?___flmul+3,w
  2354  0D06  00B8               	movwf	liga_buzzer@tempoSegundos+3
  2355  0D07  0822               	movf	?___flmul+2,w
  2356  0D08  00B7               	movwf	liga_buzzer@tempoSegundos+2
  2357  0D09  0821               	movf	?___flmul+1,w
  2358  0D0A  00B6               	movwf	liga_buzzer@tempoSegundos+1
  2359  0D0B  0820               	movf	?___flmul,w
  2360  0D0C  00B5               	movwf	liga_buzzer@tempoSegundos
  2361  0D0D                     l2092:
  2362                           
  2363                           ;main.c: 105:     _delay((unsigned long)((10)*(20000000/4000.0)));
  2364  0D0D  3041               	movlw	65
  2365  0D0E  1283               	bcf	3,5	;RP0=0, select bank0
  2366  0D0F  1303               	bcf	3,6	;RP1=0, select bank0
  2367  0D10  00BA               	movwf	??_liga_buzzer+1
  2368  0D11  30ED               	movlw	237
  2369  0D12  00B9               	movwf	??_liga_buzzer
  2370  0D13                     u2837:
  2371  0D13  0BB9               	decfsz	??_liga_buzzer,f
  2372  0D14  2D13               	goto	u2837
  2373  0D15  0BBA               	decfsz	??_liga_buzzer+1,f
  2374  0D16  2D13               	goto	u2837
  2375  0D17  2D18               	nop2
  2376                           
  2377                           ;main.c: 108:     while(tempoSegundos > 0){
  2378  0D18  2D48               	goto	l2100
  2379  0D19                     l2094:
  2380                           
  2381                           ;main.c: 109:        PORTE = 0;
  2382  0D19  1283               	bcf	3,5	;RP0=0, select bank0
  2383  0D1A  1303               	bcf	3,6	;RP1=0, select bank0
  2384  0D1B  0189               	clrf	9	;volatile
  2385  0D1C                     l2096:
  2386                           
  2387                           ;main.c: 110:         _delay((unsigned long)((1)*(20000000/4000.0)));
  2388  0D1C  3007               	movlw	7
  2389  0D1D  1283               	bcf	3,5	;RP0=0, select bank0
  2390  0D1E  1303               	bcf	3,6	;RP1=0, select bank0
  2391  0D1F  00BA               	movwf	??_liga_buzzer+1
  2392  0D20  307C               	movlw	124
  2393  0D21  00B9               	movwf	??_liga_buzzer
  2394  0D22                     u2847:
  2395  0D22  0BB9               	decfsz	??_liga_buzzer,f
  2396  0D23  2D22               	goto	u2847
  2397  0D24  0BBA               	decfsz	??_liga_buzzer+1,f
  2398  0D25  2D22               	goto	u2847
  2399  0D26  0000               	nop
  2400  0D27                     l2098:
  2401                           
  2402                           ;main.c: 111:         tempoSegundos--;
  2403  0D27  303F               	movlw	63
  2404  0D28  1283               	bcf	3,5	;RP0=0, select bank0
  2405  0D29  1303               	bcf	3,6	;RP1=0, select bank0
  2406  0D2A  00AB               	movwf	___flsub@a+3
  2407  0D2B  3080               	movlw	128
  2408  0D2C  00AA               	movwf	___flsub@a+2
  2409  0D2D  3000               	movlw	0
  2410  0D2E  00A9               	movwf	___flsub@a+1
  2411  0D2F  3000               	movlw	0
  2412  0D30  00A8               	movwf	___flsub@a
  2413  0D31  0838               	movf	liga_buzzer@tempoSegundos+3,w
  2414  0D32  00AF               	movwf	___flsub@b+3
  2415  0D33  0837               	movf	liga_buzzer@tempoSegundos+2,w
  2416  0D34  00AE               	movwf	___flsub@b+2
  2417  0D35  0836               	movf	liga_buzzer@tempoSegundos+1,w
  2418  0D36  00AD               	movwf	___flsub@b+1
  2419  0D37  0835               	movf	liga_buzzer@tempoSegundos,w
  2420  0D38  00AC               	movwf	___flsub@b
  2421  0D39  120A  158A  22F6  120A  158A  	fcall	___flsub
  2422  0D3E  1283               	bcf	3,5	;RP0=0, select bank0
  2423  0D3F  1303               	bcf	3,6	;RP1=0, select bank0
  2424  0D40  082B               	movf	?___flsub+3,w
  2425  0D41  00B8               	movwf	liga_buzzer@tempoSegundos+3
  2426  0D42  082A               	movf	?___flsub+2,w
  2427  0D43  00B7               	movwf	liga_buzzer@tempoSegundos+2
  2428  0D44  0829               	movf	?___flsub+1,w
  2429  0D45  00B6               	movwf	liga_buzzer@tempoSegundos+1
  2430  0D46  0828               	movf	?___flsub,w
  2431  0D47  00B5               	movwf	liga_buzzer@tempoSegundos
  2432  0D48                     l2100:
  2433                           
  2434                           ;main.c: 108:     while(tempoSegundos > 0){
  2435  0D48  3000               	movlw	0
  2436  0D49  00F3               	movwf	___flge@ff1+3
  2437  0D4A  3000               	movlw	0
  2438  0D4B  00F2               	movwf	___flge@ff1+2
  2439  0D4C  3000               	movlw	0
  2440  0D4D  00F1               	movwf	___flge@ff1+1
  2441  0D4E  3000               	movlw	0
  2442  0D4F  00F0               	movwf	___flge@ff1
  2443  0D50  1283               	bcf	3,5	;RP0=0, select bank0
  2444  0D51  1303               	bcf	3,6	;RP1=0, select bank0
  2445  0D52  0838               	movf	liga_buzzer@tempoSegundos+3,w
  2446  0D53  00F7               	movwf	___flge@ff2+3
  2447  0D54  0837               	movf	liga_buzzer@tempoSegundos+2,w
  2448  0D55  00F6               	movwf	___flge@ff2+2
  2449  0D56  0836               	movf	liga_buzzer@tempoSegundos+1,w
  2450  0D57  00F5               	movwf	___flge@ff2+1
  2451  0D58  0835               	movf	liga_buzzer@tempoSegundos,w
  2452  0D59  00F4               	movwf	___flge@ff2
  2453  0D5A  120A  118A  2021  120A  158A  	fcall	___flge
  2454  0D5F  1C03               	btfss	3,0
  2455  0D60  2D62               	goto	u2221
  2456  0D61  2D63               	goto	u2220
  2457  0D62                     u2221:
  2458  0D62  2D19               	goto	l2094
  2459  0D63                     u2220:
  2460  0D63                     l2102:
  2461                           
  2462                           ;main.c: 115:     PORTE = 0x0F;
  2463  0D63  300F               	movlw	15
  2464  0D64  1283               	bcf	3,5	;RP0=0, select bank0
  2465  0D65  1303               	bcf	3,6	;RP1=0, select bank0
  2466  0D66  0089               	movwf	9	;volatile
  2467  0D67                     l156:
  2468  0D67  0008               	return
  2469  0D68                     __end_of_liga_buzzer:
  2470                           
  2471                           	psect	text4
  2472  0AF6                     __ptext4:	
  2473 ;; *************** function ___flsub *****************
  2474 ;; Defined at:
  2475 ;;		line 242 in file "C:\Program Files\Microchip\xc8\v2.32\pic\sources\c90\common\sprcadd.c"
  2476 ;; Parameters:    Size  Location     Type
  2477 ;;  a               4    8[BANK0 ] void 
  2478 ;;  b               4   12[BANK0 ] void 
  2479 ;; Auto vars:     Size  Location     Type
  2480 ;;		None
  2481 ;; Return value:  Size  Location     Type
  2482 ;;                  4    8[BANK0 ] void 
  2483 ;; Registers used:
  2484 ;;		wreg, status,2, status,0, btemp+1, pclath, cstack
  2485 ;; Tracked objects:
  2486 ;;		On entry : 0/0
  2487 ;;		On exit  : 0/0
  2488 ;;		Unchanged: 0/0
  2489 ;; Data sizes:     COMMON   BANK0   BANK1   BANK3   BANK2
  2490 ;;      Params:         0       8       0       0       0
  2491 ;;      Locals:         0       0       0       0       0
  2492 ;;      Temps:          0       0       0       0       0
  2493 ;;      Totals:         0       8       0       0       0
  2494 ;;Total ram usage:        8 bytes
  2495 ;; Hardware stack levels used: 1
  2496 ;; Hardware stack levels required when called: 1
  2497 ;; This function calls:
  2498 ;;		___fladd
  2499 ;; This function is called by:
  2500 ;;		_liga_buzzer
  2501 ;; This function uses a non-reentrant model
  2502 ;;
  2503                           
  2504                           
  2505                           ;psect for function ___flsub
  2506  0AF6                     ___flsub:
  2507  0AF6                     l1920:	
  2508                           ;incstack = 0
  2509                           ; Regs used in ___flsub: [wreg+status,2+status,0+btemp+1+pclath+cstack]
  2510                           
  2511  0AF6  3080               	movlw	128
  2512  0AF7  1283               	bcf	3,5	;RP0=0, select bank0
  2513  0AF8  1303               	bcf	3,6	;RP1=0, select bank0
  2514  0AF9  06AB               	xorwf	___flsub@a+3,f
  2515  0AFA                     l1922:
  2516  0AFA  082F               	movf	___flsub@b+3,w
  2517  0AFB  00F3               	movwf	___fladd@b+3
  2518  0AFC  082E               	movf	___flsub@b+2,w
  2519  0AFD  00F2               	movwf	___fladd@b+2
  2520  0AFE  082D               	movf	___flsub@b+1,w
  2521  0AFF  00F1               	movwf	___fladd@b+1
  2522  0B00  082C               	movf	___flsub@b,w
  2523  0B01  00F0               	movwf	___fladd@b
  2524  0B02  082B               	movf	___flsub@a+3,w
  2525  0B03  00F7               	movwf	___fladd@a+3
  2526  0B04  082A               	movf	___flsub@a+2,w
  2527  0B05  00F6               	movwf	___fladd@a+2
  2528  0B06  0829               	movf	___flsub@a+1,w
  2529  0B07  00F5               	movwf	___fladd@a+1
  2530  0B08  0828               	movf	___flsub@a,w
  2531  0B09  00F4               	movwf	___fladd@a
  2532  0B0A  120A  158A  2568  120A  158A  	fcall	___fladd
  2533  0B0F  0873               	movf	?___fladd+3,w
  2534  0B10  1283               	bcf	3,5	;RP0=0, select bank0
  2535  0B11  1303               	bcf	3,6	;RP1=0, select bank0
  2536  0B12  00AB               	movwf	?___flsub+3
  2537  0B13  0872               	movf	?___fladd+2,w
  2538  0B14  00AA               	movwf	?___flsub+2
  2539  0B15  0871               	movf	?___fladd+1,w
  2540  0B16  00A9               	movwf	?___flsub+1
  2541  0B17  0870               	movf	?___fladd,w
  2542  0B18  00A8               	movwf	?___flsub
  2543  0B19                     l669:
  2544  0B19  0008               	return
  2545  0B1A                     __end_of___flsub:
  2546                           
  2547                           	psect	text5
  2548  0D68                     __ptext5:	
  2549 ;; *************** function ___fladd *****************
  2550 ;; Defined at:
  2551 ;;		line 10 in file "C:\Program Files\Microchip\xc8\v2.32\pic\sources\c90\common\sprcadd.c"
  2552 ;; Parameters:    Size  Location     Type
  2553 ;;  b               4    0[COMMON] void 
  2554 ;;  a               4    4[COMMON] void 
  2555 ;; Auto vars:     Size  Location     Type
  2556 ;;  grs             1   11[COMMON] unsigned char 
  2557 ;;  bexp            1   10[COMMON] unsigned char 
  2558 ;;  aexp            1    9[COMMON] unsigned char 
  2559 ;;  signs           1    8[COMMON] unsigned char 
  2560 ;; Return value:  Size  Location     Type
  2561 ;;                  4    0[COMMON] unsigned char 
  2562 ;; Registers used:
  2563 ;;		wreg, status,2, status,0, btemp+1
  2564 ;; Tracked objects:
  2565 ;;		On entry : 0/0
  2566 ;;		On exit  : 0/0
  2567 ;;		Unchanged: 0/0
  2568 ;; Data sizes:     COMMON   BANK0   BANK1   BANK3   BANK2
  2569 ;;      Params:         8       0       0       0       0
  2570 ;;      Locals:         4       0       0       0       0
  2571 ;;      Temps:          0       8       0       0       0
  2572 ;;      Totals:        12       8       0       0       0
  2573 ;;Total ram usage:       20 bytes
  2574 ;; Hardware stack levels used: 1
  2575 ;; This function calls:
  2576 ;;		Nothing
  2577 ;; This function is called by:
  2578 ;;		___flsub
  2579 ;; This function uses a non-reentrant model
  2580 ;;
  2581                           
  2582                           
  2583                           ;psect for function ___fladd
  2584  0D68                     ___fladd:
  2585  0D68                     l1682:	
  2586                           ;incstack = 0
  2587                           ; Regs used in ___fladd: [wreg+status,2+status,0+btemp+1]
  2588                           
  2589  0D68  0873               	movf	___fladd@b+3,w
  2590  0D69  3980               	andlw	128
  2591  0D6A  1283               	bcf	3,5	;RP0=0, select bank0
  2592  0D6B  1303               	bcf	3,6	;RP1=0, select bank0
  2593  0D6C  00A0               	movwf	??___fladd
  2594  0D6D  0820               	movf	??___fladd,w
  2595  0D6E  00F8               	movwf	___fladd@signs
  2596  0D6F                     l1684:
  2597  0D6F  0873               	movf	___fladd@b+3,w
  2598  0D70  00A0               	movwf	??___fladd
  2599  0D71  0720               	addwf	??___fladd,w
  2600  0D72  00A1               	movwf	??___fladd+1
  2601  0D73  0821               	movf	??___fladd+1,w
  2602  0D74  00FA               	movwf	___fladd@bexp
  2603  0D75                     l1686:
  2604  0D75  1FF2               	btfss	___fladd@b+2,7
  2605  0D76  2D78               	goto	u1281
  2606  0D77  2D79               	goto	u1280
  2607  0D78                     u1281:
  2608  0D78  2D7A               	goto	l1690
  2609  0D79                     u1280:
  2610  0D79                     l1688:
  2611  0D79  147A               	bsf	___fladd@bexp,0
  2612  0D7A                     l1690:
  2613  0D7A  087A               	movf	___fladd@bexp,w
  2614  0D7B  1903               	btfsc	3,2
  2615  0D7C  2D7E               	goto	u1291
  2616  0D7D  2D7F               	goto	u1290
  2617  0D7E                     u1291:
  2618  0D7E  2D8F               	goto	l1700
  2619  0D7F                     u1290:
  2620  0D7F                     l1692:
  2621  0D7F  0A7A               	incf	___fladd@bexp,w
  2622  0D80  1D03               	btfss	3,2
  2623  0D81  2D83               	goto	u1301
  2624  0D82  2D84               	goto	u1300
  2625  0D83                     u1301:
  2626  0D83  2D8C               	goto	l1696
  2627  0D84                     u1300:
  2628  0D84                     l1694:
  2629  0D84  3000               	movlw	0
  2630  0D85  00F3               	movwf	___fladd@b+3
  2631  0D86  3000               	movlw	0
  2632  0D87  00F2               	movwf	___fladd@b+2
  2633  0D88  3000               	movlw	0
  2634  0D89  00F1               	movwf	___fladd@b+1
  2635  0D8A  3000               	movlw	0
  2636  0D8B  00F0               	movwf	___fladd@b
  2637  0D8C                     l1696:
  2638  0D8C  17F2               	bsf	___fladd@b+2,7
  2639  0D8D                     l1698:
  2640  0D8D  01F3               	clrf	___fladd@b+3
  2641  0D8E  2D97               	goto	l1702
  2642  0D8F                     l1700:
  2643  0D8F  3000               	movlw	0
  2644  0D90  00F3               	movwf	___fladd@b+3
  2645  0D91  3000               	movlw	0
  2646  0D92  00F2               	movwf	___fladd@b+2
  2647  0D93  3000               	movlw	0
  2648  0D94  00F1               	movwf	___fladd@b+1
  2649  0D95  3000               	movlw	0
  2650  0D96  00F0               	movwf	___fladd@b
  2651  0D97                     l1702:
  2652  0D97  0877               	movf	___fladd@a+3,w
  2653  0D98  3980               	andlw	128
  2654  0D99  00A0               	movwf	??___fladd
  2655  0D9A  0820               	movf	??___fladd,w
  2656  0D9B  00F9               	movwf	___fladd@aexp
  2657  0D9C                     l1704:
  2658  0D9C  0879               	movf	___fladd@aexp,w
  2659  0D9D  0678               	xorwf	___fladd@signs,w
  2660  0D9E  1903               	skipnz
  2661  0D9F  2DA1               	goto	u1311
  2662  0DA0  2DA2               	goto	u1310
  2663  0DA1                     u1311:
  2664  0DA1  2DA3               	goto	l1708
  2665  0DA2                     u1310:
  2666  0DA2                     l1706:
  2667  0DA2  1778               	bsf	___fladd@signs,6
  2668  0DA3                     l1708:
  2669  0DA3  0877               	movf	___fladd@a+3,w
  2670  0DA4  00A0               	movwf	??___fladd
  2671  0DA5  0720               	addwf	??___fladd,w
  2672  0DA6  00A1               	movwf	??___fladd+1
  2673  0DA7  0821               	movf	??___fladd+1,w
  2674  0DA8  00F9               	movwf	___fladd@aexp
  2675  0DA9                     l1710:
  2676  0DA9  1FF6               	btfss	___fladd@a+2,7
  2677  0DAA  2DAC               	goto	u1321
  2678  0DAB  2DAD               	goto	u1320
  2679  0DAC                     u1321:
  2680  0DAC  2DAE               	goto	l1714
  2681  0DAD                     u1320:
  2682  0DAD                     l1712:
  2683  0DAD  1479               	bsf	___fladd@aexp,0
  2684  0DAE                     l1714:
  2685  0DAE  0879               	movf	___fladd@aexp,w
  2686  0DAF  1903               	btfsc	3,2
  2687  0DB0  2DB2               	goto	u1331
  2688  0DB1  2DB3               	goto	u1330
  2689  0DB2                     u1331:
  2690  0DB2  2DC3               	goto	l1724
  2691  0DB3                     u1330:
  2692  0DB3                     l1716:
  2693  0DB3  0A79               	incf	___fladd@aexp,w
  2694  0DB4  1D03               	btfss	3,2
  2695  0DB5  2DB7               	goto	u1341
  2696  0DB6  2DB8               	goto	u1340
  2697  0DB7                     u1341:
  2698  0DB7  2DC0               	goto	l1720
  2699  0DB8                     u1340:
  2700  0DB8                     l1718:
  2701  0DB8  3000               	movlw	0
  2702  0DB9  00F7               	movwf	___fladd@a+3
  2703  0DBA  3000               	movlw	0
  2704  0DBB  00F6               	movwf	___fladd@a+2
  2705  0DBC  3000               	movlw	0
  2706  0DBD  00F5               	movwf	___fladd@a+1
  2707  0DBE  3000               	movlw	0
  2708  0DBF  00F4               	movwf	___fladd@a
  2709  0DC0                     l1720:
  2710  0DC0  17F6               	bsf	___fladd@a+2,7
  2711  0DC1                     l1722:
  2712  0DC1  01F7               	clrf	___fladd@a+3
  2713  0DC2  2DCB               	goto	l623
  2714  0DC3                     l1724:
  2715  0DC3  3000               	movlw	0
  2716  0DC4  00F7               	movwf	___fladd@a+3
  2717  0DC5  3000               	movlw	0
  2718  0DC6  00F6               	movwf	___fladd@a+2
  2719  0DC7  3000               	movlw	0
  2720  0DC8  00F5               	movwf	___fladd@a+1
  2721  0DC9  3000               	movlw	0
  2722  0DCA  00F4               	movwf	___fladd@a
  2723  0DCB                     l623:
  2724  0DCB  087A               	movf	___fladd@bexp,w
  2725  0DCC  0279               	subwf	___fladd@aexp,w
  2726  0DCD  1803               	skipnc
  2727  0DCE  2DD0               	goto	u1351
  2728  0DCF  2DD1               	goto	u1350
  2729  0DD0                     u1351:
  2730  0DD0  2E15               	goto	l1760
  2731  0DD1                     u1350:
  2732  0DD1                     l1726:
  2733  0DD1  1F78               	btfss	___fladd@signs,6
  2734  0DD2  2DD4               	goto	u1361
  2735  0DD3  2DD5               	goto	u1360
  2736  0DD4                     u1361:
  2737  0DD4  2DD9               	goto	l1730
  2738  0DD5                     u1360:
  2739  0DD5                     l1728:
  2740  0DD5  3080               	movlw	128
  2741  0DD6  00A0               	movwf	??___fladd
  2742  0DD7  0820               	movf	??___fladd,w
  2743  0DD8  06F8               	xorwf	___fladd@signs,f
  2744  0DD9                     l1730:
  2745  0DD9  087A               	movf	___fladd@bexp,w
  2746  0DDA  00A0               	movwf	??___fladd
  2747  0DDB  0820               	movf	??___fladd,w
  2748  0DDC  00FB               	movwf	___fladd@grs
  2749  0DDD                     l1732:
  2750  0DDD  0879               	movf	___fladd@aexp,w
  2751  0DDE  00A0               	movwf	??___fladd
  2752  0DDF  0820               	movf	??___fladd,w
  2753  0DE0  00FA               	movwf	___fladd@bexp
  2754  0DE1                     l1734:
  2755  0DE1  087B               	movf	___fladd@grs,w
  2756  0DE2  00A0               	movwf	??___fladd
  2757  0DE3  0820               	movf	??___fladd,w
  2758  0DE4  00F9               	movwf	___fladd@aexp
  2759  0DE5                     l1736:
  2760  0DE5  0870               	movf	___fladd@b,w
  2761  0DE6  00A0               	movwf	??___fladd
  2762  0DE7  0820               	movf	??___fladd,w
  2763  0DE8  00FB               	movwf	___fladd@grs
  2764  0DE9                     l1738:
  2765  0DE9  0874               	movf	___fladd@a,w
  2766  0DEA  00A0               	movwf	??___fladd
  2767  0DEB  0820               	movf	??___fladd,w
  2768  0DEC  00F0               	movwf	___fladd@b
  2769  0DED                     l1740:
  2770  0DED  087B               	movf	___fladd@grs,w
  2771  0DEE  00A0               	movwf	??___fladd
  2772  0DEF  0820               	movf	??___fladd,w
  2773  0DF0  00F4               	movwf	___fladd@a
  2774  0DF1                     l1742:
  2775  0DF1  0871               	movf	___fladd@b+1,w
  2776  0DF2  00A0               	movwf	??___fladd
  2777  0DF3  0820               	movf	??___fladd,w
  2778  0DF4  00FB               	movwf	___fladd@grs
  2779  0DF5                     l1744:
  2780  0DF5  0875               	movf	___fladd@a+1,w
  2781  0DF6  00A0               	movwf	??___fladd
  2782  0DF7  0820               	movf	??___fladd,w
  2783  0DF8  00F1               	movwf	___fladd@b+1
  2784  0DF9                     l1746:
  2785  0DF9  087B               	movf	___fladd@grs,w
  2786  0DFA  00A0               	movwf	??___fladd
  2787  0DFB  0820               	movf	??___fladd,w
  2788  0DFC  00F5               	movwf	___fladd@a+1
  2789  0DFD                     l1748:
  2790  0DFD  0872               	movf	___fladd@b+2,w
  2791  0DFE  00A0               	movwf	??___fladd
  2792  0DFF  0820               	movf	??___fladd,w
  2793  0E00  00FB               	movwf	___fladd@grs
  2794  0E01                     l1750:
  2795  0E01  0876               	movf	___fladd@a+2,w
  2796  0E02  00A0               	movwf	??___fladd
  2797  0E03  0820               	movf	??___fladd,w
  2798  0E04  00F2               	movwf	___fladd@b+2
  2799  0E05                     l1752:
  2800  0E05  087B               	movf	___fladd@grs,w
  2801  0E06  00A0               	movwf	??___fladd
  2802  0E07  0820               	movf	??___fladd,w
  2803  0E08  00F6               	movwf	___fladd@a+2
  2804  0E09                     l1754:
  2805  0E09  0873               	movf	___fladd@b+3,w
  2806  0E0A  00A0               	movwf	??___fladd
  2807  0E0B  0820               	movf	??___fladd,w
  2808  0E0C  00FB               	movwf	___fladd@grs
  2809  0E0D                     l1756:
  2810  0E0D  0877               	movf	___fladd@a+3,w
  2811  0E0E  00A0               	movwf	??___fladd
  2812  0E0F  0820               	movf	??___fladd,w
  2813  0E10  00F3               	movwf	___fladd@b+3
  2814  0E11                     l1758:
  2815  0E11  087B               	movf	___fladd@grs,w
  2816  0E12  00A0               	movwf	??___fladd
  2817  0E13  0820               	movf	??___fladd,w
  2818  0E14  00F7               	movwf	___fladd@a+3
  2819  0E15                     l1760:
  2820  0E15  01FB               	clrf	___fladd@grs
  2821  0E16                     l1762:
  2822  0E16  0879               	movf	___fladd@aexp,w
  2823  0E17  00A0               	movwf	??___fladd
  2824  0E18  01A1               	clrf	??___fladd+1
  2825  0E19  0821               	movf	??___fladd+1,w
  2826  0E1A  00A3               	movwf	??___fladd+3
  2827  0E1B  087A               	movf	___fladd@bexp,w
  2828  0E1C  0220               	subwf	??___fladd,w
  2829  0E1D  00A2               	movwf	??___fladd+2
  2830  0E1E  1C03               	skipc
  2831  0E1F  03A3               	decf	??___fladd+3,f
  2832  0E20  0823               	movf	??___fladd+3,w
  2833  0E21  3A80               	xorlw	128
  2834  0E22  00FF               	movwf	btemp+1
  2835  0E23  3080               	movlw	128
  2836  0E24  027F               	subwf	btemp+1,w
  2837  0E25  1D03               	skipz
  2838  0E26  2E29               	goto	u1375
  2839  0E27  301A               	movlw	26
  2840  0E28  0222               	subwf	??___fladd+2,w
  2841  0E29                     u1375:
  2842  0E29  1C03               	skipc
  2843  0E2A  2E2C               	goto	u1371
  2844  0E2B  2E2D               	goto	u1370
  2845  0E2C                     u1371:
  2846  0E2C  2E6E               	goto	l1778
  2847  0E2D                     u1370:
  2848  0E2D                     l1764:
  2849  0E2D  0873               	movf	___fladd@b+3,w
  2850  0E2E  0472               	iorwf	___fladd@b+2,w
  2851  0E2F  0471               	iorwf	___fladd@b+1,w
  2852  0E30  0470               	iorwf	___fladd@b,w
  2853  0E31  1D03               	skipz
  2854  0E32  2E34               	goto	u1381
  2855  0E33  2E36               	goto	u1380
  2856  0E34                     u1381:
  2857  0E34  3001               	movlw	1
  2858  0E35  2E37               	goto	u1390
  2859  0E36                     u1380:
  2860  0E36  3000               	movlw	0
  2861  0E37                     u1390:
  2862  0E37  1283               	bcf	3,5	;RP0=0, select bank0
  2863  0E38  1303               	bcf	3,6	;RP1=0, select bank0
  2864  0E39  00A0               	movwf	??___fladd
  2865  0E3A  0820               	movf	??___fladd,w
  2866  0E3B  00FB               	movwf	___fladd@grs
  2867  0E3C  3000               	movlw	0
  2868  0E3D  00F3               	movwf	___fladd@b+3
  2869  0E3E  3000               	movlw	0
  2870  0E3F  00F2               	movwf	___fladd@b+2
  2871  0E40  3000               	movlw	0
  2872  0E41  00F1               	movwf	___fladd@b+1
  2873  0E42  3000               	movlw	0
  2874  0E43  00F0               	movwf	___fladd@b
  2875  0E44  0879               	movf	___fladd@aexp,w
  2876  0E45  00A0               	movwf	??___fladd
  2877  0E46  0820               	movf	??___fladd,w
  2878  0E47  00FA               	movwf	___fladd@bexp
  2879  0E48  2E74               	goto	l627
  2880  0E49                     l629:
  2881  0E49  1C7B               	btfss	___fladd@grs,0
  2882  0E4A  2E4C               	goto	u1401
  2883  0E4B  2E4D               	goto	u1400
  2884  0E4C                     u1401:
  2885  0E4C  2E58               	goto	l1768
  2886  0E4D                     u1400:
  2887  0E4D                     l1766:
  2888  0E4D  087B               	movf	___fladd@grs,w
  2889  0E4E  1283               	bcf	3,5	;RP0=0, select bank0
  2890  0E4F  1303               	bcf	3,6	;RP1=0, select bank0
  2891  0E50  00A0               	movwf	??___fladd
  2892  0E51  1003               	clrc
  2893  0E52  0C20               	rrf	??___fladd,w
  2894  0E53  3801               	iorlw	1
  2895  0E54  00A1               	movwf	??___fladd+1
  2896  0E55  0821               	movf	??___fladd+1,w
  2897  0E56  00FB               	movwf	___fladd@grs
  2898  0E57  2E5A               	goto	l1770
  2899  0E58                     l1768:
  2900  0E58  1003               	clrc
  2901  0E59  0CFB               	rrf	___fladd@grs,f
  2902  0E5A                     l1770:
  2903  0E5A  1C70               	btfss	___fladd@b,0
  2904  0E5B  2E5D               	goto	u1411
  2905  0E5C  2E5E               	goto	u1410
  2906  0E5D                     u1411:
  2907  0E5D  2E5F               	goto	l1774
  2908  0E5E                     u1410:
  2909  0E5E                     l1772:
  2910  0E5E  17FB               	bsf	___fladd@grs,7
  2911  0E5F                     l1774:
  2912  0E5F  3001               	movlw	1
  2913  0E60  1283               	bcf	3,5	;RP0=0, select bank0
  2914  0E61  1303               	bcf	3,6	;RP1=0, select bank0
  2915  0E62  00A0               	movwf	??___fladd
  2916  0E63                     u1425:
  2917  0E63  0D73               	rlf	___fladd@b+3,w
  2918  0E64  0CF3               	rrf	___fladd@b+3,f
  2919  0E65  0CF2               	rrf	___fladd@b+2,f
  2920  0E66  0CF1               	rrf	___fladd@b+1,f
  2921  0E67  0CF0               	rrf	___fladd@b,f
  2922  0E68  0BA0               	decfsz	??___fladd& (0+127),f
  2923  0E69  2E63               	goto	u1425
  2924  0E6A                     l1776:
  2925  0E6A  3001               	movlw	1
  2926  0E6B  00A0               	movwf	??___fladd
  2927  0E6C  0820               	movf	??___fladd,w
  2928  0E6D  07FA               	addwf	___fladd@bexp,f
  2929  0E6E                     l1778:
  2930  0E6E  0879               	movf	___fladd@aexp,w
  2931  0E6F  027A               	subwf	___fladd@bexp,w
  2932  0E70  1C03               	skipc
  2933  0E71  2E73               	goto	u1431
  2934  0E72  2E74               	goto	u1430
  2935  0E73                     u1431:
  2936  0E73  2E49               	goto	l629
  2937  0E74                     u1430:
  2938  0E74                     l627:
  2939  0E74  1B78               	btfsc	___fladd@signs,6
  2940  0E75  2E77               	goto	u1441
  2941  0E76  2E78               	goto	u1440
  2942  0E77                     u1441:
  2943  0E77  2EC7               	goto	l1804
  2944  0E78                     u1440:
  2945  0E78                     l1780:
  2946  0E78  087A               	movf	___fladd@bexp,w
  2947  0E79  1D03               	btfss	3,2
  2948  0E7A  2E7C               	goto	u1451
  2949  0E7B  2E7D               	goto	u1450
  2950  0E7C                     u1451:
  2951  0E7C  2E86               	goto	l1786
  2952  0E7D                     u1450:
  2953  0E7D                     l1782:
  2954  0E7D  3000               	movlw	0
  2955  0E7E  00F3               	movwf	?___fladd+3
  2956  0E7F  3000               	movlw	0
  2957  0E80  00F2               	movwf	?___fladd+2
  2958  0E81  3000               	movlw	0
  2959  0E82  00F1               	movwf	?___fladd+1
  2960  0E83  3000               	movlw	0
  2961  0E84  00F0               	movwf	?___fladd
  2962  0E85  2FFF               	goto	l636
  2963  0E86                     l1786:
  2964  0E86  0874               	movf	___fladd@a,w
  2965  0E87  07F0               	addwf	___fladd@b,f
  2966  0E88  0875               	movf	___fladd@a+1,w
  2967  0E89  1103               	clrz
  2968  0E8A  1803               	skipnc
  2969  0E8B  3E01               	addlw	1
  2970  0E8C  1903               	skipnz
  2971  0E8D  2E8F               	goto	u1461
  2972  0E8E  07F1               	addwf	___fladd@b+1,f
  2973  0E8F                     u1461:
  2974  0E8F  0876               	movf	___fladd@a+2,w
  2975  0E90  1103               	clrz
  2976  0E91  1803               	skipnc
  2977  0E92  3E01               	addlw	1
  2978  0E93  1903               	skipnz
  2979  0E94  2E96               	goto	u1462
  2980  0E95  07F2               	addwf	___fladd@b+2,f
  2981  0E96                     u1462:
  2982  0E96  0877               	movf	___fladd@a+3,w
  2983  0E97  1103               	clrz
  2984  0E98  1803               	skipnc
  2985  0E99  3E01               	addlw	1
  2986  0E9A  1903               	skipnz
  2987  0E9B  2E9D               	goto	u1463
  2988  0E9C  07F3               	addwf	___fladd@b+3,f
  2989  0E9D                     u1463:
  2990  0E9D                     l1788:
  2991  0E9D  1C73               	btfss	___fladd@b+3,0
  2992  0E9E  2EA0               	goto	u1471
  2993  0E9F  2EA1               	goto	u1470
  2994  0EA0                     u1471:
  2995  0EA0  2F7F               	goto	l1838
  2996  0EA1                     u1470:
  2997  0EA1                     l1790:
  2998  0EA1  1C7B               	btfss	___fladd@grs,0
  2999  0EA2  2EA4               	goto	u1481
  3000  0EA3  2EA5               	goto	u1480
  3001  0EA4                     u1481:
  3002  0EA4  2EB0               	goto	l1794
  3003  0EA5                     u1480:
  3004  0EA5                     l1792:
  3005  0EA5  087B               	movf	___fladd@grs,w
  3006  0EA6  1283               	bcf	3,5	;RP0=0, select bank0
  3007  0EA7  1303               	bcf	3,6	;RP1=0, select bank0
  3008  0EA8  00A0               	movwf	??___fladd
  3009  0EA9  1003               	clrc
  3010  0EAA  0C20               	rrf	??___fladd,w
  3011  0EAB  3801               	iorlw	1
  3012  0EAC  00A1               	movwf	??___fladd+1
  3013  0EAD  0821               	movf	??___fladd+1,w
  3014  0EAE  00FB               	movwf	___fladd@grs
  3015  0EAF  2EB2               	goto	l1796
  3016  0EB0                     l1794:
  3017  0EB0  1003               	clrc
  3018  0EB1  0CFB               	rrf	___fladd@grs,f
  3019  0EB2                     l1796:
  3020  0EB2  1C70               	btfss	___fladd@b,0
  3021  0EB3  2EB5               	goto	u1491
  3022  0EB4  2EB6               	goto	u1490
  3023  0EB5                     u1491:
  3024  0EB5  2EB7               	goto	l1800
  3025  0EB6                     u1490:
  3026  0EB6                     l1798:
  3027  0EB6  17FB               	bsf	___fladd@grs,7
  3028  0EB7                     l1800:
  3029  0EB7  3001               	movlw	1
  3030  0EB8  1283               	bcf	3,5	;RP0=0, select bank0
  3031  0EB9  1303               	bcf	3,6	;RP1=0, select bank0
  3032  0EBA  00A0               	movwf	??___fladd
  3033  0EBB                     u1505:
  3034  0EBB  0D73               	rlf	___fladd@b+3,w
  3035  0EBC  0CF3               	rrf	___fladd@b+3,f
  3036  0EBD  0CF2               	rrf	___fladd@b+2,f
  3037  0EBE  0CF1               	rrf	___fladd@b+1,f
  3038  0EBF  0CF0               	rrf	___fladd@b,f
  3039  0EC0  0BA0               	decfsz	??___fladd& (0+127),f
  3040  0EC1  2EBB               	goto	u1505
  3041  0EC2                     l1802:
  3042  0EC2  3001               	movlw	1
  3043  0EC3  00A0               	movwf	??___fladd
  3044  0EC4  0820               	movf	??___fladd,w
  3045  0EC5  07FA               	addwf	___fladd@bexp,f
  3046  0EC6  2F7F               	goto	l1838
  3047  0EC7                     l1804:
  3048  0EC7  0873               	movf	___fladd@b+3,w
  3049  0EC8  3A80               	xorlw	128
  3050  0EC9  00FF               	movwf	btemp+1
  3051  0ECA  0877               	movf	___fladd@a+3,w
  3052  0ECB  3A80               	xorlw	128
  3053  0ECC  027F               	subwf	btemp+1,w
  3054  0ECD  1D03               	skipz
  3055  0ECE  2ED9               	goto	u1513
  3056  0ECF  0876               	movf	___fladd@a+2,w
  3057  0ED0  0272               	subwf	___fladd@b+2,w
  3058  0ED1  1D03               	skipz
  3059  0ED2  2ED9               	goto	u1513
  3060  0ED3  0875               	movf	___fladd@a+1,w
  3061  0ED4  0271               	subwf	___fladd@b+1,w
  3062  0ED5  1D03               	skipz
  3063  0ED6  2ED9               	goto	u1513
  3064  0ED7  0874               	movf	___fladd@a,w
  3065  0ED8  0270               	subwf	___fladd@b,w
  3066  0ED9                     u1513:
  3067  0ED9  1803               	skipnc
  3068  0EDA  2EDC               	goto	u1511
  3069  0EDB  2EDD               	goto	u1510
  3070  0EDC                     u1511:
  3071  0EDC  2F37               	goto	l1814
  3072  0EDD                     u1510:
  3073  0EDD                     l1806:
  3074  0EDD  30FF               	movlw	255
  3075  0EDE  1283               	bcf	3,5	;RP0=0, select bank0
  3076  0EDF  1303               	bcf	3,6	;RP1=0, select bank0
  3077  0EE0  00A0               	movwf	??___fladd
  3078  0EE1  30FF               	movlw	255
  3079  0EE2  00A1               	movwf	??___fladd+1
  3080  0EE3  30FF               	movlw	255
  3081  0EE4  00A2               	movwf	??___fladd+2
  3082  0EE5  30FF               	movlw	255
  3083  0EE6  00A3               	movwf	??___fladd+3
  3084  0EE7  0874               	movf	___fladd@a,w
  3085  0EE8  00A4               	movwf	??___fladd+4
  3086  0EE9  0875               	movf	___fladd@a+1,w
  3087  0EEA  00A5               	movwf	??___fladd+5
  3088  0EEB  0876               	movf	___fladd@a+2,w
  3089  0EEC  00A6               	movwf	??___fladd+6
  3090  0EED  0877               	movf	___fladd@a+3,w
  3091  0EEE  00A7               	movwf	??___fladd+7
  3092  0EEF  0870               	movf	___fladd@b,w
  3093  0EF0  02A4               	subwf	??___fladd+4,f
  3094  0EF1  0871               	movf	___fladd@b+1,w
  3095  0EF2  1C03               	skipc
  3096  0EF3  0F71               	incfsz	___fladd@b+1,w
  3097  0EF4  2EF6               	goto	u1521
  3098  0EF5  2EF7               	goto	u1522
  3099  0EF6                     u1521:
  3100  0EF6  02A5               	subwf	??___fladd+5,f
  3101  0EF7                     u1522:
  3102  0EF7  0872               	movf	___fladd@b+2,w
  3103  0EF8  1C03               	skipc
  3104  0EF9  0F72               	incfsz	___fladd@b+2,w
  3105  0EFA  2EFC               	goto	u1523
  3106  0EFB  2EFD               	goto	u1524
  3107  0EFC                     u1523:
  3108  0EFC  02A6               	subwf	??___fladd+6,f
  3109  0EFD                     u1524:
  3110  0EFD  0873               	movf	___fladd@b+3,w
  3111  0EFE  1C03               	skipc
  3112  0EFF  0F73               	incfsz	___fladd@b+3,w
  3113  0F00  2F02               	goto	u1525
  3114  0F01  2F03               	goto	u1526
  3115  0F02                     u1525:
  3116  0F02  02A7               	subwf	??___fladd+7,f
  3117  0F03                     u1526:
  3118  0F03  0824               	movf	??___fladd+4,w
  3119  0F04  07A0               	addwf	??___fladd,f
  3120  0F05  0825               	movf	??___fladd+5,w
  3121  0F06  1803               	skipnc
  3122  0F07  0F25               	incfsz	??___fladd+5,w
  3123  0F08  2F0A               	goto	u1530
  3124  0F09  2F0B               	goto	u1531
  3125  0F0A                     u1530:
  3126  0F0A  07A1               	addwf	??___fladd+1,f
  3127  0F0B                     u1531:
  3128  0F0B  0826               	movf	??___fladd+6,w
  3129  0F0C  1803               	skipnc
  3130  0F0D  0F26               	incfsz	??___fladd+6,w
  3131  0F0E  2F10               	goto	u1532
  3132  0F0F  2F11               	goto	u1533
  3133  0F10                     u1532:
  3134  0F10  07A2               	addwf	??___fladd+2,f
  3135  0F11                     u1533:
  3136  0F11  0827               	movf	??___fladd+7,w
  3137  0F12  1803               	skipnc
  3138  0F13  0A27               	incf	??___fladd+7,w
  3139  0F14  07A3               	addwf	??___fladd+3,f
  3140  0F15  0823               	movf	??___fladd+3,w
  3141  0F16  00F3               	movwf	___fladd@b+3
  3142  0F17  0822               	movf	??___fladd+2,w
  3143  0F18  00F2               	movwf	___fladd@b+2
  3144  0F19  0821               	movf	??___fladd+1,w
  3145  0F1A  00F1               	movwf	___fladd@b+1
  3146  0F1B  0820               	movf	??___fladd,w
  3147  0F1C  00F0               	movwf	___fladd@b
  3148  0F1D                     l1808:
  3149  0F1D  3080               	movlw	128
  3150  0F1E  00A0               	movwf	??___fladd
  3151  0F1F  0820               	movf	??___fladd,w
  3152  0F20  06F8               	xorwf	___fladd@signs,f
  3153  0F21  09FB               	comf	___fladd@grs,f
  3154  0F22  0AFB               	incf	___fladd@grs,f
  3155  0F23                     l1810:
  3156  0F23  087B               	movf	___fladd@grs,w
  3157  0F24  1D03               	btfss	3,2
  3158  0F25  2F27               	goto	u1541
  3159  0F26  2F28               	goto	u1540
  3160  0F27                     u1541:
  3161  0F27  2F45               	goto	l644
  3162  0F28                     u1540:
  3163  0F28                     l1812:
  3164  0F28  3001               	movlw	1
  3165  0F29  07F0               	addwf	___fladd@b,f
  3166  0F2A  3000               	movlw	0
  3167  0F2B  1803               	skipnc
  3168  0F2C  3001               	movlw	1
  3169  0F2D  07F1               	addwf	___fladd@b+1,f
  3170  0F2E  3000               	movlw	0
  3171  0F2F  1803               	skipnc
  3172  0F30  3001               	movlw	1
  3173  0F31  07F2               	addwf	___fladd@b+2,f
  3174  0F32  3000               	movlw	0
  3175  0F33  1803               	skipnc
  3176  0F34  3001               	movlw	1
  3177  0F35  07F3               	addwf	___fladd@b+3,f
  3178  0F36  2F45               	goto	l644
  3179  0F37                     l1814:
  3180  0F37  0874               	movf	___fladd@a,w
  3181  0F38  02F0               	subwf	___fladd@b,f
  3182  0F39  0875               	movf	___fladd@a+1,w
  3183  0F3A  1C03               	skipc
  3184  0F3B  0F75               	incfsz	___fladd@a+1,w
  3185  0F3C  02F1               	subwf	___fladd@b+1,f
  3186  0F3D  0876               	movf	___fladd@a+2,w
  3187  0F3E  1C03               	skipc
  3188  0F3F  0F76               	incfsz	___fladd@a+2,w
  3189  0F40  02F2               	subwf	___fladd@b+2,f
  3190  0F41  0877               	movf	___fladd@a+3,w
  3191  0F42  1C03               	skipc
  3192  0F43  0F77               	incfsz	___fladd@a+3,w
  3193  0F44  02F3               	subwf	___fladd@b+3,f
  3194  0F45                     l644:
  3195  0F45  0873               	movf	___fladd@b+3,w
  3196  0F46  0472               	iorwf	___fladd@b+2,w
  3197  0F47  0471               	iorwf	___fladd@b+1,w
  3198  0F48  0470               	iorwf	___fladd@b,w
  3199  0F49  1D03               	skipz
  3200  0F4A  2F4C               	goto	u1551
  3201  0F4B  2F4D               	goto	u1550
  3202  0F4C                     u1551:
  3203  0F4C  2F7B               	goto	l1836
  3204  0F4D                     u1550:
  3205  0F4D                     l1816:
  3206  0F4D  087B               	movf	___fladd@grs,w
  3207  0F4E  1D03               	btfss	3,2
  3208  0F4F  2F51               	goto	u1561
  3209  0F50  2F52               	goto	u1560
  3210  0F51                     u1561:
  3211  0F51  2F7B               	goto	l1836
  3212  0F52                     u1560:
  3213  0F52                     l1818:
  3214  0F52  3000               	movlw	0
  3215  0F53  00F3               	movwf	?___fladd+3
  3216  0F54  3000               	movlw	0
  3217  0F55  00F2               	movwf	?___fladd+2
  3218  0F56  3000               	movlw	0
  3219  0F57  00F1               	movwf	?___fladd+1
  3220  0F58  3000               	movlw	0
  3221  0F59  00F0               	movwf	?___fladd
  3222  0F5A  2FFF               	goto	l636
  3223  0F5B                     l1822:
  3224  0F5B  3001               	movlw	1
  3225  0F5C  1283               	bcf	3,5	;RP0=0, select bank0
  3226  0F5D  1303               	bcf	3,6	;RP1=0, select bank0
  3227  0F5E  00A0               	movwf	??___fladd
  3228  0F5F                     u1575:
  3229  0F5F  1003               	clrc
  3230  0F60  0DF0               	rlf	___fladd@b,f
  3231  0F61  0DF1               	rlf	___fladd@b+1,f
  3232  0F62  0DF2               	rlf	___fladd@b+2,f
  3233  0F63  0DF3               	rlf	___fladd@b+3,f
  3234  0F64  0BA0               	decfsz	??___fladd,f
  3235  0F65  2F5F               	goto	u1575
  3236  0F66                     l1824:
  3237  0F66  1FFB               	btfss	___fladd@grs,7
  3238  0F67  2F69               	goto	u1581
  3239  0F68  2F6A               	goto	u1580
  3240  0F69                     u1581:
  3241  0F69  2F6B               	goto	l648
  3242  0F6A                     u1580:
  3243  0F6A                     l1826:
  3244  0F6A  1470               	bsf	___fladd@b,0
  3245  0F6B                     l648:
  3246  0F6B  1C7B               	btfss	___fladd@grs,0
  3247  0F6C  2F6E               	goto	u1591
  3248  0F6D  2F6F               	goto	u1590
  3249  0F6E                     u1591:
  3250  0F6E  2F72               	goto	l1830
  3251  0F6F                     u1590:
  3252  0F6F                     l1828:
  3253  0F6F  1403               	setc
  3254  0F70  0DFB               	rlf	___fladd@grs,f
  3255  0F71  2F74               	goto	l1832
  3256  0F72                     l1830:
  3257  0F72  1003               	clrc
  3258  0F73  0DFB               	rlf	___fladd@grs,f
  3259  0F74                     l1832:
  3260  0F74  087A               	movf	___fladd@bexp,w
  3261  0F75  1903               	btfsc	3,2
  3262  0F76  2F78               	goto	u1601
  3263  0F77  2F79               	goto	u1600
  3264  0F78                     u1601:
  3265  0F78  2F7B               	goto	l1836
  3266  0F79                     u1600:
  3267  0F79                     l1834:
  3268  0F79  3001               	movlw	1
  3269  0F7A  02FA               	subwf	___fladd@bexp,f
  3270  0F7B                     l1836:
  3271  0F7B  1FF2               	btfss	___fladd@b+2,7
  3272  0F7C  2F7E               	goto	u1611
  3273  0F7D  2F7F               	goto	u1610
  3274  0F7E                     u1611:
  3275  0F7E  2F5B               	goto	l1822
  3276  0F7F                     u1610:
  3277  0F7F                     l1838:
  3278  0F7F  01F9               	clrf	___fladd@aexp
  3279  0F80                     l1840:
  3280  0F80  1FFB               	btfss	___fladd@grs,7
  3281  0F81  2F83               	goto	u1621
  3282  0F82  2F84               	goto	u1620
  3283  0F83                     u1621:
  3284  0F83  2F92               	goto	l1848
  3285  0F84                     u1620:
  3286  0F84                     l1842:
  3287  0F84  087B               	movf	___fladd@grs,w
  3288  0F85  397F               	andlw	127
  3289  0F86  1903               	btfsc	3,2
  3290  0F87  2F89               	goto	u1631
  3291  0F88  2F8A               	goto	u1630
  3292  0F89                     u1631:
  3293  0F89  2F8D               	goto	l654
  3294  0F8A                     u1630:
  3295  0F8A                     l1844:
  3296  0F8A  01F9               	clrf	___fladd@aexp
  3297  0F8B  0AF9               	incf	___fladd@aexp,f
  3298  0F8C  2F92               	goto	l1848
  3299  0F8D                     l654:
  3300  0F8D  1C70               	btfss	___fladd@b,0
  3301  0F8E  2F90               	goto	u1641
  3302  0F8F  2F91               	goto	u1640
  3303  0F90                     u1641:
  3304  0F90  2F92               	goto	l1848
  3305  0F91                     u1640:
  3306  0F91  2F8A               	goto	l1844
  3307  0F92                     l1848:
  3308  0F92  0879               	movf	___fladd@aexp,w
  3309  0F93  1903               	btfsc	3,2
  3310  0F94  2F96               	goto	u1651
  3311  0F95  2F97               	goto	u1650
  3312  0F96                     u1651:
  3313  0F96  2FCD               	goto	l657
  3314  0F97                     u1650:
  3315  0F97                     l1850:
  3316  0F97  3001               	movlw	1
  3317  0F98  07F0               	addwf	___fladd@b,f
  3318  0F99  3000               	movlw	0
  3319  0F9A  1803               	skipnc
  3320  0F9B  3001               	movlw	1
  3321  0F9C  07F1               	addwf	___fladd@b+1,f
  3322  0F9D  3000               	movlw	0
  3323  0F9E  1803               	skipnc
  3324  0F9F  3001               	movlw	1
  3325  0FA0  07F2               	addwf	___fladd@b+2,f
  3326  0FA1  3000               	movlw	0
  3327  0FA2  1803               	skipnc
  3328  0FA3  3001               	movlw	1
  3329  0FA4  07F3               	addwf	___fladd@b+3,f
  3330  0FA5                     l1852:
  3331  0FA5  1C73               	btfss	___fladd@b+3,0
  3332  0FA6  2FA8               	goto	u1661
  3333  0FA7  2FA9               	goto	u1660
  3334  0FA8                     u1661:
  3335  0FA8  2FCD               	goto	l657
  3336  0FA9                     u1660:
  3337  0FA9                     l1854:
  3338  0FA9  0870               	movf	___fladd@b,w
  3339  0FAA  1283               	bcf	3,5	;RP0=0, select bank0
  3340  0FAB  1303               	bcf	3,6	;RP1=0, select bank0
  3341  0FAC  00A0               	movwf	??___fladd
  3342  0FAD  0871               	movf	___fladd@b+1,w
  3343  0FAE  00A1               	movwf	??___fladd+1
  3344  0FAF  0872               	movf	___fladd@b+2,w
  3345  0FB0  00A2               	movwf	??___fladd+2
  3346  0FB1  0873               	movf	___fladd@b+3,w
  3347  0FB2  00A3               	movwf	??___fladd+3
  3348  0FB3  3001               	movlw	1
  3349  0FB4  00A4               	movwf	??___fladd+4
  3350  0FB5                     u1675:
  3351  0FB5  0D23               	rlf	??___fladd+3,w
  3352  0FB6  0CA3               	rrf	??___fladd+3,f
  3353  0FB7  0CA2               	rrf	??___fladd+2,f
  3354  0FB8  0CA1               	rrf	??___fladd+1,f
  3355  0FB9  0CA0               	rrf	??___fladd,f
  3356  0FBA                     u1670:
  3357  0FBA  0BA4               	decfsz	??___fladd+4,f
  3358  0FBB  2FB5               	goto	u1675
  3359  0FBC  0823               	movf	??___fladd+3,w
  3360  0FBD  00F3               	movwf	___fladd@b+3
  3361  0FBE  0822               	movf	??___fladd+2,w
  3362  0FBF  00F2               	movwf	___fladd@b+2
  3363  0FC0  0821               	movf	??___fladd+1,w
  3364  0FC1  00F1               	movwf	___fladd@b+1
  3365  0FC2  0820               	movf	??___fladd,w
  3366  0FC3  00F0               	movwf	___fladd@b
  3367  0FC4  0A7A               	incf	___fladd@bexp,w
  3368  0FC5  1903               	btfsc	3,2
  3369  0FC6  2FC8               	goto	u1681
  3370  0FC7  2FC9               	goto	u1680
  3371  0FC8                     u1681:
  3372  0FC8  2FCD               	goto	l657
  3373  0FC9                     u1680:
  3374  0FC9                     l1856:
  3375  0FC9  3001               	movlw	1
  3376  0FCA  00A0               	movwf	??___fladd
  3377  0FCB  0820               	movf	??___fladd,w
  3378  0FCC  07FA               	addwf	___fladd@bexp,f
  3379  0FCD                     l657:
  3380  0FCD  0A7A               	incf	___fladd@bexp,w
  3381  0FCE  1903               	btfsc	3,2
  3382  0FCF  2FD1               	goto	u1691
  3383  0FD0  2FD2               	goto	u1690
  3384  0FD1                     u1691:
  3385  0FD1  2FD7               	goto	l1860
  3386  0FD2                     u1690:
  3387  0FD2                     l1858:
  3388  0FD2  087A               	movf	___fladd@bexp,w
  3389  0FD3  1D03               	btfss	3,2
  3390  0FD4  2FD6               	goto	u1701
  3391  0FD5  2FD7               	goto	u1700
  3392  0FD6                     u1701:
  3393  0FD6  2FE5               	goto	l1866
  3394  0FD7                     u1700:
  3395  0FD7                     l1860:
  3396  0FD7  3000               	movlw	0
  3397  0FD8  00F3               	movwf	___fladd@b+3
  3398  0FD9  3000               	movlw	0
  3399  0FDA  00F2               	movwf	___fladd@b+2
  3400  0FDB  3000               	movlw	0
  3401  0FDC  00F1               	movwf	___fladd@b+1
  3402  0FDD  3000               	movlw	0
  3403  0FDE  00F0               	movwf	___fladd@b
  3404  0FDF                     l1862:
  3405  0FDF  087A               	movf	___fladd@bexp,w
  3406  0FE0  1D03               	btfss	3,2
  3407  0FE1  2FE3               	goto	u1711
  3408  0FE2  2FE4               	goto	u1710
  3409  0FE3                     u1711:
  3410  0FE3  2FE5               	goto	l1866
  3411  0FE4                     u1710:
  3412  0FE4                     l1864:
  3413  0FE4  01F8               	clrf	___fladd@signs
  3414  0FE5                     l1866:
  3415  0FE5  1C7A               	btfss	___fladd@bexp,0
  3416  0FE6  2FE8               	goto	u1721
  3417  0FE7  2FE9               	goto	u1720
  3418  0FE8                     u1721:
  3419  0FE8  2FEB               	goto	l1870
  3420  0FE9                     u1720:
  3421  0FE9                     l1868:
  3422  0FE9  17F2               	bsf	___fladd@b+2,7
  3423  0FEA  2FF1               	goto	l665
  3424  0FEB                     l1870:
  3425  0FEB  307F               	movlw	127
  3426  0FEC  1283               	bcf	3,5	;RP0=0, select bank0
  3427  0FED  1303               	bcf	3,6	;RP1=0, select bank0
  3428  0FEE  00A0               	movwf	??___fladd
  3429  0FEF  0820               	movf	??___fladd,w
  3430  0FF0  05F2               	andwf	___fladd@b+2,f
  3431  0FF1                     l665:
  3432  0FF1  087A               	movf	___fladd@bexp,w
  3433  0FF2  1283               	bcf	3,5	;RP0=0, select bank0
  3434  0FF3  1303               	bcf	3,6	;RP1=0, select bank0
  3435  0FF4  00A0               	movwf	??___fladd
  3436  0FF5  1003               	clrc
  3437  0FF6  0C20               	rrf	??___fladd,w
  3438  0FF7  00A1               	movwf	??___fladd+1
  3439  0FF8  0821               	movf	??___fladd+1,w
  3440  0FF9  00F3               	movwf	___fladd@b+3
  3441  0FFA                     l1872:
  3442  0FFA  1FF8               	btfss	___fladd@signs,7
  3443  0FFB  2FFD               	goto	u1731
  3444  0FFC  2FFE               	goto	u1730
  3445  0FFD                     u1731:
  3446  0FFD  2FFF               	goto	l666
  3447  0FFE                     u1730:
  3448  0FFE                     l1874:
  3449  0FFE  17F3               	bsf	___fladd@b+3,7
  3450  0FFF                     l666:
  3451  0FFF                     l636:
  3452  0FFF  0008               	return
  3453  1000                     __end_of___fladd:
  3454                           
  3455                           	psect	text6
  3456  045F                     __ptext6:	
  3457 ;; *************** function ___flmul *****************
  3458 ;; Defined at:
  3459 ;;		line 8 in file "C:\Program Files\Microchip\xc8\v2.32\pic\sources\c90\common\sprcmul.c"
  3460 ;; Parameters:    Size  Location     Type
  3461 ;;  b               4    0[BANK0 ] unsigned char 
  3462 ;;  a               4    4[BANK0 ] unsigned char 
  3463 ;; Auto vars:     Size  Location     Type
  3464 ;;  prod            4   15[BANK0 ] struct .
  3465 ;;  grs             4    9[BANK0 ] unsigned long 
  3466 ;;  temp            2   19[BANK0 ] struct .
  3467 ;;  bexp            1   14[BANK0 ] unsigned char 
  3468 ;;  aexp            1   13[BANK0 ] unsigned char 
  3469 ;;  sign            1    8[BANK0 ] unsigned char 
  3470 ;; Return value:  Size  Location     Type
  3471 ;;                  4    0[BANK0 ] unsigned char 
  3472 ;; Registers used:
  3473 ;;		wreg, status,2, status,0, btemp+1, pclath, cstack
  3474 ;; Tracked objects:
  3475 ;;		On entry : 0/0
  3476 ;;		On exit  : 0/0
  3477 ;;		Unchanged: 0/0
  3478 ;; Data sizes:     COMMON   BANK0   BANK1   BANK3   BANK2
  3479 ;;      Params:         0       8       0       0       0
  3480 ;;      Locals:         0      13       0       0       0
  3481 ;;      Temps:          5       0       0       0       0
  3482 ;;      Totals:         5      21       0       0       0
  3483 ;;Total ram usage:       26 bytes
  3484 ;; Hardware stack levels used: 1
  3485 ;; Hardware stack levels required when called: 1
  3486 ;; This function calls:
  3487 ;;		__Umul8_16
  3488 ;; This function is called by:
  3489 ;;		_liga_buzzer
  3490 ;; This function uses a non-reentrant model
  3491 ;;
  3492                           
  3493                           
  3494                           ;psect for function ___flmul
  3495  045F                     ___flmul:
  3496  045F                     l1926:	
  3497                           ;incstack = 0
  3498                           ; Regs used in ___flmul: [wreg+status,2+status,0+btemp+1+pclath+cstack]
  3499                           
  3500  045F  1283               	bcf	3,5	;RP0=0, select bank0
  3501  0460  1303               	bcf	3,6	;RP1=0, select bank0
  3502  0461  0823               	movf	___flmul@b+3,w
  3503  0462  3980               	andlw	128
  3504  0463  00F9               	movwf	??___flmul
  3505  0464  0879               	movf	??___flmul,w
  3506  0465  00A8               	movwf	___flmul@sign
  3507  0466                     l1928:
  3508  0466  0823               	movf	___flmul@b+3,w
  3509  0467  00F9               	movwf	??___flmul
  3510  0468  0779               	addwf	??___flmul,w
  3511  0469  00FA               	movwf	??___flmul+1
  3512  046A  087A               	movf	??___flmul+1,w
  3513  046B  00AE               	movwf	___flmul@bexp
  3514  046C                     l1930:
  3515  046C  1FA2               	btfss	___flmul@b+2,7
  3516  046D  2C6F               	goto	u1851
  3517  046E  2C70               	goto	u1850
  3518  046F                     u1851:
  3519  046F  2C71               	goto	l1934
  3520  0470                     u1850:
  3521  0470                     l1932:
  3522  0470  142E               	bsf	___flmul@bexp,0
  3523  0471                     l1934:
  3524  0471  082E               	movf	___flmul@bexp,w
  3525  0472  1903               	btfsc	3,2
  3526  0473  2C75               	goto	u1861
  3527  0474  2C76               	goto	u1860
  3528  0475                     u1861:
  3529  0475  2C85               	goto	l1942
  3530  0476                     u1860:
  3531  0476                     l1936:
  3532  0476  0A2E               	incf	___flmul@bexp,w
  3533  0477  1D03               	btfss	3,2
  3534  0478  2C7A               	goto	u1871
  3535  0479  2C7B               	goto	u1870
  3536  047A                     u1871:
  3537  047A  2C83               	goto	l1940
  3538  047B                     u1870:
  3539  047B                     l1938:
  3540  047B  3000               	movlw	0
  3541  047C  00A3               	movwf	___flmul@b+3
  3542  047D  3000               	movlw	0
  3543  047E  00A2               	movwf	___flmul@b+2
  3544  047F  3000               	movlw	0
  3545  0480  00A1               	movwf	___flmul@b+1
  3546  0481  3000               	movlw	0
  3547  0482  00A0               	movwf	___flmul@b
  3548  0483                     l1940:
  3549  0483  17A2               	bsf	___flmul@b+2,7
  3550  0484  2C8D               	goto	l1944
  3551  0485                     l1942:
  3552  0485  3000               	movlw	0
  3553  0486  00A3               	movwf	___flmul@b+3
  3554  0487  3000               	movlw	0
  3555  0488  00A2               	movwf	___flmul@b+2
  3556  0489  3000               	movlw	0
  3557  048A  00A1               	movwf	___flmul@b+1
  3558  048B  3000               	movlw	0
  3559  048C  00A0               	movwf	___flmul@b
  3560  048D                     l1944:
  3561  048D  0827               	movf	___flmul@a+3,w
  3562  048E  3980               	andlw	128
  3563  048F  00F9               	movwf	??___flmul
  3564  0490  0879               	movf	??___flmul,w
  3565  0491  06A8               	xorwf	___flmul@sign,f
  3566  0492                     l1946:
  3567  0492  0827               	movf	___flmul@a+3,w
  3568  0493  00F9               	movwf	??___flmul
  3569  0494  0779               	addwf	??___flmul,w
  3570  0495  00FA               	movwf	??___flmul+1
  3571  0496  087A               	movf	??___flmul+1,w
  3572  0497  00AD               	movwf	___flmul@aexp
  3573  0498                     l1948:
  3574  0498  1FA6               	btfss	___flmul@a+2,7
  3575  0499  2C9B               	goto	u1881
  3576  049A  2C9C               	goto	u1880
  3577  049B                     u1881:
  3578  049B  2C9D               	goto	l1952
  3579  049C                     u1880:
  3580  049C                     l1950:
  3581  049C  142D               	bsf	___flmul@aexp,0
  3582  049D                     l1952:
  3583  049D  082D               	movf	___flmul@aexp,w
  3584  049E  1903               	btfsc	3,2
  3585  049F  2CA1               	goto	u1891
  3586  04A0  2CA2               	goto	u1890
  3587  04A1                     u1891:
  3588  04A1  2CB1               	goto	l1960
  3589  04A2                     u1890:
  3590  04A2                     l1954:
  3591  04A2  0A2D               	incf	___flmul@aexp,w
  3592  04A3  1D03               	btfss	3,2
  3593  04A4  2CA6               	goto	u1901
  3594  04A5  2CA7               	goto	u1900
  3595  04A6                     u1901:
  3596  04A6  2CAF               	goto	l1958
  3597  04A7                     u1900:
  3598  04A7                     l1956:
  3599  04A7  3000               	movlw	0
  3600  04A8  00A7               	movwf	___flmul@a+3
  3601  04A9  3000               	movlw	0
  3602  04AA  00A6               	movwf	___flmul@a+2
  3603  04AB  3000               	movlw	0
  3604  04AC  00A5               	movwf	___flmul@a+1
  3605  04AD  3000               	movlw	0
  3606  04AE  00A4               	movwf	___flmul@a
  3607  04AF                     l1958:
  3608  04AF  17A6               	bsf	___flmul@a+2,7
  3609  04B0  2CB9               	goto	l1962
  3610  04B1                     l1960:
  3611  04B1  3000               	movlw	0
  3612  04B2  00A7               	movwf	___flmul@a+3
  3613  04B3  3000               	movlw	0
  3614  04B4  00A6               	movwf	___flmul@a+2
  3615  04B5  3000               	movlw	0
  3616  04B6  00A5               	movwf	___flmul@a+1
  3617  04B7  3000               	movlw	0
  3618  04B8  00A4               	movwf	___flmul@a
  3619  04B9                     l1962:
  3620  04B9  082D               	movf	___flmul@aexp,w
  3621  04BA  1903               	btfsc	3,2
  3622  04BB  2CBD               	goto	u1911
  3623  04BC  2CBE               	goto	u1910
  3624  04BD                     u1911:
  3625  04BD  2CC3               	goto	l1966
  3626  04BE                     u1910:
  3627  04BE                     l1964:
  3628  04BE  082E               	movf	___flmul@bexp,w
  3629  04BF  1D03               	btfss	3,2
  3630  04C0  2CC2               	goto	u1921
  3631  04C1  2CC3               	goto	u1920
  3632  04C2                     u1921:
  3633  04C2  2CCC               	goto	l1970
  3634  04C3                     u1920:
  3635  04C3                     l1966:
  3636  04C3  3000               	movlw	0
  3637  04C4  00A3               	movwf	?___flmul+3
  3638  04C5  3000               	movlw	0
  3639  04C6  00A2               	movwf	?___flmul+2
  3640  04C7  3000               	movlw	0
  3641  04C8  00A1               	movwf	?___flmul+1
  3642  04C9  3000               	movlw	0
  3643  04CA  00A0               	movwf	?___flmul
  3644  04CB  2FBF               	goto	l719
  3645  04CC                     l1970:
  3646  04CC  0820               	movf	___flmul@b,w
  3647  04CD  00F9               	movwf	??___flmul
  3648  04CE  0879               	movf	??___flmul,w
  3649  04CF  00F0               	movwf	__Umul8_16@multiplicand
  3650  04D0  0826               	movf	___flmul@a+2,w
  3651  04D1  120A  158A  231A  120A  118A  	fcall	__Umul8_16
  3652  04D6  0871               	movf	?__Umul8_16+1,w
  3653  04D7  1283               	bcf	3,5	;RP0=0, select bank0
  3654  04D8  1303               	bcf	3,6	;RP1=0, select bank0
  3655  04D9  00B4               	movwf	___flmul@temp+1
  3656  04DA  0870               	movf	?__Umul8_16,w
  3657  04DB  00B3               	movwf	___flmul@temp
  3658  04DC                     l1972:
  3659  04DC  0833               	movf	___flmul@temp,w
  3660  04DD  00F9               	movwf	??___flmul
  3661  04DE  01FA               	clrf	??___flmul+1
  3662  04DF  01FB               	clrf	??___flmul+2
  3663  04E0  01FC               	clrf	??___flmul+3
  3664  04E1  087C               	movf	??___flmul+3,w
  3665  04E2  00AC               	movwf	___flmul@grs+3
  3666  04E3  087B               	movf	??___flmul+2,w
  3667  04E4  00AB               	movwf	___flmul@grs+2
  3668  04E5  087A               	movf	??___flmul+1,w
  3669  04E6  00AA               	movwf	___flmul@grs+1
  3670  04E7  0879               	movf	??___flmul,w
  3671  04E8  00A9               	movwf	___flmul@grs
  3672  04E9                     l1974:
  3673  04E9  0834               	movf	___flmul@temp+1,w
  3674  04EA  00F9               	movwf	??___flmul
  3675  04EB  01FA               	clrf	??___flmul+1
  3676  04EC  01FB               	clrf	??___flmul+2
  3677  04ED  01FC               	clrf	??___flmul+3
  3678  04EE  087C               	movf	??___flmul+3,w
  3679  04EF  00B2               	movwf	___flmul@prod+3
  3680  04F0  087B               	movf	??___flmul+2,w
  3681  04F1  00B1               	movwf	___flmul@prod+2
  3682  04F2  087A               	movf	??___flmul+1,w
  3683  04F3  00B0               	movwf	___flmul@prod+1
  3684  04F4  0879               	movf	??___flmul,w
  3685  04F5  00AF               	movwf	___flmul@prod
  3686  04F6  0821               	movf	___flmul@b+1,w
  3687  04F7  00F9               	movwf	??___flmul
  3688  04F8  0879               	movf	??___flmul,w
  3689  04F9  00F0               	movwf	__Umul8_16@multiplicand
  3690  04FA  0825               	movf	___flmul@a+1,w
  3691  04FB  120A  158A  231A  120A  118A  	fcall	__Umul8_16
  3692  0500  0871               	movf	?__Umul8_16+1,w
  3693  0501  1283               	bcf	3,5	;RP0=0, select bank0
  3694  0502  1303               	bcf	3,6	;RP1=0, select bank0
  3695  0503  00B4               	movwf	___flmul@temp+1
  3696  0504  0870               	movf	?__Umul8_16,w
  3697  0505  00B3               	movwf	___flmul@temp
  3698  0506                     l1976:
  3699  0506  0833               	movf	___flmul@temp,w
  3700  0507  00F9               	movwf	??___flmul
  3701  0508  01FA               	clrf	??___flmul+1
  3702  0509  01FB               	clrf	??___flmul+2
  3703  050A  01FC               	clrf	??___flmul+3
  3704  050B  0879               	movf	??___flmul,w
  3705  050C  07A9               	addwf	___flmul@grs,f
  3706  050D  087A               	movf	??___flmul+1,w
  3707  050E  1103               	clrz
  3708  050F  1803               	skipnc
  3709  0510  3E01               	addlw	1
  3710  0511  1903               	skipnz
  3711  0512  2D14               	goto	u1931
  3712  0513  07AA               	addwf	___flmul@grs+1,f
  3713  0514                     u1931:
  3714  0514  087B               	movf	??___flmul+2,w
  3715  0515  1103               	clrz
  3716  0516  1803               	skipnc
  3717  0517  3E01               	addlw	1
  3718  0518  1903               	skipnz
  3719  0519  2D1B               	goto	u1932
  3720  051A  07AB               	addwf	___flmul@grs+2,f
  3721  051B                     u1932:
  3722  051B  087C               	movf	??___flmul+3,w
  3723  051C  1103               	clrz
  3724  051D  1803               	skipnc
  3725  051E  3E01               	addlw	1
  3726  051F  1903               	skipnz
  3727  0520  2D22               	goto	u1933
  3728  0521  07AC               	addwf	___flmul@grs+3,f
  3729  0522                     u1933:
  3730  0522                     l1978:
  3731  0522  0834               	movf	___flmul@temp+1,w
  3732  0523  00F9               	movwf	??___flmul
  3733  0524  01FA               	clrf	??___flmul+1
  3734  0525  01FB               	clrf	??___flmul+2
  3735  0526  01FC               	clrf	??___flmul+3
  3736  0527  0879               	movf	??___flmul,w
  3737  0528  07AF               	addwf	___flmul@prod,f
  3738  0529  087A               	movf	??___flmul+1,w
  3739  052A  1103               	clrz
  3740  052B  1803               	skipnc
  3741  052C  3E01               	addlw	1
  3742  052D  1903               	skipnz
  3743  052E  2D30               	goto	u1941
  3744  052F  07B0               	addwf	___flmul@prod+1,f
  3745  0530                     u1941:
  3746  0530  087B               	movf	??___flmul+2,w
  3747  0531  1103               	clrz
  3748  0532  1803               	skipnc
  3749  0533  3E01               	addlw	1
  3750  0534  1903               	skipnz
  3751  0535  2D37               	goto	u1942
  3752  0536  07B1               	addwf	___flmul@prod+2,f
  3753  0537                     u1942:
  3754  0537  087C               	movf	??___flmul+3,w
  3755  0538  1103               	clrz
  3756  0539  1803               	skipnc
  3757  053A  3E01               	addlw	1
  3758  053B  1903               	skipnz
  3759  053C  2D3E               	goto	u1943
  3760  053D  07B2               	addwf	___flmul@prod+3,f
  3761  053E                     u1943:
  3762  053E  0822               	movf	___flmul@b+2,w
  3763  053F  00F9               	movwf	??___flmul
  3764  0540  0879               	movf	??___flmul,w
  3765  0541  00F0               	movwf	__Umul8_16@multiplicand
  3766  0542  0824               	movf	___flmul@a,w
  3767  0543  120A  158A  231A  120A  118A  	fcall	__Umul8_16
  3768  0548  0871               	movf	?__Umul8_16+1,w
  3769  0549  1283               	bcf	3,5	;RP0=0, select bank0
  3770  054A  1303               	bcf	3,6	;RP1=0, select bank0
  3771  054B  00B4               	movwf	___flmul@temp+1
  3772  054C  0870               	movf	?__Umul8_16,w
  3773  054D  00B3               	movwf	___flmul@temp
  3774  054E                     l1980:
  3775  054E  0833               	movf	___flmul@temp,w
  3776  054F  00F9               	movwf	??___flmul
  3777  0550  01FA               	clrf	??___flmul+1
  3778  0551  01FB               	clrf	??___flmul+2
  3779  0552  01FC               	clrf	??___flmul+3
  3780  0553  0879               	movf	??___flmul,w
  3781  0554  07A9               	addwf	___flmul@grs,f
  3782  0555  087A               	movf	??___flmul+1,w
  3783  0556  1103               	clrz
  3784  0557  1803               	skipnc
  3785  0558  3E01               	addlw	1
  3786  0559  1903               	skipnz
  3787  055A  2D5C               	goto	u1951
  3788  055B  07AA               	addwf	___flmul@grs+1,f
  3789  055C                     u1951:
  3790  055C  087B               	movf	??___flmul+2,w
  3791  055D  1103               	clrz
  3792  055E  1803               	skipnc
  3793  055F  3E01               	addlw	1
  3794  0560  1903               	skipnz
  3795  0561  2D63               	goto	u1952
  3796  0562  07AB               	addwf	___flmul@grs+2,f
  3797  0563                     u1952:
  3798  0563  087C               	movf	??___flmul+3,w
  3799  0564  1103               	clrz
  3800  0565  1803               	skipnc
  3801  0566  3E01               	addlw	1
  3802  0567  1903               	skipnz
  3803  0568  2D6A               	goto	u1953
  3804  0569  07AC               	addwf	___flmul@grs+3,f
  3805  056A                     u1953:
  3806  056A                     l1982:
  3807  056A  0834               	movf	___flmul@temp+1,w
  3808  056B  00F9               	movwf	??___flmul
  3809  056C  01FA               	clrf	??___flmul+1
  3810  056D  01FB               	clrf	??___flmul+2
  3811  056E  01FC               	clrf	??___flmul+3
  3812  056F  0879               	movf	??___flmul,w
  3813  0570  07AF               	addwf	___flmul@prod,f
  3814  0571  087A               	movf	??___flmul+1,w
  3815  0572  1103               	clrz
  3816  0573  1803               	skipnc
  3817  0574  3E01               	addlw	1
  3818  0575  1903               	skipnz
  3819  0576  2D78               	goto	u1961
  3820  0577  07B0               	addwf	___flmul@prod+1,f
  3821  0578                     u1961:
  3822  0578  087B               	movf	??___flmul+2,w
  3823  0579  1103               	clrz
  3824  057A  1803               	skipnc
  3825  057B  3E01               	addlw	1
  3826  057C  1903               	skipnz
  3827  057D  2D7F               	goto	u1962
  3828  057E  07B1               	addwf	___flmul@prod+2,f
  3829  057F                     u1962:
  3830  057F  087C               	movf	??___flmul+3,w
  3831  0580  1103               	clrz
  3832  0581  1803               	skipnc
  3833  0582  3E01               	addlw	1
  3834  0583  1903               	skipnz
  3835  0584  2D86               	goto	u1963
  3836  0585  07B2               	addwf	___flmul@prod+3,f
  3837  0586                     u1963:
  3838  0586                     l1984:
  3839  0586  3008               	movlw	8
  3840  0587  00F9               	movwf	??___flmul
  3841  0588                     u1975:
  3842  0588  1003               	clrc
  3843  0589  0DA9               	rlf	___flmul@grs,f
  3844  058A  0DAA               	rlf	___flmul@grs+1,f
  3845  058B  0DAB               	rlf	___flmul@grs+2,f
  3846  058C  0DAC               	rlf	___flmul@grs+3,f
  3847  058D  0BF9               	decfsz	??___flmul,f
  3848  058E  2D88               	goto	u1975
  3849  058F                     l1986:
  3850  058F  0821               	movf	___flmul@b+1,w
  3851  0590  00F9               	movwf	??___flmul
  3852  0591  0879               	movf	??___flmul,w
  3853  0592  00F0               	movwf	__Umul8_16@multiplicand
  3854  0593  0824               	movf	___flmul@a,w
  3855  0594  120A  158A  231A  120A  118A  	fcall	__Umul8_16
  3856  0599  0871               	movf	?__Umul8_16+1,w
  3857  059A  1283               	bcf	3,5	;RP0=0, select bank0
  3858  059B  1303               	bcf	3,6	;RP1=0, select bank0
  3859  059C  00B4               	movwf	___flmul@temp+1
  3860  059D  0870               	movf	?__Umul8_16,w
  3861  059E  00B3               	movwf	___flmul@temp
  3862  059F                     l1988:
  3863  059F  0833               	movf	___flmul@temp,w
  3864  05A0  00F9               	movwf	??___flmul
  3865  05A1  0834               	movf	___flmul@temp+1,w
  3866  05A2  00FA               	movwf	??___flmul+1
  3867  05A3  01FB               	clrf	??___flmul+2
  3868  05A4  01FC               	clrf	??___flmul+3
  3869  05A5  0879               	movf	??___flmul,w
  3870  05A6  07A9               	addwf	___flmul@grs,f
  3871  05A7  087A               	movf	??___flmul+1,w
  3872  05A8  1103               	clrz
  3873  05A9  1803               	skipnc
  3874  05AA  3E01               	addlw	1
  3875  05AB  1903               	skipnz
  3876  05AC  2DAE               	goto	u1981
  3877  05AD  07AA               	addwf	___flmul@grs+1,f
  3878  05AE                     u1981:
  3879  05AE  087B               	movf	??___flmul+2,w
  3880  05AF  1103               	clrz
  3881  05B0  1803               	skipnc
  3882  05B1  3E01               	addlw	1
  3883  05B2  1903               	skipnz
  3884  05B3  2DB5               	goto	u1982
  3885  05B4  07AB               	addwf	___flmul@grs+2,f
  3886  05B5                     u1982:
  3887  05B5  087C               	movf	??___flmul+3,w
  3888  05B6  1103               	clrz
  3889  05B7  1803               	skipnc
  3890  05B8  3E01               	addlw	1
  3891  05B9  1903               	skipnz
  3892  05BA  2DBC               	goto	u1983
  3893  05BB  07AC               	addwf	___flmul@grs+3,f
  3894  05BC                     u1983:
  3895  05BC                     l1990:
  3896  05BC  0820               	movf	___flmul@b,w
  3897  05BD  00F9               	movwf	??___flmul
  3898  05BE  0879               	movf	??___flmul,w
  3899  05BF  00F0               	movwf	__Umul8_16@multiplicand
  3900  05C0  0825               	movf	___flmul@a+1,w
  3901  05C1  120A  158A  231A  120A  118A  	fcall	__Umul8_16
  3902  05C6  0871               	movf	?__Umul8_16+1,w
  3903  05C7  1283               	bcf	3,5	;RP0=0, select bank0
  3904  05C8  1303               	bcf	3,6	;RP1=0, select bank0
  3905  05C9  00B4               	movwf	___flmul@temp+1
  3906  05CA  0870               	movf	?__Umul8_16,w
  3907  05CB  00B3               	movwf	___flmul@temp
  3908  05CC                     l1992:
  3909  05CC  0833               	movf	___flmul@temp,w
  3910  05CD  00F9               	movwf	??___flmul
  3911  05CE  0834               	movf	___flmul@temp+1,w
  3912  05CF  00FA               	movwf	??___flmul+1
  3913  05D0  01FB               	clrf	??___flmul+2
  3914  05D1  01FC               	clrf	??___flmul+3
  3915  05D2  0879               	movf	??___flmul,w
  3916  05D3  07A9               	addwf	___flmul@grs,f
  3917  05D4  087A               	movf	??___flmul+1,w
  3918  05D5  1103               	clrz
  3919  05D6  1803               	skipnc
  3920  05D7  3E01               	addlw	1
  3921  05D8  1903               	skipnz
  3922  05D9  2DDB               	goto	u1991
  3923  05DA  07AA               	addwf	___flmul@grs+1,f
  3924  05DB                     u1991:
  3925  05DB  087B               	movf	??___flmul+2,w
  3926  05DC  1103               	clrz
  3927  05DD  1803               	skipnc
  3928  05DE  3E01               	addlw	1
  3929  05DF  1903               	skipnz
  3930  05E0  2DE2               	goto	u1992
  3931  05E1  07AB               	addwf	___flmul@grs+2,f
  3932  05E2                     u1992:
  3933  05E2  087C               	movf	??___flmul+3,w
  3934  05E3  1103               	clrz
  3935  05E4  1803               	skipnc
  3936  05E5  3E01               	addlw	1
  3937  05E6  1903               	skipnz
  3938  05E7  2DE9               	goto	u1993
  3939  05E8  07AC               	addwf	___flmul@grs+3,f
  3940  05E9                     u1993:
  3941  05E9                     l1994:
  3942  05E9  3008               	movlw	8
  3943  05EA  00F9               	movwf	??___flmul
  3944  05EB                     u2005:
  3945  05EB  1003               	clrc
  3946  05EC  0DA9               	rlf	___flmul@grs,f
  3947  05ED  0DAA               	rlf	___flmul@grs+1,f
  3948  05EE  0DAB               	rlf	___flmul@grs+2,f
  3949  05EF  0DAC               	rlf	___flmul@grs+3,f
  3950  05F0  0BF9               	decfsz	??___flmul,f
  3951  05F1  2DEB               	goto	u2005
  3952  05F2  0820               	movf	___flmul@b,w
  3953  05F3  00F9               	movwf	??___flmul
  3954  05F4  0879               	movf	??___flmul,w
  3955  05F5  00F0               	movwf	__Umul8_16@multiplicand
  3956  05F6  0824               	movf	___flmul@a,w
  3957  05F7  120A  158A  231A  120A  118A  	fcall	__Umul8_16
  3958  05FC  0871               	movf	?__Umul8_16+1,w
  3959  05FD  1283               	bcf	3,5	;RP0=0, select bank0
  3960  05FE  1303               	bcf	3,6	;RP1=0, select bank0
  3961  05FF  00B4               	movwf	___flmul@temp+1
  3962  0600  0870               	movf	?__Umul8_16,w
  3963  0601  00B3               	movwf	___flmul@temp
  3964  0602                     l1996:
  3965  0602  0833               	movf	___flmul@temp,w
  3966  0603  00F9               	movwf	??___flmul
  3967  0604  0834               	movf	___flmul@temp+1,w
  3968  0605  00FA               	movwf	??___flmul+1
  3969  0606  01FB               	clrf	??___flmul+2
  3970  0607  01FC               	clrf	??___flmul+3
  3971  0608  0879               	movf	??___flmul,w
  3972  0609  07A9               	addwf	___flmul@grs,f
  3973  060A  087A               	movf	??___flmul+1,w
  3974  060B  1103               	clrz
  3975  060C  1803               	skipnc
  3976  060D  3E01               	addlw	1
  3977  060E  1903               	skipnz
  3978  060F  2E11               	goto	u2011
  3979  0610  07AA               	addwf	___flmul@grs+1,f
  3980  0611                     u2011:
  3981  0611  087B               	movf	??___flmul+2,w
  3982  0612  1103               	clrz
  3983  0613  1803               	skipnc
  3984  0614  3E01               	addlw	1
  3985  0615  1903               	skipnz
  3986  0616  2E18               	goto	u2012
  3987  0617  07AB               	addwf	___flmul@grs+2,f
  3988  0618                     u2012:
  3989  0618  087C               	movf	??___flmul+3,w
  3990  0619  1103               	clrz
  3991  061A  1803               	skipnc
  3992  061B  3E01               	addlw	1
  3993  061C  1903               	skipnz
  3994  061D  2E1F               	goto	u2013
  3995  061E  07AC               	addwf	___flmul@grs+3,f
  3996  061F                     u2013:
  3997  061F                     l1998:
  3998  061F  0821               	movf	___flmul@b+1,w
  3999  0620  00F9               	movwf	??___flmul
  4000  0621  0879               	movf	??___flmul,w
  4001  0622  00F0               	movwf	__Umul8_16@multiplicand
  4002  0623  0826               	movf	___flmul@a+2,w
  4003  0624  120A  158A  231A  120A  118A  	fcall	__Umul8_16
  4004  0629  0871               	movf	?__Umul8_16+1,w
  4005  062A  1283               	bcf	3,5	;RP0=0, select bank0
  4006  062B  1303               	bcf	3,6	;RP1=0, select bank0
  4007  062C  00B4               	movwf	___flmul@temp+1
  4008  062D  0870               	movf	?__Umul8_16,w
  4009  062E  00B3               	movwf	___flmul@temp
  4010  062F  0833               	movf	___flmul@temp,w
  4011  0630  00F9               	movwf	??___flmul
  4012  0631  0834               	movf	___flmul@temp+1,w
  4013  0632  00FA               	movwf	??___flmul+1
  4014  0633  01FB               	clrf	??___flmul+2
  4015  0634  01FC               	clrf	??___flmul+3
  4016  0635  0879               	movf	??___flmul,w
  4017  0636  07AF               	addwf	___flmul@prod,f
  4018  0637  087A               	movf	??___flmul+1,w
  4019  0638  1103               	clrz
  4020  0639  1803               	skipnc
  4021  063A  3E01               	addlw	1
  4022  063B  1903               	skipnz
  4023  063C  2E3E               	goto	u2021
  4024  063D  07B0               	addwf	___flmul@prod+1,f
  4025  063E                     u2021:
  4026  063E  087B               	movf	??___flmul+2,w
  4027  063F  1103               	clrz
  4028  0640  1803               	skipnc
  4029  0641  3E01               	addlw	1
  4030  0642  1903               	skipnz
  4031  0643  2E45               	goto	u2022
  4032  0644  07B1               	addwf	___flmul@prod+2,f
  4033  0645                     u2022:
  4034  0645  087C               	movf	??___flmul+3,w
  4035  0646  1103               	clrz
  4036  0647  1803               	skipnc
  4037  0648  3E01               	addlw	1
  4038  0649  1903               	skipnz
  4039  064A  2E4C               	goto	u2023
  4040  064B  07B2               	addwf	___flmul@prod+3,f
  4041  064C                     u2023:
  4042  064C                     l2000:
  4043  064C  0822               	movf	___flmul@b+2,w
  4044  064D  00F9               	movwf	??___flmul
  4045  064E  0879               	movf	??___flmul,w
  4046  064F  00F0               	movwf	__Umul8_16@multiplicand
  4047  0650  0825               	movf	___flmul@a+1,w
  4048  0651  120A  158A  231A  120A  118A  	fcall	__Umul8_16
  4049  0656  0871               	movf	?__Umul8_16+1,w
  4050  0657  1283               	bcf	3,5	;RP0=0, select bank0
  4051  0658  1303               	bcf	3,6	;RP1=0, select bank0
  4052  0659  00B4               	movwf	___flmul@temp+1
  4053  065A  0870               	movf	?__Umul8_16,w
  4054  065B  00B3               	movwf	___flmul@temp
  4055  065C                     l2002:
  4056  065C  0833               	movf	___flmul@temp,w
  4057  065D  00F9               	movwf	??___flmul
  4058  065E  0834               	movf	___flmul@temp+1,w
  4059  065F  00FA               	movwf	??___flmul+1
  4060  0660  01FB               	clrf	??___flmul+2
  4061  0661  01FC               	clrf	??___flmul+3
  4062  0662  0879               	movf	??___flmul,w
  4063  0663  07AF               	addwf	___flmul@prod,f
  4064  0664  087A               	movf	??___flmul+1,w
  4065  0665  1103               	clrz
  4066  0666  1803               	skipnc
  4067  0667  3E01               	addlw	1
  4068  0668  1903               	skipnz
  4069  0669  2E6B               	goto	u2031
  4070  066A  07B0               	addwf	___flmul@prod+1,f
  4071  066B                     u2031:
  4072  066B  087B               	movf	??___flmul+2,w
  4073  066C  1103               	clrz
  4074  066D  1803               	skipnc
  4075  066E  3E01               	addlw	1
  4076  066F  1903               	skipnz
  4077  0670  2E72               	goto	u2032
  4078  0671  07B1               	addwf	___flmul@prod+2,f
  4079  0672                     u2032:
  4080  0672  087C               	movf	??___flmul+3,w
  4081  0673  1103               	clrz
  4082  0674  1803               	skipnc
  4083  0675  3E01               	addlw	1
  4084  0676  1903               	skipnz
  4085  0677  2E79               	goto	u2033
  4086  0678  07B2               	addwf	___flmul@prod+3,f
  4087  0679                     u2033:
  4088  0679  0822               	movf	___flmul@b+2,w
  4089  067A  00F9               	movwf	??___flmul
  4090  067B  0879               	movf	??___flmul,w
  4091  067C  00F0               	movwf	__Umul8_16@multiplicand
  4092  067D  0826               	movf	___flmul@a+2,w
  4093  067E  120A  158A  231A  120A  118A  	fcall	__Umul8_16
  4094  0683  0871               	movf	?__Umul8_16+1,w
  4095  0684  1283               	bcf	3,5	;RP0=0, select bank0
  4096  0685  1303               	bcf	3,6	;RP1=0, select bank0
  4097  0686  00B4               	movwf	___flmul@temp+1
  4098  0687  0870               	movf	?__Umul8_16,w
  4099  0688  00B3               	movwf	___flmul@temp
  4100  0689                     l2004:
  4101  0689  0833               	movf	___flmul@temp,w
  4102  068A  00F9               	movwf	??___flmul
  4103  068B  0834               	movf	___flmul@temp+1,w
  4104  068C  00FA               	movwf	??___flmul+1
  4105  068D  01FB               	clrf	??___flmul+2
  4106  068E  01FC               	clrf	??___flmul+3
  4107  068F  3008               	movlw	8
  4108  0690                     u2045:
  4109  0690  1003               	clrc
  4110  0691  0DF9               	rlf	??___flmul,f
  4111  0692  0DFA               	rlf	??___flmul+1,f
  4112  0693  0DFB               	rlf	??___flmul+2,f
  4113  0694  0DFC               	rlf	??___flmul+3,f
  4114  0695                     u2040:
  4115  0695  3EFF               	addlw	-1
  4116  0696  1D03               	skipz
  4117  0697  2E90               	goto	u2045
  4118  0698  0879               	movf	??___flmul,w
  4119  0699  07AF               	addwf	___flmul@prod,f
  4120  069A  087A               	movf	??___flmul+1,w
  4121  069B  1103               	clrz
  4122  069C  1803               	skipnc
  4123  069D  3E01               	addlw	1
  4124  069E  1903               	skipnz
  4125  069F  2EA1               	goto	u2051
  4126  06A0  07B0               	addwf	___flmul@prod+1,f
  4127  06A1                     u2051:
  4128  06A1  087B               	movf	??___flmul+2,w
  4129  06A2  1103               	clrz
  4130  06A3  1803               	skipnc
  4131  06A4  3E01               	addlw	1
  4132  06A5  1903               	skipnz
  4133  06A6  2EA8               	goto	u2052
  4134  06A7  07B1               	addwf	___flmul@prod+2,f
  4135  06A8                     u2052:
  4136  06A8  087C               	movf	??___flmul+3,w
  4137  06A9  1103               	clrz
  4138  06AA  1803               	skipnc
  4139  06AB  3E01               	addlw	1
  4140  06AC  1903               	skipnz
  4141  06AD  2EAF               	goto	u2053
  4142  06AE  07B2               	addwf	___flmul@prod+3,f
  4143  06AF                     u2053:
  4144  06AF                     l2006:
  4145  06AF  0829               	movf	___flmul@grs,w
  4146  06B0  00F9               	movwf	??___flmul
  4147  06B1  082A               	movf	___flmul@grs+1,w
  4148  06B2  00FA               	movwf	??___flmul+1
  4149  06B3  082B               	movf	___flmul@grs+2,w
  4150  06B4  00FB               	movwf	??___flmul+2
  4151  06B5  082C               	movf	___flmul@grs+3,w
  4152  06B6  00FC               	movwf	??___flmul+3
  4153  06B7  3018               	movlw	24
  4154  06B8                     u2065:
  4155  06B8  1003               	clrc
  4156  06B9  0CFC               	rrf	??___flmul+3,f
  4157  06BA  0CFB               	rrf	??___flmul+2,f
  4158  06BB  0CFA               	rrf	??___flmul+1,f
  4159  06BC  0CF9               	rrf	??___flmul,f
  4160  06BD                     u2060:
  4161  06BD  3EFF               	addlw	-1
  4162  06BE  1D03               	skipz
  4163  06BF  2EB8               	goto	u2065
  4164  06C0  0879               	movf	??___flmul,w
  4165  06C1  07AF               	addwf	___flmul@prod,f
  4166  06C2  087A               	movf	??___flmul+1,w
  4167  06C3  1103               	clrz
  4168  06C4  1803               	skipnc
  4169  06C5  3E01               	addlw	1
  4170  06C6  1903               	skipnz
  4171  06C7  2EC9               	goto	u2071
  4172  06C8  07B0               	addwf	___flmul@prod+1,f
  4173  06C9                     u2071:
  4174  06C9  087B               	movf	??___flmul+2,w
  4175  06CA  1103               	clrz
  4176  06CB  1803               	skipnc
  4177  06CC  3E01               	addlw	1
  4178  06CD  1903               	skipnz
  4179  06CE  2ED0               	goto	u2072
  4180  06CF  07B1               	addwf	___flmul@prod+2,f
  4181  06D0                     u2072:
  4182  06D0  087C               	movf	??___flmul+3,w
  4183  06D1  1103               	clrz
  4184  06D2  1803               	skipnc
  4185  06D3  3E01               	addlw	1
  4186  06D4  1903               	skipnz
  4187  06D5  2ED7               	goto	u2073
  4188  06D6  07B2               	addwf	___flmul@prod+3,f
  4189  06D7                     u2073:
  4190  06D7                     l2008:
  4191  06D7  3008               	movlw	8
  4192  06D8  00F9               	movwf	??___flmul
  4193  06D9                     u2085:
  4194  06D9  1003               	clrc
  4195  06DA  0DA9               	rlf	___flmul@grs,f
  4196  06DB  0DAA               	rlf	___flmul@grs+1,f
  4197  06DC  0DAB               	rlf	___flmul@grs+2,f
  4198  06DD  0DAC               	rlf	___flmul@grs+3,f
  4199  06DE  0BF9               	decfsz	??___flmul,f
  4200  06DF  2ED9               	goto	u2085
  4201  06E0                     l2010:
  4202  06E0  082E               	movf	___flmul@bexp,w
  4203  06E1  072D               	addwf	___flmul@aexp,w
  4204  06E2  00F9               	movwf	??___flmul
  4205  06E3  01FA               	clrf	??___flmul+1
  4206  06E4  0DFA               	rlf	??___flmul+1,f
  4207  06E5  0879               	movf	??___flmul,w
  4208  06E6  3E82               	addlw	130
  4209  06E7  00B3               	movwf	___flmul@temp
  4210  06E8  087A               	movf	??___flmul+1,w
  4211  06E9  1803               	skipnc
  4212  06EA  3E01               	addlw	1
  4213  06EB  3EFF               	addlw	255
  4214  06EC  00B4               	movwf	___flmul@temp+1
  4215  06ED  2F0B               	goto	l2022
  4216  06EE                     l2012:
  4217  06EE  3001               	movlw	1
  4218  06EF  00F9               	movwf	??___flmul
  4219  06F0                     u2095:
  4220  06F0  1003               	clrc
  4221  06F1  0DAF               	rlf	___flmul@prod,f
  4222  06F2  0DB0               	rlf	___flmul@prod+1,f
  4223  06F3  0DB1               	rlf	___flmul@prod+2,f
  4224  06F4  0DB2               	rlf	___flmul@prod+3,f
  4225  06F5  0BF9               	decfsz	??___flmul,f
  4226  06F6  2EF0               	goto	u2095
  4227  06F7                     l2014:
  4228  06F7  1FAC               	btfss	___flmul@grs+3,7
  4229  06F8  2EFA               	goto	u2101
  4230  06F9  2EFB               	goto	u2100
  4231  06FA                     u2101:
  4232  06FA  2EFC               	goto	l2018
  4233  06FB                     u2100:
  4234  06FB                     l2016:
  4235  06FB  142F               	bsf	___flmul@prod,0
  4236  06FC                     l2018:
  4237  06FC  3001               	movlw	1
  4238  06FD  00F9               	movwf	??___flmul
  4239  06FE                     u2115:
  4240  06FE  1003               	clrc
  4241  06FF  0DA9               	rlf	___flmul@grs,f
  4242  0700  0DAA               	rlf	___flmul@grs+1,f
  4243  0701  0DAB               	rlf	___flmul@grs+2,f
  4244  0702  0DAC               	rlf	___flmul@grs+3,f
  4245  0703  0BF9               	decfsz	??___flmul,f
  4246  0704  2EFE               	goto	u2115
  4247  0705                     l2020:
  4248  0705  30FF               	movlw	255
  4249  0706  07B3               	addwf	___flmul@temp,f
  4250  0707  1803               	skipnc
  4251  0708  0AB4               	incf	___flmul@temp+1,f
  4252  0709  30FF               	movlw	255
  4253  070A  07B4               	addwf	___flmul@temp+1,f
  4254  070B                     l2022:
  4255  070B  1FB1               	btfss	___flmul@prod+2,7
  4256  070C  2F0E               	goto	u2121
  4257  070D  2F0F               	goto	u2120
  4258  070E                     u2121:
  4259  070E  2EEE               	goto	l2012
  4260  070F                     u2120:
  4261  070F                     l2024:
  4262  070F  01AD               	clrf	___flmul@aexp
  4263  0710                     l2026:
  4264  0710  1FAC               	btfss	___flmul@grs+3,7
  4265  0711  2F13               	goto	u2131
  4266  0712  2F14               	goto	u2130
  4267  0713                     u2131:
  4268  0713  2F30               	goto	l2034
  4269  0714                     u2130:
  4270  0714                     l2028:
  4271  0714  30FF               	movlw	255
  4272  0715  0529               	andwf	___flmul@grs,w
  4273  0716  00F9               	movwf	??___flmul
  4274  0717  30FF               	movlw	255
  4275  0718  052A               	andwf	___flmul@grs+1,w
  4276  0719  00FA               	movwf	??___flmul+1
  4277  071A  30FF               	movlw	255
  4278  071B  052B               	andwf	___flmul@grs+2,w
  4279  071C  00FB               	movwf	??___flmul+2
  4280  071D  307F               	movlw	127
  4281  071E  052C               	andwf	___flmul@grs+3,w
  4282  071F  00FC               	movwf	??___flmul+3
  4283  0720  087C               	movf	??___flmul+3,w
  4284  0721  047B               	iorwf	??___flmul+2,w
  4285  0722  047A               	iorwf	??___flmul+1,w
  4286  0723  0479               	iorwf	??___flmul,w
  4287  0724  1903               	skipnz
  4288  0725  2F27               	goto	u2141
  4289  0726  2F28               	goto	u2140
  4290  0727                     u2141:
  4291  0727  2F2B               	goto	l725
  4292  0728                     u2140:
  4293  0728                     l2030:
  4294  0728  01AD               	clrf	___flmul@aexp
  4295  0729  0AAD               	incf	___flmul@aexp,f
  4296  072A  2F30               	goto	l2034
  4297  072B                     l725:
  4298  072B  1C2F               	btfss	___flmul@prod,0
  4299  072C  2F2E               	goto	u2151
  4300  072D  2F2F               	goto	u2150
  4301  072E                     u2151:
  4302  072E  2F30               	goto	l2034
  4303  072F                     u2150:
  4304  072F  2F28               	goto	l2030
  4305  0730                     l2034:
  4306  0730  082D               	movf	___flmul@aexp,w
  4307  0731  1903               	btfsc	3,2
  4308  0732  2F34               	goto	u2161
  4309  0733  2F35               	goto	u2160
  4310  0734                     u2161:
  4311  0734  2F66               	goto	l2044
  4312  0735                     u2160:
  4313  0735                     l2036:
  4314  0735  3001               	movlw	1
  4315  0736  07AF               	addwf	___flmul@prod,f
  4316  0737  3000               	movlw	0
  4317  0738  1803               	skipnc
  4318  0739  3001               	movlw	1
  4319  073A  07B0               	addwf	___flmul@prod+1,f
  4320  073B  3000               	movlw	0
  4321  073C  1803               	skipnc
  4322  073D  3001               	movlw	1
  4323  073E  07B1               	addwf	___flmul@prod+2,f
  4324  073F  3000               	movlw	0
  4325  0740  1803               	skipnc
  4326  0741  3001               	movlw	1
  4327  0742  07B2               	addwf	___flmul@prod+3,f
  4328  0743                     l2038:
  4329  0743  1C32               	btfss	___flmul@prod+3,0
  4330  0744  2F46               	goto	u2171
  4331  0745  2F47               	goto	u2170
  4332  0746                     u2171:
  4333  0746  2F66               	goto	l2044
  4334  0747                     u2170:
  4335  0747                     l2040:
  4336  0747  082F               	movf	___flmul@prod,w
  4337  0748  00F9               	movwf	??___flmul
  4338  0749  0830               	movf	___flmul@prod+1,w
  4339  074A  00FA               	movwf	??___flmul+1
  4340  074B  0831               	movf	___flmul@prod+2,w
  4341  074C  00FB               	movwf	??___flmul+2
  4342  074D  0832               	movf	___flmul@prod+3,w
  4343  074E  00FC               	movwf	??___flmul+3
  4344  074F  3001               	movlw	1
  4345  0750  00FD               	movwf	??___flmul+4
  4346  0751                     u2185:
  4347  0751  0D7C               	rlf	??___flmul+3,w
  4348  0752  0CFC               	rrf	??___flmul+3,f
  4349  0753  0CFB               	rrf	??___flmul+2,f
  4350  0754  0CFA               	rrf	??___flmul+1,f
  4351  0755  0CF9               	rrf	??___flmul,f
  4352  0756                     u2180:
  4353  0756  0BFD               	decfsz	??___flmul+4,f
  4354  0757  2F51               	goto	u2185
  4355  0758  087C               	movf	??___flmul+3,w
  4356  0759  00B2               	movwf	___flmul@prod+3
  4357  075A  087B               	movf	??___flmul+2,w
  4358  075B  00B1               	movwf	___flmul@prod+2
  4359  075C  087A               	movf	??___flmul+1,w
  4360  075D  00B0               	movwf	___flmul@prod+1
  4361  075E  0879               	movf	??___flmul,w
  4362  075F  00AF               	movwf	___flmul@prod
  4363  0760                     l2042:
  4364  0760  3001               	movlw	1
  4365  0761  07B3               	addwf	___flmul@temp,f
  4366  0762  1803               	skipnc
  4367  0763  0AB4               	incf	___flmul@temp+1,f
  4368  0764  3000               	movlw	0
  4369  0765  07B4               	addwf	___flmul@temp+1,f
  4370  0766                     l2044:
  4371  0766  0834               	movf	___flmul@temp+1,w
  4372  0767  3A80               	xorlw	128
  4373  0768  00FF               	movwf	btemp+1
  4374  0769  3080               	movlw	128
  4375  076A  027F               	subwf	btemp+1,w
  4376  076B  1D03               	skipz
  4377  076C  2F6F               	goto	u2195
  4378  076D  30FF               	movlw	255
  4379  076E  0233               	subwf	___flmul@temp,w
  4380  076F                     u2195:
  4381  076F  1C03               	skipc
  4382  0770  2F72               	goto	u2191
  4383  0771  2F73               	goto	u2190
  4384  0772                     u2191:
  4385  0772  2F7E               	goto	l2048
  4386  0773                     u2190:
  4387  0773                     l2046:
  4388  0773  307F               	movlw	127
  4389  0774  1283               	bcf	3,5	;RP0=0, select bank0
  4390  0775  1303               	bcf	3,6	;RP1=0, select bank0
  4391  0776  00B2               	movwf	___flmul@prod+3
  4392  0777  3080               	movlw	128
  4393  0778  00B1               	movwf	___flmul@prod+2
  4394  0779  3000               	movlw	0
  4395  077A  00B0               	movwf	___flmul@prod+1
  4396  077B  3000               	movlw	0
  4397  077C  00AF               	movwf	___flmul@prod
  4398  077D  2FB3               	goto	l731
  4399  077E                     l2048:
  4400  077E  1283               	bcf	3,5	;RP0=0, select bank0
  4401  077F  1303               	bcf	3,6	;RP1=0, select bank0
  4402  0780  0834               	movf	___flmul@temp+1,w
  4403  0781  3A80               	xorlw	128
  4404  0782  00FF               	movwf	btemp+1
  4405  0783  3080               	movlw	128
  4406  0784  027F               	subwf	btemp+1,w
  4407  0785  1D03               	skipz
  4408  0786  2F89               	goto	u2205
  4409  0787  3001               	movlw	1
  4410  0788  0233               	subwf	___flmul@temp,w
  4411  0789                     u2205:
  4412  0789  1803               	skipnc
  4413  078A  2F8C               	goto	u2201
  4414  078B  2F8D               	goto	u2200
  4415  078C                     u2201:
  4416  078C  2F99               	goto	l2054
  4417  078D                     u2200:
  4418  078D                     l2050:
  4419  078D  3000               	movlw	0
  4420  078E  1283               	bcf	3,5	;RP0=0, select bank0
  4421  078F  1303               	bcf	3,6	;RP1=0, select bank0
  4422  0790  00B2               	movwf	___flmul@prod+3
  4423  0791  3000               	movlw	0
  4424  0792  00B1               	movwf	___flmul@prod+2
  4425  0793  3000               	movlw	0
  4426  0794  00B0               	movwf	___flmul@prod+1
  4427  0795  3000               	movlw	0
  4428  0796  00AF               	movwf	___flmul@prod
  4429  0797                     l2052:
  4430  0797  01A8               	clrf	___flmul@sign
  4431  0798  2FB3               	goto	l731
  4432  0799                     l2054:
  4433  0799  1283               	bcf	3,5	;RP0=0, select bank0
  4434  079A  1303               	bcf	3,6	;RP1=0, select bank0
  4435  079B  0833               	movf	___flmul@temp,w
  4436  079C  00F9               	movwf	??___flmul
  4437  079D  0879               	movf	??___flmul,w
  4438  079E  00AE               	movwf	___flmul@bexp
  4439  079F  30FF               	movlw	255
  4440  07A0  05AF               	andwf	___flmul@prod,f
  4441  07A1  30FF               	movlw	255
  4442  07A2  05B0               	andwf	___flmul@prod+1,f
  4443  07A3  307F               	movlw	127
  4444  07A4  05B1               	andwf	___flmul@prod+2,f
  4445  07A5  3000               	movlw	0
  4446  07A6  05B2               	andwf	___flmul@prod+3,f
  4447  07A7                     l2056:
  4448  07A7  1C2E               	btfss	___flmul@bexp,0
  4449  07A8  2FAA               	goto	u2211
  4450  07A9  2FAB               	goto	u2210
  4451  07AA                     u2211:
  4452  07AA  2FAC               	goto	l2060
  4453  07AB                     u2210:
  4454  07AB                     l2058:
  4455  07AB  17B1               	bsf	___flmul@prod+2,7
  4456  07AC                     l2060:
  4457  07AC  082E               	movf	___flmul@bexp,w
  4458  07AD  00F9               	movwf	??___flmul
  4459  07AE  1003               	clrc
  4460  07AF  0C79               	rrf	??___flmul,w
  4461  07B0  00FA               	movwf	??___flmul+1
  4462  07B1  087A               	movf	??___flmul+1,w
  4463  07B2  00B2               	movwf	___flmul@prod+3
  4464  07B3                     l731:
  4465  07B3  0828               	movf	___flmul@sign,w
  4466  07B4  00F9               	movwf	??___flmul
  4467  07B5  0879               	movf	??___flmul,w
  4468  07B6  04B2               	iorwf	___flmul@prod+3,f
  4469  07B7                     l2062:
  4470  07B7  0832               	movf	___flmul@prod+3,w
  4471  07B8  00A3               	movwf	?___flmul+3
  4472  07B9  0831               	movf	___flmul@prod+2,w
  4473  07BA  00A2               	movwf	?___flmul+2
  4474  07BB  0830               	movf	___flmul@prod+1,w
  4475  07BC  00A1               	movwf	?___flmul+1
  4476  07BD  082F               	movf	___flmul@prod,w
  4477  07BE  00A0               	movwf	?___flmul
  4478  07BF                     l719:
  4479  07BF  0008               	return
  4480  07C0                     __end_of___flmul:
  4481                           
  4482                           	psect	text7
  4483  0B1A                     __ptext7:	
  4484 ;; *************** function __Umul8_16 *****************
  4485 ;; Defined at:
  4486 ;;		line 4 in file "C:\Program Files\Microchip\xc8\v2.32\pic\sources\c90\common\Umul8_16.c"
  4487 ;; Parameters:    Size  Location     Type
  4488 ;;  multiplier      1    wreg     unsigned char 
  4489 ;;  multiplicand    1    0[COMMON] unsigned char 
  4490 ;; Auto vars:     Size  Location     Type
  4491 ;;  multiplier      1    8[COMMON] unsigned char 
  4492 ;;  word_mpld       2    6[COMMON] unsigned int 
  4493 ;;  product         2    4[COMMON] unsigned int 
  4494 ;; Return value:  Size  Location     Type
  4495 ;;                  2    0[COMMON] unsigned int 
  4496 ;; Registers used:
  4497 ;;		wreg, status,2, status,0
  4498 ;; Tracked objects:
  4499 ;;		On entry : 0/0
  4500 ;;		On exit  : 0/0
  4501 ;;		Unchanged: 0/0
  4502 ;; Data sizes:     COMMON   BANK0   BANK1   BANK3   BANK2
  4503 ;;      Params:         2       0       0       0       0
  4504 ;;      Locals:         5       0       0       0       0
  4505 ;;      Temps:          2       0       0       0       0
  4506 ;;      Totals:         9       0       0       0       0
  4507 ;;Total ram usage:        9 bytes
  4508 ;; Hardware stack levels used: 1
  4509 ;; This function calls:
  4510 ;;		Nothing
  4511 ;; This function is called by:
  4512 ;;		___flmul
  4513 ;; This function uses a non-reentrant model
  4514 ;;
  4515                           
  4516                           
  4517                           ;psect for function __Umul8_16
  4518  0B1A                     __Umul8_16:
  4519                           
  4520                           ;incstack = 0
  4521                           ; Regs used in __Umul8_16: [wreg+status,2+status,0]
  4522                           ;__Umul8_16@multiplier stored from wreg
  4523  0B1A  00F8               	movwf	__Umul8_16@multiplier
  4524  0B1B                     l1876:
  4525  0B1B  01F4               	clrf	__Umul8_16@product
  4526  0B1C  01F5               	clrf	__Umul8_16@product+1
  4527  0B1D                     l1878:
  4528  0B1D  0870               	movf	__Umul8_16@multiplicand,w
  4529  0B1E  00F2               	movwf	??__Umul8_16
  4530  0B1F  01F3               	clrf	??__Umul8_16+1
  4531  0B20  0872               	movf	??__Umul8_16,w
  4532  0B21  00F6               	movwf	__Umul8_16@word_mpld
  4533  0B22  0873               	movf	??__Umul8_16+1,w
  4534  0B23  00F7               	movwf	__Umul8_16@word_mpld+1
  4535  0B24                     l1880:
  4536  0B24  1C78               	btfss	__Umul8_16@multiplier,0
  4537  0B25  2B27               	goto	u1741
  4538  0B26  2B28               	goto	u1740
  4539  0B27                     u1741:
  4540  0B27  2B2E               	goto	l738
  4541  0B28                     u1740:
  4542  0B28                     l1882:
  4543  0B28  0876               	movf	__Umul8_16@word_mpld,w
  4544  0B29  07F4               	addwf	__Umul8_16@product,f
  4545  0B2A  1803               	skipnc
  4546  0B2B  0AF5               	incf	__Umul8_16@product+1,f
  4547  0B2C  0877               	movf	__Umul8_16@word_mpld+1,w
  4548  0B2D  07F5               	addwf	__Umul8_16@product+1,f
  4549  0B2E                     l738:
  4550  0B2E  3001               	movlw	1
  4551  0B2F                     u1755:
  4552  0B2F  1003               	clrc
  4553  0B30  0DF6               	rlf	__Umul8_16@word_mpld,f
  4554  0B31  0DF7               	rlf	__Umul8_16@word_mpld+1,f
  4555  0B32  3EFF               	addlw	-1
  4556  0B33  1D03               	skipz
  4557  0B34  2B2F               	goto	u1755
  4558  0B35  1003               	clrc
  4559  0B36  0CF8               	rrf	__Umul8_16@multiplier,f
  4560  0B37                     l1884:
  4561  0B37  0878               	movf	__Umul8_16@multiplier,w
  4562  0B38  1D03               	btfss	3,2
  4563  0B39  2B3B               	goto	u1761
  4564  0B3A  2B3C               	goto	u1760
  4565  0B3B                     u1761:
  4566  0B3B  2B24               	goto	l1880
  4567  0B3C                     u1760:
  4568  0B3C                     l1886:
  4569  0B3C  0875               	movf	__Umul8_16@product+1,w
  4570  0B3D  00F1               	movwf	?__Umul8_16+1
  4571  0B3E  0874               	movf	__Umul8_16@product,w
  4572  0B3F  00F0               	movwf	?__Umul8_16
  4573  0B40                     l740:
  4574  0B40  0008               	return
  4575  0B41                     __end_of__Umul8_16:
  4576                           
  4577                           	psect	text8
  4578  0021                     __ptext8:	
  4579 ;; *************** function ___flge *****************
  4580 ;; Defined at:
  4581 ;;		line 4 in file "C:\Program Files\Microchip\xc8\v2.32\pic\sources\c90\common\flge.c"
  4582 ;; Parameters:    Size  Location     Type
  4583 ;;  ff1             4    0[COMMON] unsigned int 
  4584 ;;  ff2             4    4[COMMON] unsigned int 
  4585 ;; Auto vars:     Size  Location     Type
  4586 ;;		None
  4587 ;; Return value:  Size  Location     Type
  4588 ;;		None               void
  4589 ;; Registers used:
  4590 ;;		wreg, status,2, status,0
  4591 ;; Tracked objects:
  4592 ;;		On entry : 0/0
  4593 ;;		On exit  : 0/0
  4594 ;;		Unchanged: 0/0
  4595 ;; Data sizes:     COMMON   BANK0   BANK1   BANK3   BANK2
  4596 ;;      Params:         8       0       0       0       0
  4597 ;;      Locals:         0       0       0       0       0
  4598 ;;      Temps:          4       0       0       0       0
  4599 ;;      Totals:        12       0       0       0       0
  4600 ;;Total ram usage:       12 bytes
  4601 ;; Hardware stack levels used: 1
  4602 ;; This function calls:
  4603 ;;		Nothing
  4604 ;; This function is called by:
  4605 ;;		_liga_buzzer
  4606 ;; This function uses a non-reentrant model
  4607 ;;
  4608                           
  4609                           
  4610                           ;psect for function ___flge
  4611  0021                     ___flge:
  4612  0021                     l1900:	
  4613                           ;incstack = 0
  4614                           ; Regs used in ___flge: [wreg+status,2+status,0]
  4615                           
  4616  0021  3000               	movlw	0
  4617  0022  0570               	andwf	___flge@ff1,w
  4618  0023  00F8               	movwf	??___flge
  4619  0024  3000               	movlw	0
  4620  0025  0571               	andwf	___flge@ff1+1,w
  4621  0026  00F9               	movwf	??___flge+1
  4622  0027  3080               	movlw	128
  4623  0028  0572               	andwf	___flge@ff1+2,w
  4624  0029  00FA               	movwf	??___flge+2
  4625  002A  307F               	movlw	127
  4626  002B  0573               	andwf	___flge@ff1+3,w
  4627  002C  00FB               	movwf	??___flge+3
  4628  002D  087B               	movf	??___flge+3,w
  4629  002E  047A               	iorwf	??___flge+2,w
  4630  002F  0479               	iorwf	??___flge+1,w
  4631  0030  0478               	iorwf	??___flge,w
  4632  0031  1D03               	skipz
  4633  0032  2834               	goto	u1781
  4634  0033  2835               	goto	u1780
  4635  0034                     u1781:
  4636  0034  283D               	goto	l504
  4637  0035                     u1780:
  4638  0035                     l1902:
  4639  0035  3000               	movlw	0
  4640  0036  00F3               	movwf	___flge@ff1+3
  4641  0037  3000               	movlw	0
  4642  0038  00F2               	movwf	___flge@ff1+2
  4643  0039  3000               	movlw	0
  4644  003A  00F1               	movwf	___flge@ff1+1
  4645  003B  3000               	movlw	0
  4646  003C  00F0               	movwf	___flge@ff1
  4647  003D                     l504:
  4648  003D  3000               	movlw	0
  4649  003E  0574               	andwf	___flge@ff2,w
  4650  003F  00F8               	movwf	??___flge
  4651  0040  3000               	movlw	0
  4652  0041  0575               	andwf	___flge@ff2+1,w
  4653  0042  00F9               	movwf	??___flge+1
  4654  0043  3080               	movlw	128
  4655  0044  0576               	andwf	___flge@ff2+2,w
  4656  0045  00FA               	movwf	??___flge+2
  4657  0046  307F               	movlw	127
  4658  0047  0577               	andwf	___flge@ff2+3,w
  4659  0048  00FB               	movwf	??___flge+3
  4660  0049  087B               	movf	??___flge+3,w
  4661  004A  047A               	iorwf	??___flge+2,w
  4662  004B  0479               	iorwf	??___flge+1,w
  4663  004C  0478               	iorwf	??___flge,w
  4664  004D  1D03               	skipz
  4665  004E  2850               	goto	u1791
  4666  004F  2851               	goto	u1790
  4667  0050                     u1791:
  4668  0050  2859               	goto	l1906
  4669  0051                     u1790:
  4670  0051                     l1904:
  4671  0051  3000               	movlw	0
  4672  0052  00F7               	movwf	___flge@ff2+3
  4673  0053  3000               	movlw	0
  4674  0054  00F6               	movwf	___flge@ff2+2
  4675  0055  3000               	movlw	0
  4676  0056  00F5               	movwf	___flge@ff2+1
  4677  0057  3000               	movlw	0
  4678  0058  00F4               	movwf	___flge@ff2
  4679  0059                     l1906:
  4680  0059  1FF3               	btfss	___flge@ff1+3,7
  4681  005A  285C               	goto	u1801
  4682  005B  285D               	goto	u1800
  4683  005C                     u1801:
  4684  005C  2881               	goto	l1910
  4685  005D                     u1800:
  4686  005D                     l1908:
  4687  005D  3000               	movlw	0
  4688  005E  00F8               	movwf	??___flge
  4689  005F  3000               	movlw	0
  4690  0060  00F9               	movwf	??___flge+1
  4691  0061  3000               	movlw	0
  4692  0062  00FA               	movwf	??___flge+2
  4693  0063  3080               	movlw	128
  4694  0064  00FB               	movwf	??___flge+3
  4695  0065  0870               	movf	___flge@ff1,w
  4696  0066  02F8               	subwf	??___flge,f
  4697  0067  0871               	movf	___flge@ff1+1,w
  4698  0068  1C03               	skipc
  4699  0069  0F71               	incfsz	___flge@ff1+1,w
  4700  006A  286C               	goto	u1811
  4701  006B  286D               	goto	u1812
  4702  006C                     u1811:
  4703  006C  02F9               	subwf	??___flge+1,f
  4704  006D                     u1812:
  4705  006D  0872               	movf	___flge@ff1+2,w
  4706  006E  1C03               	skipc
  4707  006F  0F72               	incfsz	___flge@ff1+2,w
  4708  0070  2872               	goto	u1813
  4709  0071  2873               	goto	u1814
  4710  0072                     u1813:
  4711  0072  02FA               	subwf	??___flge+2,f
  4712  0073                     u1814:
  4713  0073  0873               	movf	___flge@ff1+3,w
  4714  0074  1C03               	skipc
  4715  0075  0F73               	incfsz	___flge@ff1+3,w
  4716  0076  2878               	goto	u1815
  4717  0077  2879               	goto	u1816
  4718  0078                     u1815:
  4719  0078  02FB               	subwf	??___flge+3,f
  4720  0079                     u1816:
  4721  0079  087B               	movf	??___flge+3,w
  4722  007A  00F3               	movwf	___flge@ff1+3
  4723  007B  087A               	movf	??___flge+2,w
  4724  007C  00F2               	movwf	___flge@ff1+2
  4725  007D  0879               	movf	??___flge+1,w
  4726  007E  00F1               	movwf	___flge@ff1+1
  4727  007F  0878               	movf	??___flge,w
  4728  0080  00F0               	movwf	___flge@ff1
  4729  0081                     l1910:
  4730  0081  1FF7               	btfss	___flge@ff2+3,7
  4731  0082  2884               	goto	u1821
  4732  0083  2885               	goto	u1820
  4733  0084                     u1821:
  4734  0084  28A9               	goto	l507
  4735  0085                     u1820:
  4736  0085                     l1912:
  4737  0085  3000               	movlw	0
  4738  0086  00F8               	movwf	??___flge
  4739  0087  3000               	movlw	0
  4740  0088  00F9               	movwf	??___flge+1
  4741  0089  3000               	movlw	0
  4742  008A  00FA               	movwf	??___flge+2
  4743  008B  3080               	movlw	128
  4744  008C  00FB               	movwf	??___flge+3
  4745  008D  0874               	movf	___flge@ff2,w
  4746  008E  02F8               	subwf	??___flge,f
  4747  008F  0875               	movf	___flge@ff2+1,w
  4748  0090  1C03               	skipc
  4749  0091  0F75               	incfsz	___flge@ff2+1,w
  4750  0092  2894               	goto	u1831
  4751  0093  2895               	goto	u1832
  4752  0094                     u1831:
  4753  0094  02F9               	subwf	??___flge+1,f
  4754  0095                     u1832:
  4755  0095  0876               	movf	___flge@ff2+2,w
  4756  0096  1C03               	skipc
  4757  0097  0F76               	incfsz	___flge@ff2+2,w
  4758  0098  289A               	goto	u1833
  4759  0099  289B               	goto	u1834
  4760  009A                     u1833:
  4761  009A  02FA               	subwf	??___flge+2,f
  4762  009B                     u1834:
  4763  009B  0877               	movf	___flge@ff2+3,w
  4764  009C  1C03               	skipc
  4765  009D  0F77               	incfsz	___flge@ff2+3,w
  4766  009E  28A0               	goto	u1835
  4767  009F  28A1               	goto	u1836
  4768  00A0                     u1835:
  4769  00A0  02FB               	subwf	??___flge+3,f
  4770  00A1                     u1836:
  4771  00A1  087B               	movf	??___flge+3,w
  4772  00A2  00F7               	movwf	___flge@ff2+3
  4773  00A3  087A               	movf	??___flge+2,w
  4774  00A4  00F6               	movwf	___flge@ff2+2
  4775  00A5  0879               	movf	??___flge+1,w
  4776  00A6  00F5               	movwf	___flge@ff2+1
  4777  00A7  0878               	movf	??___flge,w
  4778  00A8  00F4               	movwf	___flge@ff2
  4779  00A9                     l507:
  4780  00A9  3080               	movlw	128
  4781  00AA  06F3               	xorwf	___flge@ff1+3,f
  4782  00AB  3080               	movlw	128
  4783  00AC  06F7               	xorwf	___flge@ff2+3,f
  4784  00AD  0877               	movf	___flge@ff2+3,w
  4785  00AE  0273               	subwf	___flge@ff1+3,w
  4786  00AF  1D03               	skipz
  4787  00B0  28BB               	goto	u1845
  4788  00B1  0876               	movf	___flge@ff2+2,w
  4789  00B2  0272               	subwf	___flge@ff1+2,w
  4790  00B3  1D03               	skipz
  4791  00B4  28BB               	goto	u1845
  4792  00B5  0875               	movf	___flge@ff2+1,w
  4793  00B6  0271               	subwf	___flge@ff1+1,w
  4794  00B7  1D03               	skipz
  4795  00B8  28BB               	goto	u1845
  4796  00B9  0874               	movf	___flge@ff2,w
  4797  00BA  0270               	subwf	___flge@ff1,w
  4798  00BB                     u1845:
  4799  00BB  1803               	skipnc
  4800  00BC  28BE               	goto	u1841
  4801  00BD  28BF               	goto	u1840
  4802  00BE                     u1841:
  4803  00BE  28C1               	goto	l1916
  4804  00BF                     u1840:
  4805  00BF                     l1914:
  4806  00BF  1003               	clrc
  4807  00C0  28C2               	goto	l508
  4808  00C1                     l1916:
  4809  00C1  1403               	setc
  4810  00C2                     l508:
  4811  00C2  0008               	return
  4812  00C3                     __end_of___flge:
  4813                           
  4814                           	psect	text9
  4815  0A6C                     __ptext9:	
  4816 ;; *************** function _LCD_limpa *****************
  4817 ;; Defined at:
  4818 ;;		line 56 in file "./lcd.h"
  4819 ;; Parameters:    Size  Location     Type
  4820 ;;		None
  4821 ;; Auto vars:     Size  Location     Type
  4822 ;;		None
  4823 ;; Return value:  Size  Location     Type
  4824 ;;                  1    wreg      void 
  4825 ;; Registers used:
  4826 ;;		wreg, status,2, status,0, btemp+1, pclath, cstack
  4827 ;; Tracked objects:
  4828 ;;		On entry : 0/0
  4829 ;;		On exit  : 0/0
  4830 ;;		Unchanged: 0/0
  4831 ;; Data sizes:     COMMON   BANK0   BANK1   BANK3   BANK2
  4832 ;;      Params:         0       0       0       0       0
  4833 ;;      Locals:         0       0       0       0       0
  4834 ;;      Temps:          0       0       0       0       0
  4835 ;;      Totals:         0       0       0       0       0
  4836 ;;Total ram usage:        0 bytes
  4837 ;; Hardware stack levels used: 1
  4838 ;; Hardware stack levels required when called: 1
  4839 ;; This function calls:
  4840 ;;		_delay
  4841 ;; This function is called by:
  4842 ;;		_main
  4843 ;;		_validaUser
  4844 ;;		_listaZonas
  4845 ;; This function uses a non-reentrant model
  4846 ;;
  4847                           
  4848                           
  4849                           ;psect for function _LCD_limpa
  4850  0A6C                     _LCD_limpa:
  4851  0A6C                     l2118:	
  4852                           ;incstack = 0
  4853                           ; Regs used in _LCD_limpa: [wreg+status,2+status,0+btemp+1+pclath+cstack]
  4854                           
  4855                           
  4856                           ;./lcd.h: 57:     PORTD = 0x01;
  4857  0A6C  3001               	movlw	1
  4858  0A6D  1283               	bcf	3,5	;RP0=0, select bank0
  4859  0A6E  1303               	bcf	3,6	;RP1=0, select bank0
  4860  0A6F  0088               	movwf	8	;volatile
  4861  0A70                     l2120:
  4862                           
  4863                           ;./lcd.h: 58:     RA5 = 0;
  4864  0A70  1285               	bcf	5,5	;volatile
  4865  0A71                     l2122:
  4866                           
  4867                           ;./lcd.h: 59:     RA4 = 0;
  4868  0A71  1205               	bcf	5,4	;volatile
  4869  0A72                     l2124:
  4870                           
  4871                           ;./lcd.h: 60:     RA3=0;
  4872  0A72  1185               	bcf	5,3	;volatile
  4873  0A73                     l2126:
  4874                           
  4875                           ;./lcd.h: 61:     delay();
  4876  0A73  120A  158A  22A0  120A  158A  	fcall	_delay
  4877  0A78                     l2128:
  4878                           
  4879                           ;./lcd.h: 62:  RA3 = 1;
  4880  0A78  1283               	bcf	3,5	;RP0=0, select bank0
  4881  0A79  1303               	bcf	3,6	;RP1=0, select bank0
  4882  0A7A  1585               	bsf	5,3	;volatile
  4883  0A7B                     l64:
  4884  0A7B  0008               	return
  4885  0A7C                     __end_of_LCD_limpa:
  4886                           
  4887                           	psect	text10
  4888  0C0E                     __ptext10:	
  4889 ;; *************** function _telaInicial *****************
  4890 ;; Defined at:
  4891 ;;		line 340 in file "main.c"
  4892 ;; Parameters:    Size  Location     Type
  4893 ;;		None
  4894 ;; Auto vars:     Size  Location     Type
  4895 ;;  i               2    7[COMMON] int 
  4896 ;; Return value:  Size  Location     Type
  4897 ;;                  1    wreg      void 
  4898 ;; Registers used:
  4899 ;;		wreg, fsr0l, fsr0h, status,2, status,0, btemp+1, pclath, cstack
  4900 ;; Tracked objects:
  4901 ;;		On entry : 0/0
  4902 ;;		On exit  : 0/0
  4903 ;;		Unchanged: 0/0
  4904 ;; Data sizes:     COMMON   BANK0   BANK1   BANK3   BANK2
  4905 ;;      Params:         0       0       0       0       0
  4906 ;;      Locals:         2       0       0       0       0
  4907 ;;      Temps:          2       0       0       0       0
  4908 ;;      Totals:         4       0       0       0       0
  4909 ;;Total ram usage:        4 bytes
  4910 ;; Hardware stack levels used: 1
  4911 ;; Hardware stack levels required when called: 2
  4912 ;; This function calls:
  4913 ;;		_LCD_escreve
  4914 ;;		_LCD_linha1
  4915 ;;		_strlen
  4916 ;; This function is called by:
  4917 ;;		_main
  4918 ;; This function uses a non-reentrant model
  4919 ;;
  4920                           
  4921                           
  4922                           ;psect for function _telaInicial
  4923  0C0E                     _telaInicial:
  4924  0C0E                     l2320:	
  4925                           ;incstack = 0
  4926                           ; Regs used in _telaInicial: [wreg-fsr0h+status,2+status,0+btemp+1+pclath+cstack]
  4927                           
  4928                           
  4929                           ;main.c: 342:     LCD_linha1();
  4930  0C0E  120A  158A  225C  120A  158A  	fcall	_LCD_linha1
  4931                           
  4932                           ;main.c: 343:     LCD_escreve(' ');
  4933  0C13  3020               	movlw	32
  4934  0C14  120A  158A  227C  120A  158A  	fcall	_LCD_escreve
  4935  0C19                     l2322:
  4936                           
  4937                           ;main.c: 344:     for (int i = 0; i <= strlen(msgDigiteSenha)-1; i++){
  4938  0C19  01F7               	clrf	telaInicial@i
  4939  0C1A  01F8               	clrf	telaInicial@i+1
  4940  0C1B  2C2C               	goto	l2328
  4941  0C1C                     l2324:
  4942                           
  4943                           ;main.c: 345:         LCD_escreve(msgDigiteSenha[i]);
  4944  0C1C  0877               	movf	telaInicial@i,w
  4945  0C1D  3EA0               	addlw	(low (_msgDigiteSenha| 0))& (0+255)
  4946  0C1E  0084               	movwf	4
  4947  0C1F  1383               	bcf	3,7	;select IRP bank1
  4948  0C20  0800               	movf	0,w
  4949  0C21  120A  158A  227C  120A  158A  	fcall	_LCD_escreve
  4950  0C26                     l2326:
  4951                           
  4952                           ;main.c: 346:     }
  4953  0C26  3001               	movlw	1
  4954  0C27  07F7               	addwf	telaInicial@i,f
  4955  0C28  1803               	skipnc
  4956  0C29  0AF8               	incf	telaInicial@i+1,f
  4957  0C2A  3000               	movlw	0
  4958  0C2B  07F8               	addwf	telaInicial@i+1,f
  4959  0C2C                     l2328:
  4960  0C2C  30A0               	movlw	(low (_msgDigiteSenha| 0))& (0+255)
  4961  0C2D  120A  118A  2008  120A  158A  	fcall	_strlen
  4962  0C32  0870               	movf	?_strlen,w
  4963  0C33  3EFF               	addlw	255
  4964  0C34  00F5               	movwf	??_telaInicial
  4965  0C35  0871               	movf	?_strlen+1,w
  4966  0C36  1803               	skipnc
  4967  0C37  3E01               	addlw	1
  4968  0C38  3EFF               	addlw	255
  4969  0C39  00F6               	movwf	??_telaInicial+1
  4970  0C3A  0878               	movf	telaInicial@i+1,w
  4971  0C3B  0276               	subwf	??_telaInicial+1,w
  4972  0C3C  1D03               	skipz
  4973  0C3D  2C40               	goto	u2415
  4974  0C3E  0877               	movf	telaInicial@i,w
  4975  0C3F  0275               	subwf	??_telaInicial,w
  4976  0C40                     u2415:
  4977  0C40  1803               	skipnc
  4978  0C41  2C43               	goto	u2411
  4979  0C42  2C44               	goto	u2410
  4980  0C43                     u2411:
  4981  0C43  2C1C               	goto	l2324
  4982  0C44                     u2410:
  4983  0C44                     l2330:
  4984                           
  4985                           ;main.c: 347:     LCD_escreve(' ');
  4986  0C44  3020               	movlw	32
  4987  0C45  120A  158A  227C  120A  158A  	fcall	_LCD_escreve
  4988  0C4A                     l191:
  4989  0C4A  0008               	return
  4990  0C4B                     __end_of_telaInicial:
  4991                           
  4992                           	psect	text11
  4993  0A5C                     __ptext11:	
  4994 ;; *************** function _LCD_linha1 *****************
  4995 ;; Defined at:
  4996 ;;		line 65 in file "./lcd.h"
  4997 ;; Parameters:    Size  Location     Type
  4998 ;;		None
  4999 ;; Auto vars:     Size  Location     Type
  5000 ;;		None
  5001 ;; Return value:  Size  Location     Type
  5002 ;;                  1    wreg      void 
  5003 ;; Registers used:
  5004 ;;		wreg, status,2, status,0, btemp+1, pclath, cstack
  5005 ;; Tracked objects:
  5006 ;;		On entry : 0/0
  5007 ;;		On exit  : 0/0
  5008 ;;		Unchanged: 0/0
  5009 ;; Data sizes:     COMMON   BANK0   BANK1   BANK3   BANK2
  5010 ;;      Params:         0       0       0       0       0
  5011 ;;      Locals:         0       0       0       0       0
  5012 ;;      Temps:          0       0       0       0       0
  5013 ;;      Totals:         0       0       0       0       0
  5014 ;;Total ram usage:        0 bytes
  5015 ;; Hardware stack levels used: 1
  5016 ;; Hardware stack levels required when called: 1
  5017 ;; This function calls:
  5018 ;;		_delay
  5019 ;; This function is called by:
  5020 ;;		_telaInicial
  5021 ;;		_listaZonas
  5022 ;; This function uses a non-reentrant model
  5023 ;;
  5024                           
  5025                           
  5026                           ;psect for function _LCD_linha1
  5027  0A5C                     _LCD_linha1:
  5028  0A5C                     l2130:	
  5029                           ;incstack = 0
  5030                           ; Regs used in _LCD_linha1: [wreg+status,2+status,0+btemp+1+pclath+cstack]
  5031                           
  5032                           
  5033                           ;./lcd.h: 66:     PORTD = 0x02;
  5034  0A5C  3002               	movlw	2
  5035  0A5D  1283               	bcf	3,5	;RP0=0, select bank0
  5036  0A5E  1303               	bcf	3,6	;RP1=0, select bank0
  5037  0A5F  0088               	movwf	8	;volatile
  5038  0A60                     l2132:
  5039                           
  5040                           ;./lcd.h: 67:     RA5 = 0;
  5041  0A60  1285               	bcf	5,5	;volatile
  5042  0A61                     l2134:
  5043                           
  5044                           ;./lcd.h: 68:     RA4 = 0;
  5045  0A61  1205               	bcf	5,4	;volatile
  5046  0A62                     l2136:
  5047                           
  5048                           ;./lcd.h: 69:     RA3=0;
  5049  0A62  1185               	bcf	5,3	;volatile
  5050  0A63                     l2138:
  5051                           
  5052                           ;./lcd.h: 70:     delay();
  5053  0A63  120A  158A  22A0  120A  158A  	fcall	_delay
  5054  0A68                     l2140:
  5055                           
  5056                           ;./lcd.h: 71:  RA3 = 1;
  5057  0A68  1283               	bcf	3,5	;RP0=0, select bank0
  5058  0A69  1303               	bcf	3,6	;RP1=0, select bank0
  5059  0A6A  1585               	bsf	5,3	;volatile
  5060  0A6B                     l67:
  5061  0A6B  0008               	return
  5062  0A6C                     __end_of_LCD_linha1:
  5063                           
  5064                           	psect	text12
  5065  0BD3                     __ptext12:	
  5066 ;; *************** function _Linha2 *****************
  5067 ;; Defined at:
  5068 ;;		line 354 in file "main.c"
  5069 ;; Parameters:    Size  Location     Type
  5070 ;;		None
  5071 ;; Auto vars:     Size  Location     Type
  5072 ;;  i               2    7[COMMON] int 
  5073 ;; Return value:  Size  Location     Type
  5074 ;;                  1    wreg      void 
  5075 ;; Registers used:
  5076 ;;		wreg, fsr0l, fsr0h, status,2, status,0, btemp+1, pclath, cstack
  5077 ;; Tracked objects:
  5078 ;;		On entry : 0/0
  5079 ;;		On exit  : 0/0
  5080 ;;		Unchanged: 0/0
  5081 ;; Data sizes:     COMMON   BANK0   BANK1   BANK3   BANK2
  5082 ;;      Params:         0       0       0       0       0
  5083 ;;      Locals:         2       0       0       0       0
  5084 ;;      Temps:          2       0       0       0       0
  5085 ;;      Totals:         4       0       0       0       0
  5086 ;;Total ram usage:        4 bytes
  5087 ;; Hardware stack levels used: 1
  5088 ;; Hardware stack levels required when called: 3
  5089 ;; This function calls:
  5090 ;;		_LCD_escreve
  5091 ;;		_LCD_linha2
  5092 ;;		_espacoLivre
  5093 ;;		_strlen
  5094 ;; This function is called by:
  5095 ;;		_main
  5096 ;; This function uses a non-reentrant model
  5097 ;;
  5098                           
  5099                           
  5100                           ;psect for function _Linha2
  5101  0BD3                     _Linha2:
  5102  0BD3                     l2332:	
  5103                           ;incstack = 0
  5104                           ; Regs used in _Linha2: [wreg-fsr0h+status,2+status,0+btemp+1+pclath+cstack]
  5105                           
  5106                           
  5107                           ;main.c: 355:     LCD_linha2();
  5108  0BD3  120A  158A  224C  120A  158A  	fcall	_LCD_linha2
  5109                           
  5110                           ;main.c: 356:     espacoLivre();
  5111  0BD8  120A  158A  22D5  120A  158A  	fcall	_espacoLivre
  5112  0BDD                     l2334:
  5113                           
  5114                           ;main.c: 357:     for (int i = 0; i <= strlen(msgMascara)-1; i++){
  5115  0BDD  01F7               	clrf	Linha2@i
  5116  0BDE  01F8               	clrf	Linha2@i+1
  5117  0BDF  2BF0               	goto	l2340
  5118  0BE0                     l2336:
  5119                           
  5120                           ;main.c: 358:         LCD_escreve(msgMascara[i]);
  5121  0BE0  0877               	movf	Linha2@i,w
  5122  0BE1  3E5F               	addlw	(low (_msgMascara| 0))& (0+255)
  5123  0BE2  0084               	movwf	4
  5124  0BE3  1383               	bcf	3,7	;select IRP bank0
  5125  0BE4  0800               	movf	0,w
  5126  0BE5  120A  158A  227C  120A  158A  	fcall	_LCD_escreve
  5127  0BEA                     l2338:
  5128                           
  5129                           ;main.c: 359:     }
  5130  0BEA  3001               	movlw	1
  5131  0BEB  07F7               	addwf	Linha2@i,f
  5132  0BEC  1803               	skipnc
  5133  0BED  0AF8               	incf	Linha2@i+1,f
  5134  0BEE  3000               	movlw	0
  5135  0BEF  07F8               	addwf	Linha2@i+1,f
  5136  0BF0                     l2340:
  5137  0BF0  305F               	movlw	(low (_msgMascara| 0))& (0+255)
  5138  0BF1  120A  118A  2008  120A  158A  	fcall	_strlen
  5139  0BF6  0870               	movf	?_strlen,w
  5140  0BF7  3EFF               	addlw	255
  5141  0BF8  00F5               	movwf	??_Linha2
  5142  0BF9  0871               	movf	?_strlen+1,w
  5143  0BFA  1803               	skipnc
  5144  0BFB  3E01               	addlw	1
  5145  0BFC  3EFF               	addlw	255
  5146  0BFD  00F6               	movwf	??_Linha2+1
  5147  0BFE  0878               	movf	Linha2@i+1,w
  5148  0BFF  0276               	subwf	??_Linha2+1,w
  5149  0C00  1D03               	skipz
  5150  0C01  2C04               	goto	u2425
  5151  0C02  0877               	movf	Linha2@i,w
  5152  0C03  0275               	subwf	??_Linha2,w
  5153  0C04                     u2425:
  5154  0C04  1803               	skipnc
  5155  0C05  2C07               	goto	u2421
  5156  0C06  2C08               	goto	u2420
  5157  0C07                     u2421:
  5158  0C07  2BE0               	goto	l2336
  5159  0C08                     u2420:
  5160  0C08                     l2342:
  5161                           
  5162                           ;main.c: 360:     espacoLivre();
  5163  0C08  120A  158A  22D5  120A  158A  	fcall	_espacoLivre
  5164  0C0D                     l197:
  5165  0C0D  0008               	return
  5166  0C0E                     __end_of_Linha2:
  5167                           
  5168                           	psect	text13
  5169  0008                     __ptext13:	
  5170 ;; *************** function _strlen *****************
  5171 ;; Defined at:
  5172 ;;		line 4 in file "C:\Program Files\Microchip\xc8\v2.32\pic\sources\c90\common\strlen.c"
  5173 ;; Parameters:    Size  Location     Type
  5174 ;;  s               1    wreg     PTR const unsigned char 
  5175 ;;		 -> msgMascara(5), msgDigiteSenha(15), 
  5176 ;; Auto vars:     Size  Location     Type
  5177 ;;  s               1    4[COMMON] PTR const unsigned char 
  5178 ;;		 -> msgMascara(5), msgDigiteSenha(15), 
  5179 ;;  cp              1    3[COMMON] PTR const unsigned char 
  5180 ;;		 -> msgMascara(5), msgDigiteSenha(15), 
  5181 ;; Return value:  Size  Location     Type
  5182 ;;                  2    0[COMMON] unsigned int 
  5183 ;; Registers used:
  5184 ;;		wreg, fsr0l, fsr0h, status,2, status,0
  5185 ;; Tracked objects:
  5186 ;;		On entry : 0/0
  5187 ;;		On exit  : 0/0
  5188 ;;		Unchanged: 0/0
  5189 ;; Data sizes:     COMMON   BANK0   BANK1   BANK3   BANK2
  5190 ;;      Params:         2       0       0       0       0
  5191 ;;      Locals:         2       0       0       0       0
  5192 ;;      Temps:          1       0       0       0       0
  5193 ;;      Totals:         5       0       0       0       0
  5194 ;;Total ram usage:        5 bytes
  5195 ;; Hardware stack levels used: 1
  5196 ;; This function calls:
  5197 ;;		Nothing
  5198 ;; This function is called by:
  5199 ;;		_telaInicial
  5200 ;;		_Linha2
  5201 ;; This function uses a non-reentrant model
  5202 ;;
  5203                           
  5204                           
  5205                           ;psect for function _strlen
  5206  0008                     _strlen:
  5207                           
  5208                           ;incstack = 0
  5209                           ; Regs used in _strlen: [wreg-fsr0h+status,2+status,0]
  5210                           ;strlen@s stored from wreg
  5211  0008  00F4               	movwf	strlen@s
  5212  0009                     l2274:
  5213  0009  0874               	movf	strlen@s,w
  5214  000A  00F2               	movwf	??_strlen
  5215  000B  0872               	movf	??_strlen,w
  5216  000C  00F3               	movwf	strlen@cp
  5217  000D  2812               	goto	l2278
  5218  000E                     l2276:
  5219  000E  3001               	movlw	1
  5220  000F  00F2               	movwf	??_strlen
  5221  0010  0872               	movf	??_strlen,w
  5222  0011  07F3               	addwf	strlen@cp,f
  5223  0012                     l2278:
  5224  0012  0873               	movf	strlen@cp,w
  5225  0013  0084               	movwf	4
  5226  0014  1383               	bcf	3,7	;select IRP bank0
  5227  0015  0800               	movf	0,w
  5228  0016  1D03               	btfss	3,2
  5229  0017  2819               	goto	u2391
  5230  0018  281A               	goto	u2390
  5231  0019                     u2391:
  5232  0019  280E               	goto	l2276
  5233  001A                     u2390:
  5234  001A                     l2280:
  5235  001A  0874               	movf	strlen@s,w
  5236  001B  0273               	subwf	strlen@cp,w
  5237  001C  00F0               	movwf	?_strlen
  5238  001D  01F1               	clrf	?_strlen+1
  5239  001E  1BF0               	btfsc	?_strlen,7
  5240  001F  03F1               	decf	?_strlen+1,f
  5241  0020                     l784:
  5242  0020  0008               	return
  5243  0021                     __end_of_strlen:
  5244                           
  5245                           	psect	text14
  5246  0AD5                     __ptext14:	
  5247 ;; *************** function _espacoLivre *****************
  5248 ;; Defined at:
  5249 ;;		line 366 in file "main.c"
  5250 ;; Parameters:    Size  Location     Type
  5251 ;;		None
  5252 ;; Auto vars:     Size  Location     Type
  5253 ;;  i               2    3[COMMON] int 
  5254 ;; Return value:  Size  Location     Type
  5255 ;;                  1    wreg      void 
  5256 ;; Registers used:
  5257 ;;		wreg, status,2, status,0, btemp+1, pclath, cstack
  5258 ;; Tracked objects:
  5259 ;;		On entry : 0/0
  5260 ;;		On exit  : 0/0
  5261 ;;		Unchanged: 0/0
  5262 ;; Data sizes:     COMMON   BANK0   BANK1   BANK3   BANK2
  5263 ;;      Params:         0       0       0       0       0
  5264 ;;      Locals:         2       0       0       0       0
  5265 ;;      Temps:          0       0       0       0       0
  5266 ;;      Totals:         2       0       0       0       0
  5267 ;;Total ram usage:        2 bytes
  5268 ;; Hardware stack levels used: 1
  5269 ;; Hardware stack levels required when called: 2
  5270 ;; This function calls:
  5271 ;;		_LCD_escreve
  5272 ;;		_LCD_linha2
  5273 ;; This function is called by:
  5274 ;;		_Linha2
  5275 ;; This function uses a non-reentrant model
  5276 ;;
  5277                           
  5278                           
  5279                           ;psect for function _espacoLivre
  5280  0AD5                     _espacoLivre:
  5281  0AD5                     l2284:	
  5282                           ;incstack = 0
  5283                           ; Regs used in _espacoLivre: [wreg+status,2+status,0+btemp+1+pclath+cstack]
  5284                           
  5285                           
  5286                           ;main.c: 367:     LCD_linha2();
  5287  0AD5  120A  158A  224C  120A  158A  	fcall	_LCD_linha2
  5288  0ADA                     l2286:
  5289                           
  5290                           ;main.c: 368:     for (int i = 0; i < 6; i++){
  5291  0ADA  01F3               	clrf	espacoLivre@i
  5292  0ADB  01F4               	clrf	espacoLivre@i+1
  5293  0ADC                     l2292:
  5294                           
  5295                           ;main.c: 369:         LCD_escreve(' ');
  5296  0ADC  3020               	movlw	32
  5297  0ADD  120A  158A  227C  120A  158A  	fcall	_LCD_escreve
  5298  0AE2                     l2294:
  5299                           
  5300                           ;main.c: 370:     }
  5301  0AE2  3001               	movlw	1
  5302  0AE3  07F3               	addwf	espacoLivre@i,f
  5303  0AE4  1803               	skipnc
  5304  0AE5  0AF4               	incf	espacoLivre@i+1,f
  5305  0AE6  3000               	movlw	0
  5306  0AE7  07F4               	addwf	espacoLivre@i+1,f
  5307  0AE8                     l2296:
  5308  0AE8  0874               	movf	espacoLivre@i+1,w
  5309  0AE9  3A80               	xorlw	128
  5310  0AEA  00FF               	movwf	btemp+1
  5311  0AEB  3080               	movlw	128
  5312  0AEC  027F               	subwf	btemp+1,w
  5313  0AED  1D03               	skipz
  5314  0AEE  2AF1               	goto	u2405
  5315  0AEF  3006               	movlw	6
  5316  0AF0  0273               	subwf	espacoLivre@i,w
  5317  0AF1                     u2405:
  5318  0AF1  1C03               	skipc
  5319  0AF2  2AF4               	goto	u2401
  5320  0AF3  2AF5               	goto	u2400
  5321  0AF4                     u2401:
  5322  0AF4  2ADC               	goto	l2292
  5323  0AF5                     u2400:
  5324  0AF5                     l202:
  5325  0AF5  0008               	return
  5326  0AF6                     __end_of_espacoLivre:
  5327                           
  5328                           	psect	text15
  5329  0A4C                     __ptext15:	
  5330 ;; *************** function _LCD_linha2 *****************
  5331 ;; Defined at:
  5332 ;;		line 73 in file "./lcd.h"
  5333 ;; Parameters:    Size  Location     Type
  5334 ;;		None
  5335 ;; Auto vars:     Size  Location     Type
  5336 ;;		None
  5337 ;; Return value:  Size  Location     Type
  5338 ;;                  1    wreg      void 
  5339 ;; Registers used:
  5340 ;;		wreg, status,2, status,0, btemp+1, pclath, cstack
  5341 ;; Tracked objects:
  5342 ;;		On entry : 0/0
  5343 ;;		On exit  : 0/0
  5344 ;;		Unchanged: 0/0
  5345 ;; Data sizes:     COMMON   BANK0   BANK1   BANK3   BANK2
  5346 ;;      Params:         0       0       0       0       0
  5347 ;;      Locals:         0       0       0       0       0
  5348 ;;      Temps:          0       0       0       0       0
  5349 ;;      Totals:         0       0       0       0       0
  5350 ;;Total ram usage:        0 bytes
  5351 ;; Hardware stack levels used: 1
  5352 ;; Hardware stack levels required when called: 1
  5353 ;; This function calls:
  5354 ;;		_delay
  5355 ;; This function is called by:
  5356 ;;		_Linha2
  5357 ;;		_espacoLivre
  5358 ;;		_listaZonas
  5359 ;; This function uses a non-reentrant model
  5360 ;;
  5361                           
  5362                           
  5363                           ;psect for function _LCD_linha2
  5364  0A4C                     _LCD_linha2:
  5365  0A4C                     l2078:	
  5366                           ;incstack = 0
  5367                           ; Regs used in _LCD_linha2: [wreg+status,2+status,0+btemp+1+pclath+cstack]
  5368                           
  5369                           
  5370                           ;./lcd.h: 74:     PORTD = 0xC0;
  5371  0A4C  30C0               	movlw	192
  5372  0A4D  1283               	bcf	3,5	;RP0=0, select bank0
  5373  0A4E  1303               	bcf	3,6	;RP1=0, select bank0
  5374  0A4F  0088               	movwf	8	;volatile
  5375  0A50                     l2080:
  5376                           
  5377                           ;./lcd.h: 75:     RA5 = 0;
  5378  0A50  1285               	bcf	5,5	;volatile
  5379  0A51                     l2082:
  5380                           
  5381                           ;./lcd.h: 76:     RA4 = 0;
  5382  0A51  1205               	bcf	5,4	;volatile
  5383  0A52                     l2084:
  5384                           
  5385                           ;./lcd.h: 77:     RA3=0;
  5386  0A52  1185               	bcf	5,3	;volatile
  5387  0A53                     l2086:
  5388                           
  5389                           ;./lcd.h: 78:     delay();
  5390  0A53  120A  158A  22A0  120A  158A  	fcall	_delay
  5391  0A58                     l2088:
  5392                           
  5393                           ;./lcd.h: 79:  RA3 = 1;
  5394  0A58  1283               	bcf	3,5	;RP0=0, select bank0
  5395  0A59  1303               	bcf	3,6	;RP1=0, select bank0
  5396  0A5A  1585               	bsf	5,3	;volatile
  5397  0A5B                     l70:
  5398  0A5B  0008               	return
  5399  0A5C                     __end_of_LCD_linha2:
  5400                           
  5401                           	psect	text16
  5402  0A7C                     __ptext16:	
  5403 ;; *************** function _LCD_escreve *****************
  5404 ;; Defined at:
  5405 ;;		line 46 in file "./lcd.h"
  5406 ;; Parameters:    Size  Location     Type
  5407 ;;  x               1    wreg     unsigned char 
  5408 ;; Auto vars:     Size  Location     Type
  5409 ;;  x               1    2[COMMON] unsigned char 
  5410 ;; Return value:  Size  Location     Type
  5411 ;;                  1    wreg      void 
  5412 ;; Registers used:
  5413 ;;		wreg, status,2, status,0, btemp+1, pclath, cstack
  5414 ;; Tracked objects:
  5415 ;;		On entry : 0/0
  5416 ;;		On exit  : 0/0
  5417 ;;		Unchanged: 0/0
  5418 ;; Data sizes:     COMMON   BANK0   BANK1   BANK3   BANK2
  5419 ;;      Params:         0       0       0       0       0
  5420 ;;      Locals:         1       0       0       0       0
  5421 ;;      Temps:          0       0       0       0       0
  5422 ;;      Totals:         1       0       0       0       0
  5423 ;;Total ram usage:        1 bytes
  5424 ;; Hardware stack levels used: 1
  5425 ;; Hardware stack levels required when called: 1
  5426 ;; This function calls:
  5427 ;;		_delay
  5428 ;; This function is called by:
  5429 ;;		_teclado
  5430 ;;		_telaInicial
  5431 ;;		_Linha2
  5432 ;;		_espacoLivre
  5433 ;;		_validaUser
  5434 ;;		_LCD_escreveFrase
  5435 ;;		_escreveMesagem
  5436 ;; This function uses a non-reentrant model
  5437 ;;
  5438                           
  5439                           
  5440                           ;psect for function _LCD_escreve
  5441  0A7C                     _LCD_escreve:
  5442                           
  5443                           ;incstack = 0
  5444                           ; Regs used in _LCD_escreve: [wreg+status,2+status,0+btemp+1+pclath+cstack]
  5445                           ;LCD_escreve@x stored from wreg
  5446  0A7C  00F2               	movwf	LCD_escreve@x
  5447  0A7D                     l2066:
  5448                           
  5449                           ;./lcd.h: 46: void LCD_escreve(char x);./lcd.h: 47: {;./lcd.h: 48:  PORTD = x;
  5450  0A7D  0872               	movf	LCD_escreve@x,w
  5451  0A7E  1283               	bcf	3,5	;RP0=0, select bank0
  5452  0A7F  1303               	bcf	3,6	;RP1=0, select bank0
  5453  0A80  0088               	movwf	8	;volatile
  5454  0A81                     l2068:
  5455                           
  5456                           ;./lcd.h: 49:  RA5 = 1;
  5457  0A81  1685               	bsf	5,5	;volatile
  5458  0A82                     l2070:
  5459                           
  5460                           ;./lcd.h: 50:  RA4 = 0;
  5461  0A82  1205               	bcf	5,4	;volatile
  5462  0A83                     l2072:
  5463                           
  5464                           ;./lcd.h: 51:  RA3 = 0;
  5465  0A83  1185               	bcf	5,3	;volatile
  5466  0A84                     l2074:
  5467                           
  5468                           ;./lcd.h: 52:  delay();
  5469  0A84  120A  158A  22A0  120A  158A  	fcall	_delay
  5470  0A89                     l2076:
  5471                           
  5472                           ;./lcd.h: 53:  RA3 = 1;
  5473  0A89  1283               	bcf	3,5	;RP0=0, select bank0
  5474  0A8A  1303               	bcf	3,6	;RP1=0, select bank0
  5475  0A8B  1585               	bsf	5,3	;volatile
  5476  0A8C                     l61:
  5477  0A8C  0008               	return
  5478  0A8D                     __end_of_LCD_escreve:
  5479                           
  5480                           	psect	text17
  5481  0B6C                     __ptext17:	
  5482 ;; *************** function _LCD_init *****************
  5483 ;; Defined at:
  5484 ;;		line 31 in file "./lcd.h"
  5485 ;; Parameters:    Size  Location     Type
  5486 ;;		None
  5487 ;; Auto vars:     Size  Location     Type
  5488 ;;		None
  5489 ;; Return value:  Size  Location     Type
  5490 ;;                  1    wreg      void 
  5491 ;; Registers used:
  5492 ;;		wreg, status,2, status,0, btemp+1, pclath, cstack
  5493 ;; Tracked objects:
  5494 ;;		On entry : 0/0
  5495 ;;		On exit  : 0/0
  5496 ;;		Unchanged: 0/0
  5497 ;; Data sizes:     COMMON   BANK0   BANK1   BANK3   BANK2
  5498 ;;      Params:         0       0       0       0       0
  5499 ;;      Locals:         0       0       0       0       0
  5500 ;;      Temps:          0       0       0       0       0
  5501 ;;      Totals:         0       0       0       0       0
  5502 ;;Total ram usage:        0 bytes
  5503 ;; Hardware stack levels used: 1
  5504 ;; Hardware stack levels required when called: 2
  5505 ;; This function calls:
  5506 ;;		_LCD_enable
  5507 ;;		_init
  5508 ;; This function is called by:
  5509 ;;		_main
  5510 ;; This function uses a non-reentrant model
  5511 ;;
  5512                           
  5513                           
  5514                           ;psect for function _LCD_init
  5515  0B6C                     _LCD_init:
  5516  0B6C                     l2298:	
  5517                           ;incstack = 0
  5518                           ; Regs used in _LCD_init: [wreg+status,2+status,0+btemp+1+pclath+cstack]
  5519                           
  5520                           
  5521                           ;./lcd.h: 33:     init();
  5522  0B6C  120A  158A  2232  120A  158A  	fcall	_init
  5523  0B71                     l2300:
  5524                           
  5525                           ;./lcd.h: 34:  PORTD = 0X1;
  5526  0B71  3001               	movlw	1
  5527  0B72  1283               	bcf	3,5	;RP0=0, select bank0
  5528  0B73  1303               	bcf	3,6	;RP1=0, select bank0
  5529  0B74  0088               	movwf	8	;volatile
  5530  0B75                     l2302:
  5531                           
  5532                           ;./lcd.h: 35:  LCD_enable();
  5533  0B75  120A  158A  223E  120A  158A  	fcall	_LCD_enable
  5534  0B7A                     l2304:
  5535                           
  5536                           ;./lcd.h: 36:  PORTD = 0X38;
  5537  0B7A  3038               	movlw	56
  5538  0B7B  1283               	bcf	3,5	;RP0=0, select bank0
  5539  0B7C  1303               	bcf	3,6	;RP1=0, select bank0
  5540  0B7D  0088               	movwf	8	;volatile
  5541  0B7E                     l2306:
  5542                           
  5543                           ;./lcd.h: 37:  LCD_enable();
  5544  0B7E  120A  158A  223E  120A  158A  	fcall	_LCD_enable
  5545  0B83                     l2308:
  5546                           
  5547                           ;./lcd.h: 38:  PORTD = 0X0e;
  5548  0B83  300E               	movlw	14
  5549  0B84  1283               	bcf	3,5	;RP0=0, select bank0
  5550  0B85  1303               	bcf	3,6	;RP1=0, select bank0
  5551  0B86  0088               	movwf	8	;volatile
  5552  0B87                     l2310:
  5553                           
  5554                           ;./lcd.h: 39:  LCD_enable();
  5555  0B87  120A  158A  223E  120A  158A  	fcall	_LCD_enable
  5556  0B8C                     l2312:
  5557                           
  5558                           ;./lcd.h: 40:  PORTD = 0X06;
  5559  0B8C  3006               	movlw	6
  5560  0B8D  1283               	bcf	3,5	;RP0=0, select bank0
  5561  0B8E  1303               	bcf	3,6	;RP1=0, select bank0
  5562  0B8F  0088               	movwf	8	;volatile
  5563  0B90                     l2314:
  5564                           
  5565                           ;./lcd.h: 41:  LCD_enable();
  5566  0B90  120A  158A  223E  120A  158A  	fcall	_LCD_enable
  5567  0B95                     l2316:
  5568                           
  5569                           ;./lcd.h: 42:  PORTD = 0X80;
  5570  0B95  3080               	movlw	128
  5571  0B96  1283               	bcf	3,5	;RP0=0, select bank0
  5572  0B97  1303               	bcf	3,6	;RP1=0, select bank0
  5573  0B98  0088               	movwf	8	;volatile
  5574  0B99                     l2318:
  5575                           
  5576                           ;./lcd.h: 43:  LCD_enable();
  5577  0B99  120A  158A  223E  120A  158A  	fcall	_LCD_enable
  5578  0B9E                     l58:
  5579  0B9E  0008               	return
  5580  0B9F                     __end_of_LCD_init:
  5581                           
  5582                           	psect	text18
  5583  0A32                     __ptext18:	
  5584 ;; *************** function _init *****************
  5585 ;; Defined at:
  5586 ;;		line 23 in file "./lcd.h"
  5587 ;; Parameters:    Size  Location     Type
  5588 ;;		None
  5589 ;; Auto vars:     Size  Location     Type
  5590 ;;		None
  5591 ;; Return value:  Size  Location     Type
  5592 ;;                  1    wreg      void 
  5593 ;; Registers used:
  5594 ;;		wreg, status,2
  5595 ;; Tracked objects:
  5596 ;;		On entry : 0/0
  5597 ;;		On exit  : 0/0
  5598 ;;		Unchanged: 0/0
  5599 ;; Data sizes:     COMMON   BANK0   BANK1   BANK3   BANK2
  5600 ;;      Params:         0       0       0       0       0
  5601 ;;      Locals:         0       0       0       0       0
  5602 ;;      Temps:          0       0       0       0       0
  5603 ;;      Totals:         0       0       0       0       0
  5604 ;;Total ram usage:        0 bytes
  5605 ;; Hardware stack levels used: 1
  5606 ;; This function calls:
  5607 ;;		Nothing
  5608 ;; This function is called by:
  5609 ;;		_LCD_init
  5610 ;; This function uses a non-reentrant model
  5611 ;;
  5612                           
  5613                           
  5614                           ;psect for function _init
  5615  0A32                     _init:
  5616  0A32                     l2104:	
  5617                           ;incstack = 0
  5618                           ; Regs used in _init: [wreg+status,2]
  5619                           
  5620                           
  5621                           ;./lcd.h: 25:  ADCON1 = 0X07;
  5622  0A32  3007               	movlw	7
  5623  0A33  1683               	bsf	3,5	;RP0=1, select bank1
  5624  0A34  1303               	bcf	3,6	;RP1=0, select bank1
  5625  0A35  009F               	movwf	31	;volatile
  5626  0A36                     l2106:
  5627                           
  5628                           ;./lcd.h: 26:      RA1=1;
  5629  0A36  1283               	bcf	3,5	;RP0=0, select bank0
  5630  0A37  1303               	bcf	3,6	;RP1=0, select bank0
  5631  0A38  1485               	bsf	5,1	;volatile
  5632  0A39                     l2108:
  5633                           
  5634                           ;./lcd.h: 27:  TRISA = 0X00;
  5635  0A39  1683               	bsf	3,5	;RP0=1, select bank1
  5636  0A3A  1303               	bcf	3,6	;RP1=0, select bank1
  5637  0A3B  0185               	clrf	5	;volatile
  5638  0A3C                     l2110:
  5639                           
  5640                           ;./lcd.h: 28:  TRISD = 0X00;
  5641  0A3C  0188               	clrf	8	;volatile
  5642  0A3D                     l55:
  5643  0A3D  0008               	return
  5644  0A3E                     __end_of_init:
  5645                           
  5646                           	psect	text19
  5647  0A3E                     __ptext19:	
  5648 ;; *************** function _LCD_enable *****************
  5649 ;; Defined at:
  5650 ;;		line 85 in file "./lcd.h"
  5651 ;; Parameters:    Size  Location     Type
  5652 ;;		None
  5653 ;; Auto vars:     Size  Location     Type
  5654 ;;		None
  5655 ;; Return value:  Size  Location     Type
  5656 ;;                  1    wreg      void 
  5657 ;; Registers used:
  5658 ;;		wreg, status,2, status,0, btemp+1, pclath, cstack
  5659 ;; Tracked objects:
  5660 ;;		On entry : 0/0
  5661 ;;		On exit  : 0/0
  5662 ;;		Unchanged: 0/0
  5663 ;; Data sizes:     COMMON   BANK0   BANK1   BANK3   BANK2
  5664 ;;      Params:         0       0       0       0       0
  5665 ;;      Locals:         0       0       0       0       0
  5666 ;;      Temps:          0       0       0       0       0
  5667 ;;      Totals:         0       0       0       0       0
  5668 ;;Total ram usage:        0 bytes
  5669 ;; Hardware stack levels used: 1
  5670 ;; Hardware stack levels required when called: 1
  5671 ;; This function calls:
  5672 ;;		_delay
  5673 ;; This function is called by:
  5674 ;;		_LCD_init
  5675 ;; This function uses a non-reentrant model
  5676 ;;
  5677                           
  5678                           
  5679                           ;psect for function _LCD_enable
  5680  0A3E                     _LCD_enable:
  5681  0A3E                     l2112:	
  5682                           ;incstack = 0
  5683                           ; Regs used in _LCD_enable: [wreg+status,2+status,0+btemp+1+pclath+cstack]
  5684                           
  5685                           
  5686                           ;./lcd.h: 87:  RA5 = 0;
  5687  0A3E  1283               	bcf	3,5	;RP0=0, select bank0
  5688  0A3F  1303               	bcf	3,6	;RP1=0, select bank0
  5689  0A40  1285               	bcf	5,5	;volatile
  5690                           
  5691                           ;./lcd.h: 88:  RA4 = 0;
  5692  0A41  1205               	bcf	5,4	;volatile
  5693                           
  5694                           ;./lcd.h: 89:  RA3 = 0;
  5695  0A42  1185               	bcf	5,3	;volatile
  5696  0A43                     l2114:
  5697                           
  5698                           ;./lcd.h: 90:  delay();
  5699  0A43  120A  158A  22A0  120A  158A  	fcall	_delay
  5700  0A48                     l2116:
  5701                           
  5702                           ;./lcd.h: 91:  RA3 = 1;
  5703  0A48  1283               	bcf	3,5	;RP0=0, select bank0
  5704  0A49  1303               	bcf	3,6	;RP1=0, select bank0
  5705  0A4A  1585               	bsf	5,3	;volatile
  5706  0A4B                     l73:
  5707  0A4B  0008               	return
  5708  0A4C                     __end_of_LCD_enable:
  5709                           
  5710                           	psect	text20
  5711  0AA0                     __ptext20:	
  5712 ;; *************** function _delay *****************
  5713 ;; Defined at:
  5714 ;;		line 94 in file "./lcd.h"
  5715 ;; Parameters:    Size  Location     Type
  5716 ;;		None
  5717 ;; Auto vars:     Size  Location     Type
  5718 ;;  i               2    0[COMMON] int 
  5719 ;; Return value:  Size  Location     Type
  5720 ;;                  1    wreg      void 
  5721 ;; Registers used:
  5722 ;;		wreg, status,2, btemp+1
  5723 ;; Tracked objects:
  5724 ;;		On entry : 0/0
  5725 ;;		On exit  : 0/0
  5726 ;;		Unchanged: 0/0
  5727 ;; Data sizes:     COMMON   BANK0   BANK1   BANK3   BANK2
  5728 ;;      Params:         0       0       0       0       0
  5729 ;;      Locals:         2       0       0       0       0
  5730 ;;      Temps:          0       0       0       0       0
  5731 ;;      Totals:         2       0       0       0       0
  5732 ;;Total ram usage:        2 bytes
  5733 ;; Hardware stack levels used: 1
  5734 ;; This function calls:
  5735 ;;		Nothing
  5736 ;; This function is called by:
  5737 ;;		_LCD_escreve
  5738 ;;		_LCD_limpa
  5739 ;;		_LCD_linha1
  5740 ;;		_LCD_linha2
  5741 ;;		_LCD_enable
  5742 ;; This function uses a non-reentrant model
  5743 ;;
  5744                           
  5745                           
  5746                           ;psect for function _delay
  5747  0AA0                     _delay:
  5748  0AA0                     l1890:	
  5749                           ;incstack = 0
  5750                           ; Regs used in _delay: [wreg+status,2+btemp+1]
  5751                           
  5752                           
  5753                           ;./lcd.h: 96:  int i;;./lcd.h: 97:  for (i = 0;i < 5000;i++);
  5754  0AA0  01F0               	clrf	delay@i
  5755  0AA1  01F1               	clrf	delay@i+1
  5756  0AA2                     l1896:
  5757  0AA2  3001               	movlw	1
  5758  0AA3  07F0               	addwf	delay@i,f
  5759  0AA4  1803               	skipnc
  5760  0AA5  0AF1               	incf	delay@i+1,f
  5761  0AA6  3000               	movlw	0
  5762  0AA7  07F1               	addwf	delay@i+1,f
  5763  0AA8                     l1898:
  5764  0AA8  0871               	movf	delay@i+1,w
  5765  0AA9  3A80               	xorlw	128
  5766  0AAA  00FF               	movwf	btemp+1
  5767  0AAB  3093               	movlw	147
  5768  0AAC  027F               	subwf	btemp+1,w
  5769  0AAD  1D03               	skipz
  5770  0AAE  2AB1               	goto	u1775
  5771  0AAF  3088               	movlw	136
  5772  0AB0  0270               	subwf	delay@i,w
  5773  0AB1                     u1775:
  5774  0AB1  1C03               	skipc
  5775  0AB2  2AB4               	goto	u1771
  5776  0AB3  2AB5               	goto	u1770
  5777  0AB4                     u1771:
  5778  0AB4  2AA2               	goto	l1896
  5779  0AB5                     u1770:
  5780  0AB5                     l78:
  5781  0AB5  0008               	return
  5782  0AB6                     __end_of_delay:
  5783  007E                     btemp	set	126	;btemp
  5784  007E                     wtemp0	set	126

Data Sizes:
    Strings     0
    Constant    0
    Data        235
    BSS         6
    Persistent  0
    Stack       0

Auto Spaces:
    Space          Size  Autos    Used
    COMMON           14     14      14
    BANK0            80     37      74
    BANK1            80      0      74
    BANK3            96      0      87
    BANK2            96      0      43

Pointer List with Targets:

    strlen@s	PTR const unsigned char  size(1) Largest target is 15
		 -> msgMascara(BANK0[5]), msgDigiteSenha(BANK1[15]), 

    strlen@cp	PTR const unsigned char  size(1) Largest target is 15
		 -> msgMascara(BANK0[5]), msgDigiteSenha(BANK1[15]), 

    aux	PTR unsigned char  size(2) Largest target is 512
		 -> RAM(DATA[512]), RAM(DATA[512]), RAM(DATA[512]), RAM(DATA[512]), 
		 -> RAM(DATA[512]), RAM(DATA[512]), RAM(DATA[512]), RAM(DATA[512]), 
		 -> RAM(DATA[512]), RAM(DATA[512]), NULL(NULL[0]), RAM(DATA[512]), 
		 -> RAM(DATA[512]), RAM(DATA[512]), 


Critical Paths under _main in COMMON

    _liga_buzzer->___flmul
    ___flsub->___fladd
    ___flmul->__Umul8_16
    _LCD_limpa->_delay
    _telaInicial->_strlen
    _LCD_linha1->_delay
    _Linha2->_espacoLivre
    _Linha2->_strlen
    _espacoLivre->_LCD_escreve
    _LCD_linha2->_delay
    _LCD_escreve->_delay
    _LCD_enable->_delay

Critical Paths under _main in BANK0

    _main->_validaUser
    _validaUser->_teclado
    _teclado->_liga_buzzer
    _liga_buzzer->___flmul
    ___flsub->___fladd

Critical Paths under _main in BANK1

    None.

Critical Paths under _main in BANK3

    None.

Critical Paths under _main in BANK2

    None.

Call Graph Tables:

 ---------------------------------------------------------------------------------
 (Depth) Function   	        Calls       Base Space   Used Autos Params    Refs
 ---------------------------------------------------------------------------------
 (0) _main                                                 0     0      0   13962
                           _LCD_init
                          _LCD_limpa
                             _Linha2
                            _teclado
                        _telaInicial
                         _validaUser
 ---------------------------------------------------------------------------------
 (1) _validaUser                                           7     7      0    6642
                                             30 BANK0      7     7      0
                        _LCD_escreve
                          _LCD_limpa
                            _teclado
 ---------------------------------------------------------------------------------
 (2) _teclado                                              3     3      0    6436
                                             27 BANK0      3     3      0
                        _LCD_escreve
                        _liga_buzzer
 ---------------------------------------------------------------------------------
 (3) _liga_buzzer                                          6     2      4    6368
                                             21 BANK0      6     2      4
                             ___flge
                            ___flmul
                            ___flsub
 ---------------------------------------------------------------------------------
 (4) ___flsub                                              8     0      8    2333
                                              8 BANK0      8     0      8
                            ___fladd
 ---------------------------------------------------------------------------------
 (5) ___fladd                                             20    12      8    2136
                                              0 COMMON    12     4      8
                                              0 BANK0      8     8      0
 ---------------------------------------------------------------------------------
 (4) ___flmul                                             26    18      8    2417
                                              9 COMMON     5     5      0
                                              0 BANK0     21    13      8
                          __Umul8_16
 ---------------------------------------------------------------------------------
 (5) __Umul8_16                                            9     7      2     799
                                              0 COMMON     9     7      2
 ---------------------------------------------------------------------------------
 (4) ___flge                                              12     4      8     334
                                              0 COMMON    12     4      8
 ---------------------------------------------------------------------------------
 (2) _LCD_limpa                                            0     0      0      46
                              _delay
 ---------------------------------------------------------------------------------
 (1) _telaInicial                                          4     4      0     316
                                              5 COMMON     4     4      0
                        _LCD_escreve
                         _LCD_linha1
                             _strlen
 ---------------------------------------------------------------------------------
 (2) _LCD_linha1                                           0     0      0      46
                              _delay
 ---------------------------------------------------------------------------------
 (1) _Linha2                                               4     4      0     476
                                              5 COMMON     4     4      0
                        _LCD_escreve
                         _LCD_linha2
                        _espacoLivre
                             _strlen
 ---------------------------------------------------------------------------------
 (2) _strlen                                               5     3      2     156
                                              0 COMMON     5     3      2
 ---------------------------------------------------------------------------------
 (2) _espacoLivre                                          2     2      0     160
                                              3 COMMON     2     2      0
                        _LCD_escreve
                         _LCD_linha2
 ---------------------------------------------------------------------------------
 (3) _LCD_linha2                                           0     0      0      46
                              _delay
 ---------------------------------------------------------------------------------
 (3) _LCD_escreve                                          1     1      0      68
                                              2 COMMON     1     1      0
                              _delay
 ---------------------------------------------------------------------------------
 (1) _LCD_init                                             0     0      0      46
                         _LCD_enable
                               _init
 ---------------------------------------------------------------------------------
 (2) _init                                                 0     0      0       0
 ---------------------------------------------------------------------------------
 (2) _LCD_enable                                           0     0      0      46
                              _delay
 ---------------------------------------------------------------------------------
 (4) _delay                                                2     2      0      46
                                              0 COMMON     2     2      0
 ---------------------------------------------------------------------------------
 Estimated maximum stack depth 5
 ---------------------------------------------------------------------------------

 Call Graph Graphs:

 _main (ROOT)
   _LCD_init
     _LCD_enable
       _delay
     _init
   _LCD_limpa
     _delay
   _Linha2
     _LCD_escreve
       _delay
     _LCD_linha2
       _delay
     _espacoLivre
       _LCD_escreve
       _LCD_linha2
     _strlen
   _teclado
     _LCD_escreve
     _liga_buzzer
       ___flge
       ___flmul
         __Umul8_16
       ___flsub
         ___fladd
   _telaInicial
     _LCD_escreve
     _LCD_linha1
       _delay
     _strlen
   _validaUser
     _LCD_escreve
     _LCD_limpa
     _teclado

 Address spaces:
Name               Size   Autos  Total    Cost      Usage
BANK3               60      0      57       9       90.6%
BITBANK3            60      0       0       8        0.0%
SFR3                 0      0       0       4        0.0%
BITSFR3              0      0       0       4        0.0%
BANK2               60      0      2B      11       44.8%
BITBANK2            60      0       0      10        0.0%
SFR2                 0      0       0       5        0.0%
BITSFR2              0      0       0       5        0.0%
BANK1               50      0      4A       7       92.5%
BITBANK1            50      0       0       6        0.0%
SFR1                 0      0       0       2        0.0%
BITSFR1              0      0       0       2        0.0%
BANK0               50     25      4A       5       92.5%
BITBANK0            50      0       0       4        0.0%
SFR0                 0      0       0       1        0.0%
BITSFR0              0      0       0       1        0.0%
COMMON               E      E       E       1      100.0%
BITCOMMON            E      0       0       0        0.0%
CODE                 0      0       0       0        0.0%
DATA                 0      0     124      12        0.0%
ABS                  0      0     124       3        0.0%
NULL                 0      0       0       0        0.0%
STACK                0      0       0       2        0.0%
EEDATA             100      0       0       0        0.0%


Microchip Technology PIC Macro Assembler V2.32 build 20210201212658 
Symbol Table                                                                                   Sat Oct 02 00:05:53 2021

                       pc 0002                        l61 0A8C                        l70 0A5B  
                      l55 0A3D                        l64 0A7B                        l73 0A4B  
                      l58 0B9E                        l67 0A6B                        l78 0AB5  
                      fsr 0004       __Umul8_16@word_mpld 0076               ?_LCD_enable 0070  
                     l202 0AF5                       l156 0D67                       l180 03B8  
                     l173 030C                       l165 0256                       l191 0C4A  
                     l504 003D                       l185 045E                       l507 00A9  
                     l508 00C2                       l197 0C0D                       l623 0DCB  
                     l731 07B3                       l627 0E74                       l740 0B40  
                     l644 0F45                       l636 0FFF                       l725 072B  
                     l629 0E49                       l654 0F8D                       l719 07BF  
                     l648 0F6B                       l665 0FF1                       l657 0FCD  
                     l738 0B2E                       l666 0FFF                       l669 0B19  
                     l784 0020                       _RA1 0029                       _RB0 0030  
                     _RA3 002B                       _RB1 0031                       _RA4 002C  
                     _RB2 0032                       _RA5 002D                       _RB3 0033  
             ?_LCD_linha1 0070               ?_LCD_linha2 0070                       _aux 0068  
                     fsr0 0004                       indf 0000              ___flmul@aexp 002D  
            ___flmul@bexp 002E              ___flmul@sign 0028              ___flmul@temp 0033  
            ___flmul@prod 002F                      l2000 064C                      l2010 06E0  
                    l2002 065C                      l2020 0705                      l2012 06EE  
                    l2004 0689                      l2100 0D48                      l2110 0A3C  
                    l2030 0728                      l2014 06F7                      l2022 070B  
                    l2006 06AF                      l2102 0D63                      l2112 0A3E  
                    l2104 0A32                      l2120 0A70                      l2040 0747  
                    l2024 070F                      l2016 06FB                      l2008 06D7  
                    l2200 02D3                      l2114 0A43                      l2106 0A36  
                    l2130 0A5C                      l2122 0A71                      l2050 078D  
                    l2042 0760                      l2034 0730                      l2026 0710  
                    l2018 06FC                      l2210 030E                      l2202 02DF  
                    l2116 0A48                      l2108 0A39                      l2300 0B71  
                    l2140 0A68                      l2132 0A60                      l2124 0A72  
                    l2060 07AC                      l2052 0797                      l2036 0735  
                    l2044 0766                      l2028 0714                      l2220 033F  
                    l2212 0312                      l2204 02E3                      l2310 0B87  
                    l2302 0B75                      l2070 0A82                      l2134 0A61  
                    l2126 0A73                      l2118 0A6C                      l2062 07B7  
                    l2054 0799                      l2046 0773                      l2038 0743  
                    l2230 037A                      l2222 034D                      l2214 0320  
                    l2206 02F1                      l2150 01C5                      l2142 019E  
                    l2312 0B8C                      l2304 0B7A                      l2072 0A83  
                    l2080 0A50                      l2136 0A62                      l2320 0C0E  
                    l2128 0A78                      l2056 07A7                      l2048 077E  
                    l2240 03B2                      l2232 0389                      l2224 035C  
                    l2216 032F                      l2208 0300                      l2160 01F0  
                    l2152 01CB                      l2144 01A4                      l2314 0B90  
                    l2306 0B7E                      l2074 0A84                      l2066 0A7D  
                    l2082 0A51                      l2138 0A63                      l2330 0C44  
                    l2322 0C19                      l2058 07AB                      l2090 0CEC  
                    l2250 03E3                      l2242 03BC                      l2234 038F  
                    l2226 0368                      l2218 033B                      l2170 0229  
                    l2162 01FC                      l2146 01A8                      l2154 01CF  
                    l2410 0BA3                      l2316 0B95                      l2308 0B83  
                    l2076 0A89                      l2068 0A81                      l2084 0A52  
                    l2340 0BF0                      l2332 0BD3                      l2324 0C1C  
                    l1700 0D8F                      l2092 0D0D                      l2260 0412  
                    l2252 03E9                      l2244 03C0                      l2236 0395  
                    l2228 036C                      l2180 025C                      l2172 022D  
                    l2164 0200                      l2156 01D3                      l2148 01B6  
                    l2420 0BBE                      l2412 0BA5                      l2318 0B99  
                    l2086 0A53                      l2078 0A4C                      l2342 0C08  
                    l2334 0BDD                      l2326 0C26                      l1710 0DA9  
                    l1702 0D97                      l2094 0D19                      l2270 0449  
                    l2262 0420                      l2254 03F7                      l2246 03CE  
                    l2238 03A3                      l2190 0297                      l2182 026A  
                    l2174 023B                      l2166 020E                      l2158 01E1  
                    l2350 00D4                      l2422 0BC2                      l2414 0BA9  
                    l2088 0A58                      l2280 001A                      l2336 0BE0  
                    l2328 0C2C                      l1800 0EB7                      l1720 0DC0  
                    l1712 0DAD                      l1704 0D9C                      l2096 0D1C  
                    l2272 0458                      l2264 042F                      l2256 0406  
                    l2248 03DD                      l2192 02A6                      l2184 0279  
                    l2176 024A                      l2168 021D                      l2360 00FB  
                    l2352 00DE                      l2344 00C3                      l2424 0BCA  
                    l2416 0BAE                      l2408 0B9F                      l2274 0009  
                    l2338 0BEA                      l1810 0F23                      l1802 0EC2  
                    l1730 0DD9                      l1722 0DC1                      l1714 0DAE  
                    l1706 0DA2                      l2098 0D27                      l2266 0435  
                    l2258 040C                      l2194 02B2                      l2186 0285  
                    l2178 0258                      l2370 011E                      l2362 0105  
                    l2354 00EA                      l2346 00CA                      l2418 0BB4  
                    l2292 0ADC                      l2284 0AD5                      l2276 000E  
                    l1900 0021                      l1812 0F28                      l1804 0EC7  
                    l1740 0DED                      l1732 0DDD                      l1716 0DB3  
                    l1724 0DC3                      l1708 0DA3                      l2268 043B  
                    l2196 02B6                      l2188 0289                      l2380 0137  
                    l2372 0123                      l2364 010A                      l2356 00EF  
                    l2348 00CE                      l2294 0AE2                      l2286 0ADA  
                    l2278 0012                      l1910 0081                      l1902 0035  
                    l1830 0F72                      l1822 0F5B                      l1806 0EDD  
                    l1814 0F37                      l1750 0E01                      l1742 0DF1  
                    l1734 0DE1                      l1726 0DD1                      l1718 0DB8  
                    l2198 02C4                      l2382 013C                      l2374 0128  
                    l2390 016B                      l2366 0114                      l2358 00F5  
                    l2296 0AE8                      l1912 0085                      l1904 0051  
                    l1840 0F80                      l1832 0F74                      l1824 0F66  
                    l1816 0F4D                      l1808 0F1D                      l1752 0E05  
                    l1744 0DF5                      l1736 0DE5                      l1728 0DD5  
                    l1760 0E15                      l1920 0AF6                      l2392 017F  
                    l2384 0141                      l2376 012D                      l2368 0119  
                    l2298 0B6C                      l1914 00BF                      l1906 0059  
                    l1930 046C                      l1850 0F97                      l1842 0F84  
                    l1834 0F79                      l1826 0F6A                      l1818 0F52  
                    l1770 0E5A                      l1762 0E16                      l1754 0E09  
                    l1746 0DF9                      l1738 0DE9                      l1690 0D7A  
                    l1682 0D68                      l1922 0AFA                      l2378 0132  
                    l2394 018D                      l1916 00C1                      l1908 005D  
                    l1940 0483                      l1932 0470                      l1860 0FD7  
                    l1852 0FA5                      l1844 0F8A                      l1828 0F6F  
                    l1836 0F7B                      l1780 0E78                      l1772 0E5E  
                    l1764 0E2D                      l1756 0E0D                      l1748 0DFD  
                    l1692 0D7F                      l1684 0D6F                      l2388 0146  
                    l1950 049C                      l1942 0485                      l1934 0471  
                    l1926 045F                      l1870 0FEB                      l1862 0FDF  
                    l1854 0FA9                      l1790 0EA1                      l1838 0F7F  
                    l1782 0E7D                      l1774 0E5F                      l1766 0E4D  
                    l1758 0E11                      l1694 0D84                      l1686 0D75  
                    l1880 0B24                      l1960 04B1                      l1952 049D  
                    l1944 048D                      l1936 0476                      l1928 0466  
                    l1872 0FFA                      l1864 0FE4                      l1856 0FC9  
                    l1848 0F92                      l1792 0EA5                      l1776 0E6A  
                    l1768 0E58                      l1696 0D8C                      l1688 0D79  
                    l2584 014B                      l1890 0AA0                      l1882 0B28  
                    l1970 04CC                      l1962 04B9                      l1954 04A2  
                    l1946 0492                      l1938 047B                      l1874 0FFE  
                    l1866 0FE5                      l1858 0FD2                      l1794 0EB0  
                    l1786 0E86                      l1778 0E6E                      l1698 0D8D  
                    l1884 0B37                      l1876 0B1B                      l1980 054E  
                    l1972 04DC                      l1964 04BE                      l1956 04A7  
                    l1948 0498                      l1868 0FE9                      l1796 0EB2  
                    l1788 0E9D                      l1886 0B3C                      l1878 0B1D  
                    l1990 05BC                      l1982 056A                      l1974 04E9  
                    l1966 04C3                      l1958 04AF                      l1798 0EB6  
                    l1896 0AA2                      l1992 05CC                      l1984 0586  
                    l1976 0506                      l1898 0AA8                      l1994 05E9  
                    l1986 058F                      l1978 0522                      l1996 0602  
                    l1988 059F                      l1998 061F                      u2011 0611  
                    u2100 06FB                      u2012 0618                      u1300 0D84  
                    u2101 06FA                      u2021 063E                      u2013 061F  
                    u2005 05EB                      u1301 0D83                      u2022 0645  
                    u1310 0DA2                      u2031 066B                      u2023 064C  
                    u1311 0DA1                      u2200 078D                      u2120 070F  
                    u2040 0695                      u2032 0672                      u1400 0E4D  
                    u1320 0DAD                      u2201 078C                      u2121 070E  
                    u2033 0679                      u1401 0E4C                      u1321 0DAC  
                    u2210 07AB                      u2130 0714                      u1410 0E5E  
                    u1330 0DB3                      u2211 07AA                      u2131 0713  
                    u2115 06FE                      u2051 06A1                      u1411 0E5D  
                    u1331 0DB2                      u2140 0728                      u2060 06BD  
                    u2052 06A8                      u1340 0DB8                      u2220 0D63  
                    u2300 02E3                      u2205 0789                      u2141 0727  
                    u2053 06AF                      u2045 0690                      u1341 0DB7  
                    u2221 0D62                      u2301 02E2                      u2150 072F  
                    u1510 0EDD                      u1430 0E74                      u1350 0DD1  
                    u2310 0312                      u2230 01A8                      u2151 072E  
                    u2071 06C9                      u1511 0EDC                      u1431 0E73  
                    u1351 0DD0                      u2311 0311                      u2231 01A7  
                    u2400 0AF5                      u2160 0735                      u2072 06D0  
                    u1600 0F79                      u1440 0E78                      u1360 0DD5  
                    u1280 0D79                      u2320 033F                      u2240 01D3  
                    u2401 0AF4                      u2161 0734                      u2073 06D7  
                    u2065 06B8                      u1601 0F78                      u1521 0EF6  
                    u1513 0ED9                      u1505 0EBB                      u1441 0E77  
                    u1425 0E63                      u1361 0DD4                      u1281 0D78  
                    u2321 033E                      u2241 01D2                      u2410 0C44  
                    u2170 0747                      u1610 0F7F                      u1530 0F0A  
                    u1522 0EF7                      u1450 0E7D                      u1370 0E2D  
                    u1290 0D7F                      u2330 036C                      u2250 0200  
                    u2411 0C43                      u2171 0746                      u1611 0F7E  
                    u1531 0F0B                      u1523 0EFC                      u1451 0E7C  
                    u1371 0E2C                      u1291 0D7E                      u2331 036B  
                    u2251 01FF                      u2420 0C08                      u2180 0756  
                    u1700 0FD7                      u1620 0F84                      u1540 0F28  
                    u1532 0F10                      u1524 0EFD                      u1380 0E36  
                    u2340 0395                      u2260 022D                      u2405 0AF1  
                    u2421 0C07                      u2085 06D9                      u1701 0FD6  
                    u1621 0F83                      u1541 0F27                      u1533 0F11  
                    u1525 0F02                      u1461 0E8F                      u1381 0E34  
                    u2341 0394                      u2261 022C                      u2190 0773  
                    u1710 0FE4                      u1630 0F8A                      u1550 0F4D  
                    u1526 0F03                      u1470 0EA1                      u1462 0E96  
                    u1390 0E37                      u2350 03C0                      u2270 025C  
                    u2430 00DD                      u2415 0C40                      u2191 0772  
                    u2095 06F0                      u1711 0FE3                      u1631 0F89  
                    u1551 0F4C                      u1471 0EA0                      u1463 0E9D  
                    u1375 0E29                      u2351 03BF                      u2271 025B  
                    u2431 00DC                      u1800 005D                      u1720 0FE9  
                    u1640 0F91                      u1560 0F52                      u1480 0EA5  
                    u2360 03E9                      u2280 0289                      u2440 0113  
                    u2425 0C04                      u1801 005C                      u2185 0751  
                    u1721 0FE8                      u1641 0F90                      u1561 0F51  
                    u1481 0EA4                      u2361 03E8                      u2281 0288  
                    u2441 0112                      u1730 0FFE                      u1650 0F97  
                    u1490 0EB6                      u2370 0412                      u2290 02B6  
                    u2450 019C                      u1811 006C                      u2195 076F  
                    u1731 0FFD                      u1651 0F96                      u1491 0EB5  
                    u2371 0411                      u2291 02B5                      u2451 019B  
                    u1820 0085                      u1812 006D                      u1740 0B28  
                    u1900 04A7                      u1660 0FA9                      u1580 0F6A  
                    u2380 043B                      u1821 0084                      u1813 0072  
                    u1741 0B27                      u1901 04A6                      u1661 0FA8  
                    u1581 0F69                      u2381 043A                      u2390 001A  
                    u1814 0073                      u1910 04BE                      u1670 0FBA  
                    u1590 0F6F                      u2470 0BCA                      u2391 0019  
                    u1831 0094                      u1815 0078                      u1911 04BD  
                    u1591 0F6E                      u1575 0F5F                      u2455 0198  
                    u2471 0BC9                      u1840 00BF                      u1832 0095  
                    u1816 0079                      u1760 0B3C                      u1920 04C3  
                    u1680 0FC9                      u1841 00BE                      u1833 009A  
                    u1761 0B3B                      u1921 04C2                      u1681 0FC8  
                    u1770 0AB5                      u1834 009B                      u1850 0470  
                    u1690 0FD2                      u1771 0AB4                      u1835 00A0  
                    u1755 0B2F                      u1931 0514                      u1851 046F  
                    u1691 0FD1                      u1675 0FB5                      u2707 0235  
                    u1836 00A1                      u1780 0035                      u1932 051B  
                    u1860 0476                      u1845 00BB                      u1781 0034  
                    u1941 0530                      u1933 0522                      u1861 0475  
                    u2717 0264                      u1790 0051                      u1942 0537  
                    u1870 047B                      u1775 0AB1                      u1791 0050  
                    u1951 055C                      u1943 053E                      u1871 047A  
                    u2807 03F1                      u2727 0291                      u1952 0563  
                    u1880 049C                      u1961 0578                      u1953 056A  
                    u1881 049B                      u2817 041A                      u2737 02BE  
                    u1962 057F                      u1890 04A2                      u1963 0586  
                    u1891 04A1                      u2827 0443                      u2747 02EB  
                    u2667 0187                      u1981 05AE                      u2837 0D13  
                    u2757 031A                      u2677 01B0                      u1982 05B5  
                    u1991 05DB                      u1983 05BC                      u1975 0588  
                    u2847 0D22                      u2767 0347                      u2687 01DB  
                    u1992 05E2                      u1993 05E9                      u2777 0374  
                    u2697 0208                      u2787 039D                      u2797 03C8  
            ?_LCD_escreve 0070                      _main 0B9F                      _init 0A32  
            ?_liga_buzzer 0035                      btemp 007E              ?_espacoLivre 0070  
        _senhaUserConfere 004F                      start 0000        __size_of_LCD_limpa 0010  
        __end_of_LCD_init 0B9F           __end_of___fladd 1000                     ?_main 0070  
                   ?_init 0070           __end_of___flmul 07C0           __end_of___flsub 0B1A  
                   _PORTB 0006                     _PORTD 0008                     _PORTE 0009  
                   _TRISA 0085                     _TRISB 0086                     _TRISD 0088  
                   _TRISE 0089                     _delay 0AA0                     _input 005D  
         __end_of_teclado 045F         _msgReativarActive 00D7                     pclath 000A  
                   status 0003                     wtemp0 007E       __size_of_LCD_enable 000E  
     __size_of_LCD_linha1 0010       __size_of_LCD_linha2 0010           __initialization 07C0  
            __end_of_main 0BD3              __end_of_init 0A3E              ?_telaInicial 0070  
                  ??_main 007E                    ??_init 0070         __end_of_LCD_limpa 0A7C  
                  ?_delay 0070                    _ADCON1 009F                    _Linha2 0BD3  
                  ___flge 0021                 ??___fladd 0020                 ??___flmul 0079  
               ??___flsub 007C                    _config 0066                    _painel 005B  
                  delay@i 0070                    _strlen 0008        __size_of__Umul8_16 0027  
               ??_teclado 003B                ___flge@ff1 0070                ___flge@ff2 0074  
 __end_of__initialization 07FC                 ?_LCD_init 0070      __size_of_LCD_escreve 0011  
            LCD_escreve@x 0072      __size_of_liga_buzzer 007C      __size_of_espacoLivre 0021  
          __pcstackCOMMON 0070              __pidataBANK0 0AB6              __pidataBANK1 0C4B  
            __pidataBANK2 0B41              __pidataBANK3 0C95             __end_of_delay 0AB6  
            ??_LCD_enable 0072              ??_LCD_linha1 0072              ??_LCD_linha2 0072  
            espacoLivre@i 0073                   ??_delay 0070                __pbssBANK0 0064  
              ??_LCD_init 0072                   ?_Linha2 0070        __end_of_LCD_enable 0A4C  
       __end_of__Umul8_16 0B41        __end_of_LCD_linha1 0A6C        __end_of_LCD_linha2 0A5C  
              __pmaintext 0B9F                   ?___flge 0070                   ?_strlen 0070  
    __size_of_telaInicial 003D     _msgSenhaUsuarioActive 01AE                   Linha2@i 0077  
liga_buzzer@tempoSegundos 0035           __size_of_Linha2 003B           __size_of___flge 00A2  
                 ___fladd 0D68                   ___flmul 045F                   ___flsub 0AF6  
             validaUser@i 0043               validaUser@n 0041                   __ptext1 00C3  
                 __ptext2 019E                   __ptext3 0CEC                   __ptext4 0AF6  
                 __ptext5 0D68                   __ptext6 045F                   __ptext7 0B1A  
                 __ptext8 0021                   __ptext9 0A6C           __size_of_strlen 0019  
              _msgMascara 005F                   _teclado 019E      end_of_initialization 07FC  
               _LCD_limpa 0A6C                _validaUser 00C3                   strlen@s 0074  
             ___fladd@grs 007B                ?_LCD_limpa 0070               ___flmul@grs 0029  
       __size_of_LCD_init 0033            __end_of_Linha2 0C0E            __end_of___flge 00C3  
          __end_of_strlen 0021       start_initialization 07C0             ??_LCD_escreve 0072  
           ??_liga_buzzer 0039             ??_espacoLivre 0073               ?_validaUser 0070  
                ??_Linha2 0075                  ??___flge 0078                init_fetch0 0A8D  
               __Umul8_16 0B1A               __pdataBANK0 0045               __pdataBANK1 00A0  
             __pdataBANK2 0110               __pdataBANK3 0190                  ??_strlen 0072  
               ___fladd@a 0074                 ___fladd@b 0070                 ___flmul@a 0024  
               ___flmul@b 0020                 ___flsub@a 0028                 ___flsub@b 002C  
               ___latbits 0002             __pcstackBANK0 0020               ??_LCD_limpa 0072  
     __end_of_LCD_escreve 0A8D       __end_of_liga_buzzer 0D68                  ?___fladd 0070  
     __end_of_espacoLivre 0AF6                  ?___flmul 0020                  ?___flsub 0028  
              ?__Umul8_16 0070              telaInicial@i 0077             ??_telaInicial 0075  
          _msgDigiteSenha 00A0                  ?_teclado 0070       __size_of_validaUser 00DB  
          __size_of_delay 0016                  _LCD_init 0B6C                 _senhaUser 0054  
               _userFalse 0059       __end_of_telaInicial 0C4B               _LCD_escreve 0A7C  
             _liga_buzzer 0CEC               _espacoLivre 0AD5          _msgDesativarZona 0190  
    _msgSenhaCoacaoActive 01CB               ??__Umul8_16 0072          __size_of___fladd 0298  
         _msgSenhaDisparo 01BD          __size_of___flmul 0361          __size_of___flsub 0024  
         _msgSenhaCorreta 0110           _msgSenhaUsuario 01D9          __size_of_teclado 02C1  
                __ptext10 0C0E                  __ptext11 0A5C                  __ptext20 0AA0  
                __ptext12 0BD3                  __ptext13 0008                  __ptext14 0AD5  
                __ptext15 0A4C                  __ptext16 0A7C                  __ptext17 0B6C  
                __ptext18 0A32                  __ptext19 0A3E             __size_of_main 0034  
           __size_of_init 000C              ??_validaUser 003E               _msgReativar 00E1  
                _senhaCoa 004A    _msgDesativarZonaActive 012B               _telaInicial 0C0E  
              _LCD_enable 0A3E                _LCD_linha1 0A5C                _LCD_linha2 0A4C  
             _senhaConfig 0045                  init_ram0 0A91        __end_of_validaUser 019E  
          _msgSenhaCoacao 00BD            _msgSenhaConfig 00CA            _msgSenhaErrada 011E  
   _msgSenhaDisparoActive 019F      _msgSenhaConfigActive 00AF               _valorSensor 0064  
  __Umul8_16@multiplicand 0070                  strlen@cp 0073             ___fladd@signs 0078  
            ___fladd@aexp 0079              ___fladd@bexp 007A      __Umul8_16@multiplier 0078  
       __Umul8_16@product 0074  
