

Microchip MPLAB XC8 Assembler V2.32 build 20210201212658 
                                                                                               Mon Oct 04 02:39:14 2021

Microchip MPLAB XC8 C Compiler v2.32 (Free license) build 20210201212658 Og1 
     1                           	processor	16F877A
     2                           	pagewidth 120
     3                           	opt	flic
     4                           	psect	idataBANK0,global,class=CODE,delta=2,noexec
     5                           	psect	idataBANK1,global,class=CODE,delta=2,noexec
     6                           	psect	idataBANK2,global,class=CODE,delta=2,noexec
     7                           	psect	idataBANK3,global,class=CODE,delta=2,noexec
     8                           	psect	cinit,global,class=CODE,merge=1,delta=2
     9                           	psect	bssBANK0,global,class=BANK0,space=1,delta=1,noexec
    10                           	psect	dataBANK0,global,class=BANK0,space=1,delta=1,noexec
    11                           	psect	dataBANK1,global,class=BANK1,space=1,delta=1,noexec
    12                           	psect	dataBANK3,global,class=BANK3,space=1,delta=1,noexec
    13                           	psect	dataBANK2,global,class=BANK2,space=1,delta=1,noexec
    14                           	psect	inittext,global,class=CODE,delta=2
    15                           	psect	cstackBANK1,global,class=BANK1,space=1,delta=1,noexec
    16                           	psect	cstackCOMMON,global,class=COMMON,space=1,delta=1,noexec
    17                           	psect	cstackBANK0,global,class=BANK0,space=1,delta=1,noexec
    18                           	psect	maintext,global,class=CODE,split=1,delta=2
    19                           	psect	text1,local,class=CODE,merge=1,delta=2
    20                           	psect	text2,local,class=CODE,merge=1,delta=2
    21                           	psect	text3,local,class=CODE,merge=1,delta=2
    22                           	psect	text4,local,class=CODE,merge=1,delta=2
    23                           	psect	text5,local,class=CODE,merge=1,delta=2
    24                           	psect	text6,local,class=CODE,merge=1,delta=2
    25                           	psect	text7,local,class=CODE,merge=1,delta=2
    26                           	psect	text8,local,class=CODE,merge=1,delta=2
    27                           	psect	text9,local,class=CODE,merge=1,delta=2
    28                           	psect	text10,local,class=CODE,merge=1,delta=2
    29                           	psect	text11,local,class=CODE,merge=1,delta=2
    30                           	psect	text12,local,class=CODE,merge=1,delta=2
    31                           	dabs	1,0x7E,2
    32  0000                     
    33                           ; Version 2.20
    34                           ; Generated 12/02/2020 GMT
    35                           ; 
    36                           ; Copyright © 2020, Microchip Technology Inc. and its subsidiaries ("Microchip")
    37                           ; All rights reserved.
    38                           ; 
    39                           ; This software is developed by Microchip Technology Inc. and its subsidiaries ("Microch
      +                          ip").
    40                           ; 
    41                           ; Redistribution and use in source and binary forms, with or without modification, are
    42                           ; permitted provided that the following conditions are met:
    43                           ; 
    44                           ;     1. Redistributions of source code must retain the above copyright notice, this lis
      +                          t of
    45                           ;        conditions and the following disclaimer.
    46                           ; 
    47                           ;     2. Redistributions in binary form must reproduce the above copyright notice, this 
      +                          list
    48                           ;        of conditions and the following disclaimer in the documentation and/or other
    49                           ;        materials provided with the distribution.
    50                           ; 
    51                           ;     3. Microchip's name may not be used to endorse or promote products derived from th
      +                          is
    52                           ;        software without specific prior written permission.
    53                           ; 
    54                           ; THIS SOFTWARE IS PROVIDED BY MICROCHIP "AS IS" AND ANY EXPRESS OR IMPLIED WARRANTIES,
    55                           ; INCLUDING, BUT NOT LIMITED TO, THE IMPLIED WARRANTIES OF MERCHANTABILITY AND FITNESS F
      +                          OR
    56                           ; PURPOSE ARE DISCLAIMED.  IN NO EVENT SHALL MICROCHIP BE LIABLE FOR ANY DIRECT, INDIREC
      +                          T,
    57                           ; INCIDENTAL, SPECIAL, EXEMPLARY, OR CONSEQUENTIAL DAMAGES (INCLUDING BUT NOT LIMITED TO
    58                           ; PROCUREMENT OF SUBSTITUTE GOODS OR SERVICES; LOSS OF USE, DATA OR PROFITS; OR BUSINESS
    59                           ; INTERRUPTION) HOWSOEVER CAUSED AND ON ANY THEORY OF LIABILITY, WHETHER IN CONTRACT, ST
      +                          RICT
    60                           ; LIABILITY, OR TORT (INCLUDING NEGLIGENCE OR OTHERWISE) ARISING IN ANY WAY OUT OF THE U
      +                          SE OF
    61                           ; THIS SOFTWARE, EVEN IF ADVISED OF THE POSSIBILITY OF SUCH DAMAGE.
    62                           ; 
    63                           ; 
    64                           ; Code-generator required, PIC16F877A Definitions
    65                           ; 
    66                           ; SFR Addresses
    67  0000                     	;# 
    68  0001                     	;# 
    69  0002                     	;# 
    70  0003                     	;# 
    71  0004                     	;# 
    72  0005                     	;# 
    73  0006                     	;# 
    74  0007                     	;# 
    75  0008                     	;# 
    76  0009                     	;# 
    77  000A                     	;# 
    78  000B                     	;# 
    79  000C                     	;# 
    80  000D                     	;# 
    81  000E                     	;# 
    82  000E                     	;# 
    83  000F                     	;# 
    84  0010                     	;# 
    85  0011                     	;# 
    86  0012                     	;# 
    87  0013                     	;# 
    88  0014                     	;# 
    89  0015                     	;# 
    90  0015                     	;# 
    91  0016                     	;# 
    92  0017                     	;# 
    93  0018                     	;# 
    94  0019                     	;# 
    95  001A                     	;# 
    96  001B                     	;# 
    97  001B                     	;# 
    98  001C                     	;# 
    99  001D                     	;# 
   100  001E                     	;# 
   101  001F                     	;# 
   102  0081                     	;# 
   103  0085                     	;# 
   104  0086                     	;# 
   105  0087                     	;# 
   106  0088                     	;# 
   107  0089                     	;# 
   108  008C                     	;# 
   109  008D                     	;# 
   110  008E                     	;# 
   111  0091                     	;# 
   112  0092                     	;# 
   113  0093                     	;# 
   114  0094                     	;# 
   115  0098                     	;# 
   116  0099                     	;# 
   117  009C                     	;# 
   118  009D                     	;# 
   119  009E                     	;# 
   120  009F                     	;# 
   121  010C                     	;# 
   122  010D                     	;# 
   123  010E                     	;# 
   124  010F                     	;# 
   125  018C                     	;# 
   126  018D                     	;# 
   127  0000                     	;# 
   128  0001                     	;# 
   129  0002                     	;# 
   130  0003                     	;# 
   131  0004                     	;# 
   132  0005                     	;# 
   133  0006                     	;# 
   134  0007                     	;# 
   135  0008                     	;# 
   136  0009                     	;# 
   137  000A                     	;# 
   138  000B                     	;# 
   139  000C                     	;# 
   140  000D                     	;# 
   141  000E                     	;# 
   142  000E                     	;# 
   143  000F                     	;# 
   144  0010                     	;# 
   145  0011                     	;# 
   146  0012                     	;# 
   147  0013                     	;# 
   148  0014                     	;# 
   149  0015                     	;# 
   150  0015                     	;# 
   151  0016                     	;# 
   152  0017                     	;# 
   153  0018                     	;# 
   154  0019                     	;# 
   155  001A                     	;# 
   156  001B                     	;# 
   157  001B                     	;# 
   158  001C                     	;# 
   159  001D                     	;# 
   160  001E                     	;# 
   161  001F                     	;# 
   162  0081                     	;# 
   163  0085                     	;# 
   164  0086                     	;# 
   165  0087                     	;# 
   166  0088                     	;# 
   167  0089                     	;# 
   168  008C                     	;# 
   169  008D                     	;# 
   170  008E                     	;# 
   171  0091                     	;# 
   172  0092                     	;# 
   173  0093                     	;# 
   174  0094                     	;# 
   175  0098                     	;# 
   176  0099                     	;# 
   177  009C                     	;# 
   178  009D                     	;# 
   179  009E                     	;# 
   180  009F                     	;# 
   181  010C                     	;# 
   182  010D                     	;# 
   183  010E                     	;# 
   184  010F                     	;# 
   185  018C                     	;# 
   186  018D                     	;# 
   187                           
   188                           	psect	idataBANK0
   189  05CF                     __pidataBANK0:
   190                           
   191                           ;initializer for _auxSensor
   192  05CF  34CC               	retlw	204
   193  05D0  3400               	retlw	0
   194                           
   195                           ;initializer for _alteraSenha
   196  05D1  3401               	retlw	1
   197  05D2  3400               	retlw	0
   198                           
   199                           ;initializer for _menu
   200  05D3  3401               	retlw	1
   201  05D4  3400               	retlw	0
   202                           
   203                           ;initializer for _userFalse
   204  05D5  3401               	retlw	1
   205  05D6  3400               	retlw	0
   206                           
   207                           ;initializer for _painel
   208  05D7  3401               	retlw	1
   209  05D8  3400               	retlw	0
   210                           
   211                           ;initializer for _input
   212  05D9  340A               	retlw	10
   213  05DA  3400               	retlw	0
   214                           
   215                           ;initializer for _zonaConfig
   216  05DB  3401               	retlw	1
   217  05DC  3400               	retlw	0
   218                           
   219                           ;initializer for _msgAceitoOuNego
   220  05DD  3444               	retlw	68
   221  05DE  3469               	retlw	105
   222  05DF  3467               	retlw	103
   223  05E0  3469               	retlw	105
   224  05E1  3474               	retlw	116
   225  05E2  3465               	retlw	101
   226  05E3  343A               	retlw	58
   227  05E4  3420               	retlw	32
   228  05E5  3400               	retlw	0
   229                           
   230                           ;initializer for _msgReativar
   231  05E6  3452               	retlw	82
   232  05E7  3465               	retlw	101
   233  05E8  3461               	retlw	97
   234  05E9  3474               	retlw	116
   235  05EA  3469               	retlw	105
   236  05EB  3476               	retlw	118
   237  05EC  3461               	retlw	97
   238  05ED  3472               	retlw	114
   239  05EE  3400               	retlw	0
   240                           
   241                           ;initializer for _msgMascara
   242  05EF  345F               	retlw	95
   243  05F0  345F               	retlw	95
   244  05F1  345F               	retlw	95
   245  05F2  345F               	retlw	95
   246  05F3  3400               	retlw	0
   247                           
   248                           ;initializer for _senhaConfig
   249  05F4  3430               	retlw	48
   250  05F5  3430               	retlw	48
   251  05F6  3430               	retlw	48
   252  05F7  3430               	retlw	48
   253  05F8  3400               	retlw	0
   254                           
   255                           ;initializer for _senhaCoa
   256  05F9  3435               	retlw	53
   257  05FA  3435               	retlw	53
   258  05FB  3435               	retlw	53
   259  05FC  3435               	retlw	53
   260  05FD  3400               	retlw	0
   261                           
   262                           ;initializer for _senhaUserConfere
   263  05FE  3430               	retlw	48
   264  05FF  3430               	retlw	48
   265  0600  3430               	retlw	48
   266  0601  3430               	retlw	48
   267  0602  3400               	retlw	0
   268                           
   269                           ;initializer for _senhaUser
   270  0603  3431               	retlw	49
   271  0604  3432               	retlw	50
   272  0605  3431               	retlw	49
   273  0606  3432               	retlw	50
   274  0607  3400               	retlw	0
   275                           
   276                           	psect	idataBANK1
   277  0608                     __pidataBANK1:
   278                           
   279                           ;initializer for _msgZonaDisparadas
   280  0608  3420               	retlw	32
   281  0609  3420               	retlw	32
   282  060A  3420               	retlw	32
   283  060B  3420               	retlw	32
   284  060C  3420               	retlw	32
   285  060D  3420               	retlw	32
   286  060E  3420               	retlw	32
   287  060F  3430               	retlw	48
   288  0610  3420               	retlw	32
   289  0611  3430               	retlw	48
   290  0612  3420               	retlw	32
   291  0613  3430               	retlw	48
   292  0614  3420               	retlw	32
   293  0615  3430               	retlw	48
   294  0616  3400               	retlw	0
   295                           
   296                           ;initializer for _msgConfigDispara
   297  0617  3420               	retlw	32
   298  0618  345A               	retlw	90
   299  0619  346F               	retlw	111
   300  061A  346E               	retlw	110
   301  061B  3461               	retlw	97
   302  061C  343A               	retlw	58
   303  061D  3420               	retlw	32
   304  061E  3431               	retlw	49
   305  061F  3420               	retlw	32
   306  0620  3432               	retlw	50
   307  0621  3420               	retlw	32
   308  0622  3433               	retlw	51
   309  0623  3420               	retlw	32
   310  0624  3434               	retlw	52
   311  0625  3400               	retlw	0
   312                           
   313                           ;initializer for _msgSenhaUsuario
   314  0626  3453               	retlw	83
   315  0627  3465               	retlw	101
   316  0628  346E               	retlw	110
   317  0629  3468               	retlw	104
   318  062A  3461               	retlw	97
   319  062B  3420               	retlw	32
   320  062C  3455               	retlw	85
   321  062D  3473               	retlw	115
   322  062E  3475               	retlw	117
   323  062F  3461               	retlw	97
   324  0630  3472               	retlw	114
   325  0631  3469               	retlw	105
   326  0632  346F               	retlw	111
   327  0633  3400               	retlw	0
   328                           
   329                           ;initializer for _msgSenhaCoacao
   330  0634  3453               	retlw	83
   331  0635  3465               	retlw	101
   332  0636  346E               	retlw	110
   333  0637  3468               	retlw	104
   334  0638  3461               	retlw	97
   335  0639  3420               	retlw	32
   336  063A  3443               	retlw	67
   337  063B  346F               	retlw	111
   338  063C  3461               	retlw	97
   339  063D  3463               	retlw	99
   340  063E  3461               	retlw	97
   341  063F  346F               	retlw	111
   342  0640  3400               	retlw	0
   343                           
   344                           ;initializer for _msgSenhaConfig
   345  0641  3453               	retlw	83
   346  0642  3465               	retlw	101
   347  0643  346E               	retlw	110
   348  0644  3468               	retlw	104
   349  0645  3461               	retlw	97
   350  0646  3420               	retlw	32
   351  0647  3443               	retlw	67
   352  0648  346F               	retlw	111
   353  0649  346E               	retlw	110
   354  064A  3466               	retlw	102
   355  064B  3469               	retlw	105
   356  064C  3467               	retlw	103
   357  064D  3400               	retlw	0
   358                           
   359                           	psect	idataBANK2
   360  0534                     __pidataBANK2:
   361                           
   362                           ;initializer for _msgSenhaAtualizada
   363  0534  3453               	retlw	83
   364  0535  3465               	retlw	101
   365  0536  346E               	retlw	110
   366  0537  3468               	retlw	104
   367  0538  3461               	retlw	97
   368  0539  3420               	retlw	32
   369  053A  3441               	retlw	65
   370  053B  3474               	retlw	116
   371  053C  3475               	retlw	117
   372  053D  3461               	retlw	97
   373  053E  346C               	retlw	108
   374  053F  3469               	retlw	105
   375  0540  347A               	retlw	122
   376  0541  3461               	retlw	97
   377  0542  3464               	retlw	100
   378  0543  3461               	retlw	97
   379  0544  3400               	retlw	0
   380                           
   381                           ;initializer for _msgValidaSenha
   382  0545  344F               	retlw	79
   383  0546  346B               	retlw	107
   384  0547  343A               	retlw	58
   385  0548  3446               	retlw	70
   386  0549  3420               	retlw	32
   387  054A  346F               	retlw	111
   388  054B  3475               	retlw	117
   389  054C  3420               	retlw	32
   390  054D  344E               	retlw	78
   391  054E  3465               	retlw	101
   392  054F  3467               	retlw	103
   393  0550  3461               	retlw	97
   394  0551  3472               	retlw	114
   395  0552  343A               	retlw	58
   396  0553  3445               	retlw	69
   397  0554  3400               	retlw	0
   398                           
   399                           ;initializer for _msgSenhaCancelada
   400  0555  3453               	retlw	83
   401  0556  3465               	retlw	101
   402  0557  346E               	retlw	110
   403  0558  3468               	retlw	104
   404  0559  3461               	retlw	97
   405  055A  3420               	retlw	32
   406  055B  3463               	retlw	99
   407  055C  3461               	retlw	97
   408  055D  346E               	retlw	110
   409  055E  3463               	retlw	99
   410  055F  3465               	retlw	101
   411  0560  346C               	retlw	108
   412  0561  3461               	retlw	97
   413  0562  3464               	retlw	100
   414  0563  3461               	retlw	97
   415  0564  3400               	retlw	0
   416                           
   417                           	psect	idataBANK3
   418  064E                     __pidataBANK3:
   419                           
   420                           ;initializer for _msgDigiteSenha
   421  064E  3444               	retlw	68
   422  064F  3469               	retlw	105
   423  0650  3467               	retlw	103
   424  0651  3469               	retlw	105
   425  0652  3474               	retlw	116
   426  0653  3465               	retlw	101
   427  0654  3420               	retlw	32
   428  0655  3461               	retlw	97
   429  0656  3420               	retlw	32
   430  0657  3473               	retlw	115
   431  0658  3465               	retlw	101
   432  0659  346E               	retlw	110
   433  065A  3468               	retlw	104
   434  065B  3461               	retlw	97
   435  065C  3400               	retlw	0
   436                           
   437                           ;initializer for _msgDesativarZona
   438  065D  3444               	retlw	68
   439  065E  3465               	retlw	101
   440  065F  3473               	retlw	115
   441  0660  3461               	retlw	97
   442  0661  3474               	retlw	116
   443  0662  3469               	retlw	105
   444  0663  3476               	retlw	118
   445  0664  3461               	retlw	97
   446  0665  3472               	retlw	114
   447  0666  3420               	retlw	32
   448  0667  345A               	retlw	90
   449  0668  346F               	retlw	111
   450  0669  346E               	retlw	110
   451  066A  3461               	retlw	97
   452  066B  3400               	retlw	0
   453                           
   454                           ;initializer for _msgDigiteNovaSenha
   455  066C  3420               	retlw	32
   456  066D  3420               	retlw	32
   457  066E  3420               	retlw	32
   458  066F  344E               	retlw	78
   459  0670  346F               	retlw	111
   460  0671  3476               	retlw	118
   461  0672  3461               	retlw	97
   462  0673  3420               	retlw	32
   463  0674  3473               	retlw	115
   464  0675  3465               	retlw	101
   465  0676  346E               	retlw	110
   466  0677  3468               	retlw	104
   467  0678  3461               	retlw	97
   468  0679  3400               	retlw	0
   469                           
   470                           ;initializer for _msgSenhaDisparo
   471  067A  3453               	retlw	83
   472  067B  3465               	retlw	101
   473  067C  346E               	retlw	110
   474  067D  3468               	retlw	104
   475  067E  3461               	retlw	97
   476  067F  3420               	retlw	32
   477  0680  3444               	retlw	68
   478  0681  3469               	retlw	105
   479  0682  3473               	retlw	115
   480  0683  3470               	retlw	112
   481  0684  3461               	retlw	97
   482  0685  3472               	retlw	114
   483  0686  346F               	retlw	111
   484  0687  3400               	retlw	0
   485                           
   486                           ;initializer for _msgSenhaCorreta
   487  0688  3453               	retlw	83
   488  0689  3465               	retlw	101
   489  068A  346E               	retlw	110
   490  068B  3468               	retlw	104
   491  068C  3461               	retlw	97
   492  068D  3420               	retlw	32
   493  068E  3463               	retlw	99
   494  068F  346F               	retlw	111
   495  0690  3472               	retlw	114
   496  0691  3472               	retlw	114
   497  0692  3465               	retlw	101
   498  0693  3474               	retlw	116
   499  0694  3461               	retlw	97
   500  0695  3400               	retlw	0
   501                           
   502                           ;initializer for _msgSenhaErrada
   503  0696  3453               	retlw	83
   504  0697  3465               	retlw	101
   505  0698  346E               	retlw	110
   506  0699  3468               	retlw	104
   507  069A  3461               	retlw	97
   508  069B  3420               	retlw	32
   509  069C  3465               	retlw	101
   510  069D  3472               	retlw	114
   511  069E  3472               	retlw	114
   512  069F  3461               	retlw	97
   513  06A0  3464               	retlw	100
   514  06A1  3461               	retlw	97
   515  06A2  3400               	retlw	0
   516  001E                     _ADRESH	set	30
   517  001F                     _ADCON0	set	31
   518  0006                     _PORTB	set	6
   519  0009                     _PORTE	set	9
   520  0008                     _PORTD	set	8
   521  00FA                     _GO_nDONE	set	250
   522  0033                     _RB3	set	51
   523  0032                     _RB2	set	50
   524  0031                     _RB1	set	49
   525  0030                     _RB0	set	48
   526  002B                     _RA3	set	43
   527  002C                     _RA4	set	44
   528  002D                     _RA5	set	45
   529  0029                     _RA1	set	41
   530  009E                     _ADRESL	set	158
   531  0086                     _TRISB	set	134
   532  0089                     _TRISE	set	137
   533  0088                     _TRISD	set	136
   534  0085                     _TRISA	set	133
   535  009F                     _ADCON1	set	159
   536                           
   537                           	psect	cinit
   538  07BC                     start_initialization:	
   539                           ; #config settings
   540                           
   541  07BC                     __initialization:
   542                           
   543                           ; Initialize objects allocated to BANK3
   544  07BC  1783               	bsf	3,7	;select IRP bank2
   545  07BD  30E5               	movlw	low (__pdataBANK3+85)
   546  07BE  00FD               	movwf	btemp+-1
   547  07BF  3006               	movlw	high __pidataBANK3
   548  07C0  00FE               	movwf	btemp
   549  07C1  304E               	movlw	low __pidataBANK3
   550  07C2  00FF               	movwf	btemp+1
   551  07C3  3090               	movlw	low __pdataBANK3
   552  07C4  0084               	movwf	4
   553  07C5  120A  118A  24B7  120A  118A  	fcall	init_ram0
   554                           
   555                           ; Initialize objects allocated to BANK2
   556  07CA  3041               	movlw	low (__pdataBANK2+49)
   557  07CB  00FD               	movwf	btemp+-1
   558  07CC  3005               	movlw	high __pidataBANK2
   559  07CD  00FE               	movwf	btemp
   560  07CE  3034               	movlw	low __pidataBANK2
   561  07CF  00FF               	movwf	btemp+1
   562  07D0  3010               	movlw	low __pdataBANK2
   563  07D1  0084               	movwf	4
   564  07D2  120A  118A  24B7  120A  118A  	fcall	init_ram0
   565                           
   566                           ; Initialize objects allocated to BANK1
   567  07D7  1383               	bcf	3,7	;select IRP bank0
   568  07D8  30E6               	movlw	low (__pdataBANK1+70)
   569  07D9  00FD               	movwf	btemp+-1
   570  07DA  3006               	movlw	high __pidataBANK1
   571  07DB  00FE               	movwf	btemp
   572  07DC  3008               	movlw	low __pidataBANK1
   573  07DD  00FF               	movwf	btemp+1
   574  07DE  30A0               	movlw	low __pdataBANK1
   575  07DF  0084               	movwf	4
   576  07E0  120A  118A  24B7  120A  118A  	fcall	init_ram0
   577                           
   578                           ; Initialize objects allocated to BANK0
   579  07E5  3059               	movlw	low (__pdataBANK0+57)
   580  07E6  00FD               	movwf	btemp+-1
   581  07E7  3005               	movlw	high __pidataBANK0
   582  07E8  00FE               	movwf	btemp
   583  07E9  30CF               	movlw	low __pidataBANK0
   584  07EA  00FF               	movwf	btemp+1
   585  07EB  3020               	movlw	low __pdataBANK0
   586  07EC  0084               	movwf	4
   587  07ED  120A  118A  24B7  120A  118A  	fcall	init_ram0
   588                           
   589                           ; Clear objects allocated to BANK0
   590  07F2  01E5               	clrf	__pbssBANK0& (0+127)
   591  07F3  01E6               	clrf	(__pbssBANK0+1)& (0+127)
   592  07F4  01E7               	clrf	(__pbssBANK0+2)& (0+127)
   593  07F5  01E8               	clrf	(__pbssBANK0+3)& (0+127)
   594  07F6  01E9               	clrf	(__pbssBANK0+4)& (0+127)
   595  07F7  01EA               	clrf	(__pbssBANK0+5)& (0+127)
   596  07F8  01EB               	clrf	(__pbssBANK0+6)& (0+127)
   597  07F9  01EC               	clrf	(__pbssBANK0+7)& (0+127)
   598  07FA  01ED               	clrf	(__pbssBANK0+8)& (0+127)
   599  07FB  01EE               	clrf	(__pbssBANK0+9)& (0+127)
   600  07FC                     end_of_initialization:	
   601                           ;End of C runtime variable initialization code
   602                           
   603  07FC                     __end_of__initialization:
   604  07FC  0183               	clrf	3
   605  07FD  120A  118A  2CDC   	ljmp	_main	;jump to C main() function
   606                           
   607                           	psect	bssBANK0
   608  0065                     __pbssBANK0:
   609  0065                     _valorSensorAux:
   610  0065                     	ds	2
   611  0067                     _valorSensor:
   612  0067                     	ds	2
   613  0069                     _opConfig:
   614  0069                     	ds	2
   615  006B                     _aux:
   616  006B                     	ds	2
   617  006D                     _validaSenha:
   618  006D                     	ds	2
   619                           
   620                           	psect	dataBANK0
   621  0020                     __pdataBANK0:
   622  0020                     _auxSensor:
   623  0020                     	ds	2
   624  0022                     _alteraSenha:
   625  0022                     	ds	2
   626  0024                     _menu:
   627  0024                     	ds	2
   628  0026                     _userFalse:
   629  0026                     	ds	2
   630  0028                     _painel:
   631  0028                     	ds	2
   632  002A                     _input:
   633  002A                     	ds	2
   634  002C                     _zonaConfig:
   635  002C                     	ds	2
   636  002E                     _msgAceitoOuNego:
   637  002E                     	ds	9
   638  0037                     _msgReativar:
   639  0037                     	ds	9
   640  0040                     _msgMascara:
   641  0040                     	ds	5
   642  0045                     _senhaConfig:
   643  0045                     	ds	5
   644  004A                     _senhaCoa:
   645  004A                     	ds	5
   646  004F                     _senhaUserConfere:
   647  004F                     	ds	5
   648  0054                     _senhaUser:
   649  0054                     	ds	5
   650                           
   651                           	psect	dataBANK1
   652  00A0                     __pdataBANK1:
   653  00A0                     _msgZonaDisparadas:
   654  00A0                     	ds	15
   655  00AF                     _msgConfigDispara:
   656  00AF                     	ds	15
   657  00BE                     _msgSenhaUsuario:
   658  00BE                     	ds	14
   659  00CC                     _msgSenhaCoacao:
   660  00CC                     	ds	13
   661  00D9                     _msgSenhaConfig:
   662  00D9                     	ds	13
   663                           
   664                           	psect	dataBANK3
   665  0190                     __pdataBANK3:
   666  0190                     _msgDigiteSenha:
   667  0190                     	ds	15
   668  019F                     _msgDesativarZona:
   669  019F                     	ds	15
   670  01AE                     _msgDigiteNovaSenha:
   671  01AE                     	ds	14
   672  01BC                     _msgSenhaDisparo:
   673  01BC                     	ds	14
   674  01CA                     _msgSenhaCorreta:
   675  01CA                     	ds	14
   676  01D8                     _msgSenhaErrada:
   677  01D8                     	ds	13
   678                           
   679                           	psect	dataBANK2
   680  0110                     __pdataBANK2:
   681  0110                     _msgSenhaAtualizada:
   682  0110                     	ds	17
   683  0121                     _msgValidaSenha:
   684  0121                     	ds	16
   685  0131                     _msgSenhaCancelada:
   686  0131                     	ds	16
   687                           
   688                           	psect	inittext
   689  04B3                     init_fetch0:	
   690                           ;	Called with low address in FSR and high address in W
   691                           
   692  04B3  087E               	movf	btemp,w
   693  04B4  008A               	movwf	10
   694  04B5  087F               	movf	btemp+1,w
   695  04B6  0082               	movwf	2
   696  04B7                     init_ram0:	
   697                           ;Called with:
   698                           ;	high address of idata address in btemp 
   699                           ;	low address of idata address in btemp+1 
   700                           ;	low address of data in FSR
   701                           ;	high address + 1 of data in btemp-1
   702                           
   703  04B7  120A  118A  24B3  120A  118A  	fcall	init_fetch0
   704  04BC  0080               	movwf	0
   705  04BD  0A84               	incf	4,f
   706  04BE  0804               	movf	4,w
   707  04BF  067D               	xorwf	btemp+-1,w
   708  04C0  1903               	btfsc	3,2
   709  04C1  3400               	retlw	0
   710  04C2  0AFF               	incf	btemp+1,f
   711  04C3  1903               	btfsc	3,2
   712  04C4  0AFE               	incf	btemp,f
   713  04C5  2CB7               	goto	init_ram0
   714                           
   715                           	psect	cstackBANK1
   716  00E6                     __pcstackBANK1:
   717  00E6                     ??_main:
   718                           
   719                           ; 1 bytes @ 0x0
   720  00E6                     	ds	2
   721                           
   722                           	psect	cstackCOMMON
   723  0070                     __pcstackCOMMON:
   724  0070                     ?_LCD_enable:
   725  0070                     ?_delay:	
   726                           ; 1 bytes @ 0x0
   727                           
   728  0070                     ??_delay:	
   729                           ; 1 bytes @ 0x0
   730                           
   731  0070                     ?_configZonas:	
   732                           ; 1 bytes @ 0x0
   733                           
   734  0070                     ?_infoZonas:	
   735                           ; 1 bytes @ 0x0
   736                           
   737  0070                     ?_init:	
   738                           ; 1 bytes @ 0x0
   739                           
   740  0070                     ??_init:	
   741                           ; 1 bytes @ 0x0
   742                           
   743  0070                     ?_LCD_init:	
   744                           ; 1 bytes @ 0x0
   745                           
   746  0070                     ?_LCD_escreve:	
   747                           ; 1 bytes @ 0x0
   748                           
   749  0070                     ?_LCD_limpa:	
   750                           ; 1 bytes @ 0x0
   751                           
   752  0070                     ?_LCD_linha1:	
   753                           ; 1 bytes @ 0x0
   754                           
   755  0070                     ?_LCD_linha2:	
   756                           ; 1 bytes @ 0x0
   757                           
   758  0070                     ?_main:	
   759                           ; 1 bytes @ 0x0
   760                           
   761  0070                     delay@i:	
   762                           ; 1 bytes @ 0x0
   763                           
   764                           
   765                           ; 2 bytes @ 0x0
   766  0070                     	ds	2
   767  0072                     ??_LCD_enable:
   768  0072                     ??_LCD_init:	
   769                           ; 1 bytes @ 0x2
   770                           
   771  0072                     ??_LCD_escreve:	
   772                           ; 1 bytes @ 0x2
   773                           
   774  0072                     ??_LCD_limpa:	
   775                           ; 1 bytes @ 0x2
   776                           
   777  0072                     ??_LCD_linha1:	
   778                           ; 1 bytes @ 0x2
   779                           
   780  0072                     ??_LCD_linha2:	
   781                           ; 1 bytes @ 0x2
   782                           
   783  0072                     LCD_escreve@x:	
   784                           ; 1 bytes @ 0x2
   785                           
   786                           
   787                           ; 1 bytes @ 0x2
   788  0072                     	ds	1
   789  0073                     ?_escreveMesagem:
   790  0073                     escreveMesagem@texto:	
   791                           ; 1 bytes @ 0x3
   792                           
   793                           
   794                           ; 2 bytes @ 0x3
   795  0073                     	ds	2
   796  0075                     ??_escreveMesagem:
   797                           
   798                           ; 1 bytes @ 0x5
   799  0075                     	ds	3
   800  0078                     escreveMesagem@i:
   801                           
   802                           ; 2 bytes @ 0x8
   803  0078                     	ds	2
   804  007A                     ??_infoZonas:
   805                           
   806                           ; 1 bytes @ 0xA
   807  007A                     	ds	3
   808                           
   809                           	psect	cstackBANK0
   810  0059                     __pcstackBANK0:
   811  0059                     ?_setaZona:
   812  0059                     setaZona@msgConfigDispara:	
   813                           ; 1 bytes @ 0x0
   814                           
   815                           
   816                           ; 1 bytes @ 0x0
   817  0059                     	ds	1
   818  005A                     setaZona@pos:
   819                           
   820                           ; 2 bytes @ 0x1
   821  005A                     	ds	2
   822  005C                     ??_setaZona:
   823                           
   824                           ; 1 bytes @ 0x3
   825  005C                     	ds	3
   826  005F                     setaZona@msgZonaDisparadas:
   827                           
   828                           ; 1 bytes @ 0x6
   829  005F                     	ds	1
   830  0060                     setaZona@i:
   831                           
   832                           ; 2 bytes @ 0x7
   833  0060                     	ds	2
   834  0062                     ??_configZonas:
   835                           
   836                           ; 1 bytes @ 0x9
   837  0062                     	ds	3
   838                           
   839                           	psect	maintext
   840  04DC                     __pmaintext:	
   841 ;;
   842 ;;Main: autosize = 0, tempsize = 2, incstack = 0, save=0
   843 ;;
   844 ;; *************** function _main *****************
   845 ;; Defined at:
   846 ;;		line 69 in file "main.c"
   847 ;; Parameters:    Size  Location     Type
   848 ;;		None
   849 ;; Auto vars:     Size  Location     Type
   850 ;;		None
   851 ;; Return value:  Size  Location     Type
   852 ;;                  1    wreg      void 
   853 ;; Registers used:
   854 ;;		wreg, fsr0l, fsr0h, status,2, status,0, btemp+1, pclath, cstack
   855 ;; Tracked objects:
   856 ;;		On entry : B00/0
   857 ;;		On exit  : 0/0
   858 ;;		Unchanged: 0/0
   859 ;; Data sizes:     COMMON   BANK0   BANK1   BANK3   BANK2
   860 ;;      Params:         0       0       0       0       0
   861 ;;      Locals:         0       0       0       0       0
   862 ;;      Temps:          0       0       2       0       0
   863 ;;      Totals:         0       0       2       0       0
   864 ;;Total ram usage:        2 bytes
   865 ;; Hardware stack levels required when called: 6
   866 ;; This function calls:
   867 ;;		_LCD_init
   868 ;;		_configZonas
   869 ;; This function is called by:
   870 ;;		Startup code after reset
   871 ;; This function uses a non-reentrant model
   872 ;;
   873                           
   874                           
   875                           ;psect for function _main
   876  04DC                     _main:
   877  04DC                     l2916:	
   878                           ;incstack = 0
   879                           ; Regs used in _main: [wreg-fsr0h+status,2+status,0+btemp+1+pclath+cstack]
   880                           
   881                           
   882                           ;main.c: 70:     TRISE = 0x00;
   883  04DC  1683               	bsf	3,5	;RP0=1, select bank1
   884  04DD  1303               	bcf	3,6	;RP1=0, select bank1
   885  04DE  0189               	clrf	9	;volatile
   886                           
   887                           ;main.c: 71:     TRISD = 0x00;
   888  04DF  0188               	clrf	8	;volatile
   889  04E0                     l2918:
   890                           
   891                           ;main.c: 72:     TRISB = 0x0F;
   892  04E0  300F               	movlw	15
   893  04E1  0086               	movwf	6	;volatile
   894  04E2                     l2920:
   895                           
   896                           ;main.c: 73:     PORTE = 0x01;
   897  04E2  3001               	movlw	1
   898  04E3  1283               	bcf	3,5	;RP0=0, select bank0
   899  04E4  1303               	bcf	3,6	;RP1=0, select bank0
   900  04E5  0089               	movwf	9	;volatile
   901  04E6                     l2922:
   902                           
   903                           ;main.c: 75:     LCD_init();
   904  04E6  120A  118A  2565  120A  118A  	fcall	_LCD_init
   905  04EB                     l2924:
   906                           
   907                           ;main.c: 76:     _delay((unsigned long)((10)*(20000000/4000.0)));
   908  04EB  3041               	movlw	65
   909  04EC  1683               	bsf	3,5	;RP0=1, select bank1
   910  04ED  1303               	bcf	3,6	;RP1=0, select bank1
   911  04EE  00E7               	movwf	(??_main^(0+128)+1)
   912  04EF  30ED               	movlw	237
   913  04F0  00E6               	movwf	??_main^(0+128)
   914  04F1                     u2887:
   915  04F1  0BE6               	decfsz	??_main^(0+128),f
   916  04F2  2CF1               	goto	u2887
   917  04F3  0BE7               	decfsz	(??_main^(0+128)+1),f
   918  04F4  2CF1               	goto	u2887
   919  04F5  2CF6               	nop2
   920  04F6                     l2926:
   921                           
   922                           ;main.c: 94:         configZonas();
   923  04F6  120A  118A  271B  120A  118A  	fcall	_configZonas
   924  04FB                     l2928:
   925                           
   926                           ;main.c: 95:         zonaConfig = 1;
   927  04FB  3001               	movlw	1
   928  04FC  1283               	bcf	3,5	;RP0=0, select bank0
   929  04FD  1303               	bcf	3,6	;RP1=0, select bank0
   930  04FE  00AC               	movwf	_zonaConfig
   931  04FF  3000               	movlw	0
   932  0500  00AD               	movwf	_zonaConfig+1
   933  0501  2CF6               	goto	l2926
   934  0502  120A  118A  2800   	ljmp	start
   935  0505                     __end_of_main:
   936                           
   937                           	psect	text1
   938  071B                     __ptext1:	
   939 ;; *************** function _configZonas *****************
   940 ;; Defined at:
   941 ;;		line 147 in file "main.c"
   942 ;; Parameters:    Size  Location     Type
   943 ;;		None
   944 ;; Auto vars:     Size  Location     Type
   945 ;;  pos             1    0        unsigned char 
   946 ;; Return value:  Size  Location     Type
   947 ;;                  1    wreg      void 
   948 ;; Registers used:
   949 ;;		wreg, fsr0l, fsr0h, status,2, status,0, btemp+1, pclath, cstack
   950 ;; Tracked objects:
   951 ;;		On entry : 0/0
   952 ;;		On exit  : 0/0
   953 ;;		Unchanged: 0/0
   954 ;; Data sizes:     COMMON   BANK0   BANK1   BANK3   BANK2
   955 ;;      Params:         0       0       0       0       0
   956 ;;      Locals:         0       0       0       0       0
   957 ;;      Temps:          0       3       0       0       0
   958 ;;      Totals:         0       3       0       0       0
   959 ;;Total ram usage:        3 bytes
   960 ;; Hardware stack levels used: 1
   961 ;; Hardware stack levels required when called: 5
   962 ;; This function calls:
   963 ;;		_infoZonas
   964 ;;		_setaZona
   965 ;; This function is called by:
   966 ;;		_main
   967 ;; This function uses a non-reentrant model
   968 ;;
   969                           
   970                           
   971                           ;psect for function _configZonas
   972  071B                     _configZonas:
   973  071B                     l2866:	
   974                           ;incstack = 0
   975                           ; Regs used in _configZonas: [wreg-fsr0h+status,2+status,0+btemp+1+pclath+cstack]
   976                           
   977                           
   978                           ;main.c: 148:     infoZonas();
   979  071B  120A  118A  2505  120A  118A  	fcall	_infoZonas
   980  0720                     l2868:
   981                           
   982                           ;main.c: 149:     PORTB = 0b11101111;
   983  0720  30EF               	movlw	239
   984  0721  1283               	bcf	3,5	;RP0=0, select bank0
   985  0722  1303               	bcf	3,6	;RP1=0, select bank0
   986  0723  0086               	movwf	6	;volatile
   987  0724                     l2870:
   988                           
   989                           ;main.c: 151:     while (zonaConfig){
   990  0724  2FB3               	goto	l2898
   991  0725                     l2872:
   992                           
   993                           ;main.c: 152:         _delay((unsigned long)((250)*(20000000/4000.0)));
   994  0725  3007               	movlw	7
   995  0726  1283               	bcf	3,5	;RP0=0, select bank0
   996  0727  1303               	bcf	3,6	;RP1=0, select bank0
   997  0728  00E4               	movwf	??_configZonas+2
   998  0729  3058               	movlw	88
   999  072A  00E3               	movwf	??_configZonas+1
  1000  072B  3059               	movlw	89
  1001  072C  00E2               	movwf	??_configZonas
  1002  072D                     u2897:
  1003  072D  0BE2               	decfsz	??_configZonas,f
  1004  072E  2F2D               	goto	u2897
  1005  072F  0BE3               	decfsz	??_configZonas+1,f
  1006  0730  2F2D               	goto	u2897
  1007  0731  0BE4               	decfsz	??_configZonas+2,f
  1008  0732  2F2D               	goto	u2897
  1009  0733                     l2874:
  1010                           
  1011                           ;main.c: 153:         if (RB0 == 0){
  1012  0733  1283               	bcf	3,5	;RP0=0, select bank0
  1013  0734  1303               	bcf	3,6	;RP1=0, select bank0
  1014  0735  1806               	btfsc	6,0	;volatile
  1015  0736  2F38               	goto	u2581
  1016  0737  2F39               	goto	u2580
  1017  0738                     u2581:
  1018  0738  2F53               	goto	l2880
  1019  0739                     u2580:
  1020  0739                     l2876:
  1021                           
  1022                           ;main.c: 155:             _delay((unsigned long)((2)*(20000000/4000.0)));
  1023  0739  300D               	movlw	13
  1024  073A  1283               	bcf	3,5	;RP0=0, select bank0
  1025  073B  1303               	bcf	3,6	;RP1=0, select bank0
  1026  073C  00E3               	movwf	??_configZonas+1
  1027  073D  30FB               	movlw	251
  1028  073E  00E2               	movwf	??_configZonas
  1029  073F                     u2907:
  1030  073F  0BE2               	decfsz	??_configZonas,f
  1031  0740  2F3F               	goto	u2907
  1032  0741  0BE3               	decfsz	??_configZonas+1,f
  1033  0742  2F3F               	goto	u2907
  1034  0743                     l2878:
  1035                           
  1036                           ;main.c: 156:             setaZona(msgZonaDisparadas, msgConfigDispara, pos);
  1037  0743  30AF               	movlw	(low (_msgConfigDispara| 0))& (0+255)
  1038  0744  1283               	bcf	3,5	;RP0=0, select bank0
  1039  0745  1303               	bcf	3,6	;RP1=0, select bank0
  1040  0746  00E2               	movwf	??_configZonas
  1041  0747  0862               	movf	??_configZonas,w
  1042  0748  00D9               	movwf	setaZona@msgConfigDispara
  1043  0749  3031               	movlw	49
  1044  074A  00DA               	movwf	setaZona@pos
  1045  074B  3000               	movlw	0
  1046  074C  00DB               	movwf	setaZona@pos+1
  1047  074D  30A0               	movlw	(low (_msgZonaDisparadas| 0))& (0+255)
  1048  074E  120A  118A  26A3  120A  118A  	fcall	_setaZona
  1049  0753                     l2880:
  1050                           
  1051                           ;main.c: 158:         if (RB1 == 0){
  1052  0753  1283               	bcf	3,5	;RP0=0, select bank0
  1053  0754  1303               	bcf	3,6	;RP1=0, select bank0
  1054  0755  1886               	btfsc	6,1	;volatile
  1055  0756  2F58               	goto	u2591
  1056  0757  2F59               	goto	u2590
  1057  0758                     u2591:
  1058  0758  2F73               	goto	l2886
  1059  0759                     u2590:
  1060  0759                     l2882:
  1061                           
  1062                           ;main.c: 160:             _delay((unsigned long)((2)*(20000000/4000.0)));
  1063  0759  300D               	movlw	13
  1064  075A  1283               	bcf	3,5	;RP0=0, select bank0
  1065  075B  1303               	bcf	3,6	;RP1=0, select bank0
  1066  075C  00E3               	movwf	??_configZonas+1
  1067  075D  30FB               	movlw	251
  1068  075E  00E2               	movwf	??_configZonas
  1069  075F                     u2917:
  1070  075F  0BE2               	decfsz	??_configZonas,f
  1071  0760  2F5F               	goto	u2917
  1072  0761  0BE3               	decfsz	??_configZonas+1,f
  1073  0762  2F5F               	goto	u2917
  1074  0763                     l2884:
  1075                           
  1076                           ;main.c: 161:             setaZona(msgZonaDisparadas, msgConfigDispara, pos);
  1077  0763  30AF               	movlw	(low (_msgConfigDispara| 0))& (0+255)
  1078  0764  1283               	bcf	3,5	;RP0=0, select bank0
  1079  0765  1303               	bcf	3,6	;RP1=0, select bank0
  1080  0766  00E2               	movwf	??_configZonas
  1081  0767  0862               	movf	??_configZonas,w
  1082  0768  00D9               	movwf	setaZona@msgConfigDispara
  1083  0769  3032               	movlw	50
  1084  076A  00DA               	movwf	setaZona@pos
  1085  076B  3000               	movlw	0
  1086  076C  00DB               	movwf	setaZona@pos+1
  1087  076D  30A0               	movlw	(low (_msgZonaDisparadas| 0))& (0+255)
  1088  076E  120A  118A  26A3  120A  118A  	fcall	_setaZona
  1089  0773                     l2886:
  1090                           
  1091                           ;main.c: 163:         if (RB2 == 0){
  1092  0773  1283               	bcf	3,5	;RP0=0, select bank0
  1093  0774  1303               	bcf	3,6	;RP1=0, select bank0
  1094  0775  1906               	btfsc	6,2	;volatile
  1095  0776  2F78               	goto	u2601
  1096  0777  2F79               	goto	u2600
  1097  0778                     u2601:
  1098  0778  2F93               	goto	l2892
  1099  0779                     u2600:
  1100  0779                     l2888:
  1101                           
  1102                           ;main.c: 165:             _delay((unsigned long)((2)*(20000000/4000.0)));
  1103  0779  300D               	movlw	13
  1104  077A  1283               	bcf	3,5	;RP0=0, select bank0
  1105  077B  1303               	bcf	3,6	;RP1=0, select bank0
  1106  077C  00E3               	movwf	??_configZonas+1
  1107  077D  30FB               	movlw	251
  1108  077E  00E2               	movwf	??_configZonas
  1109  077F                     u2927:
  1110  077F  0BE2               	decfsz	??_configZonas,f
  1111  0780  2F7F               	goto	u2927
  1112  0781  0BE3               	decfsz	??_configZonas+1,f
  1113  0782  2F7F               	goto	u2927
  1114  0783                     l2890:
  1115                           
  1116                           ;main.c: 166:             setaZona(msgZonaDisparadas, msgConfigDispara, pos);
  1117  0783  30AF               	movlw	(low (_msgConfigDispara| 0))& (0+255)
  1118  0784  1283               	bcf	3,5	;RP0=0, select bank0
  1119  0785  1303               	bcf	3,6	;RP1=0, select bank0
  1120  0786  00E2               	movwf	??_configZonas
  1121  0787  0862               	movf	??_configZonas,w
  1122  0788  00D9               	movwf	setaZona@msgConfigDispara
  1123  0789  3033               	movlw	51
  1124  078A  00DA               	movwf	setaZona@pos
  1125  078B  3000               	movlw	0
  1126  078C  00DB               	movwf	setaZona@pos+1
  1127  078D  30A0               	movlw	(low (_msgZonaDisparadas| 0))& (0+255)
  1128  078E  120A  118A  26A3  120A  118A  	fcall	_setaZona
  1129  0793                     l2892:
  1130                           
  1131                           ;main.c: 168:         if (RB3 == 0){
  1132  0793  1283               	bcf	3,5	;RP0=0, select bank0
  1133  0794  1303               	bcf	3,6	;RP1=0, select bank0
  1134  0795  1986               	btfsc	6,3	;volatile
  1135  0796  2F98               	goto	u2611
  1136  0797  2F99               	goto	u2610
  1137  0798                     u2611:
  1138  0798  2FB3               	goto	l2898
  1139  0799                     u2610:
  1140  0799                     l2894:
  1141                           
  1142                           ;main.c: 170:             _delay((unsigned long)((2)*(20000000/4000.0)));
  1143  0799  300D               	movlw	13
  1144  079A  1283               	bcf	3,5	;RP0=0, select bank0
  1145  079B  1303               	bcf	3,6	;RP1=0, select bank0
  1146  079C  00E3               	movwf	??_configZonas+1
  1147  079D  30FB               	movlw	251
  1148  079E  00E2               	movwf	??_configZonas
  1149  079F                     u2937:
  1150  079F  0BE2               	decfsz	??_configZonas,f
  1151  07A0  2F9F               	goto	u2937
  1152  07A1  0BE3               	decfsz	??_configZonas+1,f
  1153  07A2  2F9F               	goto	u2937
  1154  07A3                     l2896:
  1155                           
  1156                           ;main.c: 171:             setaZona(msgZonaDisparadas, msgConfigDispara, pos);
  1157  07A3  30AF               	movlw	(low (_msgConfigDispara| 0))& (0+255)
  1158  07A4  1283               	bcf	3,5	;RP0=0, select bank0
  1159  07A5  1303               	bcf	3,6	;RP1=0, select bank0
  1160  07A6  00E2               	movwf	??_configZonas
  1161  07A7  0862               	movf	??_configZonas,w
  1162  07A8  00D9               	movwf	setaZona@msgConfigDispara
  1163  07A9  3034               	movlw	52
  1164  07AA  00DA               	movwf	setaZona@pos
  1165  07AB  3000               	movlw	0
  1166  07AC  00DB               	movwf	setaZona@pos+1
  1167  07AD  30A0               	movlw	(low (_msgZonaDisparadas| 0))& (0+255)
  1168  07AE  120A  118A  26A3  120A  118A  	fcall	_setaZona
  1169  07B3                     l2898:
  1170                           
  1171                           ;main.c: 151:     while (zonaConfig){
  1172  07B3  1283               	bcf	3,5	;RP0=0, select bank0
  1173  07B4  1303               	bcf	3,6	;RP1=0, select bank0
  1174  07B5  082C               	movf	_zonaConfig,w
  1175  07B6  042D               	iorwf	_zonaConfig+1,w
  1176  07B7  1D03               	btfss	3,2
  1177  07B8  2FBA               	goto	u2621
  1178  07B9  2FBB               	goto	u2620
  1179  07BA                     u2621:
  1180  07BA  2F25               	goto	l2872
  1181  07BB                     u2620:
  1182  07BB                     l190:
  1183  07BB  0008               	return
  1184  07BC                     __end_of_configZonas:
  1185                           
  1186                           	psect	text2
  1187  06A3                     __ptext2:	
  1188 ;; *************** function _setaZona *****************
  1189 ;; Defined at:
  1190 ;;		line 126 in file "main.c"
  1191 ;; Parameters:    Size  Location     Type
  1192 ;;  msgZonaDispa    1    wreg     PTR unsigned char 
  1193 ;;		 -> msgZonaDisparadas(15), 
  1194 ;;  msgConfigDis    1    0[BANK0 ] PTR unsigned char 
  1195 ;;		 -> msgConfigDispara(15), 
  1196 ;;  pos             2    1[BANK0 ] PTR unsigned char 
  1197 ;;		 -> RAM(512), 
  1198 ;; Auto vars:     Size  Location     Type
  1199 ;;  msgZonaDispa    1    6[BANK0 ] PTR unsigned char 
  1200 ;;		 -> msgZonaDisparadas(15), 
  1201 ;;  i               2    7[BANK0 ] int 
  1202 ;; Return value:  Size  Location     Type
  1203 ;;                  1    wreg      void 
  1204 ;; Registers used:
  1205 ;;		wreg, fsr0l, fsr0h, status,2, status,0, btemp+1, pclath, cstack
  1206 ;; Tracked objects:
  1207 ;;		On entry : 0/0
  1208 ;;		On exit  : 0/0
  1209 ;;		Unchanged: 0/0
  1210 ;; Data sizes:     COMMON   BANK0   BANK1   BANK3   BANK2
  1211 ;;      Params:         0       3       0       0       0
  1212 ;;      Locals:         0       3       0       0       0
  1213 ;;      Temps:          0       3       0       0       0
  1214 ;;      Totals:         0       9       0       0       0
  1215 ;;Total ram usage:        9 bytes
  1216 ;; Hardware stack levels used: 1
  1217 ;; Hardware stack levels required when called: 4
  1218 ;; This function calls:
  1219 ;;		_infoZonas
  1220 ;; This function is called by:
  1221 ;;		_configZonas
  1222 ;; This function uses a non-reentrant model
  1223 ;;
  1224                           
  1225                           
  1226                           ;psect for function _setaZona
  1227  06A3                     _setaZona:
  1228                           
  1229                           ;incstack = 0
  1230                           ; Regs used in _setaZona: [wreg-fsr0h+status,2+status,0+btemp+1+pclath+cstack]
  1231                           ;setaZona@msgZonaDisparadas stored from wreg
  1232  06A3  1283               	bcf	3,5	;RP0=0, select bank0
  1233  06A4  1303               	bcf	3,6	;RP1=0, select bank0
  1234  06A5  00DF               	movwf	setaZona@msgZonaDisparadas
  1235  06A6                     l2822:
  1236                           
  1237                           ;main.c: 127:     for (int i = 0; msgZonaDisparadas[i] != '\0'; i++){
  1238  06A6  01E0               	clrf	setaZona@i
  1239  06A7  01E1               	clrf	setaZona@i+1
  1240  06A8  2F08               	goto	l171
  1241  06A9                     l2824:
  1242                           
  1243                           ;main.c: 128:         if(msgZonaDisparadas[i] == '0' && msgConfigDispara[i] == pos){
  1244  06A9  0860               	movf	setaZona@i,w
  1245  06AA  075F               	addwf	setaZona@msgZonaDisparadas,w
  1246  06AB  00DC               	movwf	??_setaZona
  1247  06AC  085C               	movf	??_setaZona,w
  1248  06AD  0084               	movwf	4
  1249  06AE  3030               	movlw	48
  1250  06AF  0600               	xorwf	0,w
  1251  06B0  1D03               	btfss	3,2
  1252  06B1  2EB3               	goto	u2511
  1253  06B2  2EB4               	goto	u2510
  1254  06B3                     u2511:
  1255  06B3  2ED0               	goto	l2830
  1256  06B4                     u2510:
  1257  06B4                     l2826:
  1258  06B4  0860               	movf	setaZona@i,w
  1259  06B5  0759               	addwf	setaZona@msgConfigDispara,w
  1260  06B6  00DC               	movwf	??_setaZona
  1261  06B7  085C               	movf	??_setaZona,w
  1262  06B8  0084               	movwf	4
  1263  06B9  0800               	movf	0,w
  1264  06BA  00DD               	movwf	??_setaZona+1
  1265  06BB  01DE               	clrf	??_setaZona+2
  1266  06BC  085B               	movf	setaZona@pos+1,w
  1267  06BD  065E               	xorwf	??_setaZona+2,w
  1268  06BE  1D03               	skipz
  1269  06BF  2EC2               	goto	u2525
  1270  06C0  085A               	movf	setaZona@pos,w
  1271  06C1  065D               	xorwf	??_setaZona+1,w
  1272  06C2                     u2525:
  1273  06C2  1D03               	skipz
  1274  06C3  2EC5               	goto	u2521
  1275  06C4  2EC6               	goto	u2520
  1276  06C5                     u2521:
  1277  06C5  2ED0               	goto	l2830
  1278  06C6                     u2520:
  1279  06C6                     l2828:
  1280                           
  1281                           ;main.c: 129:             msgZonaDisparadas[i] = '1';
  1282  06C6  3031               	movlw	49
  1283  06C7  00DC               	movwf	??_setaZona
  1284  06C8  0860               	movf	setaZona@i,w
  1285  06C9  075F               	addwf	setaZona@msgZonaDisparadas,w
  1286  06CA  00DD               	movwf	??_setaZona+1
  1287  06CB  085D               	movf	??_setaZona+1,w
  1288  06CC  0084               	movwf	4
  1289  06CD  085C               	movf	??_setaZona,w
  1290  06CE  0080               	movwf	0
  1291                           
  1292                           ;main.c: 130:         }
  1293  06CF  2EF6               	goto	l2836
  1294  06D0                     l2830:
  1295  06D0  0860               	movf	setaZona@i,w
  1296  06D1  075F               	addwf	setaZona@msgZonaDisparadas,w
  1297  06D2  00DC               	movwf	??_setaZona
  1298  06D3  085C               	movf	??_setaZona,w
  1299  06D4  0084               	movwf	4
  1300  06D5  3031               	movlw	49
  1301  06D6  0600               	xorwf	0,w
  1302  06D7  1D03               	btfss	3,2
  1303  06D8  2EDA               	goto	u2531
  1304  06D9  2EDB               	goto	u2530
  1305  06DA                     u2531:
  1306  06DA  2EF6               	goto	l2836
  1307  06DB                     u2530:
  1308  06DB                     l2832:
  1309  06DB  0860               	movf	setaZona@i,w
  1310  06DC  0759               	addwf	setaZona@msgConfigDispara,w
  1311  06DD  00DC               	movwf	??_setaZona
  1312  06DE  085C               	movf	??_setaZona,w
  1313  06DF  0084               	movwf	4
  1314  06E0  0800               	movf	0,w
  1315  06E1  00DD               	movwf	??_setaZona+1
  1316  06E2  01DE               	clrf	??_setaZona+2
  1317  06E3  085B               	movf	setaZona@pos+1,w
  1318  06E4  065E               	xorwf	??_setaZona+2,w
  1319  06E5  1D03               	skipz
  1320  06E6  2EE9               	goto	u2545
  1321  06E7  085A               	movf	setaZona@pos,w
  1322  06E8  065D               	xorwf	??_setaZona+1,w
  1323  06E9                     u2545:
  1324  06E9  1D03               	skipz
  1325  06EA  2EEC               	goto	u2541
  1326  06EB  2EED               	goto	u2540
  1327  06EC                     u2541:
  1328  06EC  2EF6               	goto	l2836
  1329  06ED                     u2540:
  1330  06ED                     l2834:
  1331                           
  1332                           ;main.c: 132:             msgZonaDisparadas[i] = '0';
  1333  06ED  3030               	movlw	48
  1334  06EE  00DC               	movwf	??_setaZona
  1335  06EF  0860               	movf	setaZona@i,w
  1336  06F0  075F               	addwf	setaZona@msgZonaDisparadas,w
  1337  06F1  00DD               	movwf	??_setaZona+1
  1338  06F2  085D               	movf	??_setaZona+1,w
  1339  06F3  0084               	movwf	4
  1340  06F4  085C               	movf	??_setaZona,w
  1341  06F5  0080               	movwf	0
  1342  06F6                     l2836:
  1343                           
  1344                           ;main.c: 134:         _delay((unsigned long)((2)*(20000000/4000.0)));
  1345  06F6  300D               	movlw	13
  1346  06F7  1283               	bcf	3,5	;RP0=0, select bank0
  1347  06F8  1303               	bcf	3,6	;RP1=0, select bank0
  1348  06F9  00DD               	movwf	??_setaZona+1
  1349  06FA  30FB               	movlw	251
  1350  06FB  00DC               	movwf	??_setaZona
  1351  06FC                     u2947:
  1352  06FC  0BDC               	decfsz	??_setaZona,f
  1353  06FD  2EFC               	goto	u2947
  1354  06FE  0BDD               	decfsz	??_setaZona+1,f
  1355  06FF  2EFC               	goto	u2947
  1356  0700                     l2838:
  1357                           
  1358                           ;main.c: 135:     }
  1359  0700  3001               	movlw	1
  1360  0701  1283               	bcf	3,5	;RP0=0, select bank0
  1361  0702  1303               	bcf	3,6	;RP1=0, select bank0
  1362  0703  07E0               	addwf	setaZona@i,f
  1363  0704  1803               	skipnc
  1364  0705  0AE1               	incf	setaZona@i+1,f
  1365  0706  3000               	movlw	0
  1366  0707  07E1               	addwf	setaZona@i+1,f
  1367  0708                     l171:
  1368  0708  0860               	movf	setaZona@i,w
  1369  0709  075F               	addwf	setaZona@msgZonaDisparadas,w
  1370  070A  00DC               	movwf	??_setaZona
  1371  070B  085C               	movf	??_setaZona,w
  1372  070C  0084               	movwf	4
  1373  070D  1383               	bcf	3,7	;select IRP bank0
  1374  070E  0800               	movf	0,w
  1375  070F  1D03               	btfss	3,2
  1376  0710  2F12               	goto	u2551
  1377  0711  2F13               	goto	u2550
  1378  0712                     u2551:
  1379  0712  2EA9               	goto	l2824
  1380  0713                     u2550:
  1381  0713                     l2840:
  1382                           
  1383                           ;main.c: 136:     zonaConfig = 0;
  1384  0713  01AC               	clrf	_zonaConfig
  1385  0714  01AD               	clrf	_zonaConfig+1
  1386  0715                     l2842:
  1387                           
  1388                           ;main.c: 137:     infoZonas();
  1389  0715  120A  118A  2505  120A  118A  	fcall	_infoZonas
  1390  071A                     l177:
  1391  071A  0008               	return
  1392  071B                     __end_of_setaZona:
  1393                           
  1394                           	psect	text3
  1395  0505                     __ptext3:	
  1396 ;; *************** function _infoZonas *****************
  1397 ;; Defined at:
  1398 ;;		line 139 in file "main.c"
  1399 ;; Parameters:    Size  Location     Type
  1400 ;;		None
  1401 ;; Auto vars:     Size  Location     Type
  1402 ;;		None
  1403 ;; Return value:  Size  Location     Type
  1404 ;;                  1    wreg      void 
  1405 ;; Registers used:
  1406 ;;		wreg, fsr0l, fsr0h, status,2, status,0, btemp+1, pclath, cstack
  1407 ;; Tracked objects:
  1408 ;;		On entry : 0/0
  1409 ;;		On exit  : 0/0
  1410 ;;		Unchanged: 0/0
  1411 ;; Data sizes:     COMMON   BANK0   BANK1   BANK3   BANK2
  1412 ;;      Params:         0       0       0       0       0
  1413 ;;      Locals:         0       0       0       0       0
  1414 ;;      Temps:          3       0       0       0       0
  1415 ;;      Totals:         3       0       0       0       0
  1416 ;;Total ram usage:        3 bytes
  1417 ;; Hardware stack levels used: 1
  1418 ;; Hardware stack levels required when called: 3
  1419 ;; This function calls:
  1420 ;;		_LCD_limpa
  1421 ;;		_LCD_linha1
  1422 ;;		_LCD_linha2
  1423 ;;		_escreveMesagem
  1424 ;; This function is called by:
  1425 ;;		_setaZona
  1426 ;;		_configZonas
  1427 ;; This function uses a non-reentrant model
  1428 ;;
  1429                           
  1430                           
  1431                           ;psect for function _infoZonas
  1432  0505                     _infoZonas:
  1433  0505                     l2782:	
  1434                           ;incstack = 0
  1435                           ; Regs used in _infoZonas: [wreg-fsr0h+status,2+status,0+btemp+1+pclath+cstack]
  1436                           
  1437                           
  1438                           ;main.c: 140:     LCD_limpa();
  1439  0505  120A  118A  2472  120A  118A  	fcall	_LCD_limpa
  1440                           
  1441                           ;main.c: 141:     LCD_linha1();
  1442  050A  120A  118A  2482  120A  118A  	fcall	_LCD_linha1
  1443  050F                     l2784:
  1444                           
  1445                           ;main.c: 142:     escreveMesagem(msgConfigDispara);
  1446  050F  30AF               	movlw	(low (_msgConfigDispara| 0))& (0+255)
  1447  0510  00F3               	movwf	escreveMesagem@texto
  1448  0511  3000               	movlw	0
  1449  0512  00F4               	movwf	escreveMesagem@texto+1
  1450  0513  120A  118A  2598  120A  118A  	fcall	_escreveMesagem
  1451  0518                     l2786:
  1452                           
  1453                           ;main.c: 143:     LCD_linha2();
  1454  0518  120A  118A  2492  120A  118A  	fcall	_LCD_linha2
  1455                           
  1456                           ;main.c: 144:     escreveMesagem(msgZonaDisparadas);
  1457  051D  30A0               	movlw	(low (_msgZonaDisparadas| 0))& (0+255)
  1458  051E  00F3               	movwf	escreveMesagem@texto
  1459  051F  3000               	movlw	0
  1460  0520  00F4               	movwf	escreveMesagem@texto+1
  1461  0521  120A  118A  2598  120A  118A  	fcall	_escreveMesagem
  1462  0526                     l2788:
  1463                           
  1464                           ;main.c: 145:     _delay((unsigned long)((1000)*(20000000/4000.0)));
  1465  0526  301A               	movlw	26
  1466  0527  00FC               	movwf	??_infoZonas+2
  1467  0528  305E               	movlw	94
  1468  0529  00FB               	movwf	??_infoZonas+1
  1469  052A  306E               	movlw	110
  1470  052B  00FA               	movwf	??_infoZonas
  1471  052C                     u2957:
  1472  052C  0BFA               	decfsz	??_infoZonas,f
  1473  052D  2D2C               	goto	u2957
  1474  052E  0BFB               	decfsz	??_infoZonas+1,f
  1475  052F  2D2C               	goto	u2957
  1476  0530  0BFC               	decfsz	??_infoZonas+2,f
  1477  0531  2D2C               	goto	u2957
  1478  0532  0000               	nop
  1479  0533                     l180:
  1480  0533  0008               	return
  1481  0534                     __end_of_infoZonas:
  1482                           
  1483                           	psect	text4
  1484  0598                     __ptext4:	
  1485 ;; *************** function _escreveMesagem *****************
  1486 ;; Defined at:
  1487 ;;		line 607 in file "main.c"
  1488 ;; Parameters:    Size  Location     Type
  1489 ;;  texto           2    3[COMMON] PTR unsigned char 
  1490 ;;		 -> msgReativar(9), msgDesativarZona(15), msgSenhaDisparo(14), msgSenhaCoacao(13), 
  1491 ;;		 -> msgSenhaUsuario(14), msgSenhaConfig(13), msgSenhaCorreta(14), msgSenhaErrada(13), 
  1492 ;;		 -> senhaCoa(5), senhaUser(5), senhaConfig(5), msgDigiteNovaSenha(14), 
  1493 ;;		 -> msgSenhaCancelada(16), msgSenhaAtualizada(17), msgAceitoOuNego(9), msgValidaSenha(16), 
  1494 ;;		 -> msgZonaDisparadas(15), msgConfigDispara(15), 
  1495 ;; Auto vars:     Size  Location     Type
  1496 ;;  i               2    8[COMMON] int 
  1497 ;; Return value:  Size  Location     Type
  1498 ;;                  1    wreg      void 
  1499 ;; Registers used:
  1500 ;;		wreg, fsr0l, fsr0h, status,2, status,0, btemp+1, pclath, cstack
  1501 ;; Tracked objects:
  1502 ;;		On entry : 0/0
  1503 ;;		On exit  : 0/0
  1504 ;;		Unchanged: 0/0
  1505 ;; Data sizes:     COMMON   BANK0   BANK1   BANK3   BANK2
  1506 ;;      Params:         2       0       0       0       0
  1507 ;;      Locals:         2       0       0       0       0
  1508 ;;      Temps:          3       0       0       0       0
  1509 ;;      Totals:         7       0       0       0       0
  1510 ;;Total ram usage:        7 bytes
  1511 ;; Hardware stack levels used: 1
  1512 ;; Hardware stack levels required when called: 2
  1513 ;; This function calls:
  1514 ;;		_LCD_escreve
  1515 ;; This function is called by:
  1516 ;;		_infoZonas
  1517 ;;		_valida_senha
  1518 ;;		_rotinaValidaSenha
  1519 ;;		_alteraSenhas
  1520 ;;		_validaUser
  1521 ;;		_listaZonas
  1522 ;; This function uses a non-reentrant model
  1523 ;;
  1524                           
  1525                           
  1526                           ;psect for function _escreveMesagem
  1527  0598                     _escreveMesagem:
  1528  0598                     l2774:	
  1529                           ;incstack = 0
  1530                           ; Regs used in _escreveMesagem: [wreg-fsr0h+status,2+status,0+btemp+1+pclath+cstack]
  1531                           
  1532                           
  1533                           ;main.c: 608:     for (int i = 0; texto[i] != '\0'; i++){
  1534  0598  01F8               	clrf	escreveMesagem@i
  1535  0599  01F9               	clrf	escreveMesagem@i+1
  1536  059A  2DB8               	goto	l2780
  1537  059B                     l2776:
  1538                           
  1539                           ;main.c: 609:         LCD_escreve(texto[i]);
  1540  059B  0878               	movf	escreveMesagem@i,w
  1541  059C  0773               	addwf	escreveMesagem@texto,w
  1542  059D  00F6               	movwf	??_escreveMesagem+1
  1543  059E  0874               	movf	escreveMesagem@texto+1,w
  1544  059F  00F5               	movwf	??_escreveMesagem
  1545  05A0  1803               	skipnc
  1546  05A1  0AF5               	incf	??_escreveMesagem,f
  1547  05A2  1FF8               	btfss	escreveMesagem@i,7
  1548  05A3  2DA5               	goto	u2450
  1549  05A4  03F5               	decf	??_escreveMesagem,f
  1550  05A5                     u2450:
  1551  05A5  0875               	movf	??_escreveMesagem,w
  1552  05A6  00F7               	movwf	??_escreveMesagem+2
  1553  05A7  0876               	movf	??_escreveMesagem+1,w
  1554  05A8  0084               	movwf	4
  1555  05A9  1783               	bsf	3,7
  1556  05AA  1C77               	btfss	??_escreveMesagem+2,0
  1557  05AB  1383               	bcf	3,7
  1558  05AC  0800               	movf	0,w
  1559  05AD  120A  118A  24A2  120A  118A  	fcall	_LCD_escreve
  1560  05B2                     l2778:
  1561                           
  1562                           ;main.c: 610:     }
  1563  05B2  3001               	movlw	1
  1564  05B3  07F8               	addwf	escreveMesagem@i,f
  1565  05B4  1803               	skipnc
  1566  05B5  0AF9               	incf	escreveMesagem@i+1,f
  1567  05B6  3000               	movlw	0
  1568  05B7  07F9               	addwf	escreveMesagem@i+1,f
  1569  05B8                     l2780:
  1570  05B8  0878               	movf	escreveMesagem@i,w
  1571  05B9  0773               	addwf	escreveMesagem@texto,w
  1572  05BA  00F6               	movwf	??_escreveMesagem+1
  1573  05BB  0874               	movf	escreveMesagem@texto+1,w
  1574  05BC  00F5               	movwf	??_escreveMesagem
  1575  05BD  1803               	skipnc
  1576  05BE  0AF5               	incf	??_escreveMesagem,f
  1577  05BF  1FF8               	btfss	escreveMesagem@i,7
  1578  05C0  2DC2               	goto	u2460
  1579  05C1  03F5               	decf	??_escreveMesagem,f
  1580  05C2                     u2460:
  1581  05C2  0875               	movf	??_escreveMesagem,w
  1582  05C3  00F7               	movwf	??_escreveMesagem+2
  1583  05C4  0876               	movf	??_escreveMesagem+1,w
  1584  05C5  0084               	movwf	4
  1585  05C6  1783               	bsf	3,7
  1586  05C7  1C77               	btfss	??_escreveMesagem+2,0
  1587  05C8  1383               	bcf	3,7
  1588  05C9  0800               	movf	0,w
  1589  05CA  1D03               	btfss	3,2
  1590  05CB  2DCD               	goto	u2471
  1591  05CC  2DCE               	goto	u2470
  1592  05CD                     u2471:
  1593  05CD  2D9B               	goto	l2776
  1594  05CE                     u2470:
  1595  05CE                     l329:
  1596  05CE  0008               	return
  1597  05CF                     __end_of_escreveMesagem:
  1598                           
  1599                           	psect	text5
  1600  04A2                     __ptext5:	
  1601 ;; *************** function _LCD_escreve *****************
  1602 ;; Defined at:
  1603 ;;		line 46 in file "./lcd.h"
  1604 ;; Parameters:    Size  Location     Type
  1605 ;;  x               1    wreg     unsigned char 
  1606 ;; Auto vars:     Size  Location     Type
  1607 ;;  x               1    2[COMMON] unsigned char 
  1608 ;; Return value:  Size  Location     Type
  1609 ;;                  1    wreg      void 
  1610 ;; Registers used:
  1611 ;;		wreg, status,2, status,0, btemp+1, pclath, cstack
  1612 ;; Tracked objects:
  1613 ;;		On entry : 0/0
  1614 ;;		On exit  : 0/0
  1615 ;;		Unchanged: 0/0
  1616 ;; Data sizes:     COMMON   BANK0   BANK1   BANK3   BANK2
  1617 ;;      Params:         0       0       0       0       0
  1618 ;;      Locals:         1       0       0       0       0
  1619 ;;      Temps:          0       0       0       0       0
  1620 ;;      Totals:         1       0       0       0       0
  1621 ;;Total ram usage:        1 bytes
  1622 ;; Hardware stack levels used: 1
  1623 ;; Hardware stack levels required when called: 1
  1624 ;; This function calls:
  1625 ;;		_delay
  1626 ;; This function is called by:
  1627 ;;		_escreveMesagem
  1628 ;;		_LCD_escreveFrase
  1629 ;;		_valida_senha
  1630 ;;		_teclado
  1631 ;;		_telaInicial
  1632 ;;		_Linha2
  1633 ;;		_espacoLivre
  1634 ;;		_listaZonas
  1635 ;; This function uses a non-reentrant model
  1636 ;;
  1637                           
  1638                           
  1639                           ;psect for function _LCD_escreve
  1640  04A2                     _LCD_escreve:
  1641                           
  1642                           ;incstack = 0
  1643                           ; Regs used in _LCD_escreve: [wreg+status,2+status,0+btemp+1+pclath+cstack]
  1644                           ;LCD_escreve@x stored from wreg
  1645  04A2  00F2               	movwf	LCD_escreve@x
  1646  04A3                     l1672:
  1647                           
  1648                           ;./lcd.h: 46: void LCD_escreve(char x);./lcd.h: 47: {;./lcd.h: 48:  PORTD = x;
  1649  04A3  0872               	movf	LCD_escreve@x,w
  1650  04A4  1283               	bcf	3,5	;RP0=0, select bank0
  1651  04A5  1303               	bcf	3,6	;RP1=0, select bank0
  1652  04A6  0088               	movwf	8	;volatile
  1653  04A7                     l1674:
  1654                           
  1655                           ;./lcd.h: 49:  RA5 = 1;
  1656  04A7  1685               	bsf	5,5	;volatile
  1657  04A8                     l1676:
  1658                           
  1659                           ;./lcd.h: 50:  RA4 = 0;
  1660  04A8  1205               	bcf	5,4	;volatile
  1661  04A9                     l1678:
  1662                           
  1663                           ;./lcd.h: 51:  RA3 = 0;
  1664  04A9  1185               	bcf	5,3	;volatile
  1665  04AA                     l1680:
  1666                           
  1667                           ;./lcd.h: 52:  delay();
  1668  04AA  120A  118A  24C6  120A  118A  	fcall	_delay
  1669  04AF                     l1682:
  1670                           
  1671                           ;./lcd.h: 53:  RA3 = 1;
  1672  04AF  1283               	bcf	3,5	;RP0=0, select bank0
  1673  04B0  1303               	bcf	3,6	;RP1=0, select bank0
  1674  04B1  1585               	bsf	5,3	;volatile
  1675  04B2                     l71:
  1676  04B2  0008               	return
  1677  04B3                     __end_of_LCD_escreve:
  1678                           
  1679                           	psect	text6
  1680  0492                     __ptext6:	
  1681 ;; *************** function _LCD_linha2 *****************
  1682 ;; Defined at:
  1683 ;;		line 73 in file "./lcd.h"
  1684 ;; Parameters:    Size  Location     Type
  1685 ;;		None
  1686 ;; Auto vars:     Size  Location     Type
  1687 ;;		None
  1688 ;; Return value:  Size  Location     Type
  1689 ;;                  1    wreg      void 
  1690 ;; Registers used:
  1691 ;;		wreg, status,2, status,0, btemp+1, pclath, cstack
  1692 ;; Tracked objects:
  1693 ;;		On entry : 0/0
  1694 ;;		On exit  : 0/0
  1695 ;;		Unchanged: 0/0
  1696 ;; Data sizes:     COMMON   BANK0   BANK1   BANK3   BANK2
  1697 ;;      Params:         0       0       0       0       0
  1698 ;;      Locals:         0       0       0       0       0
  1699 ;;      Temps:          0       0       0       0       0
  1700 ;;      Totals:         0       0       0       0       0
  1701 ;;Total ram usage:        0 bytes
  1702 ;; Hardware stack levels used: 1
  1703 ;; Hardware stack levels required when called: 1
  1704 ;; This function calls:
  1705 ;;		_delay
  1706 ;; This function is called by:
  1707 ;;		_infoZonas
  1708 ;;		_valida_senha
  1709 ;;		_rotinaValidaSenha
  1710 ;;		_Linha2
  1711 ;;		_espacoLivre
  1712 ;;		_listaZonas
  1713 ;; This function uses a non-reentrant model
  1714 ;;
  1715                           
  1716                           
  1717                           ;psect for function _LCD_linha2
  1718  0492                     _LCD_linha2:
  1719  0492                     l1708:	
  1720                           ;incstack = 0
  1721                           ; Regs used in _LCD_linha2: [wreg+status,2+status,0+btemp+1+pclath+cstack]
  1722                           
  1723                           
  1724                           ;./lcd.h: 74:     PORTD = 0xC0;
  1725  0492  30C0               	movlw	192
  1726  0493  1283               	bcf	3,5	;RP0=0, select bank0
  1727  0494  1303               	bcf	3,6	;RP1=0, select bank0
  1728  0495  0088               	movwf	8	;volatile
  1729  0496                     l1710:
  1730                           
  1731                           ;./lcd.h: 75:     RA5 = 0;
  1732  0496  1285               	bcf	5,5	;volatile
  1733  0497                     l1712:
  1734                           
  1735                           ;./lcd.h: 76:     RA4 = 0;
  1736  0497  1205               	bcf	5,4	;volatile
  1737  0498                     l1714:
  1738                           
  1739                           ;./lcd.h: 77:     RA3=0;
  1740  0498  1185               	bcf	5,3	;volatile
  1741  0499                     l1716:
  1742                           
  1743                           ;./lcd.h: 78:     delay();
  1744  0499  120A  118A  24C6  120A  118A  	fcall	_delay
  1745  049E                     l1718:
  1746                           
  1747                           ;./lcd.h: 79:  RA3 = 1;
  1748  049E  1283               	bcf	3,5	;RP0=0, select bank0
  1749  049F  1303               	bcf	3,6	;RP1=0, select bank0
  1750  04A0  1585               	bsf	5,3	;volatile
  1751  04A1                     l80:
  1752  04A1  0008               	return
  1753  04A2                     __end_of_LCD_linha2:
  1754                           
  1755                           	psect	text7
  1756  0482                     __ptext7:	
  1757 ;; *************** function _LCD_linha1 *****************
  1758 ;; Defined at:
  1759 ;;		line 65 in file "./lcd.h"
  1760 ;; Parameters:    Size  Location     Type
  1761 ;;		None
  1762 ;; Auto vars:     Size  Location     Type
  1763 ;;		None
  1764 ;; Return value:  Size  Location     Type
  1765 ;;                  1    wreg      void 
  1766 ;; Registers used:
  1767 ;;		wreg, status,2, status,0, btemp+1, pclath, cstack
  1768 ;; Tracked objects:
  1769 ;;		On entry : 0/0
  1770 ;;		On exit  : 0/0
  1771 ;;		Unchanged: 0/0
  1772 ;; Data sizes:     COMMON   BANK0   BANK1   BANK3   BANK2
  1773 ;;      Params:         0       0       0       0       0
  1774 ;;      Locals:         0       0       0       0       0
  1775 ;;      Temps:          0       0       0       0       0
  1776 ;;      Totals:         0       0       0       0       0
  1777 ;;Total ram usage:        0 bytes
  1778 ;; Hardware stack levels used: 1
  1779 ;; Hardware stack levels required when called: 1
  1780 ;; This function calls:
  1781 ;;		_delay
  1782 ;; This function is called by:
  1783 ;;		_infoZonas
  1784 ;;		_valida_senha
  1785 ;;		_telaInicial
  1786 ;;		_validaUser
  1787 ;;		_listaZonas
  1788 ;; This function uses a non-reentrant model
  1789 ;;
  1790                           
  1791                           
  1792                           ;psect for function _LCD_linha1
  1793  0482                     _LCD_linha1:
  1794  0482                     l1696:	
  1795                           ;incstack = 0
  1796                           ; Regs used in _LCD_linha1: [wreg+status,2+status,0+btemp+1+pclath+cstack]
  1797                           
  1798                           
  1799                           ;./lcd.h: 66:     PORTD = 0x02;
  1800  0482  3002               	movlw	2
  1801  0483  1283               	bcf	3,5	;RP0=0, select bank0
  1802  0484  1303               	bcf	3,6	;RP1=0, select bank0
  1803  0485  0088               	movwf	8	;volatile
  1804  0486                     l1698:
  1805                           
  1806                           ;./lcd.h: 67:     RA5 = 0;
  1807  0486  1285               	bcf	5,5	;volatile
  1808  0487                     l1700:
  1809                           
  1810                           ;./lcd.h: 68:     RA4 = 0;
  1811  0487  1205               	bcf	5,4	;volatile
  1812  0488                     l1702:
  1813                           
  1814                           ;./lcd.h: 69:     RA3=0;
  1815  0488  1185               	bcf	5,3	;volatile
  1816  0489                     l1704:
  1817                           
  1818                           ;./lcd.h: 70:     delay();
  1819  0489  120A  118A  24C6  120A  118A  	fcall	_delay
  1820  048E                     l1706:
  1821                           
  1822                           ;./lcd.h: 71:  RA3 = 1;
  1823  048E  1283               	bcf	3,5	;RP0=0, select bank0
  1824  048F  1303               	bcf	3,6	;RP1=0, select bank0
  1825  0490  1585               	bsf	5,3	;volatile
  1826  0491                     l77:
  1827  0491  0008               	return
  1828  0492                     __end_of_LCD_linha1:
  1829                           
  1830                           	psect	text8
  1831  0472                     __ptext8:	
  1832 ;; *************** function _LCD_limpa *****************
  1833 ;; Defined at:
  1834 ;;		line 56 in file "./lcd.h"
  1835 ;; Parameters:    Size  Location     Type
  1836 ;;		None
  1837 ;; Auto vars:     Size  Location     Type
  1838 ;;		None
  1839 ;; Return value:  Size  Location     Type
  1840 ;;                  1    wreg      void 
  1841 ;; Registers used:
  1842 ;;		wreg, status,2, status,0, btemp+1, pclath, cstack
  1843 ;; Tracked objects:
  1844 ;;		On entry : 0/0
  1845 ;;		On exit  : 0/0
  1846 ;;		Unchanged: 0/0
  1847 ;; Data sizes:     COMMON   BANK0   BANK1   BANK3   BANK2
  1848 ;;      Params:         0       0       0       0       0
  1849 ;;      Locals:         0       0       0       0       0
  1850 ;;      Temps:          0       0       0       0       0
  1851 ;;      Totals:         0       0       0       0       0
  1852 ;;Total ram usage:        0 bytes
  1853 ;; Hardware stack levels used: 1
  1854 ;; Hardware stack levels required when called: 1
  1855 ;; This function calls:
  1856 ;;		_delay
  1857 ;; This function is called by:
  1858 ;;		_infoZonas
  1859 ;;		_valida_senha
  1860 ;;		_rotinaValidaSenha
  1861 ;;		_alteraSenhas
  1862 ;;		_validaUser
  1863 ;;		_listaZonas
  1864 ;; This function uses a non-reentrant model
  1865 ;;
  1866                           
  1867                           
  1868                           ;psect for function _LCD_limpa
  1869  0472                     _LCD_limpa:
  1870  0472                     l1684:	
  1871                           ;incstack = 0
  1872                           ; Regs used in _LCD_limpa: [wreg+status,2+status,0+btemp+1+pclath+cstack]
  1873                           
  1874                           
  1875                           ;./lcd.h: 57:     PORTD = 0x01;
  1876  0472  3001               	movlw	1
  1877  0473  1283               	bcf	3,5	;RP0=0, select bank0
  1878  0474  1303               	bcf	3,6	;RP1=0, select bank0
  1879  0475  0088               	movwf	8	;volatile
  1880  0476                     l1686:
  1881                           
  1882                           ;./lcd.h: 58:     RA5 = 0;
  1883  0476  1285               	bcf	5,5	;volatile
  1884  0477                     l1688:
  1885                           
  1886                           ;./lcd.h: 59:     RA4 = 0;
  1887  0477  1205               	bcf	5,4	;volatile
  1888  0478                     l1690:
  1889                           
  1890                           ;./lcd.h: 60:     RA3=0;
  1891  0478  1185               	bcf	5,3	;volatile
  1892  0479                     l1692:
  1893                           
  1894                           ;./lcd.h: 61:     delay();
  1895  0479  120A  118A  24C6  120A  118A  	fcall	_delay
  1896  047E                     l1694:
  1897                           
  1898                           ;./lcd.h: 62:  RA3 = 1;
  1899  047E  1283               	bcf	3,5	;RP0=0, select bank0
  1900  047F  1303               	bcf	3,6	;RP1=0, select bank0
  1901  0480  1585               	bsf	5,3	;volatile
  1902  0481                     l74:
  1903  0481  0008               	return
  1904  0482                     __end_of_LCD_limpa:
  1905                           
  1906                           	psect	text9
  1907  0565                     __ptext9:	
  1908 ;; *************** function _LCD_init *****************
  1909 ;; Defined at:
  1910 ;;		line 31 in file "./lcd.h"
  1911 ;; Parameters:    Size  Location     Type
  1912 ;;		None
  1913 ;; Auto vars:     Size  Location     Type
  1914 ;;		None
  1915 ;; Return value:  Size  Location     Type
  1916 ;;                  1    wreg      void 
  1917 ;; Registers used:
  1918 ;;		wreg, status,2, status,0, btemp+1, pclath, cstack
  1919 ;; Tracked objects:
  1920 ;;		On entry : 0/0
  1921 ;;		On exit  : 0/0
  1922 ;;		Unchanged: 0/0
  1923 ;; Data sizes:     COMMON   BANK0   BANK1   BANK3   BANK2
  1924 ;;      Params:         0       0       0       0       0
  1925 ;;      Locals:         0       0       0       0       0
  1926 ;;      Temps:          0       0       0       0       0
  1927 ;;      Totals:         0       0       0       0       0
  1928 ;;Total ram usage:        0 bytes
  1929 ;; Hardware stack levels used: 1
  1930 ;; Hardware stack levels required when called: 2
  1931 ;; This function calls:
  1932 ;;		_LCD_enable
  1933 ;;		_init
  1934 ;; This function is called by:
  1935 ;;		_main
  1936 ;;		_alteraSenhas
  1937 ;;		_listaZonas
  1938 ;; This function uses a non-reentrant model
  1939 ;;
  1940                           
  1941                           
  1942                           ;psect for function _LCD_init
  1943  0565                     _LCD_init:
  1944  0565                     l1826:	
  1945                           ;incstack = 0
  1946                           ; Regs used in _LCD_init: [wreg+status,2+status,0+btemp+1+pclath+cstack]
  1947                           
  1948                           
  1949                           ;./lcd.h: 33:     init();
  1950  0565  120A  118A  2458  120A  118A  	fcall	_init
  1951  056A                     l1828:
  1952                           
  1953                           ;./lcd.h: 34:  PORTD = 0X1;
  1954  056A  3001               	movlw	1
  1955  056B  1283               	bcf	3,5	;RP0=0, select bank0
  1956  056C  1303               	bcf	3,6	;RP1=0, select bank0
  1957  056D  0088               	movwf	8	;volatile
  1958  056E                     l1830:
  1959                           
  1960                           ;./lcd.h: 35:  LCD_enable();
  1961  056E  120A  118A  2464  120A  118A  	fcall	_LCD_enable
  1962  0573                     l1832:
  1963                           
  1964                           ;./lcd.h: 36:  PORTD = 0X38;
  1965  0573  3038               	movlw	56
  1966  0574  1283               	bcf	3,5	;RP0=0, select bank0
  1967  0575  1303               	bcf	3,6	;RP1=0, select bank0
  1968  0576  0088               	movwf	8	;volatile
  1969  0577                     l1834:
  1970                           
  1971                           ;./lcd.h: 37:  LCD_enable();
  1972  0577  120A  118A  2464  120A  118A  	fcall	_LCD_enable
  1973  057C                     l1836:
  1974                           
  1975                           ;./lcd.h: 38:  PORTD = 0X0e;
  1976  057C  300E               	movlw	14
  1977  057D  1283               	bcf	3,5	;RP0=0, select bank0
  1978  057E  1303               	bcf	3,6	;RP1=0, select bank0
  1979  057F  0088               	movwf	8	;volatile
  1980  0580                     l1838:
  1981                           
  1982                           ;./lcd.h: 39:  LCD_enable();
  1983  0580  120A  118A  2464  120A  118A  	fcall	_LCD_enable
  1984  0585                     l1840:
  1985                           
  1986                           ;./lcd.h: 40:  PORTD = 0X06;
  1987  0585  3006               	movlw	6
  1988  0586  1283               	bcf	3,5	;RP0=0, select bank0
  1989  0587  1303               	bcf	3,6	;RP1=0, select bank0
  1990  0588  0088               	movwf	8	;volatile
  1991  0589                     l1842:
  1992                           
  1993                           ;./lcd.h: 41:  LCD_enable();
  1994  0589  120A  118A  2464  120A  118A  	fcall	_LCD_enable
  1995  058E                     l1844:
  1996                           
  1997                           ;./lcd.h: 42:  PORTD = 0X80;
  1998  058E  3080               	movlw	128
  1999  058F  1283               	bcf	3,5	;RP0=0, select bank0
  2000  0590  1303               	bcf	3,6	;RP1=0, select bank0
  2001  0591  0088               	movwf	8	;volatile
  2002  0592                     l1846:
  2003                           
  2004                           ;./lcd.h: 43:  LCD_enable();
  2005  0592  120A  118A  2464  120A  118A  	fcall	_LCD_enable
  2006  0597                     l68:
  2007  0597  0008               	return
  2008  0598                     __end_of_LCD_init:
  2009                           
  2010                           	psect	text10
  2011  0458                     __ptext10:	
  2012 ;; *************** function _init *****************
  2013 ;; Defined at:
  2014 ;;		line 23 in file "./lcd.h"
  2015 ;; Parameters:    Size  Location     Type
  2016 ;;		None
  2017 ;; Auto vars:     Size  Location     Type
  2018 ;;		None
  2019 ;; Return value:  Size  Location     Type
  2020 ;;                  1    wreg      void 
  2021 ;; Registers used:
  2022 ;;		wreg, status,2
  2023 ;; Tracked objects:
  2024 ;;		On entry : 0/0
  2025 ;;		On exit  : 0/0
  2026 ;;		Unchanged: 0/0
  2027 ;; Data sizes:     COMMON   BANK0   BANK1   BANK3   BANK2
  2028 ;;      Params:         0       0       0       0       0
  2029 ;;      Locals:         0       0       0       0       0
  2030 ;;      Temps:          0       0       0       0       0
  2031 ;;      Totals:         0       0       0       0       0
  2032 ;;Total ram usage:        0 bytes
  2033 ;; Hardware stack levels used: 1
  2034 ;; This function calls:
  2035 ;;		Nothing
  2036 ;; This function is called by:
  2037 ;;		_LCD_init
  2038 ;; This function uses a non-reentrant model
  2039 ;;
  2040                           
  2041                           
  2042                           ;psect for function _init
  2043  0458                     _init:
  2044  0458                     l1768:	
  2045                           ;incstack = 0
  2046                           ; Regs used in _init: [wreg+status,2]
  2047                           
  2048                           
  2049                           ;./lcd.h: 25:  ADCON1 = 0X07;
  2050  0458  3007               	movlw	7
  2051  0459  1683               	bsf	3,5	;RP0=1, select bank1
  2052  045A  1303               	bcf	3,6	;RP1=0, select bank1
  2053  045B  009F               	movwf	31	;volatile
  2054  045C                     l1770:
  2055                           
  2056                           ;./lcd.h: 26:      RA1=1;
  2057  045C  1283               	bcf	3,5	;RP0=0, select bank0
  2058  045D  1303               	bcf	3,6	;RP1=0, select bank0
  2059  045E  1485               	bsf	5,1	;volatile
  2060  045F                     l1772:
  2061                           
  2062                           ;./lcd.h: 27:  TRISA = 0X00;
  2063  045F  1683               	bsf	3,5	;RP0=1, select bank1
  2064  0460  1303               	bcf	3,6	;RP1=0, select bank1
  2065  0461  0185               	clrf	5	;volatile
  2066  0462                     l1774:
  2067                           
  2068                           ;./lcd.h: 28:  TRISD = 0X00;
  2069  0462  0188               	clrf	8	;volatile
  2070  0463                     l65:
  2071  0463  0008               	return
  2072  0464                     __end_of_init:
  2073                           
  2074                           	psect	text11
  2075  0464                     __ptext11:	
  2076 ;; *************** function _LCD_enable *****************
  2077 ;; Defined at:
  2078 ;;		line 85 in file "./lcd.h"
  2079 ;; Parameters:    Size  Location     Type
  2080 ;;		None
  2081 ;; Auto vars:     Size  Location     Type
  2082 ;;		None
  2083 ;; Return value:  Size  Location     Type
  2084 ;;                  1    wreg      void 
  2085 ;; Registers used:
  2086 ;;		wreg, status,2, status,0, btemp+1, pclath, cstack
  2087 ;; Tracked objects:
  2088 ;;		On entry : 0/0
  2089 ;;		On exit  : 0/0
  2090 ;;		Unchanged: 0/0
  2091 ;; Data sizes:     COMMON   BANK0   BANK1   BANK3   BANK2
  2092 ;;      Params:         0       0       0       0       0
  2093 ;;      Locals:         0       0       0       0       0
  2094 ;;      Temps:          0       0       0       0       0
  2095 ;;      Totals:         0       0       0       0       0
  2096 ;;Total ram usage:        0 bytes
  2097 ;; Hardware stack levels used: 1
  2098 ;; Hardware stack levels required when called: 1
  2099 ;; This function calls:
  2100 ;;		_delay
  2101 ;; This function is called by:
  2102 ;;		_LCD_init
  2103 ;; This function uses a non-reentrant model
  2104 ;;
  2105                           
  2106                           
  2107                           ;psect for function _LCD_enable
  2108  0464                     _LCD_enable:
  2109  0464                     l1776:	
  2110                           ;incstack = 0
  2111                           ; Regs used in _LCD_enable: [wreg+status,2+status,0+btemp+1+pclath+cstack]
  2112                           
  2113                           
  2114                           ;./lcd.h: 87:  RA5 = 0;
  2115  0464  1283               	bcf	3,5	;RP0=0, select bank0
  2116  0465  1303               	bcf	3,6	;RP1=0, select bank0
  2117  0466  1285               	bcf	5,5	;volatile
  2118                           
  2119                           ;./lcd.h: 88:  RA4 = 0;
  2120  0467  1205               	bcf	5,4	;volatile
  2121                           
  2122                           ;./lcd.h: 89:  RA3 = 0;
  2123  0468  1185               	bcf	5,3	;volatile
  2124  0469                     l1778:
  2125                           
  2126                           ;./lcd.h: 90:  delay();
  2127  0469  120A  118A  24C6  120A  118A  	fcall	_delay
  2128  046E                     l1780:
  2129                           
  2130                           ;./lcd.h: 91:  RA3 = 1;
  2131  046E  1283               	bcf	3,5	;RP0=0, select bank0
  2132  046F  1303               	bcf	3,6	;RP1=0, select bank0
  2133  0470  1585               	bsf	5,3	;volatile
  2134  0471                     l83:
  2135  0471  0008               	return
  2136  0472                     __end_of_LCD_enable:
  2137                           
  2138                           	psect	text12
  2139  04C6                     __ptext12:	
  2140 ;; *************** function _delay *****************
  2141 ;; Defined at:
  2142 ;;		line 94 in file "./lcd.h"
  2143 ;; Parameters:    Size  Location     Type
  2144 ;;		None
  2145 ;; Auto vars:     Size  Location     Type
  2146 ;;  i               2    0[COMMON] int 
  2147 ;; Return value:  Size  Location     Type
  2148 ;;                  1    wreg      void 
  2149 ;; Registers used:
  2150 ;;		wreg, status,2, btemp+1
  2151 ;; Tracked objects:
  2152 ;;		On entry : 0/0
  2153 ;;		On exit  : 0/0
  2154 ;;		Unchanged: 0/0
  2155 ;; Data sizes:     COMMON   BANK0   BANK1   BANK3   BANK2
  2156 ;;      Params:         0       0       0       0       0
  2157 ;;      Locals:         2       0       0       0       0
  2158 ;;      Temps:          0       0       0       0       0
  2159 ;;      Totals:         2       0       0       0       0
  2160 ;;Total ram usage:        2 bytes
  2161 ;; Hardware stack levels used: 1
  2162 ;; This function calls:
  2163 ;;		Nothing
  2164 ;; This function is called by:
  2165 ;;		_LCD_escreve
  2166 ;;		_LCD_limpa
  2167 ;;		_LCD_linha1
  2168 ;;		_LCD_linha2
  2169 ;;		_LCD_enable
  2170 ;; This function uses a non-reentrant model
  2171 ;;
  2172                           
  2173                           
  2174                           ;psect for function _delay
  2175  04C6                     _delay:
  2176  04C6                     l1662:	
  2177                           ;incstack = 0
  2178                           ; Regs used in _delay: [wreg+status,2+btemp+1]
  2179                           
  2180                           
  2181                           ;./lcd.h: 96:  int i;;./lcd.h: 97:  for (i = 0;i < 5000;i++);
  2182  04C6  01F0               	clrf	delay@i
  2183  04C7  01F1               	clrf	delay@i+1
  2184  04C8                     l1668:
  2185  04C8  3001               	movlw	1
  2186  04C9  07F0               	addwf	delay@i,f
  2187  04CA  1803               	skipnc
  2188  04CB  0AF1               	incf	delay@i+1,f
  2189  04CC  3000               	movlw	0
  2190  04CD  07F1               	addwf	delay@i+1,f
  2191  04CE                     l1670:
  2192  04CE  0871               	movf	delay@i+1,w
  2193  04CF  3A80               	xorlw	128
  2194  04D0  00FF               	movwf	btemp+1
  2195  04D1  3093               	movlw	147
  2196  04D2  027F               	subwf	btemp+1,w
  2197  04D3  1D03               	skipz
  2198  04D4  2CD7               	goto	u735
  2199  04D5  3088               	movlw	136
  2200  04D6  0270               	subwf	delay@i,w
  2201  04D7                     u735:
  2202  04D7  1C03               	skipc
  2203  04D8  2CDA               	goto	u731
  2204  04D9  2CDB               	goto	u730
  2205  04DA                     u731:
  2206  04DA  2CC8               	goto	l1668
  2207  04DB                     u730:
  2208  04DB                     l88:
  2209  04DB  0008               	return
  2210  04DC                     __end_of_delay:
  2211  007E                     btemp	set	126	;btemp
  2212  007E                     wtemp0	set	126

Data Sizes:
    Strings     0
    Constant    0
    Data        261
    BSS         10
    Persistent  0
    Stack       0

Auto Spaces:
    Space          Size  Autos    Used
    COMMON           14     13      13
    BANK0            80     12      79
    BANK1            80      2      72
    BANK3            96      0      85
    BANK2            96      0      49

Pointer List with Targets:

    escreveMesagem@texto	PTR unsigned char  size(2) Largest target is 17
		 -> msgReativar(BANK0[9]), msgDesativarZona(BANK3[15]), msgSenhaDisparo(BANK3[14]), msgSenhaCoacao(BANK1[13]), 
		 -> msgSenhaUsuario(BANK1[14]), msgSenhaConfig(BANK1[13]), msgSenhaCorreta(BANK3[14]), msgSenhaErrada(BANK3[13]), 
		 -> senhaCoa(BANK0[5]), senhaUser(BANK0[5]), senhaConfig(BANK0[5]), msgDigiteNovaSenha(BANK3[14]), 
		 -> msgSenhaCancelada(BANK2[16]), msgSenhaAtualizada(BANK2[17]), msgAceitoOuNego(BANK0[9]), msgValidaSenha(BANK2[16]), 
		 -> msgZonaDisparadas(BANK1[15]), msgConfigDispara(BANK1[15]), 

    aux	PTR unsigned char  size(2) Largest target is 512
		 -> RAM(DATA[512]), RAM(DATA[512]), RAM(DATA[512]), RAM(DATA[512]), 
		 -> RAM(DATA[512]), RAM(DATA[512]), RAM(DATA[512]), RAM(DATA[512]), 
		 -> RAM(DATA[512]), RAM(DATA[512]), RAM(DATA[512]), RAM(DATA[512]), 
		 -> RAM(DATA[512]), NULL(NULL[0]), 

    setaZona@pos	PTR unsigned char  size(2) Largest target is 512
		 -> RAM(DATA[512]), 

    setaZona@msgConfigDispara	PTR unsigned char  size(1) Largest target is 15
		 -> msgConfigDispara(BANK1[15]), 

    setaZona@msgZonaDisparadas	PTR unsigned char  size(1) Largest target is 15
		 -> msgZonaDisparadas(BANK1[15]), 


Critical Paths under _main in COMMON

    _configZonas->_infoZonas
    _setaZona->_infoZonas
    _infoZonas->_escreveMesagem
    _escreveMesagem->_LCD_escreve
    _LCD_escreve->_delay
    _LCD_linha2->_delay
    _LCD_linha1->_delay
    _LCD_limpa->_delay
    _LCD_enable->_delay

Critical Paths under _main in BANK0

    _main->_configZonas
    _configZonas->_setaZona

Critical Paths under _main in BANK1

    None.

Critical Paths under _main in BANK3

    None.

Critical Paths under _main in BANK2

    None.

Call Graph Tables:

 ---------------------------------------------------------------------------------
 (Depth) Function   	        Calls       Base Space   Used Autos Params    Refs
 ---------------------------------------------------------------------------------
 (0) _main                                                 2     2      0    4063
                                              0 BANK1      2     2      0
                           _LCD_init
                        _configZonas
 ---------------------------------------------------------------------------------
 (1) _configZonas                                          4     4      0    4017
                                              9 BANK0      3     3      0
                          _infoZonas
                           _setaZona
 ---------------------------------------------------------------------------------
 (2) _setaZona                                             9     6      3    2622
                                              0 BANK0      9     6      3
                          _infoZonas
 ---------------------------------------------------------------------------------
 (3) _infoZonas                                            3     3      0    1256
                                             10 COMMON     3     3      0
                          _LCD_limpa
                         _LCD_linha1
                         _LCD_linha2
                     _escreveMesagem
 ---------------------------------------------------------------------------------
 (4) _escreveMesagem                                       7     5      2    1118
                                              3 COMMON     7     5      2
                        _LCD_escreve
 ---------------------------------------------------------------------------------
 (5) _LCD_escreve                                          1     1      0      68
                                              2 COMMON     1     1      0
                              _delay
 ---------------------------------------------------------------------------------
 (4) _LCD_linha2                                           0     0      0      46
                              _delay
 ---------------------------------------------------------------------------------
 (4) _LCD_linha1                                           0     0      0      46
                              _delay
 ---------------------------------------------------------------------------------
 (4) _LCD_limpa                                            0     0      0      46
                              _delay
 ---------------------------------------------------------------------------------
 (1) _LCD_init                                             0     0      0      46
                         _LCD_enable
                               _init
 ---------------------------------------------------------------------------------
 (2) _init                                                 0     0      0       0
 ---------------------------------------------------------------------------------
 (2) _LCD_enable                                           0     0      0      46
                              _delay
 ---------------------------------------------------------------------------------
 (6) _delay                                                2     2      0      46
                                              0 COMMON     2     2      0
 ---------------------------------------------------------------------------------
 Estimated maximum stack depth 6
 ---------------------------------------------------------------------------------

 Call Graph Graphs:

 _main (ROOT)
   _LCD_init
     _LCD_enable
       _delay
     _init
   _configZonas
     _infoZonas
       _LCD_limpa
         _delay
       _LCD_linha1
         _delay
       _LCD_linha2
         _delay
       _escreveMesagem
         _LCD_escreve
           _delay
     _setaZona
       _infoZonas

 Address spaces:
Name               Size   Autos  Total    Cost      Usage
BANK3               60      0      55       9       88.5%
BITBANK3            60      0       0       8        0.0%
SFR3                 0      0       0       4        0.0%
BITSFR3              0      0       0       4        0.0%
BANK2               60      0      31      11       51.0%
BITBANK2            60      0       0      10        0.0%
SFR2                 0      0       0       5        0.0%
BITSFR2              0      0       0       5        0.0%
BANK1               50      2      48       7       90.0%
BITBANK1            50      0       0       6        0.0%
SFR1                 0      0       0       2        0.0%
BITSFR1              0      0       0       2        0.0%
BANK0               50      C      4F       5       98.8%
BITBANK0            50      0       0       4        0.0%
SFR0                 0      0       0       1        0.0%
BITSFR0              0      0       0       1        0.0%
COMMON               E      D       D       1       92.9%
BITCOMMON            E      0       0       0        0.0%
CODE                 0      0       0       0        0.0%
DATA                 0      0     12A      12        0.0%
ABS                  0      0     12A       3        0.0%
NULL                 0      0       0       0        0.0%
STACK                0      0       0       2        0.0%
EEDATA             100      0       0       0        0.0%


Microchip Technology PIC Macro Assembler V2.32 build 20210201212658 
Symbol Table                                                                                   Mon Oct 04 02:39:14 2021

       _msgDigiteNovaSenha 01AE                          pc 0002                         l71 04B2  
                       l80 04A1                         l65 0463                         l74 0481  
                       l83 0471                         l68 0597                         l77 0491  
                       l88 04DB                         fsr 0004            escreveMesagem@i 0078  
              ?_LCD_enable 0070                        l171 0708                        l180 0533  
                      l190 07BB                        l329 05CE                        l177 071A  
                      _RA1 0029                        _RB0 0030                        _RA3 002B  
                      _RB1 0031                        _RA4 002C                        _RB2 0032  
                      _RA5 002D                        _RB3 0033                        u730 04DB  
                      u731 04DA                        u735 04D7                ?_LCD_linha1 0070  
              ?_LCD_linha2 0070                        _aux 006B                        fsr0 0004  
                      indf 0000    __size_of_escreveMesagem 0037                       l1700 0487  
                     l1702 0488                       l1710 0496                       l1704 0489  
                     l1712 0497                       l1706 048E                       l1714 0498  
                     l1716 0499                       l1708 0492                       l1670 04CE  
                     l1662 04C6                       l1830 056E                       l1718 049E  
                     l1840 0585                       l1832 0573                       l1680 04AA  
                     l1672 04A3                       l1770 045C                       l1842 0589  
                     l1834 0577                       l1826 0565                       l1690 0478  
                     l1682 04AF                       l1674 04A7                       l1668 04C8  
                     l1780 046E                       l1772 045F                       l1844 058E  
                     l1836 057C                       l1828 056A                       l1692 0479  
                     l1684 0472                       l1676 04A8                       l1774 0462  
                     l1846 0592                       l1838 0580                       l1694 047E  
                     l1686 0476                       l1678 04A9                       l2830 06D0  
                     l2822 06A6                       l1776 0464                       l1768 0458  
                     l1688 0477                       l1696 0482                       l2840 0713  
                     l2832 06DB                       l2824 06A9                       l2920 04E2  
                     l1778 0469                       l1698 0486                       l2842 0715  
                     l2834 06ED                       l2826 06B4                       l2922 04E6  
                     l2780 05B8                       l2836 06F6                       l2828 06C6  
                     l2924 04EB                       l2916 04DC                       l2774 0598  
                     l2782 0505                       l2838 0700                       l2870 0724  
                     l2926 04F6                       l2918 04E0                       l2776 059B  
                     l2784 050F                       l2880 0753                       l2872 0725  
                     l2928 04FB                       l2778 05B2                       l2786 0518  
                     l2890 0783                       l2882 0759                       l2874 0733  
                     l2866 071B                       l2788 0526                       l2892 0793  
                     l2884 0763                       l2876 0739                       l2868 0720  
                     l2894 0799                       l2886 0773                       l2878 0743  
                     l2896 07A3                       l2888 0779                       l2898 07B3  
                     u2510 06B4                       u2511 06B3                       u2520 06C6  
                     u2600 0779                       u2521 06C5                       u2601 0778  
                     u2450 05A5                       u2530 06DB                       u2610 0799  
                     u2531 06DA                       u2611 0798                       u2460 05C2  
                     u2540 06ED                       u2620 07BB                       u2541 06EC  
                     u2525 06C2                       u2621 07BA                       u2470 05CE  
                     u2550 0713                       u2471 05CD                       u2551 0712  
                     u2545 06E9                       u2580 0739                       u2581 0738  
                     u2590 0759                       u2591 0758                       u2907 073F  
                     u2917 075F                       u2927 077F                       u2937 079F  
                     u2947 06FC                       u2957 052C                       u2887 04F1  
                     u2897 072D               ?_LCD_escreve 0070                       _main 04DC  
                     _init 0458                       _menu 0024                       btemp 007E  
         _senhaUserConfere 004F                       start 0000         __size_of_LCD_limpa 0010  
         __end_of_LCD_init 0598                      ?_main 0070                      ?_init 0070  
                    _PORTB 0006                      _PORTD 0008                      _PORTE 0009  
                    _TRISA 0085                      _TRISB 0086                      _TRISD 0088  
                    _TRISE 0089                      _delay 04C6                      _input 002A  
                    pclath 000A                      status 0003                      wtemp0 007E  
      __size_of_LCD_enable 000E        __size_of_LCD_linha1 0010        __size_of_LCD_linha2 0010  
          __initialization 07BC               __end_of_main 0505               __end_of_init 0464  
                   ??_main 00E6                     ??_init 0070            _msgAceitoOuNego 002E  
        __end_of_LCD_limpa 0482                     ?_delay 0070                     _ADCON0 001F  
                   _ADCON1 009F                     _ADRESH 001E                     _ADRESL 009E  
     __size_of_configZonas 00A1          _msgSenhaCancelada 0131                     _painel 0028  
                   delay@i 0070           __end_of_setaZona 071B             _escreveMesagem 0598  
  __end_of__initialization 07FC                  ?_LCD_init 0070       __size_of_LCD_escreve 0011  
             LCD_escreve@x 0072             __pcstackCOMMON 0070               __pidataBANK0 05CF  
             __pidataBANK1 0608               __pidataBANK2 0534               __pidataBANK3 064E  
            __end_of_delay 04DC               ??_LCD_enable 0072               ??_LCD_linha1 0072  
             ??_LCD_linha2 0072     __end_of_escreveMesagem 05CF  setaZona@msgZonaDisparadas 005F  
                  ??_delay 0070                 __pbssBANK0 0065         __size_of_infoZonas 002F  
      escreveMesagem@texto 0073                 ??_LCD_init 0072         __end_of_LCD_enable 0472  
       __end_of_LCD_linha1 0492         __end_of_LCD_linha2 04A2                 __pmaintext 04DC  
          ?_escreveMesagem 0073                  ?_setaZona 0059                setaZona@pos 005A  
                  __ptext1 071B                    __ptext2 06A3                    __ptext3 0505  
                  __ptext4 0598                    __ptext5 04A2                    __ptext6 0492  
                  __ptext7 0482                    __ptext8 0472                    __ptext9 0565  
        __end_of_infoZonas 0534                 _msgMascara 0040       end_of_initialization 07FC  
                _LCD_limpa 0472                 ??_setaZona 005C         _msgSenhaAtualizada 0110  
               ?_LCD_limpa 0070              ??_configZonas 0062          __size_of_LCD_init 0033  
               _zonaConfig 002C        start_initialization 07BC             _valorSensorAux 0065  
            ??_LCD_escreve 0072                 init_fetch0 04B3                __pdataBANK0 0020  
              __pdataBANK1 00A0                __pdataBANK2 0110                __pdataBANK3 0190  
         ??_escreveMesagem 0075        __end_of_configZonas 07BC                  ___latbits 0002  
            __pcstackBANK0 0059              __pcstackBANK1 00E6                ??_LCD_limpa 0072  
      __end_of_LCD_escreve 04B3          __size_of_setaZona 0078          _msgZonaDisparadas 00A0  
           _msgDigiteSenha 0190                  _auxSensor 0020                _alteraSenha 0022  
                _infoZonas 0505             __size_of_delay 0016                   _LCD_init 0565  
                _senhaUser 0054                _configZonas 071B                   _GO_nDONE 00FA  
                _userFalse 0026                 ?_infoZonas 0070                _LCD_escreve 04A2  
         _msgDesativarZona 019F            _msgSenhaDisparo 01BC            _msgSenhaCorreta 01CA  
          _msgSenhaUsuario 00BE                   __ptext10 0458                   __ptext11 0464  
                 __ptext12 04C6                   _opConfig 0069                  setaZona@i 0060  
            __size_of_main 0029              __size_of_init 000C                _msgReativar 0037  
                 _senhaCoa 004A                   _setaZona 06A3                 _LCD_enable 0464  
               _LCD_linha1 0482                 _LCD_linha2 0492                _senhaConfig 0045  
              ??_infoZonas 007A                   init_ram0 04B7             _msgSenhaCoacao 00CC  
           _msgSenhaConfig 00D9             _msgSenhaErrada 01D8                _validaSenha 006D  
         _msgConfigDispara 00AF             _msgValidaSenha 0121   setaZona@msgConfigDispara 0059  
              _valorSensor 0067               ?_configZonas 0070  
