

Microchip MPLAB XC8 Assembler V2.32 build 20210201212658 
                                                                                               Mon Oct 04 16:02:50 2021

Microchip MPLAB XC8 C Compiler v2.32 (Free license) build 20210201212658 Og1 
     1                           	processor	16F877A
     2                           	pagewidth 120
     3                           	opt	flic
     4                           	psect	idataBANK0,global,class=CODE,delta=2,noexec
     5                           	psect	idataBANK1,global,class=CODE,delta=2,noexec
     6                           	psect	idataBANK2,global,class=CODE,delta=2,noexec
     7                           	psect	idataBANK3,global,class=CODE,delta=2,noexec
     8                           	psect	cinit,global,class=CODE,merge=1,delta=2
     9                           	psect	bssBANK0,global,class=BANK0,space=1,delta=1,noexec
    10                           	psect	dataBANK0,global,class=BANK0,space=1,delta=1,noexec
    11                           	psect	dataBANK1,global,class=BANK1,space=1,delta=1,noexec
    12                           	psect	dataBANK3,global,class=BANK3,space=1,delta=1,noexec
    13                           	psect	dataBANK2,global,class=BANK2,space=1,delta=1,noexec
    14                           	psect	inittext,global,class=CODE,delta=2
    15                           	psect	clrtext,global,class=CODE,delta=2
    16                           	psect	cstackCOMMON,global,class=COMMON,space=1,delta=1,noexec
    17                           	psect	cstackBANK0,global,class=BANK0,space=1,delta=1,noexec
    18                           	psect	maintext,global,class=CODE,split=1,delta=2
    19                           	psect	text1,local,class=CODE,merge=1,delta=2
    20                           	psect	text2,local,class=CODE,merge=1,delta=2
    21                           	psect	text3,local,class=CODE,merge=1,delta=2,group=2
    22                           	psect	text4,local,class=CODE,merge=1,delta=2
    23                           	psect	text5,local,class=CODE,merge=1,delta=2
    24                           	psect	text6,local,class=CODE,merge=1,delta=2
    25                           	psect	text7,local,class=CODE,merge=1,delta=2
    26                           	psect	text8,local,class=CODE,merge=1,delta=2
    27                           	psect	text9,local,class=CODE,merge=1,delta=2
    28                           	psect	text10,local,class=CODE,merge=1,delta=2
    29                           	psect	text11,local,class=CODE,merge=1,delta=2
    30                           	psect	text12,local,class=CODE,merge=1,delta=2
    31                           	psect	text13,local,class=CODE,merge=1,delta=2
    32                           	psect	text14,local,class=CODE,merge=1,delta=2
    33                           	psect	text15,local,class=CODE,merge=1,delta=2
    34                           	psect	text16,local,class=CODE,merge=1,delta=2
    35                           	psect	text17,local,class=CODE,merge=1,delta=2
    36                           	psect	text18,local,class=CODE,merge=1,delta=2
    37                           	psect	text19,local,class=CODE,merge=1,delta=2,group=1
    38                           	psect	text20,local,class=CODE,merge=1,delta=2,group=1
    39                           	psect	text21,local,class=CODE,merge=1,delta=2,group=1
    40                           	psect	text22,local,class=CODE,merge=1,delta=2,group=1
    41                           	psect	text23,local,class=CODE,merge=1,delta=2,group=1
    42                           	psect	text24,local,class=CODE,merge=1,delta=2
    43                           	psect	text25,local,class=CODE,merge=1,delta=2
    44                           	psect	text26,local,class=CODE,merge=1,delta=2,group=2
    45                           	psect	text27,local,class=CODE,merge=1,delta=2
    46                           	psect	text28,local,class=CODE,merge=1,delta=2
    47                           	psect	text29,local,class=CODE,merge=1,delta=2
    48                           	psect	text30,local,class=CODE,merge=1,delta=2
    49                           	psect	text31,local,class=CODE,merge=1,delta=2
    50                           	psect	text32,local,class=CODE,merge=1,delta=2
    51                           	psect	text33,local,class=CODE,merge=1,delta=2
    52                           	dabs	1,0x7E,2
    53  0000                     
    54                           ; Version 2.20
    55                           ; Generated 12/02/2020 GMT
    56                           ; 
    57                           ; Copyright © 2020, Microchip Technology Inc. and its subsidiaries ("Microchip")
    58                           ; All rights reserved.
    59                           ; 
    60                           ; This software is developed by Microchip Technology Inc. and its subsidiaries ("Microch
      +                          ip").
    61                           ; 
    62                           ; Redistribution and use in source and binary forms, with or without modification, are
    63                           ; permitted provided that the following conditions are met:
    64                           ; 
    65                           ;     1. Redistributions of source code must retain the above copyright notice, this lis
      +                          t of
    66                           ;        conditions and the following disclaimer.
    67                           ; 
    68                           ;     2. Redistributions in binary form must reproduce the above copyright notice, this 
      +                          list
    69                           ;        of conditions and the following disclaimer in the documentation and/or other
    70                           ;        materials provided with the distribution.
    71                           ; 
    72                           ;     3. Microchip's name may not be used to endorse or promote products derived from th
      +                          is
    73                           ;        software without specific prior written permission.
    74                           ; 
    75                           ; THIS SOFTWARE IS PROVIDED BY MICROCHIP "AS IS" AND ANY EXPRESS OR IMPLIED WARRANTIES,
    76                           ; INCLUDING, BUT NOT LIMITED TO, THE IMPLIED WARRANTIES OF MERCHANTABILITY AND FITNESS F
      +                          OR
    77                           ; PURPOSE ARE DISCLAIMED.  IN NO EVENT SHALL MICROCHIP BE LIABLE FOR ANY DIRECT, INDIREC
      +                          T,
    78                           ; INCIDENTAL, SPECIAL, EXEMPLARY, OR CONSEQUENTIAL DAMAGES (INCLUDING BUT NOT LIMITED TO
    79                           ; PROCUREMENT OF SUBSTITUTE GOODS OR SERVICES; LOSS OF USE, DATA OR PROFITS; OR BUSINESS
    80                           ; INTERRUPTION) HOWSOEVER CAUSED AND ON ANY THEORY OF LIABILITY, WHETHER IN CONTRACT, ST
      +                          RICT
    81                           ; LIABILITY, OR TORT (INCLUDING NEGLIGENCE OR OTHERWISE) ARISING IN ANY WAY OUT OF THE U
      +                          SE OF
    82                           ; THIS SOFTWARE, EVEN IF ADVISED OF THE POSSIBILITY OF SUCH DAMAGE.
    83                           ; 
    84                           ; 
    85                           ; Code-generator required, PIC16F877A Definitions
    86                           ; 
    87                           ; SFR Addresses
    88  0000                     	;# 
    89  0001                     	;# 
    90  0002                     	;# 
    91  0003                     	;# 
    92  0004                     	;# 
    93  0005                     	;# 
    94  0006                     	;# 
    95  0007                     	;# 
    96  0008                     	;# 
    97  0009                     	;# 
    98  000A                     	;# 
    99  000B                     	;# 
   100  000C                     	;# 
   101  000D                     	;# 
   102  000E                     	;# 
   103  000E                     	;# 
   104  000F                     	;# 
   105  0010                     	;# 
   106  0011                     	;# 
   107  0012                     	;# 
   108  0013                     	;# 
   109  0014                     	;# 
   110  0015                     	;# 
   111  0015                     	;# 
   112  0016                     	;# 
   113  0017                     	;# 
   114  0018                     	;# 
   115  0019                     	;# 
   116  001A                     	;# 
   117  001B                     	;# 
   118  001B                     	;# 
   119  001C                     	;# 
   120  001D                     	;# 
   121  001E                     	;# 
   122  001F                     	;# 
   123  0081                     	;# 
   124  0085                     	;# 
   125  0086                     	;# 
   126  0087                     	;# 
   127  0088                     	;# 
   128  0089                     	;# 
   129  008C                     	;# 
   130  008D                     	;# 
   131  008E                     	;# 
   132  0091                     	;# 
   133  0092                     	;# 
   134  0093                     	;# 
   135  0094                     	;# 
   136  0098                     	;# 
   137  0099                     	;# 
   138  009C                     	;# 
   139  009D                     	;# 
   140  009E                     	;# 
   141  009F                     	;# 
   142  010C                     	;# 
   143  010D                     	;# 
   144  010E                     	;# 
   145  010F                     	;# 
   146  018C                     	;# 
   147  018D                     	;# 
   148  0000                     	;# 
   149  0001                     	;# 
   150  0002                     	;# 
   151  0003                     	;# 
   152  0004                     	;# 
   153  0005                     	;# 
   154  0006                     	;# 
   155  0007                     	;# 
   156  0008                     	;# 
   157  0009                     	;# 
   158  000A                     	;# 
   159  000B                     	;# 
   160  000C                     	;# 
   161  000D                     	;# 
   162  000E                     	;# 
   163  000E                     	;# 
   164  000F                     	;# 
   165  0010                     	;# 
   166  0011                     	;# 
   167  0012                     	;# 
   168  0013                     	;# 
   169  0014                     	;# 
   170  0015                     	;# 
   171  0015                     	;# 
   172  0016                     	;# 
   173  0017                     	;# 
   174  0018                     	;# 
   175  0019                     	;# 
   176  001A                     	;# 
   177  001B                     	;# 
   178  001B                     	;# 
   179  001C                     	;# 
   180  001D                     	;# 
   181  001E                     	;# 
   182  001F                     	;# 
   183  0081                     	;# 
   184  0085                     	;# 
   185  0086                     	;# 
   186  0087                     	;# 
   187  0088                     	;# 
   188  0089                     	;# 
   189  008C                     	;# 
   190  008D                     	;# 
   191  008E                     	;# 
   192  0091                     	;# 
   193  0092                     	;# 
   194  0093                     	;# 
   195  0094                     	;# 
   196  0098                     	;# 
   197  0099                     	;# 
   198  009C                     	;# 
   199  009D                     	;# 
   200  009E                     	;# 
   201  009F                     	;# 
   202  010C                     	;# 
   203  010D                     	;# 
   204  010E                     	;# 
   205  010F                     	;# 
   206  018C                     	;# 
   207  018D                     	;# 
   208                           
   209                           	psect	idataBANK0
   210  1193                     __pidataBANK0:
   211                           
   212                           ;initializer for _auxSensor
   213  1193  34AA               	retlw	170
   214  1194  3400               	retlw	0
   215                           
   216                           ;initializer for _menu
   217  1195  3401               	retlw	1
   218  1196  3400               	retlw	0
   219                           
   220                           ;initializer for _userFalse
   221  1197  3401               	retlw	1
   222  1198  3400               	retlw	0
   223                           
   224                           ;initializer for _paizonaConfignel
   225  1199  3401               	retlw	1
   226  119A  3400               	retlw	0
   227                           
   228                           ;initializer for _input
   229  119B  340A               	retlw	10
   230  119C  3400               	retlw	0
   231                           
   232                           	psect	idataBANK1
   233  141B                     __pidataBANK1:
   234                           
   235                           ;initializer for _msgZonaDisparadas
   236  141B  3420               	retlw	32
   237  141C  3420               	retlw	32
   238  141D  3420               	retlw	32
   239  141E  3420               	retlw	32
   240  141F  3420               	retlw	32
   241  1420  3420               	retlw	32
   242  1421  3420               	retlw	32
   243  1422  3431               	retlw	49
   244  1423  3420               	retlw	32
   245  1424  3431               	retlw	49
   246  1425  3420               	retlw	32
   247  1426  3431               	retlw	49
   248  1427  3420               	retlw	32
   249  1428  3431               	retlw	49
   250  1429  3400               	retlw	0
   251                           
   252                           ;initializer for _msgConfigDispara
   253  142A  3420               	retlw	32
   254  142B  345A               	retlw	90
   255  142C  346F               	retlw	111
   256  142D  346E               	retlw	110
   257  142E  3461               	retlw	97
   258  142F  343A               	retlw	58
   259  1430  3420               	retlw	32
   260  1431  3431               	retlw	49
   261  1432  3420               	retlw	32
   262  1433  3432               	retlw	50
   263  1434  3420               	retlw	32
   264  1435  3433               	retlw	51
   265  1436  3420               	retlw	32
   266  1437  3434               	retlw	52
   267  1438  3400               	retlw	0
   268                           
   269                           ;initializer for _msgAceitoOuNego
   270  1439  3444               	retlw	68
   271  143A  3469               	retlw	105
   272  143B  3467               	retlw	103
   273  143C  3469               	retlw	105
   274  143D  3474               	retlw	116
   275  143E  3465               	retlw	101
   276  143F  343A               	retlw	58
   277  1440  3420               	retlw	32
   278  1441  3400               	retlw	0
   279                           
   280                           ;initializer for _msgReativar
   281  1442  3452               	retlw	82
   282  1443  3465               	retlw	101
   283  1444  3461               	retlw	97
   284  1445  3474               	retlw	116
   285  1446  3469               	retlw	105
   286  1447  3476               	retlw	118
   287  1448  3461               	retlw	97
   288  1449  3472               	retlw	114
   289  144A  3400               	retlw	0
   290                           
   291                           ;initializer for _msgMascara
   292  144B  345F               	retlw	95
   293  144C  345F               	retlw	95
   294  144D  345F               	retlw	95
   295  144E  345F               	retlw	95
   296  144F  3400               	retlw	0
   297                           
   298                           ;initializer for _senhaConfig
   299  1450  3430               	retlw	48
   300  1451  3430               	retlw	48
   301  1452  3430               	retlw	48
   302  1453  3430               	retlw	48
   303  1454  3400               	retlw	0
   304                           
   305                           ;initializer for _senhaCoa
   306  1455  3435               	retlw	53
   307  1456  3435               	retlw	53
   308  1457  3435               	retlw	53
   309  1458  3435               	retlw	53
   310  1459  3400               	retlw	0
   311                           
   312                           ;initializer for _senhaUserConfere
   313  145A  3430               	retlw	48
   314  145B  3430               	retlw	48
   315  145C  3430               	retlw	48
   316  145D  3430               	retlw	48
   317  145E  3400               	retlw	0
   318                           
   319                           ;initializer for _senhaUser
   320  145F  3431               	retlw	49
   321  1460  3432               	retlw	50
   322  1461  3431               	retlw	49
   323  1462  3432               	retlw	50
   324  1463  3400               	retlw	0
   325                           
   326                           	psect	idataBANK2
   327  14B7                     __pidataBANK2:
   328                           
   329                           ;initializer for _msgSenhaAtualizada
   330  14B7  3453               	retlw	83
   331  14B8  3465               	retlw	101
   332  14B9  346E               	retlw	110
   333  14BA  3468               	retlw	104
   334  14BB  3461               	retlw	97
   335  14BC  3420               	retlw	32
   336  14BD  3441               	retlw	65
   337  14BE  3474               	retlw	116
   338  14BF  3475               	retlw	117
   339  14C0  3461               	retlw	97
   340  14C1  346C               	retlw	108
   341  14C2  3469               	retlw	105
   342  14C3  347A               	retlw	122
   343  14C4  3461               	retlw	97
   344  14C5  3464               	retlw	100
   345  14C6  3461               	retlw	97
   346  14C7  3400               	retlw	0
   347                           
   348                           ;initializer for _msgValidaSenha
   349  14C8  344F               	retlw	79
   350  14C9  346B               	retlw	107
   351  14CA  343A               	retlw	58
   352  14CB  3446               	retlw	70
   353  14CC  3420               	retlw	32
   354  14CD  346F               	retlw	111
   355  14CE  3475               	retlw	117
   356  14CF  3420               	retlw	32
   357  14D0  344E               	retlw	78
   358  14D1  3465               	retlw	101
   359  14D2  3467               	retlw	103
   360  14D3  3461               	retlw	97
   361  14D4  3472               	retlw	114
   362  14D5  343A               	retlw	58
   363  14D6  3445               	retlw	69
   364  14D7  3400               	retlw	0
   365                           
   366                           ;initializer for _msgSenhaCancelada
   367  14D8  3453               	retlw	83
   368  14D9  3465               	retlw	101
   369  14DA  346E               	retlw	110
   370  14DB  3468               	retlw	104
   371  14DC  3461               	retlw	97
   372  14DD  3420               	retlw	32
   373  14DE  3463               	retlw	99
   374  14DF  3461               	retlw	97
   375  14E0  346E               	retlw	110
   376  14E1  3463               	retlw	99
   377  14E2  3465               	retlw	101
   378  14E3  346C               	retlw	108
   379  14E4  3461               	retlw	97
   380  14E5  3464               	retlw	100
   381  14E6  3461               	retlw	97
   382  14E7  3400               	retlw	0
   383                           
   384                           ;initializer for _msgDigiteSenha
   385  14E8  3444               	retlw	68
   386  14E9  3469               	retlw	105
   387  14EA  3467               	retlw	103
   388  14EB  3469               	retlw	105
   389  14EC  3474               	retlw	116
   390  14ED  3465               	retlw	101
   391  14EE  3420               	retlw	32
   392  14EF  3461               	retlw	97
   393  14F0  3420               	retlw	32
   394  14F1  3473               	retlw	115
   395  14F2  3465               	retlw	101
   396  14F3  346E               	retlw	110
   397  14F4  3468               	retlw	104
   398  14F5  3461               	retlw	97
   399  14F6  3400               	retlw	0
   400                           
   401                           ;initializer for _msgDigiteNovaSenha
   402  14F7  3420               	retlw	32
   403  14F8  3420               	retlw	32
   404  14F9  3420               	retlw	32
   405  14FA  344E               	retlw	78
   406  14FB  346F               	retlw	111
   407  14FC  3476               	retlw	118
   408  14FD  3461               	retlw	97
   409  14FE  3420               	retlw	32
   410  14FF  3473               	retlw	115
   411  1500  3465               	retlw	101
   412  1501  346E               	retlw	110
   413  1502  3468               	retlw	104
   414  1503  3461               	retlw	97
   415  1504  3400               	retlw	0
   416                           
   417                           ;initializer for _msgSenhaErrada
   418  1505  3453               	retlw	83
   419  1506  3465               	retlw	101
   420  1507  346E               	retlw	110
   421  1508  3468               	retlw	104
   422  1509  3461               	retlw	97
   423  150A  3420               	retlw	32
   424  150B  3465               	retlw	101
   425  150C  3472               	retlw	114
   426  150D  3472               	retlw	114
   427  150E  3461               	retlw	97
   428  150F  3464               	retlw	100
   429  1510  3461               	retlw	97
   430  1511  3400               	retlw	0
   431                           
   432                           	psect	idataBANK3
   433  156E                     __pidataBANK3:
   434                           
   435                           ;initializer for _msgDesativarZona
   436  156E  3444               	retlw	68
   437  156F  3465               	retlw	101
   438  1570  3473               	retlw	115
   439  1571  3461               	retlw	97
   440  1572  3474               	retlw	116
   441  1573  3469               	retlw	105
   442  1574  3476               	retlw	118
   443  1575  3461               	retlw	97
   444  1576  3472               	retlw	114
   445  1577  3420               	retlw	32
   446  1578  345A               	retlw	90
   447  1579  346F               	retlw	111
   448  157A  346E               	retlw	110
   449  157B  3461               	retlw	97
   450  157C  3400               	retlw	0
   451                           
   452                           ;initializer for _msgSenhaDisparo
   453  157D  3443               	retlw	67
   454  157E  346F               	retlw	111
   455  157F  346E               	retlw	110
   456  1580  3466               	retlw	102
   457  1581  3469               	retlw	105
   458  1582  3467               	retlw	103
   459  1583  3420               	retlw	32
   460  1584  3444               	retlw	68
   461  1585  3469               	retlw	105
   462  1586  3473               	retlw	115
   463  1587  3470               	retlw	112
   464  1588  3461               	retlw	97
   465  1589  3472               	retlw	114
   466  158A  346F               	retlw	111
   467  158B  3400               	retlw	0
   468                           
   469                           ;initializer for _msgSenhaUsuario
   470  158C  3453               	retlw	83
   471  158D  3465               	retlw	101
   472  158E  346E               	retlw	110
   473  158F  3468               	retlw	104
   474  1590  3461               	retlw	97
   475  1591  3420               	retlw	32
   476  1592  3455               	retlw	85
   477  1593  3473               	retlw	115
   478  1594  3475               	retlw	117
   479  1595  3461               	retlw	97
   480  1596  3472               	retlw	114
   481  1597  3469               	retlw	105
   482  1598  346F               	retlw	111
   483  1599  3400               	retlw	0
   484                           
   485                           ;initializer for _msgSenhaCorreta
   486  159A  3453               	retlw	83
   487  159B  3465               	retlw	101
   488  159C  346E               	retlw	110
   489  159D  3468               	retlw	104
   490  159E  3461               	retlw	97
   491  159F  3420               	retlw	32
   492  15A0  3463               	retlw	99
   493  15A1  346F               	retlw	111
   494  15A2  3472               	retlw	114
   495  15A3  3472               	retlw	114
   496  15A4  3465               	retlw	101
   497  15A5  3474               	retlw	116
   498  15A6  3461               	retlw	97
   499  15A7  3400               	retlw	0
   500                           
   501                           ;initializer for _msgSenhaCoacao
   502  15A8  3453               	retlw	83
   503  15A9  3465               	retlw	101
   504  15AA  346E               	retlw	110
   505  15AB  3468               	retlw	104
   506  15AC  3461               	retlw	97
   507  15AD  3420               	retlw	32
   508  15AE  3443               	retlw	67
   509  15AF  346F               	retlw	111
   510  15B0  3461               	retlw	97
   511  15B1  3463               	retlw	99
   512  15B2  3461               	retlw	97
   513  15B3  346F               	retlw	111
   514  15B4  3400               	retlw	0
   515                           
   516                           ;initializer for _msgSenhaConfig
   517  15B5  3453               	retlw	83
   518  15B6  3465               	retlw	101
   519  15B7  346E               	retlw	110
   520  15B8  3468               	retlw	104
   521  15B9  3461               	retlw	97
   522  15BA  3420               	retlw	32
   523  15BB  3443               	retlw	67
   524  15BC  346F               	retlw	111
   525  15BD  346E               	retlw	110
   526  15BE  3466               	retlw	102
   527  15BF  3469               	retlw	105
   528  15C0  3467               	retlw	103
   529  15C1  3400               	retlw	0
   530                           
   531                           ;initializer for _msgChamaAjuda
   532  15C2  3453               	retlw	83
   533  15C3  3461               	retlw	97
   534  15C4  3469               	retlw	105
   535  15C5  3420               	retlw	32
   536  15C6  3452               	retlw	82
   537  15C7  3461               	retlw	97
   538  15C8  3474               	retlw	116
   539  15C9  3461               	retlw	97
   540  15CA  346F               	retlw	111
   541  15CB  3400               	retlw	0
   542  001E                     _ADRESH	set	30
   543  001F                     _ADCON0	set	31
   544  0006                     _PORTB	set	6
   545  0009                     _PORTE	set	9
   546  0008                     _PORTD	set	8
   547  00FA                     _GO_nDONE	set	250
   548  0033                     _RB3	set	51
   549  0032                     _RB2	set	50
   550  0031                     _RB1	set	49
   551  0030                     _RB0	set	48
   552  002B                     _RA3	set	43
   553  002C                     _RA4	set	44
   554  002D                     _RA5	set	45
   555  0029                     _RA1	set	41
   556  009E                     _ADRESL	set	158
   557  0086                     _TRISB	set	134
   558  0089                     _TRISE	set	137
   559  0088                     _TRISD	set	136
   560  0085                     _TRISA	set	133
   561  009F                     _ADCON1	set	159
   562                           
   563                           	psect	cinit
   564  07BE                     start_initialization:	
   565                           ; #config settings
   566                           
   567  07BE                     __initialization:
   568                           
   569                           ; Initialize objects allocated to BANK3
   570  07BE  1783               	bsf	3,7	;select IRP bank2
   571  07BF  30EE               	movlw	low (__pdataBANK3+94)
   572  07C0  00FD               	movwf	btemp+-1
   573  07C1  3015               	movlw	high __pidataBANK3
   574  07C2  00FE               	movwf	btemp
   575  07C3  306E               	movlw	low __pidataBANK3
   576  07C4  00FF               	movwf	btemp+1
   577  07C5  3090               	movlw	low __pdataBANK3
   578  07C6  0084               	movwf	4
   579  07C7  160A  118A  2209  120A  118A  	fcall	init_ram0
   580                           
   581                           ; Initialize objects allocated to BANK2
   582  07CC  306B               	movlw	low (__pdataBANK2+91)
   583  07CD  00FD               	movwf	btemp+-1
   584  07CE  3014               	movlw	high __pidataBANK2
   585  07CF  00FE               	movwf	btemp
   586  07D0  30B7               	movlw	low __pidataBANK2
   587  07D1  00FF               	movwf	btemp+1
   588  07D2  3010               	movlw	low __pdataBANK2
   589  07D3  0084               	movwf	4
   590  07D4  160A  118A  2209  120A  118A  	fcall	init_ram0
   591                           
   592                           ; Initialize objects allocated to BANK1
   593  07D9  1383               	bcf	3,7	;select IRP bank0
   594  07DA  30E9               	movlw	low (__pdataBANK1+73)
   595  07DB  00FD               	movwf	btemp+-1
   596  07DC  3014               	movlw	high __pidataBANK1
   597  07DD  00FE               	movwf	btemp
   598  07DE  301B               	movlw	low __pidataBANK1
   599  07DF  00FF               	movwf	btemp+1
   600  07E0  30A0               	movlw	low __pdataBANK1
   601  07E1  0084               	movwf	4
   602  07E2  160A  118A  2209  120A  118A  	fcall	init_ram0
   603                           
   604                           ; Initialize objects allocated to BANK0
   605  07E7  306D               	movlw	low (__pdataBANK0+10)
   606  07E8  00FD               	movwf	btemp+-1
   607  07E9  3011               	movlw	high __pidataBANK0
   608  07EA  00FE               	movwf	btemp
   609  07EB  3093               	movlw	low __pidataBANK0
   610  07EC  00FF               	movwf	btemp+1
   611  07ED  3063               	movlw	low __pdataBANK0
   612  07EE  0084               	movwf	4
   613  07EF  160A  118A  2209  120A  118A  	fcall	init_ram0
   614                           
   615                           ; Clear objects allocated to BANK0
   616  07F4  3053               	movlw	low __pbssBANK0
   617  07F5  0084               	movwf	4
   618  07F6  3063               	movlw	low (__pbssBANK0+16)
   619  07F7  160A  118A  218B  120A  118A  	fcall	clear_ram0
   620  07FC                     end_of_initialization:	
   621                           ;End of C runtime variable initialization code
   622                           
   623  07FC                     __end_of__initialization:
   624  07FC  0183               	clrf	3
   625  07FD  120A  118A  2822   	ljmp	_main	;jump to C main() function
   626                           
   627                           	psect	bssBANK0
   628  0053                     __pbssBANK0:
   629  0053                     _valorSensorAux:
   630  0053                     	ds	2
   631  0055                     _valorSensor:
   632  0055                     	ds	2
   633  0057                     _opConfig:
   634  0057                     	ds	2
   635  0059                     _alteraSenha:
   636  0059                     	ds	2
   637  005B                     _aux:
   638  005B                     	ds	2
   639  005D                     _validaSenha:
   640  005D                     	ds	2
   641  005F                     _zonaConfig:
   642  005F                     	ds	2
   643  0061                     _senhaCoaAtivo:
   644  0061                     	ds	2
   645                           
   646                           	psect	dataBANK0
   647  0063                     __pdataBANK0:
   648  0063                     _auxSensor:
   649  0063                     	ds	2
   650  0065                     _menu:
   651  0065                     	ds	2
   652  0067                     _userFalse:
   653  0067                     	ds	2
   654  0069                     _paizonaConfignel:
   655  0069                     	ds	2
   656  006B                     _input:
   657  006B                     	ds	2
   658                           
   659                           	psect	dataBANK1
   660  00A0                     __pdataBANK1:
   661  00A0                     _msgZonaDisparadas:
   662  00A0                     	ds	15
   663  00AF                     _msgConfigDispara:
   664  00AF                     	ds	15
   665  00BE                     _msgAceitoOuNego:
   666  00BE                     	ds	9
   667  00C7                     _msgReativar:
   668  00C7                     	ds	9
   669  00D0                     _msgMascara:
   670  00D0                     	ds	5
   671  00D5                     _senhaConfig:
   672  00D5                     	ds	5
   673  00DA                     _senhaCoa:
   674  00DA                     	ds	5
   675  00DF                     _senhaUserConfere:
   676  00DF                     	ds	5
   677  00E4                     _senhaUser:
   678  00E4                     	ds	5
   679                           
   680                           	psect	dataBANK3
   681  0190                     __pdataBANK3:
   682  0190                     _msgDesativarZona:
   683  0190                     	ds	15
   684  019F                     _msgSenhaDisparo:
   685  019F                     	ds	15
   686  01AE                     _msgSenhaUsuario:
   687  01AE                     	ds	14
   688  01BC                     _msgSenhaCorreta:
   689  01BC                     	ds	14
   690  01CA                     _msgSenhaCoacao:
   691  01CA                     	ds	13
   692  01D7                     _msgSenhaConfig:
   693  01D7                     	ds	13
   694  01E4                     _msgChamaAjuda:
   695  01E4                     	ds	10
   696                           
   697                           	psect	dataBANK2
   698  0110                     __pdataBANK2:
   699  0110                     _msgSenhaAtualizada:
   700  0110                     	ds	17
   701  0121                     _msgValidaSenha:
   702  0121                     	ds	16
   703  0131                     _msgSenhaCancelada:
   704  0131                     	ds	16
   705  0141                     _msgDigiteSenha:
   706  0141                     	ds	15
   707  0150                     _msgDigiteNovaSenha:
   708  0150                     	ds	14
   709  015E                     _msgSenhaErrada:
   710  015E                     	ds	13
   711                           
   712                           	psect	inittext
   713  1205                     init_fetch0:	
   714                           ;	Called with low address in FSR and high address in W
   715                           
   716  1205  087E               	movf	btemp,w
   717  1206  008A               	movwf	10
   718  1207  087F               	movf	btemp+1,w
   719  1208  0082               	movwf	2
   720  1209                     init_ram0:	
   721                           ;Called with:
   722                           ;	high address of idata address in btemp 
   723                           ;	low address of idata address in btemp+1 
   724                           ;	low address of data in FSR
   725                           ;	high address + 1 of data in btemp-1
   726                           
   727  1209  160A  118A  2205  160A  118A  	fcall	init_fetch0
   728  120E  0080               	movwf	0
   729  120F  0A84               	incf	4,f
   730  1210  0804               	movf	4,w
   731  1211  067D               	xorwf	btemp+-1,w
   732  1212  1903               	btfsc	3,2
   733  1213  3400               	retlw	0
   734  1214  0AFF               	incf	btemp+1,f
   735  1215  1903               	btfsc	3,2
   736  1216  0AFE               	incf	btemp,f
   737  1217  2A09               	goto	init_ram0
   738                           
   739                           	psect	clrtext
   740  118B                     clear_ram0:	
   741                           ;	Called with FSR containing the base address, and
   742                           ;	W with the last address+1
   743                           
   744  118B  0064               	clrwdt	;clear the watchdog before getting into this loop
   745  118C                     clrloop0:
   746  118C  0180               	clrf	0	;clear RAM location pointed to by FSR
   747  118D  0A84               	incf	4,f	;increment pointer
   748  118E  0604               	xorwf	4,w	;XOR with final address
   749  118F  1903               	btfsc	3,2	;have we reached the end yet?
   750  1190  3400               	retlw	0	;all done for this memory range, return
   751  1191  0604               	xorwf	4,w	;XOR again to restore value
   752  1192  298C               	goto	clrloop0	;do the next byte
   753                           
   754                           	psect	cstackCOMMON
   755  0070                     __pcstackCOMMON:
   756  0070                     ?___flge:
   757  0070                     ?_LCD_enable:	
   758                           ; 1 bit 
   759                           
   760  0070                     ?_delay:	
   761                           ; 1 bytes @ 0x0
   762                           
   763  0070                     ??_delay:	
   764                           ; 1 bytes @ 0x0
   765                           
   766  0070                     ?_inicioADC:	
   767                           ; 1 bytes @ 0x0
   768                           
   769  0070                     ??_inicioADC:	
   770                           ; 1 bytes @ 0x0
   771                           
   772  0070                     ?_validaUser:	
   773                           ; 1 bytes @ 0x0
   774                           
   775  0070                     ?_infoZonas:	
   776                           ; 1 bytes @ 0x0
   777                           
   778  0070                     ?_configZonas:	
   779                           ; 1 bytes @ 0x0
   780                           
   781  0070                     ?_teclado:	
   782                           ; 1 bytes @ 0x0
   783                           
   784  0070                     ?_Linha2:	
   785                           ; 1 bytes @ 0x0
   786                           
   787  0070                     ?_espacoLivre:	
   788                           ; 1 bytes @ 0x0
   789                           
   790  0070                     ?_init:	
   791                           ; 1 bytes @ 0x0
   792                           
   793  0070                     ??_init:	
   794                           ; 1 bytes @ 0x0
   795                           
   796  0070                     ?_LCD_init:	
   797                           ; 1 bytes @ 0x0
   798                           
   799  0070                     ?_LCD_escreve:	
   800                           ; 1 bytes @ 0x0
   801                           
   802  0070                     ?_LCD_limpa:	
   803                           ; 1 bytes @ 0x0
   804                           
   805  0070                     ?_LCD_linha1:	
   806                           ; 1 bytes @ 0x0
   807                           
   808  0070                     ?_LCD_linha2:	
   809                           ; 1 bytes @ 0x0
   810                           
   811  0070                     ?_main:	
   812                           ; 1 bytes @ 0x0
   813                           
   814  0070                     ?_confereTeclado:	
   815                           ; 1 bytes @ 0x0
   816                           
   817  0070                     ?_inputSenhaAlter:	
   818                           ; 1 bytes @ 0x0
   819                           
   820  0070                     ?_rotinaValidaSenha:	
   821                           ; 1 bytes @ 0x0
   822                           
   823  0070                     ?_telaInicial:	
   824                           ; 1 bytes @ 0x0
   825                           
   826  0070                     ?_leituraADC:	
   827                           ; 1 bytes @ 0x0
   828                           
   829  0070                     ?_strlen:	
   830                           ; 2 bytes @ 0x0
   831                           
   832  0070                     ?_strcmp:	
   833                           ; 2 bytes @ 0x0
   834                           
   835  0070                     ?__Umul8_16:	
   836                           ; 2 bytes @ 0x0
   837                           
   838  0070                     ?___fladd:	
   839                           ; 2 bytes @ 0x0
   840                           
   841  0070                     __Umul8_16@multiplicand:	
   842                           ; 4 bytes @ 0x0
   843                           
   844  0070                     strcmp@s2:	
   845                           ; 1 bytes @ 0x0
   846                           
   847  0070                     delay@i:	
   848                           ; 1 bytes @ 0x0
   849                           
   850  0070                     confereTeclado@numero:	
   851                           ; 2 bytes @ 0x0
   852                           
   853  0070                     strlen@s:	
   854                           ; 2 bytes @ 0x0
   855                           
   856  0070                     ___flge@ff1:	
   857                           ; 2 bytes @ 0x0
   858                           
   859  0070                     ___fladd@b:	
   860                           ; 4 bytes @ 0x0
   861                           
   862                           
   863                           ; 4 bytes @ 0x0
   864  0070                     	ds	2
   865  0072                     ??_LCD_enable:
   866  0072                     ??_leituraADC:	
   867                           ; 1 bytes @ 0x2
   868                           
   869  0072                     ??_strlen:	
   870                           ; 1 bytes @ 0x2
   871                           
   872  0072                     ??_strcmp:	
   873                           ; 1 bytes @ 0x2
   874                           
   875  0072                     ??__Umul8_16:	
   876                           ; 1 bytes @ 0x2
   877                           
   878  0072                     ??_LCD_init:	
   879                           ; 1 bytes @ 0x2
   880                           
   881  0072                     ??_LCD_escreve:	
   882                           ; 1 bytes @ 0x2
   883                           
   884  0072                     ??_LCD_limpa:	
   885                           ; 1 bytes @ 0x2
   886                           
   887  0072                     ??_LCD_linha1:	
   888                           ; 1 bytes @ 0x2
   889                           
   890  0072                     ??_LCD_linha2:	
   891                           ; 1 bytes @ 0x2
   892                           
   893  0072                     ??_confereTeclado:	
   894                           ; 1 bytes @ 0x2
   895                           
   896  0072                     LCD_escreve@x:	
   897                           ; 1 bytes @ 0x2
   898                           
   899  0072                     strlen@cp:	
   900                           ; 1 bytes @ 0x2
   901                           
   902                           
   903                           ; 2 bytes @ 0x2
   904  0072                     	ds	1
   905  0073                     ?_escreveMesagem:
   906  0073                     ??_espacoLivre:	
   907                           ; 1 bytes @ 0x3
   908                           
   909  0073                     espacoLivre@i:	
   910                           ; 1 bytes @ 0x3
   911                           
   912  0073                     escreveMesagem@texto:	
   913                           ; 2 bytes @ 0x3
   914                           
   915                           
   916                           ; 2 bytes @ 0x3
   917  0073                     	ds	1
   918  0074                     ??_telaInicial:
   919  0074                     leituraADC@leitura:	
   920                           ; 1 bytes @ 0x4
   921                           
   922  0074                     __Umul8_16@product:	
   923                           ; 2 bytes @ 0x4
   924                           
   925  0074                     ___flge@ff2:	
   926                           ; 2 bytes @ 0x4
   927                           
   928  0074                     ___fladd@a:	
   929                           ; 4 bytes @ 0x4
   930                           
   931                           
   932                           ; 4 bytes @ 0x4
   933  0074                     	ds	1
   934  0075                     ??_escreveMesagem:
   935  0075                     ??_Linha2:	
   936                           ; 1 bytes @ 0x5
   937                           
   938  0075                     strcmp@r:	
   939                           ; 1 bytes @ 0x5
   940                           
   941                           
   942                           ; 1 bytes @ 0x5
   943  0075                     	ds	1
   944  0076                     leituraADC@canal:
   945  0076                     strcmp@s1:	
   946                           ; 1 bytes @ 0x6
   947                           
   948  0076                     telaInicial@i:	
   949                           ; 1 bytes @ 0x6
   950                           
   951  0076                     __Umul8_16@word_mpld:	
   952                           ; 2 bytes @ 0x6
   953                           
   954                           
   955                           ; 2 bytes @ 0x6
   956  0076                     	ds	1
   957  0077                     Linha2@i:
   958                           
   959                           ; 2 bytes @ 0x7
   960  0077                     	ds	1
   961  0078                     ??___flge:
   962  0078                     ___fladd@signs:	
   963                           ; 1 bytes @ 0x8
   964                           
   965  0078                     __Umul8_16@multiplier:	
   966                           ; 1 bytes @ 0x8
   967                           
   968  0078                     escreveMesagem@i:	
   969                           ; 1 bytes @ 0x8
   970                           
   971                           
   972                           ; 2 bytes @ 0x8
   973  0078                     	ds	1
   974  0079                     ??___flmul:
   975  0079                     ___fladd@aexp:	
   976                           ; 1 bytes @ 0x9
   977                           
   978                           
   979                           ; 1 bytes @ 0x9
   980  0079                     	ds	1
   981  007A                     ??_infoZonas:
   982  007A                     ?_setaZona:	
   983                           ; 1 bytes @ 0xA
   984                           
   985  007A                     setaZona@msgConfigDispara:	
   986                           ; 1 bytes @ 0xA
   987                           
   988  007A                     ___fladd@bexp:	
   989                           ; 1 bytes @ 0xA
   990                           
   991                           
   992                           ; 1 bytes @ 0xA
   993  007A                     	ds	1
   994  007B                     ___fladd@grs:
   995  007B                     setaZona@pos:	
   996                           ; 1 bytes @ 0xB
   997                           
   998                           
   999                           ; 2 bytes @ 0xB
  1000  007B                     	ds	1
  1001  007C                     ??___flsub:
  1002                           
  1003                           ; 1 bytes @ 0xC
  1004  007C                     	ds	2
  1005                           
  1006                           	psect	cstackBANK0
  1007  0020                     __pcstackBANK0:
  1008  0020                     ??_setaZona:
  1009  0020                     ??___fladd:	
  1010                           ; 1 bytes @ 0x0
  1011                           
  1012  0020                     ?___flmul:	
  1013                           ; 1 bytes @ 0x0
  1014                           
  1015  0020                     ___flmul@b:	
  1016                           ; 4 bytes @ 0x0
  1017                           
  1018                           
  1019                           ; 4 bytes @ 0x0
  1020  0020                     	ds	3
  1021  0023                     setaZona@i:
  1022                           
  1023                           ; 2 bytes @ 0x3
  1024  0023                     	ds	1
  1025  0024                     ___flmul@a:
  1026                           
  1027                           ; 4 bytes @ 0x4
  1028  0024                     	ds	1
  1029  0025                     setaZona@i_185:
  1030                           
  1031                           ; 2 bytes @ 0x5
  1032  0025                     	ds	2
  1033  0027                     setaZona@msgZonaDisparadas:
  1034                           
  1035                           ; 1 bytes @ 0x7
  1036  0027                     	ds	1
  1037  0028                     ??_configZonas:
  1038  0028                     ?___flsub:	
  1039                           ; 1 bytes @ 0x8
  1040                           
  1041  0028                     ___flmul@sign:	
  1042                           ; 4 bytes @ 0x8
  1043                           
  1044  0028                     ___flsub@a:	
  1045                           ; 1 bytes @ 0x8
  1046                           
  1047                           
  1048                           ; 4 bytes @ 0x8
  1049  0028                     	ds	1
  1050  0029                     ___flmul@grs:
  1051                           
  1052                           ; 4 bytes @ 0x9
  1053  0029                     	ds	3
  1054  002C                     ___flsub@b:
  1055                           
  1056                           ; 4 bytes @ 0xC
  1057  002C                     	ds	1
  1058  002D                     ___flmul@aexp:
  1059                           
  1060                           ; 1 bytes @ 0xD
  1061  002D                     	ds	1
  1062  002E                     ___flmul@bexp:
  1063                           
  1064                           ; 1 bytes @ 0xE
  1065  002E                     	ds	1
  1066  002F                     ___flmul@prod:
  1067                           
  1068                           ; 4 bytes @ 0xF
  1069  002F                     	ds	4
  1070  0033                     ___flmul@temp:
  1071                           
  1072                           ; 2 bytes @ 0x13
  1073  0033                     	ds	2
  1074  0035                     ?_liga_buzzer:
  1075  0035                     liga_buzzer@tempoSegundos:	
  1076                           ; 1 bytes @ 0x15
  1077                           
  1078                           
  1079                           ; 4 bytes @ 0x15
  1080  0035                     	ds	4
  1081  0039                     ??_liga_buzzer:
  1082                           
  1083                           ; 1 bytes @ 0x19
  1084  0039                     	ds	2
  1085  003B                     ?_listaZonas:
  1086  003B                     ??_teclado:	
  1087                           ; 1 bytes @ 0x1B
  1088                           
  1089  003B                     ?_valida_senha:	
  1090                           ; 1 bytes @ 0x1B
  1091                           
  1092  003B                     listaZonas@valorSensor:	
  1093                           ; 2 bytes @ 0x1B
  1094                           
  1095                           
  1096                           ; 2 bytes @ 0x1B
  1097  003B                     	ds	2
  1098  003D                     ??_listaZonas:
  1099  003D                     ??_valida_senha:	
  1100                           ; 1 bytes @ 0x1D
  1101                           
  1102                           
  1103                           ; 1 bytes @ 0x1D
  1104  003D                     	ds	1
  1105  003E                     ??_validaUser:
  1106                           
  1107                           ; 1 bytes @ 0x1E
  1108  003E                     	ds	2
  1109  0040                     valida_senha@texto:
  1110                           
  1111                           ; 1 bytes @ 0x20
  1112  0040                     	ds	1
  1113  0041                     valida_senha@aceito:
  1114  0041                     validaUser@n:	
  1115                           ; 2 bytes @ 0x21
  1116                           
  1117                           
  1118                           ; 2 bytes @ 0x21
  1119  0041                     	ds	2
  1120  0043                     ??_inputSenhaAlter:
  1121                           
  1122                           ; 1 bytes @ 0x23
  1123  0043                     	ds	2
  1124  0045                     inputSenhaAlter@senhaDestino:
  1125                           
  1126                           ; 1 bytes @ 0x25
  1127  0045                     	ds	1
  1128  0046                     inputSenhaAlter@i:
  1129                           
  1130                           ; 2 bytes @ 0x26
  1131  0046                     	ds	2
  1132  0048                     ??_rotinaValidaSenha:
  1133                           
  1134                           ; 1 bytes @ 0x28
  1135  0048                     	ds	3
  1136  004B                     rotinaValidaSenha@senhaOp:
  1137                           
  1138                           ; 1 bytes @ 0x2B
  1139  004B                     	ds	1
  1140  004C                     ?_alteraSenhas:
  1141  004C                     alteraSenhas@opConfig:	
  1142                           ; 1 bytes @ 0x2C
  1143                           
  1144                           
  1145                           ; 2 bytes @ 0x2C
  1146  004C                     	ds	2
  1147  004E                     ??_alteraSenhas:
  1148                           
  1149                           ; 1 bytes @ 0x2E
  1150  004E                     	ds	2
  1151  0050                     ??_main:
  1152                           
  1153                           ; 1 bytes @ 0x30
  1154  0050                     	ds	3
  1155                           
  1156                           	psect	maintext
  1157  0022                     __pmaintext:	
  1158 ;;
  1159 ;;Main: autosize = 0, tempsize = 3, incstack = 0, save=0
  1160 ;;
  1161 ;; *************** function _main *****************
  1162 ;; Defined at:
  1163 ;;		line 71 in file "main.c"
  1164 ;; Parameters:    Size  Location     Type
  1165 ;;		None
  1166 ;; Auto vars:     Size  Location     Type
  1167 ;;		None
  1168 ;; Return value:  Size  Location     Type
  1169 ;;                  1    wreg      void 
  1170 ;; Registers used:
  1171 ;;		wreg, fsr0l, fsr0h, status,2, status,0, btemp+1, pclath, cstack
  1172 ;; Tracked objects:
  1173 ;;		On entry : B00/0
  1174 ;;		On exit  : 0/0
  1175 ;;		Unchanged: 0/0
  1176 ;; Data sizes:     COMMON   BANK0   BANK1   BANK3   BANK2
  1177 ;;      Params:         0       0       0       0       0
  1178 ;;      Locals:         0       0       0       0       0
  1179 ;;      Temps:          0       3       0       0       0
  1180 ;;      Totals:         0       3       0       0       0
  1181 ;;Total ram usage:        3 bytes
  1182 ;; Hardware stack levels required when called: 7
  1183 ;; This function calls:
  1184 ;;		_LCD_init
  1185 ;;		_LCD_limpa
  1186 ;;		_LCD_linha1
  1187 ;;		_alteraSenhas
  1188 ;;		_configZonas
  1189 ;;		_escreveMesagem
  1190 ;;		_infoZonas
  1191 ;;		_inicioADC
  1192 ;;		_leituraADC
  1193 ;;		_liga_buzzer
  1194 ;;		_listaZonas
  1195 ;;		_validaUser
  1196 ;; This function is called by:
  1197 ;;		Startup code after reset
  1198 ;; This function uses a non-reentrant model
  1199 ;;
  1200                           
  1201                           
  1202                           ;psect for function _main
  1203  0022                     _main:
  1204  0022                     l4063:	
  1205                           ;incstack = 0
  1206                           ; Regs used in _main: [wreg-fsr0h+status,2+status,0+btemp+1+pclath+cstack]
  1207                           
  1208                           
  1209                           ;main.c: 72:     TRISE = 0x00;
  1210  0022  1683               	bsf	3,5	;RP0=1, select bank1
  1211  0023  1303               	bcf	3,6	;RP1=0, select bank1
  1212  0024  0189               	clrf	9	;volatile
  1213                           
  1214                           ;main.c: 73:     TRISD = 0x00;
  1215  0025  0188               	clrf	8	;volatile
  1216  0026                     l4065:
  1217                           
  1218                           ;main.c: 74:     TRISB = 0x0F;
  1219  0026  300F               	movlw	15
  1220  0027  0086               	movwf	6	;volatile
  1221  0028                     l4067:
  1222                           
  1223                           ;main.c: 75:     PORTE = 0x01;
  1224  0028  3001               	movlw	1
  1225  0029  1283               	bcf	3,5	;RP0=0, select bank0
  1226  002A  1303               	bcf	3,6	;RP1=0, select bank0
  1227  002B  0089               	movwf	9	;volatile
  1228  002C                     l4069:
  1229                           
  1230                           ;main.c: 76:     inicioADC();
  1231  002C  160A  118A  21A9  120A  118A  	fcall	_inicioADC
  1232  0031  2837               	goto	l4073
  1233  0032                     l4071:
  1234                           
  1235                           ;main.c: 79:            validaUser();
  1236  0032  120A  158A  21D9  120A  118A  	fcall	_validaUser
  1237  0037                     l4073:
  1238                           
  1239                           ;main.c: 78:         while (userFalse){
  1240  0037  1283               	bcf	3,5	;RP0=0, select bank0
  1241  0038  1303               	bcf	3,6	;RP1=0, select bank0
  1242  0039  0867               	movf	_userFalse,w
  1243  003A  0468               	iorwf	_userFalse+1,w
  1244  003B  1D03               	btfss	3,2
  1245  003C  283E               	goto	u4411
  1246  003D  283F               	goto	u4410
  1247  003E                     u4411:
  1248  003E  2832               	goto	l4071
  1249  003F                     u4410:
  1250  003F  2892               	goto	l4093
  1251  0040                     l4075:
  1252                           
  1253                           ;main.c: 82:             LCD_init();
  1254  0040  160A  118A  22EB  120A  118A  	fcall	_LCD_init
  1255                           
  1256                           ;main.c: 83:             LCD_limpa();
  1257  0045  160A  118A  21D4  120A  118A  	fcall	_LCD_limpa
  1258                           
  1259                           ;main.c: 84:             LCD_linha1();
  1260  004A  160A  118A  21E4  120A  118A  	fcall	_LCD_linha1
  1261  004F                     l4077:
  1262                           
  1263                           ;main.c: 85:             escreveMesagem(msgChamaAjuda);
  1264  004F  30E4               	movlw	(low (_msgChamaAjuda| (0+256)))& (0+255)
  1265  0050  00F3               	movwf	escreveMesagem@texto
  1266  0051  3001               	movlw	1
  1267  0052  00F4               	movwf	escreveMesagem@texto+1
  1268  0053  160A  118A  231E  120A  118A  	fcall	_escreveMesagem
  1269  0058                     l4079:
  1270                           
  1271                           ;main.c: 86:             _delay((unsigned long)((2000)*(20000000/4000.0)));
  1272  0058  3033               	movlw	51
  1273  0059  1283               	bcf	3,5	;RP0=0, select bank0
  1274  005A  1303               	bcf	3,6	;RP1=0, select bank0
  1275  005B  00D2               	movwf	??_main+2
  1276  005C  30BB               	movlw	187
  1277  005D  00D1               	movwf	??_main+1
  1278  005E  30DF               	movlw	223
  1279  005F  00D0               	movwf	??_main
  1280  0060                     u4467:
  1281  0060  0BD0               	decfsz	??_main,f
  1282  0061  2860               	goto	u4467
  1283  0062  0BD1               	decfsz	??_main+1,f
  1284  0063  2860               	goto	u4467
  1285  0064  0BD2               	decfsz	??_main+2,f
  1286  0065  2860               	goto	u4467
  1287  0066                     l4081:
  1288                           
  1289                           ;main.c: 87:             infoZonas();
  1290  0066  160A  118A  224F  120A  118A  	fcall	_infoZonas
  1291  006B                     l4083:
  1292                           
  1293                           ;main.c: 88:             PORTB = 0b01111111;
  1294  006B  307F               	movlw	127
  1295  006C  1283               	bcf	3,5	;RP0=0, select bank0
  1296  006D  1303               	bcf	3,6	;RP1=0, select bank0
  1297  006E  0086               	movwf	6	;volatile
  1298  006F                     l4085:
  1299                           
  1300                           ;main.c: 89:             if(RB0 == 0){
  1301  006F  1806               	btfsc	6,0	;volatile
  1302  0070  2872               	goto	u4421
  1303  0071  2873               	goto	u4420
  1304  0072                     u4421:
  1305  0072  2892               	goto	l4093
  1306  0073                     u4420:
  1307  0073                     l4087:
  1308                           
  1309                           ;main.c: 90:                 _delay((unsigned long)((100)*(20000000/4000.0)));
  1310  0073  3003               	movlw	3
  1311  0074  1283               	bcf	3,5	;RP0=0, select bank0
  1312  0075  1303               	bcf	3,6	;RP1=0, select bank0
  1313  0076  00D2               	movwf	??_main+2
  1314  0077  308A               	movlw	138
  1315  0078  00D1               	movwf	??_main+1
  1316  0079  3055               	movlw	85
  1317  007A  00D0               	movwf	??_main
  1318  007B                     u4477:
  1319  007B  0BD0               	decfsz	??_main,f
  1320  007C  287B               	goto	u4477
  1321  007D  0BD1               	decfsz	??_main+1,f
  1322  007E  287B               	goto	u4477
  1323  007F  0BD2               	decfsz	??_main+2,f
  1324  0080  287B               	goto	u4477
  1325  0081                     l4089:
  1326                           
  1327                           ;main.c: 91:                 senhaCoaAtivo = 0;
  1328  0081  1283               	bcf	3,5	;RP0=0, select bank0
  1329  0082  1303               	bcf	3,6	;RP1=0, select bank0
  1330  0083  01E1               	clrf	_senhaCoaAtivo
  1331  0084  01E2               	clrf	_senhaCoaAtivo+1
  1332  0085                     l4091:
  1333                           
  1334                           ;main.c: 92:                 liga_buzzer(0.1);
  1335  0085  303D               	movlw	61
  1336  0086  00B8               	movwf	liga_buzzer@tempoSegundos+3
  1337  0087  30CC               	movlw	204
  1338  0088  00B7               	movwf	liga_buzzer@tempoSegundos+2
  1339  0089  30CC               	movlw	204
  1340  008A  00B6               	movwf	liga_buzzer@tempoSegundos+1
  1341  008B  30CD               	movlw	205
  1342  008C  00B5               	movwf	liga_buzzer@tempoSegundos
  1343  008D  160A  118A  263C  120A  118A  	fcall	_liga_buzzer
  1344  0092                     l4093:
  1345                           
  1346                           ;main.c: 81:         while(senhaCoaAtivo){
  1347  0092  1283               	bcf	3,5	;RP0=0, select bank0
  1348  0093  1303               	bcf	3,6	;RP1=0, select bank0
  1349  0094  0861               	movf	_senhaCoaAtivo,w
  1350  0095  0462               	iorwf	_senhaCoaAtivo+1,w
  1351  0096  1D03               	btfss	3,2
  1352  0097  2899               	goto	u4431
  1353  0098  289A               	goto	u4430
  1354  0099                     u4431:
  1355  0099  2840               	goto	l4075
  1356  009A                     u4430:
  1357  009A  28F4               	goto	l4119
  1358  009B                     l4095:
  1359                           
  1360                           ;main.c: 96:             valorSensor = leituraADC(2);
  1361  009B  3002               	movlw	2
  1362  009C  160A  118A  22BC  120A  118A  	fcall	_leituraADC
  1363  00A1  0871               	movf	?_leituraADC+1,w
  1364  00A2  1283               	bcf	3,5	;RP0=0, select bank0
  1365  00A3  1303               	bcf	3,6	;RP1=0, select bank0
  1366  00A4  00D6               	movwf	_valorSensor+1
  1367  00A5  0870               	movf	?_leituraADC,w
  1368  00A6  00D5               	movwf	_valorSensor
  1369  00A7                     l4097:
  1370                           
  1371                           ;main.c: 97:             listaZonas(valorSensor);
  1372  00A7  0856               	movf	_valorSensor+1,w
  1373  00A8  00BC               	movwf	listaZonas@valorSensor+1
  1374  00A9  0855               	movf	_valorSensor,w
  1375  00AA  00BB               	movwf	listaZonas@valorSensor
  1376  00AB  120A  158A  232A  120A  118A  	fcall	_listaZonas
  1377  00B0                     l4099:
  1378                           
  1379                           ;main.c: 98:             _delay((unsigned long)((50)*(20000000/4000.0)));
  1380  00B0  3002               	movlw	2
  1381  00B1  1283               	bcf	3,5	;RP0=0, select bank0
  1382  00B2  1303               	bcf	3,6	;RP1=0, select bank0
  1383  00B3  00D2               	movwf	??_main+2
  1384  00B4  3045               	movlw	69
  1385  00B5  00D1               	movwf	??_main+1
  1386  00B6  30A9               	movlw	169
  1387  00B7  00D0               	movwf	??_main
  1388  00B8                     u4487:
  1389  00B8  0BD0               	decfsz	??_main,f
  1390  00B9  28B8               	goto	u4487
  1391  00BA  0BD1               	decfsz	??_main+1,f
  1392  00BB  28B8               	goto	u4487
  1393  00BC  0BD2               	decfsz	??_main+2,f
  1394  00BD  28B8               	goto	u4487
  1395  00BE                     l4101:
  1396                           
  1397                           ;main.c: 99:             if (opConfig > 0){
  1398  00BE  1283               	bcf	3,5	;RP0=0, select bank0
  1399  00BF  1303               	bcf	3,6	;RP1=0, select bank0
  1400  00C0  0857               	movf	_opConfig,w
  1401  00C1  0458               	iorwf	_opConfig+1,w
  1402  00C2  1903               	btfsc	3,2
  1403  00C3  28C5               	goto	u4441
  1404  00C4  28C6               	goto	u4440
  1405  00C5                     u4441:
  1406  00C5  28F4               	goto	l4119
  1407  00C6                     u4440:
  1408  00C6  28D7               	goto	l4115
  1409  00C7                     l4105:
  1410                           
  1411                           ;main.c: 102:                         alteraSenhas(opConfig);
  1412  00C7  0858               	movf	_opConfig+1,w
  1413  00C8  00CD               	movwf	alteraSenhas@opConfig+1
  1414  00C9  0857               	movf	_opConfig,w
  1415  00CA  00CC               	movwf	alteraSenhas@opConfig
  1416  00CB  160A  118A  2464  120A  118A  	fcall	_alteraSenhas
  1417                           
  1418                           ;main.c: 103:                         break;
  1419  00D0  28F0               	goto	l4117
  1420  00D1                     l4111:
  1421                           
  1422                           ;main.c: 111:                         configZonas();
  1423  00D1  120A  158A  20FE  120A  118A  	fcall	_configZonas
  1424                           
  1425                           ;main.c: 112:                         break;
  1426  00D6  28F0               	goto	l4117
  1427  00D7                     l4115:
  1428                           
  1429                           ; Switch on 2 bytes has been partitioned into a top level switch of size 1, and 1 sub-sw
      +                          itches
  1430                           ; Switch size 1, requested type "simple"
  1431                           ; Number of cases is 1, Range of values is 0 to 0
  1432                           ; switch strategies available:
  1433                           ; Name         Instructions Cycles
  1434                           ; simple_byte            4     3 (average)
  1435                           ; direct_byte           11     8 (fixed)
  1436                           ; jumptable            260     6 (fixed)
  1437                           ;	Chosen strategy is simple_byte
  1438  00D7  0858               	movf	_opConfig+1,w
  1439  00D8  3A00               	xorlw	0	; case 0
  1440  00D9  1903               	skipnz
  1441  00DA  28DC               	goto	l4177
  1442  00DB  28F0               	goto	l4117
  1443  00DC                     l4177:
  1444                           
  1445                           ; Switch size 1, requested type "simple"
  1446                           ; Number of cases is 6, Range of values is 1 to 6
  1447                           ; switch strategies available:
  1448                           ; Name         Instructions Cycles
  1449                           ; simple_byte           19    10 (average)
  1450                           ; direct_byte           29    11 (fixed)
  1451                           ; jumptable            263     9 (fixed)
  1452                           ;	Chosen strategy is simple_byte
  1453  00DC  0857               	movf	_opConfig,w
  1454  00DD  3A01               	xorlw	1	; case 1
  1455  00DE  1903               	skipnz
  1456  00DF  28C7               	goto	l4105
  1457  00E0  3A03               	xorlw	3	; case 2
  1458  00E1  1903               	skipnz
  1459  00E2  28C7               	goto	l4105
  1460  00E3  3A01               	xorlw	1	; case 3
  1461  00E4  1903               	skipnz
  1462  00E5  28C7               	goto	l4105
  1463  00E6  3A07               	xorlw	7	; case 4
  1464  00E7  1903               	skipnz
  1465  00E8  28D1               	goto	l4111
  1466  00E9  3A01               	xorlw	1	; case 5
  1467  00EA  1903               	skipnz
  1468  00EB  28F0               	goto	l4117
  1469  00EC  3A03               	xorlw	3	; case 6
  1470  00ED  1903               	skipnz
  1471  00EE  28F0               	goto	l4117
  1472  00EF  28F0               	goto	l4117
  1473  00F0                     l4117:
  1474                           
  1475                           ;main.c: 120:                 opConfig = 0;
  1476  00F0  1283               	bcf	3,5	;RP0=0, select bank0
  1477  00F1  1303               	bcf	3,6	;RP1=0, select bank0
  1478  00F2  01D7               	clrf	_opConfig
  1479  00F3  01D8               	clrf	_opConfig+1
  1480  00F4                     l4119:
  1481                           
  1482                           ;main.c: 95:         while (menu){
  1483  00F4  0865               	movf	_menu,w
  1484  00F5  0466               	iorwf	_menu+1,w
  1485  00F6  1D03               	btfss	3,2
  1486  00F7  28F9               	goto	u4451
  1487  00F8  28FA               	goto	u4450
  1488  00F9                     u4451:
  1489  00F9  289B               	goto	l4095
  1490  00FA                     u4450:
  1491  00FA  2837               	goto	l4073
  1492  00FB  120A  118A  2800   	ljmp	start
  1493  00FE                     __end_of_main:
  1494                           
  1495                           	psect	text1
  1496  09D9                     __ptext1:	
  1497 ;; *************** function _validaUser *****************
  1498 ;; Defined at:
  1499 ;;		line 324 in file "main.c"
  1500 ;; Parameters:    Size  Location     Type
  1501 ;;		None
  1502 ;; Auto vars:     Size  Location     Type
  1503 ;;  pos             1    0        unsigned char 
  1504 ;;  n               2   33[BANK0 ] int 
  1505 ;; Return value:  Size  Location     Type
  1506 ;;                  1    wreg      void 
  1507 ;; Registers used:
  1508 ;;		wreg, fsr0l, fsr0h, status,2, status,0, btemp+1, pclath, cstack
  1509 ;; Tracked objects:
  1510 ;;		On entry : 0/0
  1511 ;;		On exit  : 0/0
  1512 ;;		Unchanged: 0/0
  1513 ;; Data sizes:     COMMON   BANK0   BANK1   BANK3   BANK2
  1514 ;;      Params:         0       0       0       0       0
  1515 ;;      Locals:         0       2       0       0       0
  1516 ;;      Temps:          0       3       0       0       0
  1517 ;;      Totals:         0       5       0       0       0
  1518 ;;Total ram usage:        5 bytes
  1519 ;; Hardware stack levels used: 1
  1520 ;; Hardware stack levels required when called: 5
  1521 ;; This function calls:
  1522 ;;		_LCD_init
  1523 ;;		_LCD_limpa
  1524 ;;		_LCD_linha1
  1525 ;;		_Linha2
  1526 ;;		_confereTeclado
  1527 ;;		_escreveMesagem
  1528 ;;		_setaZona
  1529 ;;		_strcmp
  1530 ;;		_teclado
  1531 ;;		_telaInicial
  1532 ;; This function is called by:
  1533 ;;		_main
  1534 ;; This function uses a non-reentrant model
  1535 ;;
  1536                           
  1537                           
  1538                           ;psect for function _validaUser
  1539  09D9                     _validaUser:
  1540  09D9                     l3813:	
  1541                           ;incstack = 0
  1542                           ; Regs used in _validaUser: [wreg-fsr0h+status,2+status,0+btemp+1+pclath+cstack]
  1543                           
  1544                           
  1545                           ;main.c: 325:     LCD_init();
  1546  09D9  160A  118A  22EB  120A  158A  	fcall	_LCD_init
  1547  09DE                     l3815:
  1548                           
  1549                           ;main.c: 326:     _delay((unsigned long)((20)*(20000000/4000.0)));
  1550  09DE  3082               	movlw	130
  1551  09DF  1283               	bcf	3,5	;RP0=0, select bank0
  1552  09E0  1303               	bcf	3,6	;RP1=0, select bank0
  1553  09E1  00BF               	movwf	??_validaUser+1
  1554  09E2  30DD               	movlw	221
  1555  09E3  00BE               	movwf	??_validaUser
  1556  09E4                     u4497:
  1557  09E4  0BBE               	decfsz	??_validaUser,f
  1558  09E5  29E4               	goto	u4497
  1559  09E6  0BBF               	decfsz	??_validaUser+1,f
  1560  09E7  29E4               	goto	u4497
  1561  09E8                     l3817:
  1562                           
  1563                           ;main.c: 327:     LCD_limpa();
  1564  09E8  160A  118A  21D4  120A  158A  	fcall	_LCD_limpa
  1565                           
  1566                           ;main.c: 328:     _delay((unsigned long)((20)*(20000000/4000.0)));
  1567  09ED  3082               	movlw	130
  1568  09EE  1283               	bcf	3,5	;RP0=0, select bank0
  1569  09EF  1303               	bcf	3,6	;RP1=0, select bank0
  1570  09F0  00BF               	movwf	??_validaUser+1
  1571  09F1  30DD               	movlw	221
  1572  09F2  00BE               	movwf	??_validaUser
  1573  09F3                     u4507:
  1574  09F3  0BBE               	decfsz	??_validaUser,f
  1575  09F4  29F3               	goto	u4507
  1576  09F5  0BBF               	decfsz	??_validaUser+1,f
  1577  09F6  29F3               	goto	u4507
  1578  09F7                     l3819:
  1579                           
  1580                           ;main.c: 329:     telaInicial();
  1581  09F7  160A  118A  2393  120A  158A  	fcall	_telaInicial
  1582  09FC                     l3821:
  1583                           
  1584                           ;main.c: 330:     Linha2();
  1585  09FC  160A  118A  2355  120A  158A  	fcall	_Linha2
  1586                           
  1587                           ;main.c: 331:     while(userFalse){
  1588  0A01  2B21               	goto	l3895
  1589  0A02                     l3823:
  1590                           
  1591                           ;main.c: 332:         for(int n = 0; n < 8; n++){
  1592  0A02  01C1               	clrf	validaUser@n
  1593  0A03  01C2               	clrf	validaUser@n+1
  1594  0A04                     l3829:
  1595                           
  1596                           ;main.c: 333:             input = 10;
  1597  0A04  300A               	movlw	10
  1598  0A05  1283               	bcf	3,5	;RP0=0, select bank0
  1599  0A06  1303               	bcf	3,6	;RP1=0, select bank0
  1600  0A07  00EB               	movwf	_input
  1601  0A08  3000               	movlw	0
  1602  0A09  00EC               	movwf	_input+1
  1603                           
  1604                           ;main.c: 334:             while (input == 10){
  1605  0A0A  2A10               	goto	l3833
  1606  0A0B                     l3831:
  1607                           
  1608                           ;main.c: 335:                 teclado();
  1609  0A0B  120A  118A  20FE  120A  158A  	fcall	_teclado
  1610  0A10                     l3833:
  1611                           
  1612                           ;main.c: 334:             while (input == 10){
  1613  0A10  300A               	movlw	10
  1614  0A11  1283               	bcf	3,5	;RP0=0, select bank0
  1615  0A12  1303               	bcf	3,6	;RP1=0, select bank0
  1616  0A13  066B               	xorwf	_input,w
  1617  0A14  046C               	iorwf	_input+1,w
  1618  0A15  1903               	btfsc	3,2
  1619  0A16  2A18               	goto	u4131
  1620  0A17  2A19               	goto	u4130
  1621  0A18                     u4131:
  1622  0A18  2A0B               	goto	l3831
  1623  0A19                     u4130:
  1624  0A19                     l3835:
  1625                           
  1626                           ;main.c: 337:             senhaUserConfere[n] = confereTeclado(input);
  1627  0A19  086C               	movf	_input+1,w
  1628  0A1A  00F1               	movwf	confereTeclado@numero+1
  1629  0A1B  086B               	movf	_input,w
  1630  0A1C  00F0               	movwf	confereTeclado@numero
  1631  0A1D  160A  118A  25CC  120A  158A  	fcall	_confereTeclado
  1632  0A22  1283               	bcf	3,5	;RP0=0, select bank0
  1633  0A23  1303               	bcf	3,6	;RP1=0, select bank0
  1634  0A24  00BE               	movwf	??_validaUser
  1635  0A25  0841               	movf	validaUser@n,w
  1636  0A26  3EDF               	addlw	(low (_senhaUserConfere| 0))& (0+255)
  1637  0A27  0084               	movwf	4
  1638  0A28  083E               	movf	??_validaUser,w
  1639  0A29  1383               	bcf	3,7	;select IRP bank1
  1640  0A2A  0080               	movwf	0
  1641  0A2B                     l3837:
  1642                           
  1643                           ;main.c: 338:             if (n == 3){
  1644  0A2B  3003               	movlw	3
  1645  0A2C  0641               	xorwf	validaUser@n,w
  1646  0A2D  0442               	iorwf	validaUser@n+1,w
  1647  0A2E  1D03               	btfss	3,2
  1648  0A2F  2A31               	goto	u4141
  1649  0A30  2A32               	goto	u4140
  1650  0A31                     u4141:
  1651  0A31  2A7D               	goto	l3855
  1652  0A32                     u4140:
  1653  0A32                     l3839:
  1654                           
  1655                           ;main.c: 339:                 if ((strcmp(senhaUser, senhaUserConfere) != 0) &&
  1656  0A32  30DF               	movlw	(low (_senhaUserConfere| 0))& (0+255)
  1657  0A33  00BE               	movwf	??_validaUser
  1658  0A34  083E               	movf	??_validaUser,w
  1659  0A35  00F0               	movwf	strcmp@s2
  1660  0A36  30E4               	movlw	(low (_senhaUser| 0))& (0+255)
  1661  0A37  120A  158A  2003  120A  158A  	fcall	_strcmp
  1662  0A3C  0870               	movf	?_strcmp,w
  1663  0A3D  0471               	iorwf	?_strcmp+1,w
  1664  0A3E  1903               	btfsc	3,2
  1665  0A3F  2A41               	goto	u4151
  1666  0A40  2A42               	goto	u4150
  1667  0A41                     u4151:
  1668  0A41  2A7D               	goto	l3855
  1669  0A42                     u4150:
  1670  0A42                     l3841:
  1671  0A42  30DF               	movlw	(low (_senhaUserConfere| 0))& (0+255)
  1672  0A43  1283               	bcf	3,5	;RP0=0, select bank0
  1673  0A44  1303               	bcf	3,6	;RP1=0, select bank0
  1674  0A45  00BE               	movwf	??_validaUser
  1675  0A46  083E               	movf	??_validaUser,w
  1676  0A47  00F0               	movwf	strcmp@s2
  1677  0A48  30DA               	movlw	(low (_senhaCoa| 0))& (0+255)
  1678  0A49  120A  158A  2003  120A  158A  	fcall	_strcmp
  1679  0A4E  0870               	movf	?_strcmp,w
  1680  0A4F  0471               	iorwf	?_strcmp+1,w
  1681  0A50  1903               	btfsc	3,2
  1682  0A51  2A53               	goto	u4161
  1683  0A52  2A54               	goto	u4160
  1684  0A53                     u4161:
  1685  0A53  2A7D               	goto	l3855
  1686  0A54                     u4160:
  1687  0A54                     l3843:
  1688                           
  1689                           ;main.c: 340:                         (strcmp(senhaCoa, senhaUserConfere) != 0)){;main.c
      +                          : 341:                     userFalse = 1;
  1690  0A54  3001               	movlw	1
  1691  0A55  1283               	bcf	3,5	;RP0=0, select bank0
  1692  0A56  1303               	bcf	3,6	;RP1=0, select bank0
  1693  0A57  00E7               	movwf	_userFalse
  1694  0A58  3000               	movlw	0
  1695  0A59  00E8               	movwf	_userFalse+1
  1696  0A5A                     l3845:
  1697                           
  1698                           ;main.c: 342:                     menu = 0;
  1699  0A5A  01E5               	clrf	_menu
  1700  0A5B  01E6               	clrf	_menu+1
  1701  0A5C                     l3847:
  1702                           
  1703                           ;main.c: 343:                     LCD_limpa();
  1704  0A5C  160A  118A  21D4  120A  158A  	fcall	_LCD_limpa
  1705  0A61                     l3849:
  1706                           
  1707                           ;main.c: 344:                     LCD_linha1();
  1708  0A61  160A  118A  21E4  120A  158A  	fcall	_LCD_linha1
  1709  0A66                     l3851:
  1710                           
  1711                           ;main.c: 345:                     escreveMesagem(msgSenhaErrada);
  1712  0A66  305E               	movlw	(low (_msgSenhaErrada| (0+256)))& (0+255)
  1713  0A67  00F3               	movwf	escreveMesagem@texto
  1714  0A68  3001               	movlw	1
  1715  0A69  00F4               	movwf	escreveMesagem@texto+1
  1716  0A6A  160A  118A  231E  120A  158A  	fcall	_escreveMesagem
  1717  0A6F                     l3853:
  1718                           
  1719                           ;main.c: 346:                     _delay((unsigned long)((2000)*(20000000/4000.0)));
  1720  0A6F  3033               	movlw	51
  1721  0A70  1283               	bcf	3,5	;RP0=0, select bank0
  1722  0A71  1303               	bcf	3,6	;RP1=0, select bank0
  1723  0A72  00C0               	movwf	??_validaUser+2
  1724  0A73  30BB               	movlw	187
  1725  0A74  00BF               	movwf	??_validaUser+1
  1726  0A75  30DF               	movlw	223
  1727  0A76  00BE               	movwf	??_validaUser
  1728  0A77                     u4517:
  1729  0A77  0BBE               	decfsz	??_validaUser,f
  1730  0A78  2A77               	goto	u4517
  1731  0A79  0BBF               	decfsz	??_validaUser+1,f
  1732  0A7A  2A77               	goto	u4517
  1733  0A7B  0BC0               	decfsz	??_validaUser+2,f
  1734  0A7C  2A77               	goto	u4517
  1735  0A7D                     l3855:
  1736                           
  1737                           ;main.c: 349:             if (strcmp(senhaUser, senhaUserConfere)==0){
  1738  0A7D  30DF               	movlw	(low (_senhaUserConfere| 0))& (0+255)
  1739  0A7E  1283               	bcf	3,5	;RP0=0, select bank0
  1740  0A7F  1303               	bcf	3,6	;RP1=0, select bank0
  1741  0A80  00BE               	movwf	??_validaUser
  1742  0A81  083E               	movf	??_validaUser,w
  1743  0A82  00F0               	movwf	strcmp@s2
  1744  0A83  30E4               	movlw	(low (_senhaUser| 0))& (0+255)
  1745  0A84  120A  158A  2003  120A  158A  	fcall	_strcmp
  1746  0A89  0870               	movf	?_strcmp,w
  1747  0A8A  0471               	iorwf	?_strcmp+1,w
  1748  0A8B  1D03               	btfss	3,2
  1749  0A8C  2A8E               	goto	u4171
  1750  0A8D  2A8F               	goto	u4170
  1751  0A8E                     u4171:
  1752  0A8E  2ABD               	goto	l3871
  1753  0A8F                     u4170:
  1754  0A8F                     l3857:
  1755                           
  1756                           ;main.c: 350:                 userFalse = 0;
  1757  0A8F  1283               	bcf	3,5	;RP0=0, select bank0
  1758  0A90  1303               	bcf	3,6	;RP1=0, select bank0
  1759  0A91  01E7               	clrf	_userFalse
  1760  0A92  01E8               	clrf	_userFalse+1
  1761  0A93                     l3859:
  1762                           
  1763                           ;main.c: 351:                 menu = 1;
  1764  0A93  3001               	movlw	1
  1765  0A94  00E5               	movwf	_menu
  1766  0A95  3000               	movlw	0
  1767  0A96  00E6               	movwf	_menu+1
  1768  0A97                     l3861:
  1769                           
  1770                           ;main.c: 352:                 n = 10;
  1771  0A97  300A               	movlw	10
  1772  0A98  00C1               	movwf	validaUser@n
  1773  0A99  3000               	movlw	0
  1774  0A9A  00C2               	movwf	validaUser@n+1
  1775  0A9B                     l3863:
  1776                           
  1777                           ;main.c: 353:                 LCD_limpa();
  1778  0A9B  160A  118A  21D4  120A  158A  	fcall	_LCD_limpa
  1779  0AA0                     l3865:
  1780                           
  1781                           ;main.c: 354:                 LCD_linha1();
  1782  0AA0  160A  118A  21E4  120A  158A  	fcall	_LCD_linha1
  1783  0AA5                     l3867:
  1784                           
  1785                           ;main.c: 355:                 escreveMesagem(msgSenhaCorreta);
  1786  0AA5  30BC               	movlw	(low (_msgSenhaCorreta| (0+256)))& (0+255)
  1787  0AA6  00F3               	movwf	escreveMesagem@texto
  1788  0AA7  3001               	movlw	1
  1789  0AA8  00F4               	movwf	escreveMesagem@texto+1
  1790  0AA9  160A  118A  231E  120A  158A  	fcall	_escreveMesagem
  1791  0AAE                     l3869:
  1792                           
  1793                           ;main.c: 356:                 _delay((unsigned long)((2000)*(20000000/4000.0)));
  1794  0AAE  3033               	movlw	51
  1795  0AAF  1283               	bcf	3,5	;RP0=0, select bank0
  1796  0AB0  1303               	bcf	3,6	;RP1=0, select bank0
  1797  0AB1  00C0               	movwf	??_validaUser+2
  1798  0AB2  30BB               	movlw	187
  1799  0AB3  00BF               	movwf	??_validaUser+1
  1800  0AB4  30DF               	movlw	223
  1801  0AB5  00BE               	movwf	??_validaUser
  1802  0AB6                     u4527:
  1803  0AB6  0BBE               	decfsz	??_validaUser,f
  1804  0AB7  2AB6               	goto	u4527
  1805  0AB8  0BBF               	decfsz	??_validaUser+1,f
  1806  0AB9  2AB6               	goto	u4527
  1807  0ABA  0BC0               	decfsz	??_validaUser+2,f
  1808  0ABB  2AB6               	goto	u4527
  1809                           
  1810                           ;main.c: 357:             }
  1811  0ABC  2B0C               	goto	l3891
  1812  0ABD                     l3871:
  1813  0ABD  30DF               	movlw	(low (_senhaUserConfere| 0))& (0+255)
  1814  0ABE  1283               	bcf	3,5	;RP0=0, select bank0
  1815  0ABF  1303               	bcf	3,6	;RP1=0, select bank0
  1816  0AC0  00BE               	movwf	??_validaUser
  1817  0AC1  083E               	movf	??_validaUser,w
  1818  0AC2  00F0               	movwf	strcmp@s2
  1819  0AC3  30DA               	movlw	(low (_senhaCoa| 0))& (0+255)
  1820  0AC4  120A  158A  2003  120A  158A  	fcall	_strcmp
  1821  0AC9  0870               	movf	?_strcmp,w
  1822  0ACA  0471               	iorwf	?_strcmp+1,w
  1823  0ACB  1D03               	btfss	3,2
  1824  0ACC  2ACE               	goto	u4181
  1825  0ACD  2ACF               	goto	u4180
  1826  0ACE                     u4181:
  1827  0ACE  2B0C               	goto	l3891
  1828  0ACF                     u4180:
  1829  0ACF                     l3873:
  1830                           
  1831                           ;main.c: 359:                 unsigned char pos;;main.c: 360:                 userFalse 
      +                          = 0;
  1832  0ACF  1283               	bcf	3,5	;RP0=0, select bank0
  1833  0AD0  1303               	bcf	3,6	;RP1=0, select bank0
  1834  0AD1  01E7               	clrf	_userFalse
  1835  0AD2  01E8               	clrf	_userFalse+1
  1836  0AD3                     l3875:
  1837                           
  1838                           ;main.c: 361:                 n = 10;
  1839  0AD3  300A               	movlw	10
  1840  0AD4  00C1               	movwf	validaUser@n
  1841  0AD5  3000               	movlw	0
  1842  0AD6  00C2               	movwf	validaUser@n+1
  1843  0AD7                     l3877:
  1844  0AD7                     l3879:
  1845                           
  1846                           ;main.c: 363:                 senhaCoaAtivo = 1;
  1847  0AD7  3001               	movlw	1
  1848  0AD8  00E1               	movwf	_senhaCoaAtivo
  1849  0AD9  3000               	movlw	0
  1850  0ADA  00E2               	movwf	_senhaCoaAtivo+1
  1851  0ADB                     l3881:
  1852                           
  1853                           ;main.c: 364:                 LCD_limpa();
  1854  0ADB  160A  118A  21D4  120A  158A  	fcall	_LCD_limpa
  1855  0AE0                     l3883:
  1856                           
  1857                           ;main.c: 365:                 LCD_linha1();
  1858  0AE0  160A  118A  21E4  120A  158A  	fcall	_LCD_linha1
  1859  0AE5                     l3885:
  1860                           
  1861                           ;main.c: 366:                 escreveMesagem(msgSenhaCorreta);
  1862  0AE5  30BC               	movlw	(low (_msgSenhaCorreta| (0+256)))& (0+255)
  1863  0AE6  00F3               	movwf	escreveMesagem@texto
  1864  0AE7  3001               	movlw	1
  1865  0AE8  00F4               	movwf	escreveMesagem@texto+1
  1866  0AE9  160A  118A  231E  120A  158A  	fcall	_escreveMesagem
  1867  0AEE                     l3887:
  1868                           
  1869                           ;main.c: 367:                 _delay((unsigned long)((2000)*(20000000/4000.0)));
  1870  0AEE  3033               	movlw	51
  1871  0AEF  1283               	bcf	3,5	;RP0=0, select bank0
  1872  0AF0  1303               	bcf	3,6	;RP1=0, select bank0
  1873  0AF1  00C0               	movwf	??_validaUser+2
  1874  0AF2  30BB               	movlw	187
  1875  0AF3  00BF               	movwf	??_validaUser+1
  1876  0AF4  30DF               	movlw	223
  1877  0AF5  00BE               	movwf	??_validaUser
  1878  0AF6                     u4537:
  1879  0AF6  0BBE               	decfsz	??_validaUser,f
  1880  0AF7  2AF6               	goto	u4537
  1881  0AF8  0BBF               	decfsz	??_validaUser+1,f
  1882  0AF9  2AF6               	goto	u4537
  1883  0AFA  0BC0               	decfsz	??_validaUser+2,f
  1884  0AFB  2AF6               	goto	u4537
  1885  0AFC                     l3889:
  1886                           
  1887                           ;main.c: 368:                 setaZona(msgZonaDisparadas, msgConfigDispara, pos);
  1888  0AFC  30AF               	movlw	(low (_msgConfigDispara| 0))& (0+255)
  1889  0AFD  1283               	bcf	3,5	;RP0=0, select bank0
  1890  0AFE  1303               	bcf	3,6	;RP1=0, select bank0
  1891  0AFF  00BE               	movwf	??_validaUser
  1892  0B00  083E               	movf	??_validaUser,w
  1893  0B01  00FA               	movwf	setaZona@msgConfigDispara
  1894  0B02  3031               	movlw	49
  1895  0B03  00FB               	movwf	setaZona@pos
  1896  0B04  3000               	movlw	0
  1897  0B05  00FC               	movwf	setaZona@pos+1
  1898  0B06  30A0               	movlw	(low (_msgZonaDisparadas| 0))& (0+255)
  1899  0B07  120A  158A  202D  120A  158A  	fcall	_setaZona
  1900  0B0C                     l3891:
  1901                           
  1902                           ;main.c: 370:         }
  1903  0B0C  3001               	movlw	1
  1904  0B0D  1283               	bcf	3,5	;RP0=0, select bank0
  1905  0B0E  1303               	bcf	3,6	;RP1=0, select bank0
  1906  0B0F  07C1               	addwf	validaUser@n,f
  1907  0B10  1803               	skipnc
  1908  0B11  0AC2               	incf	validaUser@n+1,f
  1909  0B12  3000               	movlw	0
  1910  0B13  07C2               	addwf	validaUser@n+1,f
  1911  0B14                     l3893:
  1912  0B14  0842               	movf	validaUser@n+1,w
  1913  0B15  3A80               	xorlw	128
  1914  0B16  00FF               	movwf	btemp+1
  1915  0B17  3080               	movlw	128
  1916  0B18  027F               	subwf	btemp+1,w
  1917  0B19  1D03               	skipz
  1918  0B1A  2B1D               	goto	u4195
  1919  0B1B  3008               	movlw	8
  1920  0B1C  0241               	subwf	validaUser@n,w
  1921  0B1D                     u4195:
  1922  0B1D  1C03               	skipc
  1923  0B1E  2B20               	goto	u4191
  1924  0B1F  2B21               	goto	u4190
  1925  0B20                     u4191:
  1926  0B20  2A04               	goto	l3829
  1927  0B21                     u4190:
  1928  0B21                     l3895:
  1929                           
  1930                           ;main.c: 331:     while(userFalse){
  1931  0B21  1283               	bcf	3,5	;RP0=0, select bank0
  1932  0B22  1303               	bcf	3,6	;RP1=0, select bank0
  1933  0B23  0867               	movf	_userFalse,w
  1934  0B24  0468               	iorwf	_userFalse+1,w
  1935  0B25  1D03               	btfss	3,2
  1936  0B26  2B28               	goto	u4201
  1937  0B27  2B29               	goto	u4200
  1938  0B28                     u4201:
  1939  0B28  2A02               	goto	l3823
  1940  0B29                     u4200:
  1941  0B29                     l315:
  1942  0B29  0008               	return
  1943  0B2A                     __end_of_validaUser:
  1944                           
  1945                           	psect	text2
  1946  1393                     __ptext2:	
  1947 ;; *************** function _telaInicial *****************
  1948 ;; Defined at:
  1949 ;;		line 302 in file "main.c"
  1950 ;; Parameters:    Size  Location     Type
  1951 ;;		None
  1952 ;; Auto vars:     Size  Location     Type
  1953 ;;  i               2    6[COMMON] int 
  1954 ;; Return value:  Size  Location     Type
  1955 ;;                  1    wreg      void 
  1956 ;; Registers used:
  1957 ;;		wreg, fsr0l, fsr0h, status,2, status,0, btemp+1, pclath, cstack
  1958 ;; Tracked objects:
  1959 ;;		On entry : 0/0
  1960 ;;		On exit  : 0/0
  1961 ;;		Unchanged: 0/0
  1962 ;; Data sizes:     COMMON   BANK0   BANK1   BANK3   BANK2
  1963 ;;      Params:         0       0       0       0       0
  1964 ;;      Locals:         2       0       0       0       0
  1965 ;;      Temps:          2       0       0       0       0
  1966 ;;      Totals:         4       0       0       0       0
  1967 ;;Total ram usage:        4 bytes
  1968 ;; Hardware stack levels used: 1
  1969 ;; Hardware stack levels required when called: 2
  1970 ;; This function calls:
  1971 ;;		_LCD_escreve
  1972 ;;		_LCD_linha1
  1973 ;;		_strlen
  1974 ;; This function is called by:
  1975 ;;		_validaUser
  1976 ;; This function uses a non-reentrant model
  1977 ;;
  1978                           
  1979                           
  1980                           ;psect for function _telaInicial
  1981  1393                     _telaInicial:
  1982  1393                     l3801:	
  1983                           ;incstack = 0
  1984                           ; Regs used in _telaInicial: [wreg-fsr0h+status,2+status,0+btemp+1+pclath+cstack]
  1985                           
  1986                           
  1987                           ;main.c: 303:     LCD_linha1();
  1988  1393  160A  118A  21E4  160A  118A  	fcall	_LCD_linha1
  1989                           
  1990                           ;main.c: 304:     LCD_escreve(' ');
  1991  1398  3020               	movlw	32
  1992  1399  160A  118A  21F4  160A  118A  	fcall	_LCD_escreve
  1993  139E                     l3803:
  1994                           
  1995                           ;main.c: 305:     for (int i = 0; i <= strlen(msgDigiteSenha)-1; i++){
  1996  139E  01F6               	clrf	telaInicial@i
  1997  139F  01F7               	clrf	telaInicial@i+1
  1998  13A0  2BB1               	goto	l3809
  1999  13A1                     l3805:
  2000                           
  2001                           ;main.c: 306:         LCD_escreve(msgDigiteSenha[i]);
  2002  13A1  0876               	movf	telaInicial@i,w
  2003  13A2  3E41               	addlw	(low (_msgDigiteSenha| (0+256)))& (0+255)
  2004  13A3  0084               	movwf	4
  2005  13A4  1783               	bsf	3,7	;select IRP bank2
  2006  13A5  0800               	movf	0,w
  2007  13A6  160A  118A  21F4  160A  118A  	fcall	_LCD_escreve
  2008  13AB                     l3807:
  2009                           
  2010                           ;main.c: 307:     }
  2011  13AB  3001               	movlw	1
  2012  13AC  07F6               	addwf	telaInicial@i,f
  2013  13AD  1803               	skipnc
  2014  13AE  0AF7               	incf	telaInicial@i+1,f
  2015  13AF  3000               	movlw	0
  2016  13B0  07F7               	addwf	telaInicial@i+1,f
  2017  13B1                     l3809:
  2018  13B1  3041               	movlw	(low (_msgDigiteSenha| (0+256)))& (0+255)
  2019  13B2  00F0               	movwf	strlen@s
  2020  13B3  3001               	movlw	1
  2021  13B4  00F1               	movwf	strlen@s+1
  2022  13B5  120A  118A  2004  160A  118A  	fcall	_strlen
  2023  13BA  0870               	movf	?_strlen,w
  2024  13BB  3EFF               	addlw	255
  2025  13BC  00F4               	movwf	??_telaInicial
  2026  13BD  0871               	movf	?_strlen+1,w
  2027  13BE  1803               	skipnc
  2028  13BF  3E01               	addlw	1
  2029  13C0  3EFF               	addlw	255
  2030  13C1  00F5               	movwf	??_telaInicial+1
  2031  13C2  0877               	movf	telaInicial@i+1,w
  2032  13C3  0275               	subwf	??_telaInicial+1,w
  2033  13C4  1D03               	skipz
  2034  13C5  2BC8               	goto	u4125
  2035  13C6  0876               	movf	telaInicial@i,w
  2036  13C7  0274               	subwf	??_telaInicial,w
  2037  13C8                     u4125:
  2038  13C8  1803               	skipnc
  2039  13C9  2BCB               	goto	u4121
  2040  13CA  2BCC               	goto	u4120
  2041  13CB                     u4121:
  2042  13CB  2BA1               	goto	l3805
  2043  13CC                     u4120:
  2044  13CC                     l3811:
  2045                           
  2046                           ;main.c: 308:     LCD_escreve(' ');
  2047  13CC  3020               	movlw	32
  2048  13CD  160A  118A  21F4  160A  118A  	fcall	_LCD_escreve
  2049  13D2                     l288:
  2050  13D2  0008               	return
  2051  13D3                     __end_of_telaInicial:
  2052                           
  2053                           	psect	text3
  2054  0803                     __ptext3:	
  2055 ;; *************** function _strcmp *****************
  2056 ;; Defined at:
  2057 ;;		line 33 in file "C:\Program Files\Microchip\xc8\v2.32\pic\sources\c90\common\strcmp.c"
  2058 ;; Parameters:    Size  Location     Type
  2059 ;;  s1              1    wreg     PTR const unsigned char 
  2060 ;;		 -> senhaCoa(5), senhaUser(5), 
  2061 ;;  s2              1    0[COMMON] PTR const unsigned char 
  2062 ;;		 -> senhaUserConfere(5), 
  2063 ;; Auto vars:     Size  Location     Type
  2064 ;;  s1              1    6[COMMON] PTR const unsigned char 
  2065 ;;		 -> senhaCoa(5), senhaUser(5), 
  2066 ;;  r               1    5[COMMON] char 
  2067 ;; Return value:  Size  Location     Type
  2068 ;;                  2    0[COMMON] int 
  2069 ;; Registers used:
  2070 ;;		wreg, fsr0l, fsr0h, status,2, status,0
  2071 ;; Tracked objects:
  2072 ;;		On entry : 0/0
  2073 ;;		On exit  : 0/0
  2074 ;;		Unchanged: 0/0
  2075 ;; Data sizes:     COMMON   BANK0   BANK1   BANK3   BANK2
  2076 ;;      Params:         2       0       0       0       0
  2077 ;;      Locals:         2       0       0       0       0
  2078 ;;      Temps:          3       0       0       0       0
  2079 ;;      Totals:         7       0       0       0       0
  2080 ;;Total ram usage:        7 bytes
  2081 ;; Hardware stack levels used: 1
  2082 ;; This function calls:
  2083 ;;		Nothing
  2084 ;; This function is called by:
  2085 ;;		_validaUser
  2086 ;; This function uses a non-reentrant model
  2087 ;;
  2088                           
  2089                           
  2090                           ;psect for function _strcmp
  2091  0803                     _strcmp:
  2092                           
  2093                           ;incstack = 0
  2094                           ; Regs used in _strcmp: [wreg-fsr0h+status,2+status,0]
  2095                           ;strcmp@s1 stored from wreg
  2096  0803  00F6               	movwf	strcmp@s1
  2097  0804                     l3235:
  2098  0804  280D               	goto	l3241
  2099  0805                     l3237:
  2100  0805  3001               	movlw	1
  2101  0806  00F2               	movwf	??_strcmp
  2102  0807  0872               	movf	??_strcmp,w
  2103  0808  07F6               	addwf	strcmp@s1,f
  2104  0809                     l3239:
  2105  0809  3001               	movlw	1
  2106  080A  00F2               	movwf	??_strcmp
  2107  080B  0872               	movf	??_strcmp,w
  2108  080C  07F0               	addwf	strcmp@s2,f
  2109  080D                     l3241:
  2110  080D  0870               	movf	strcmp@s2,w
  2111  080E  0084               	movwf	4
  2112  080F  1383               	bcf	3,7	;select IRP bank0
  2113  0810  0800               	movf	0,w
  2114  0811  00F2               	movwf	??_strcmp
  2115  0812  0876               	movf	strcmp@s1,w
  2116  0813  0084               	movwf	4
  2117  0814  0800               	movf	0,w
  2118  0815  00F3               	movwf	??_strcmp+1
  2119  0816  0872               	movf	??_strcmp,w
  2120  0817  0273               	subwf	??_strcmp+1,w
  2121  0818  00F4               	movwf	??_strcmp+2
  2122  0819  0874               	movf	??_strcmp+2,w
  2123  081A  00F5               	movwf	strcmp@r
  2124  081B  0875               	movf	strcmp@r,w
  2125  081C  1D03               	btfss	3,2
  2126  081D  281F               	goto	u3491
  2127  081E  2820               	goto	u3490
  2128  081F                     u3491:
  2129  081F  2827               	goto	l3245
  2130  0820                     u3490:
  2131  0820                     l3243:
  2132  0820  0876               	movf	strcmp@s1,w
  2133  0821  0084               	movwf	4
  2134  0822  0800               	movf	0,w
  2135  0823  1D03               	btfss	3,2
  2136  0824  2826               	goto	u3501
  2137  0825  2827               	goto	u3500
  2138  0826                     u3501:
  2139  0826  2805               	goto	l3237
  2140  0827                     u3500:
  2141  0827                     l3245:
  2142  0827  0875               	movf	strcmp@r,w
  2143  0828  00F0               	movwf	?_strcmp
  2144  0829  01F1               	clrf	?_strcmp+1
  2145  082A  1BF0               	btfsc	?_strcmp,7
  2146  082B  03F1               	decf	?_strcmp+1,f
  2147  082C                     l931:
  2148  082C  0008               	return
  2149  082D                     __end_of_strcmp:
  2150                           
  2151                           	psect	text4
  2152  0B2A                     __ptext4:	
  2153 ;; *************** function _listaZonas *****************
  2154 ;; Defined at:
  2155 ;;		line 373 in file "main.c"
  2156 ;; Parameters:    Size  Location     Type
  2157 ;;  valorSensor     2   27[BANK0 ] unsigned int 
  2158 ;; Auto vars:     Size  Location     Type
  2159 ;;		None
  2160 ;; Return value:  Size  Location     Type
  2161 ;;                  1    wreg      void 
  2162 ;; Registers used:
  2163 ;;		wreg, fsr0l, fsr0h, status,2, status,0, btemp+1, pclath, cstack
  2164 ;; Tracked objects:
  2165 ;;		On entry : 0/0
  2166 ;;		On exit  : 0/0
  2167 ;;		Unchanged: 0/0
  2168 ;; Data sizes:     COMMON   BANK0   BANK1   BANK3   BANK2
  2169 ;;      Params:         0       2       0       0       0
  2170 ;;      Locals:         0       0       0       0       0
  2171 ;;      Temps:          0       3       0       0       0
  2172 ;;      Totals:         0       5       0       0       0
  2173 ;;Total ram usage:        5 bytes
  2174 ;; Hardware stack levels used: 1
  2175 ;; Hardware stack levels required when called: 3
  2176 ;; This function calls:
  2177 ;;		_LCD_escreve
  2178 ;;		_LCD_init
  2179 ;;		_LCD_limpa
  2180 ;;		_LCD_linha1
  2181 ;;		_LCD_linha2
  2182 ;;		_escreveMesagem
  2183 ;;		_liga_buzzer
  2184 ;; This function is called by:
  2185 ;;		_main
  2186 ;; This function uses a non-reentrant model
  2187 ;;
  2188                           
  2189                           
  2190                           ;psect for function _listaZonas
  2191  0B2A                     _listaZonas:
  2192  0B2A                     l3897:	
  2193                           ;incstack = 0
  2194                           ; Regs used in _listaZonas: [wreg-fsr0h+status,2+status,0+btemp+1+pclath+cstack]
  2195                           
  2196                           
  2197                           ;main.c: 374:     PORTB = 0b10111111;
  2198  0B2A  30BF               	movlw	191
  2199  0B2B  1283               	bcf	3,5	;RP0=0, select bank0
  2200  0B2C  1303               	bcf	3,6	;RP1=0, select bank0
  2201  0B2D  0086               	movwf	6	;volatile
  2202                           
  2203                           ;main.c: 375:     if (valorSensor <= auxSensor){
  2204  0B2E  3000               	movlw	0
  2205  0B2F  023C               	subwf	listaZonas@valorSensor+1,w
  2206  0B30  30AB               	movlw	171
  2207  0B31  1903               	skipnz
  2208  0B32  023B               	subwf	listaZonas@valorSensor,w
  2209  0B33  1803               	skipnc
  2210  0B34  2B36               	goto	u4211
  2211  0B35  2B37               	goto	u4210
  2212  0B36                     u4211:
  2213  0B36  2B8D               	goto	l3913
  2214  0B37                     u4210:
  2215  0B37                     l3899:
  2216                           
  2217                           ;main.c: 376:         LCD_init();
  2218  0B37  160A  118A  22EB  120A  158A  	fcall	_LCD_init
  2219                           
  2220                           ;main.c: 377:         LCD_limpa();
  2221  0B3C  160A  118A  21D4  120A  158A  	fcall	_LCD_limpa
  2222                           
  2223                           ;main.c: 378:         LCD_linha1();
  2224  0B41  160A  118A  21E4  120A  158A  	fcall	_LCD_linha1
  2225                           
  2226                           ;main.c: 379:         LCD_escreve('>');
  2227  0B46  303E               	movlw	62
  2228  0B47  160A  118A  21F4  120A  158A  	fcall	_LCD_escreve
  2229  0B4C                     l3901:
  2230                           
  2231                           ;main.c: 380:         escreveMesagem(msgSenhaConfig);
  2232  0B4C  30D7               	movlw	(low (_msgSenhaConfig| (0+256)))& (0+255)
  2233  0B4D  00F3               	movwf	escreveMesagem@texto
  2234  0B4E  3001               	movlw	1
  2235  0B4F  00F4               	movwf	escreveMesagem@texto+1
  2236  0B50  160A  118A  231E  120A  158A  	fcall	_escreveMesagem
  2237  0B55                     l3903:
  2238                           
  2239                           ;main.c: 381:         LCD_linha2();
  2240  0B55  160A  118A  21C4  120A  158A  	fcall	_LCD_linha2
  2241                           
  2242                           ;main.c: 382:         escreveMesagem(msgSenhaUsuario);
  2243  0B5A  30AE               	movlw	(low (_msgSenhaUsuario| (0+256)))& (0+255)
  2244  0B5B  00F3               	movwf	escreveMesagem@texto
  2245  0B5C  3001               	movlw	1
  2246  0B5D  00F4               	movwf	escreveMesagem@texto+1
  2247  0B5E  160A  118A  231E  120A  158A  	fcall	_escreveMesagem
  2248  0B63                     l3905:
  2249                           
  2250                           ;main.c: 383:         if (RB2 == 0){
  2251  0B63  1283               	bcf	3,5	;RP0=0, select bank0
  2252  0B64  1303               	bcf	3,6	;RP1=0, select bank0
  2253  0B65  1906               	btfsc	6,2	;volatile
  2254  0B66  2B68               	goto	u4221
  2255  0B67  2B69               	goto	u4220
  2256  0B68                     u4221:
  2257  0B68  2D67               	goto	l335
  2258  0B69                     u4220:
  2259  0B69                     l3907:
  2260                           
  2261                           ;main.c: 384:             _delay((unsigned long)((100)*(20000000/4000.0)));
  2262  0B69  3003               	movlw	3
  2263  0B6A  1283               	bcf	3,5	;RP0=0, select bank0
  2264  0B6B  1303               	bcf	3,6	;RP1=0, select bank0
  2265  0B6C  00BF               	movwf	??_listaZonas+2
  2266  0B6D  308A               	movlw	138
  2267  0B6E  00BE               	movwf	??_listaZonas+1
  2268  0B6F  3055               	movlw	85
  2269  0B70  00BD               	movwf	??_listaZonas
  2270  0B71                     u4547:
  2271  0B71  0BBD               	decfsz	??_listaZonas,f
  2272  0B72  2B71               	goto	u4547
  2273  0B73  0BBE               	decfsz	??_listaZonas+1,f
  2274  0B74  2B71               	goto	u4547
  2275  0B75  0BBF               	decfsz	??_listaZonas+2,f
  2276  0B76  2B71               	goto	u4547
  2277  0B77                     l3909:
  2278                           
  2279                           ;main.c: 385:             liga_buzzer(0.1);
  2280  0B77  303D               	movlw	61
  2281  0B78  1283               	bcf	3,5	;RP0=0, select bank0
  2282  0B79  1303               	bcf	3,6	;RP1=0, select bank0
  2283  0B7A  00B8               	movwf	liga_buzzer@tempoSegundos+3
  2284  0B7B  30CC               	movlw	204
  2285  0B7C  00B7               	movwf	liga_buzzer@tempoSegundos+2
  2286  0B7D  30CC               	movlw	204
  2287  0B7E  00B6               	movwf	liga_buzzer@tempoSegundos+1
  2288  0B7F  30CD               	movlw	205
  2289  0B80  00B5               	movwf	liga_buzzer@tempoSegundos
  2290  0B81  160A  118A  263C  120A  158A  	fcall	_liga_buzzer
  2291  0B86                     l3911:
  2292                           
  2293                           ;main.c: 386:             opConfig = 1;
  2294  0B86  3001               	movlw	1
  2295  0B87  1283               	bcf	3,5	;RP0=0, select bank0
  2296  0B88  1303               	bcf	3,6	;RP1=0, select bank0
  2297  0B89  00D7               	movwf	_opConfig
  2298  0B8A  3000               	movlw	0
  2299  0B8B  00D8               	movwf	_opConfig+1
  2300  0B8C  2D67               	goto	l335
  2301  0B8D                     l3913:
  2302  0B8D  3001               	movlw	1
  2303  0B8E  023C               	subwf	listaZonas@valorSensor+1,w
  2304  0B8F  3055               	movlw	85
  2305  0B90  1903               	skipnz
  2306  0B91  023B               	subwf	listaZonas@valorSensor,w
  2307  0B92  1803               	skipnc
  2308  0B93  2B95               	goto	u4231
  2309  0B94  2B96               	goto	u4230
  2310  0B95                     u4231:
  2311  0B95  2BEC               	goto	l3933
  2312  0B96                     u4230:
  2313  0B96                     l3915:
  2314                           
  2315                           ;main.c: 390:         LCD_init();
  2316  0B96  160A  118A  22EB  120A  158A  	fcall	_LCD_init
  2317                           
  2318                           ;main.c: 391:         LCD_limpa();
  2319  0B9B  160A  118A  21D4  120A  158A  	fcall	_LCD_limpa
  2320                           
  2321                           ;main.c: 392:         LCD_linha1();
  2322  0BA0  160A  118A  21E4  120A  158A  	fcall	_LCD_linha1
  2323  0BA5                     l3917:
  2324                           
  2325                           ;main.c: 393:         escreveMesagem(msgSenhaConfig);
  2326  0BA5  30D7               	movlw	(low (_msgSenhaConfig| (0+256)))& (0+255)
  2327  0BA6  00F3               	movwf	escreveMesagem@texto
  2328  0BA7  3001               	movlw	1
  2329  0BA8  00F4               	movwf	escreveMesagem@texto+1
  2330  0BA9  160A  118A  231E  120A  158A  	fcall	_escreveMesagem
  2331  0BAE                     l3919:
  2332                           
  2333                           ;main.c: 394:         LCD_linha2();
  2334  0BAE  160A  118A  21C4  120A  158A  	fcall	_LCD_linha2
  2335  0BB3                     l3921:
  2336                           
  2337                           ;main.c: 395:         LCD_escreve('>');
  2338  0BB3  303E               	movlw	62
  2339  0BB4  160A  118A  21F4  120A  158A  	fcall	_LCD_escreve
  2340  0BB9                     l3923:
  2341                           
  2342                           ;main.c: 396:         escreveMesagem(msgSenhaUsuario);
  2343  0BB9  30AE               	movlw	(low (_msgSenhaUsuario| (0+256)))& (0+255)
  2344  0BBA  00F3               	movwf	escreveMesagem@texto
  2345  0BBB  3001               	movlw	1
  2346  0BBC  00F4               	movwf	escreveMesagem@texto+1
  2347  0BBD  160A  118A  231E  120A  158A  	fcall	_escreveMesagem
  2348  0BC2                     l3925:
  2349                           
  2350                           ;main.c: 397:         if (RB2 == 0){
  2351  0BC2  1283               	bcf	3,5	;RP0=0, select bank0
  2352  0BC3  1303               	bcf	3,6	;RP1=0, select bank0
  2353  0BC4  1906               	btfsc	6,2	;volatile
  2354  0BC5  2BC7               	goto	u4241
  2355  0BC6  2BC8               	goto	u4240
  2356  0BC7                     u4241:
  2357  0BC7  2D67               	goto	l335
  2358  0BC8                     u4240:
  2359  0BC8                     l3927:
  2360                           
  2361                           ;main.c: 398:             _delay((unsigned long)((100)*(20000000/4000.0)));
  2362  0BC8  3003               	movlw	3
  2363  0BC9  1283               	bcf	3,5	;RP0=0, select bank0
  2364  0BCA  1303               	bcf	3,6	;RP1=0, select bank0
  2365  0BCB  00BF               	movwf	??_listaZonas+2
  2366  0BCC  308A               	movlw	138
  2367  0BCD  00BE               	movwf	??_listaZonas+1
  2368  0BCE  3055               	movlw	85
  2369  0BCF  00BD               	movwf	??_listaZonas
  2370  0BD0                     u4557:
  2371  0BD0  0BBD               	decfsz	??_listaZonas,f
  2372  0BD1  2BD0               	goto	u4557
  2373  0BD2  0BBE               	decfsz	??_listaZonas+1,f
  2374  0BD3  2BD0               	goto	u4557
  2375  0BD4  0BBF               	decfsz	??_listaZonas+2,f
  2376  0BD5  2BD0               	goto	u4557
  2377  0BD6                     l3929:
  2378                           
  2379                           ;main.c: 399:             liga_buzzer(0.1);
  2380  0BD6  303D               	movlw	61
  2381  0BD7  1283               	bcf	3,5	;RP0=0, select bank0
  2382  0BD8  1303               	bcf	3,6	;RP1=0, select bank0
  2383  0BD9  00B8               	movwf	liga_buzzer@tempoSegundos+3
  2384  0BDA  30CC               	movlw	204
  2385  0BDB  00B7               	movwf	liga_buzzer@tempoSegundos+2
  2386  0BDC  30CC               	movlw	204
  2387  0BDD  00B6               	movwf	liga_buzzer@tempoSegundos+1
  2388  0BDE  30CD               	movlw	205
  2389  0BDF  00B5               	movwf	liga_buzzer@tempoSegundos
  2390  0BE0  160A  118A  263C  120A  158A  	fcall	_liga_buzzer
  2391  0BE5                     l3931:
  2392                           
  2393                           ;main.c: 400:             opConfig = 2;
  2394  0BE5  3002               	movlw	2
  2395  0BE6  1283               	bcf	3,5	;RP0=0, select bank0
  2396  0BE7  1303               	bcf	3,6	;RP1=0, select bank0
  2397  0BE8  00D7               	movwf	_opConfig
  2398  0BE9  3000               	movlw	0
  2399  0BEA  00D8               	movwf	_opConfig+1
  2400  0BEB  2D67               	goto	l335
  2401  0BEC                     l3933:
  2402  0BEC  3001               	movlw	1
  2403  0BED  023C               	subwf	listaZonas@valorSensor+1,w
  2404  0BEE  30FF               	movlw	255
  2405  0BEF  1903               	skipnz
  2406  0BF0  023B               	subwf	listaZonas@valorSensor,w
  2407  0BF1  1803               	skipnc
  2408  0BF2  2BF4               	goto	u4251
  2409  0BF3  2BF5               	goto	u4250
  2410  0BF4                     u4251:
  2411  0BF4  2C4B               	goto	l3949
  2412  0BF5                     u4250:
  2413  0BF5                     l3935:
  2414                           
  2415                           ;main.c: 404:         LCD_init();
  2416  0BF5  160A  118A  22EB  120A  158A  	fcall	_LCD_init
  2417                           
  2418                           ;main.c: 405:         LCD_limpa();
  2419  0BFA  160A  118A  21D4  120A  158A  	fcall	_LCD_limpa
  2420                           
  2421                           ;main.c: 406:         LCD_linha1();
  2422  0BFF  160A  118A  21E4  120A  158A  	fcall	_LCD_linha1
  2423                           
  2424                           ;main.c: 407:         LCD_escreve('>');
  2425  0C04  303E               	movlw	62
  2426  0C05  160A  118A  21F4  120A  158A  	fcall	_LCD_escreve
  2427  0C0A                     l3937:
  2428                           
  2429                           ;main.c: 408:         escreveMesagem(msgSenhaCoacao);
  2430  0C0A  30CA               	movlw	(low (_msgSenhaCoacao| (0+256)))& (0+255)
  2431  0C0B  00F3               	movwf	escreveMesagem@texto
  2432  0C0C  3001               	movlw	1
  2433  0C0D  00F4               	movwf	escreveMesagem@texto+1
  2434  0C0E  160A  118A  231E  120A  158A  	fcall	_escreveMesagem
  2435  0C13                     l3939:
  2436                           
  2437                           ;main.c: 409:         LCD_linha2();
  2438  0C13  160A  118A  21C4  120A  158A  	fcall	_LCD_linha2
  2439                           
  2440                           ;main.c: 410:         escreveMesagem(msgSenhaDisparo);
  2441  0C18  309F               	movlw	(low (_msgSenhaDisparo| (0+256)))& (0+255)
  2442  0C19  00F3               	movwf	escreveMesagem@texto
  2443  0C1A  3001               	movlw	1
  2444  0C1B  00F4               	movwf	escreveMesagem@texto+1
  2445  0C1C  160A  118A  231E  120A  158A  	fcall	_escreveMesagem
  2446  0C21                     l3941:
  2447                           
  2448                           ;main.c: 411:         if (RB2 == 0){
  2449  0C21  1283               	bcf	3,5	;RP0=0, select bank0
  2450  0C22  1303               	bcf	3,6	;RP1=0, select bank0
  2451  0C23  1906               	btfsc	6,2	;volatile
  2452  0C24  2C26               	goto	u4261
  2453  0C25  2C27               	goto	u4260
  2454  0C26                     u4261:
  2455  0C26  2D67               	goto	l335
  2456  0C27                     u4260:
  2457  0C27                     l3943:
  2458                           
  2459                           ;main.c: 412:             _delay((unsigned long)((100)*(20000000/4000.0)));
  2460  0C27  3003               	movlw	3
  2461  0C28  1283               	bcf	3,5	;RP0=0, select bank0
  2462  0C29  1303               	bcf	3,6	;RP1=0, select bank0
  2463  0C2A  00BF               	movwf	??_listaZonas+2
  2464  0C2B  308A               	movlw	138
  2465  0C2C  00BE               	movwf	??_listaZonas+1
  2466  0C2D  3055               	movlw	85
  2467  0C2E  00BD               	movwf	??_listaZonas
  2468  0C2F                     u4567:
  2469  0C2F  0BBD               	decfsz	??_listaZonas,f
  2470  0C30  2C2F               	goto	u4567
  2471  0C31  0BBE               	decfsz	??_listaZonas+1,f
  2472  0C32  2C2F               	goto	u4567
  2473  0C33  0BBF               	decfsz	??_listaZonas+2,f
  2474  0C34  2C2F               	goto	u4567
  2475  0C35                     l3945:
  2476                           
  2477                           ;main.c: 413:             liga_buzzer(0.1);
  2478  0C35  303D               	movlw	61
  2479  0C36  1283               	bcf	3,5	;RP0=0, select bank0
  2480  0C37  1303               	bcf	3,6	;RP1=0, select bank0
  2481  0C38  00B8               	movwf	liga_buzzer@tempoSegundos+3
  2482  0C39  30CC               	movlw	204
  2483  0C3A  00B7               	movwf	liga_buzzer@tempoSegundos+2
  2484  0C3B  30CC               	movlw	204
  2485  0C3C  00B6               	movwf	liga_buzzer@tempoSegundos+1
  2486  0C3D  30CD               	movlw	205
  2487  0C3E  00B5               	movwf	liga_buzzer@tempoSegundos
  2488  0C3F  160A  118A  263C  120A  158A  	fcall	_liga_buzzer
  2489  0C44                     l3947:
  2490                           
  2491                           ;main.c: 414:             opConfig = 3;
  2492  0C44  3003               	movlw	3
  2493  0C45  1283               	bcf	3,5	;RP0=0, select bank0
  2494  0C46  1303               	bcf	3,6	;RP1=0, select bank0
  2495  0C47  00D7               	movwf	_opConfig
  2496  0C48  3000               	movlw	0
  2497  0C49  00D8               	movwf	_opConfig+1
  2498  0C4A  2D67               	goto	l335
  2499  0C4B                     l3949:
  2500  0C4B  3002               	movlw	2
  2501  0C4C  023C               	subwf	listaZonas@valorSensor+1,w
  2502  0C4D  30A9               	movlw	169
  2503  0C4E  1903               	skipnz
  2504  0C4F  023B               	subwf	listaZonas@valorSensor,w
  2505  0C50  1803               	skipnc
  2506  0C51  2C53               	goto	u4271
  2507  0C52  2C54               	goto	u4270
  2508  0C53                     u4271:
  2509  0C53  2CAA               	goto	l3969
  2510  0C54                     u4270:
  2511  0C54                     l3951:
  2512                           
  2513                           ;main.c: 418:         LCD_init();
  2514  0C54  160A  118A  22EB  120A  158A  	fcall	_LCD_init
  2515                           
  2516                           ;main.c: 419:         LCD_limpa();
  2517  0C59  160A  118A  21D4  120A  158A  	fcall	_LCD_limpa
  2518                           
  2519                           ;main.c: 420:         LCD_linha1();
  2520  0C5E  160A  118A  21E4  120A  158A  	fcall	_LCD_linha1
  2521  0C63                     l3953:
  2522                           
  2523                           ;main.c: 421:         escreveMesagem(msgSenhaCoacao);
  2524  0C63  30CA               	movlw	(low (_msgSenhaCoacao| (0+256)))& (0+255)
  2525  0C64  00F3               	movwf	escreveMesagem@texto
  2526  0C65  3001               	movlw	1
  2527  0C66  00F4               	movwf	escreveMesagem@texto+1
  2528  0C67  160A  118A  231E  120A  158A  	fcall	_escreveMesagem
  2529  0C6C                     l3955:
  2530                           
  2531                           ;main.c: 422:         LCD_linha2();
  2532  0C6C  160A  118A  21C4  120A  158A  	fcall	_LCD_linha2
  2533  0C71                     l3957:
  2534                           
  2535                           ;main.c: 423:         LCD_escreve('>');
  2536  0C71  303E               	movlw	62
  2537  0C72  160A  118A  21F4  120A  158A  	fcall	_LCD_escreve
  2538  0C77                     l3959:
  2539                           
  2540                           ;main.c: 424:         escreveMesagem(msgSenhaDisparo);
  2541  0C77  309F               	movlw	(low (_msgSenhaDisparo| (0+256)))& (0+255)
  2542  0C78  00F3               	movwf	escreveMesagem@texto
  2543  0C79  3001               	movlw	1
  2544  0C7A  00F4               	movwf	escreveMesagem@texto+1
  2545  0C7B  160A  118A  231E  120A  158A  	fcall	_escreveMesagem
  2546  0C80                     l3961:
  2547                           
  2548                           ;main.c: 425:         if (RB2 == 0){
  2549  0C80  1283               	bcf	3,5	;RP0=0, select bank0
  2550  0C81  1303               	bcf	3,6	;RP1=0, select bank0
  2551  0C82  1906               	btfsc	6,2	;volatile
  2552  0C83  2C85               	goto	u4281
  2553  0C84  2C86               	goto	u4280
  2554  0C85                     u4281:
  2555  0C85  2D67               	goto	l335
  2556  0C86                     u4280:
  2557  0C86                     l3963:
  2558                           
  2559                           ;main.c: 426:             _delay((unsigned long)((100)*(20000000/4000.0)));
  2560  0C86  3003               	movlw	3
  2561  0C87  1283               	bcf	3,5	;RP0=0, select bank0
  2562  0C88  1303               	bcf	3,6	;RP1=0, select bank0
  2563  0C89  00BF               	movwf	??_listaZonas+2
  2564  0C8A  308A               	movlw	138
  2565  0C8B  00BE               	movwf	??_listaZonas+1
  2566  0C8C  3055               	movlw	85
  2567  0C8D  00BD               	movwf	??_listaZonas
  2568  0C8E                     u4577:
  2569  0C8E  0BBD               	decfsz	??_listaZonas,f
  2570  0C8F  2C8E               	goto	u4577
  2571  0C90  0BBE               	decfsz	??_listaZonas+1,f
  2572  0C91  2C8E               	goto	u4577
  2573  0C92  0BBF               	decfsz	??_listaZonas+2,f
  2574  0C93  2C8E               	goto	u4577
  2575  0C94                     l3965:
  2576                           
  2577                           ;main.c: 427:             liga_buzzer(0.1);
  2578  0C94  303D               	movlw	61
  2579  0C95  1283               	bcf	3,5	;RP0=0, select bank0
  2580  0C96  1303               	bcf	3,6	;RP1=0, select bank0
  2581  0C97  00B8               	movwf	liga_buzzer@tempoSegundos+3
  2582  0C98  30CC               	movlw	204
  2583  0C99  00B7               	movwf	liga_buzzer@tempoSegundos+2
  2584  0C9A  30CC               	movlw	204
  2585  0C9B  00B6               	movwf	liga_buzzer@tempoSegundos+1
  2586  0C9C  30CD               	movlw	205
  2587  0C9D  00B5               	movwf	liga_buzzer@tempoSegundos
  2588  0C9E  160A  118A  263C  120A  158A  	fcall	_liga_buzzer
  2589  0CA3                     l3967:
  2590                           
  2591                           ;main.c: 428:             opConfig = 4;
  2592  0CA3  3004               	movlw	4
  2593  0CA4  1283               	bcf	3,5	;RP0=0, select bank0
  2594  0CA5  1303               	bcf	3,6	;RP1=0, select bank0
  2595  0CA6  00D7               	movwf	_opConfig
  2596  0CA7  3000               	movlw	0
  2597  0CA8  00D8               	movwf	_opConfig+1
  2598  0CA9  2D67               	goto	l335
  2599  0CAA                     l3969:
  2600  0CAA  3003               	movlw	3
  2601  0CAB  023C               	subwf	listaZonas@valorSensor+1,w
  2602  0CAC  3053               	movlw	83
  2603  0CAD  1903               	skipnz
  2604  0CAE  023B               	subwf	listaZonas@valorSensor,w
  2605  0CAF  1803               	skipnc
  2606  0CB0  2CB2               	goto	u4291
  2607  0CB1  2CB3               	goto	u4290
  2608  0CB2                     u4291:
  2609  0CB2  2D09               	goto	l3985
  2610  0CB3                     u4290:
  2611  0CB3                     l3971:
  2612                           
  2613                           ;main.c: 432:         LCD_init();
  2614  0CB3  160A  118A  22EB  120A  158A  	fcall	_LCD_init
  2615                           
  2616                           ;main.c: 433:         LCD_limpa();
  2617  0CB8  160A  118A  21D4  120A  158A  	fcall	_LCD_limpa
  2618                           
  2619                           ;main.c: 434:         LCD_linha1();
  2620  0CBD  160A  118A  21E4  120A  158A  	fcall	_LCD_linha1
  2621                           
  2622                           ;main.c: 435:         LCD_escreve('>');
  2623  0CC2  303E               	movlw	62
  2624  0CC3  160A  118A  21F4  120A  158A  	fcall	_LCD_escreve
  2625  0CC8                     l3973:
  2626                           
  2627                           ;main.c: 436:         escreveMesagem(msgDesativarZona);
  2628  0CC8  3090               	movlw	(low (_msgDesativarZona| (0+256)))& (0+255)
  2629  0CC9  00F3               	movwf	escreveMesagem@texto
  2630  0CCA  3001               	movlw	1
  2631  0CCB  00F4               	movwf	escreveMesagem@texto+1
  2632  0CCC  160A  118A  231E  120A  158A  	fcall	_escreveMesagem
  2633  0CD1                     l3975:
  2634                           
  2635                           ;main.c: 437:         LCD_linha2();
  2636  0CD1  160A  118A  21C4  120A  158A  	fcall	_LCD_linha2
  2637                           
  2638                           ;main.c: 438:         escreveMesagem(msgReativar);
  2639  0CD6  30C7               	movlw	(low (_msgReativar| 0))& (0+255)
  2640  0CD7  00F3               	movwf	escreveMesagem@texto
  2641  0CD8  3000               	movlw	0
  2642  0CD9  00F4               	movwf	escreveMesagem@texto+1
  2643  0CDA  160A  118A  231E  120A  158A  	fcall	_escreveMesagem
  2644  0CDF                     l3977:
  2645                           
  2646                           ;main.c: 439:         if (RB2 == 0){
  2647  0CDF  1283               	bcf	3,5	;RP0=0, select bank0
  2648  0CE0  1303               	bcf	3,6	;RP1=0, select bank0
  2649  0CE1  1906               	btfsc	6,2	;volatile
  2650  0CE2  2CE4               	goto	u4301
  2651  0CE3  2CE5               	goto	u4300
  2652  0CE4                     u4301:
  2653  0CE4  2D67               	goto	l335
  2654  0CE5                     u4300:
  2655  0CE5                     l3979:
  2656                           
  2657                           ;main.c: 440:             _delay((unsigned long)((100)*(20000000/4000.0)));
  2658  0CE5  3003               	movlw	3
  2659  0CE6  1283               	bcf	3,5	;RP0=0, select bank0
  2660  0CE7  1303               	bcf	3,6	;RP1=0, select bank0
  2661  0CE8  00BF               	movwf	??_listaZonas+2
  2662  0CE9  308A               	movlw	138
  2663  0CEA  00BE               	movwf	??_listaZonas+1
  2664  0CEB  3055               	movlw	85
  2665  0CEC  00BD               	movwf	??_listaZonas
  2666  0CED                     u4587:
  2667  0CED  0BBD               	decfsz	??_listaZonas,f
  2668  0CEE  2CED               	goto	u4587
  2669  0CEF  0BBE               	decfsz	??_listaZonas+1,f
  2670  0CF0  2CED               	goto	u4587
  2671  0CF1  0BBF               	decfsz	??_listaZonas+2,f
  2672  0CF2  2CED               	goto	u4587
  2673  0CF3                     l3981:
  2674                           
  2675                           ;main.c: 441:             liga_buzzer(0.1);
  2676  0CF3  303D               	movlw	61
  2677  0CF4  1283               	bcf	3,5	;RP0=0, select bank0
  2678  0CF5  1303               	bcf	3,6	;RP1=0, select bank0
  2679  0CF6  00B8               	movwf	liga_buzzer@tempoSegundos+3
  2680  0CF7  30CC               	movlw	204
  2681  0CF8  00B7               	movwf	liga_buzzer@tempoSegundos+2
  2682  0CF9  30CC               	movlw	204
  2683  0CFA  00B6               	movwf	liga_buzzer@tempoSegundos+1
  2684  0CFB  30CD               	movlw	205
  2685  0CFC  00B5               	movwf	liga_buzzer@tempoSegundos
  2686  0CFD  160A  118A  263C  120A  158A  	fcall	_liga_buzzer
  2687  0D02                     l3983:
  2688                           
  2689                           ;main.c: 442:             opConfig = 5;
  2690  0D02  3005               	movlw	5
  2691  0D03  1283               	bcf	3,5	;RP0=0, select bank0
  2692  0D04  1303               	bcf	3,6	;RP1=0, select bank0
  2693  0D05  00D7               	movwf	_opConfig
  2694  0D06  3000               	movlw	0
  2695  0D07  00D8               	movwf	_opConfig+1
  2696  0D08  2D67               	goto	l335
  2697  0D09                     l3985:
  2698  0D09  3003               	movlw	3
  2699  0D0A  023C               	subwf	listaZonas@valorSensor+1,w
  2700  0D0B  30FD               	movlw	253
  2701  0D0C  1903               	skipnz
  2702  0D0D  023B               	subwf	listaZonas@valorSensor,w
  2703  0D0E  1803               	skipnc
  2704  0D0F  2D11               	goto	u4311
  2705  0D10  2D12               	goto	u4310
  2706  0D11                     u4311:
  2707  0D11  2D67               	goto	l335
  2708  0D12                     u4310:
  2709  0D12                     l3987:
  2710                           
  2711                           ;main.c: 446:         LCD_init();
  2712  0D12  160A  118A  22EB  120A  158A  	fcall	_LCD_init
  2713                           
  2714                           ;main.c: 447:         LCD_limpa();
  2715  0D17  160A  118A  21D4  120A  158A  	fcall	_LCD_limpa
  2716                           
  2717                           ;main.c: 448:         LCD_linha1();
  2718  0D1C  160A  118A  21E4  120A  158A  	fcall	_LCD_linha1
  2719  0D21                     l3989:
  2720                           
  2721                           ;main.c: 449:         escreveMesagem(msgDesativarZona);
  2722  0D21  3090               	movlw	(low (_msgDesativarZona| (0+256)))& (0+255)
  2723  0D22  00F3               	movwf	escreveMesagem@texto
  2724  0D23  3001               	movlw	1
  2725  0D24  00F4               	movwf	escreveMesagem@texto+1
  2726  0D25  160A  118A  231E  120A  158A  	fcall	_escreveMesagem
  2727  0D2A                     l3991:
  2728                           
  2729                           ;main.c: 450:         LCD_linha2();
  2730  0D2A  160A  118A  21C4  120A  158A  	fcall	_LCD_linha2
  2731  0D2F                     l3993:
  2732                           
  2733                           ;main.c: 451:         LCD_escreve('>');
  2734  0D2F  303E               	movlw	62
  2735  0D30  160A  118A  21F4  120A  158A  	fcall	_LCD_escreve
  2736  0D35                     l3995:
  2737                           
  2738                           ;main.c: 452:         escreveMesagem(msgReativar);
  2739  0D35  30C7               	movlw	(low (_msgReativar| 0))& (0+255)
  2740  0D36  00F3               	movwf	escreveMesagem@texto
  2741  0D37  3000               	movlw	0
  2742  0D38  00F4               	movwf	escreveMesagem@texto+1
  2743  0D39  160A  118A  231E  120A  158A  	fcall	_escreveMesagem
  2744  0D3E                     l3997:
  2745                           
  2746                           ;main.c: 453:         if (RB2 == 0){
  2747  0D3E  1283               	bcf	3,5	;RP0=0, select bank0
  2748  0D3F  1303               	bcf	3,6	;RP1=0, select bank0
  2749  0D40  1906               	btfsc	6,2	;volatile
  2750  0D41  2D43               	goto	u4321
  2751  0D42  2D44               	goto	u4320
  2752  0D43                     u4321:
  2753  0D43  2D67               	goto	l335
  2754  0D44                     u4320:
  2755  0D44                     l3999:
  2756                           
  2757                           ;main.c: 454:             _delay((unsigned long)((100)*(20000000/4000.0)));
  2758  0D44  3003               	movlw	3
  2759  0D45  1283               	bcf	3,5	;RP0=0, select bank0
  2760  0D46  1303               	bcf	3,6	;RP1=0, select bank0
  2761  0D47  00BF               	movwf	??_listaZonas+2
  2762  0D48  308A               	movlw	138
  2763  0D49  00BE               	movwf	??_listaZonas+1
  2764  0D4A  3055               	movlw	85
  2765  0D4B  00BD               	movwf	??_listaZonas
  2766  0D4C                     u4597:
  2767  0D4C  0BBD               	decfsz	??_listaZonas,f
  2768  0D4D  2D4C               	goto	u4597
  2769  0D4E  0BBE               	decfsz	??_listaZonas+1,f
  2770  0D4F  2D4C               	goto	u4597
  2771  0D50  0BBF               	decfsz	??_listaZonas+2,f
  2772  0D51  2D4C               	goto	u4597
  2773  0D52                     l4001:
  2774                           
  2775                           ;main.c: 455:             liga_buzzer(0.1);
  2776  0D52  303D               	movlw	61
  2777  0D53  1283               	bcf	3,5	;RP0=0, select bank0
  2778  0D54  1303               	bcf	3,6	;RP1=0, select bank0
  2779  0D55  00B8               	movwf	liga_buzzer@tempoSegundos+3
  2780  0D56  30CC               	movlw	204
  2781  0D57  00B7               	movwf	liga_buzzer@tempoSegundos+2
  2782  0D58  30CC               	movlw	204
  2783  0D59  00B6               	movwf	liga_buzzer@tempoSegundos+1
  2784  0D5A  30CD               	movlw	205
  2785  0D5B  00B5               	movwf	liga_buzzer@tempoSegundos
  2786  0D5C  160A  118A  263C  120A  158A  	fcall	_liga_buzzer
  2787  0D61                     l4003:
  2788                           
  2789                           ;main.c: 456:             opConfig = 6;
  2790  0D61  3006               	movlw	6
  2791  0D62  1283               	bcf	3,5	;RP0=0, select bank0
  2792  0D63  1303               	bcf	3,6	;RP1=0, select bank0
  2793  0D64  00D7               	movwf	_opConfig
  2794  0D65  3000               	movlw	0
  2795  0D66  00D8               	movwf	_opConfig+1
  2796  0D67                     l335:
  2797  0D67  0008               	return
  2798  0D68                     __end_of_listaZonas:
  2799                           
  2800                           	psect	text5
  2801  12BC                     __ptext5:	
  2802 ;; *************** function _leituraADC *****************
  2803 ;; Defined at:
  2804 ;;		line 474 in file "main.c"
  2805 ;; Parameters:    Size  Location     Type
  2806 ;;  canal           1    wreg     unsigned char 
  2807 ;; Auto vars:     Size  Location     Type
  2808 ;;  canal           1    6[COMMON] unsigned char 
  2809 ;;  leitura         2    4[COMMON] unsigned int 
  2810 ;; Return value:  Size  Location     Type
  2811 ;;                  2    0[COMMON] unsigned int 
  2812 ;; Registers used:
  2813 ;;		wreg, status,2, status,0
  2814 ;; Tracked objects:
  2815 ;;		On entry : 0/0
  2816 ;;		On exit  : 0/0
  2817 ;;		Unchanged: 0/0
  2818 ;; Data sizes:     COMMON   BANK0   BANK1   BANK3   BANK2
  2819 ;;      Params:         2       0       0       0       0
  2820 ;;      Locals:         3       0       0       0       0
  2821 ;;      Temps:          2       0       0       0       0
  2822 ;;      Totals:         7       0       0       0       0
  2823 ;;Total ram usage:        7 bytes
  2824 ;; Hardware stack levels used: 1
  2825 ;; This function calls:
  2826 ;;		Nothing
  2827 ;; This function is called by:
  2828 ;;		_main
  2829 ;; This function uses a non-reentrant model
  2830 ;;
  2831                           
  2832                           
  2833                           ;psect for function _leituraADC
  2834  12BC                     _leituraADC:
  2835                           
  2836                           ;incstack = 0
  2837                           ; Regs used in _leituraADC: [wreg+status,2+status,0]
  2838                           ;leituraADC@canal stored from wreg
  2839  12BC  00F6               	movwf	leituraADC@canal
  2840  12BD                     l3335:
  2841                           
  2842                           ;main.c: 475:     unsigned int leitura;;main.c: 477:     ADCON0 &= 0xC5;
  2843  12BD  30C5               	movlw	197
  2844  12BE  00F2               	movwf	??_leituraADC
  2845  12BF  0872               	movf	??_leituraADC,w
  2846  12C0  1283               	bcf	3,5	;RP0=0, select bank0
  2847  12C1  1303               	bcf	3,6	;RP1=0, select bank0
  2848  12C2  059F               	andwf	31,f	;volatile
  2849                           
  2850                           ;main.c: 478:     ADCON0 |= (canal<<3);
  2851  12C3  0876               	movf	leituraADC@canal,w	;volatile
  2852  12C4  00F2               	movwf	??_leituraADC
  2853  12C5  3002               	movlw	2
  2854  12C6                     u3595:
  2855  12C6  1003               	clrc
  2856  12C7  0DF2               	rlf	??_leituraADC,f
  2857  12C8  3EFF               	addlw	-1
  2858  12C9  1D03               	skipz
  2859  12CA  2AC6               	goto	u3595
  2860  12CB  1003               	clrc
  2861  12CC  0D72               	rlf	??_leituraADC,w
  2862  12CD  00F3               	movwf	??_leituraADC+1
  2863  12CE  0873               	movf	??_leituraADC+1,w
  2864  12CF  049F               	iorwf	31,f	;volatile
  2865  12D0                     l3337:
  2866                           
  2867                           ;main.c: 479:     _delay((unsigned long)((2)*(20000000/4000.0)));
  2868  12D0  300D               	movlw	13
  2869  12D1  00F3               	movwf	??_leituraADC+1
  2870  12D2  30FB               	movlw	251
  2871  12D3  00F2               	movwf	??_leituraADC
  2872  12D4                     u4607:
  2873  12D4  0BF2               	decfsz	??_leituraADC,f
  2874  12D5  2AD4               	goto	u4607
  2875  12D6  0BF3               	decfsz	??_leituraADC+1,f
  2876  12D7  2AD4               	goto	u4607
  2877  12D8  2AD9               	nop2
  2878  12D9                     l3339:
  2879                           
  2880                           ;main.c: 482:     GO_nDONE = 1;
  2881  12D9  1283               	bcf	3,5	;RP0=0, select bank0
  2882  12DA  1303               	bcf	3,6	;RP1=0, select bank0
  2883  12DB  151F               	bsf	31,2	;volatile
  2884  12DC                     l347:	
  2885                           ;main.c: 485:     while (GO_nDONE);
  2886                           
  2887  12DC  191F               	btfsc	31,2	;volatile
  2888  12DD  2ADF               	goto	u3601
  2889  12DE  2AE0               	goto	u3600
  2890  12DF                     u3601:
  2891  12DF  2ADC               	goto	l347
  2892  12E0                     u3600:
  2893  12E0                     l3341:
  2894                           
  2895                           ;main.c: 487:     leitura = (ADRESH<<8) + ADRESL;
  2896  12E0  081E               	movf	30,w	;volatile
  2897  12E1  00F5               	movwf	leituraADC@leitura+1
  2898  12E2  1683               	bsf	3,5	;RP0=1, select bank1
  2899  12E3  1303               	bcf	3,6	;RP1=0, select bank1
  2900  12E4  081E               	movf	30,w	;volatile
  2901  12E5  00F4               	movwf	leituraADC@leitura
  2902                           
  2903                           ;main.c: 488:     return leitura;
  2904  12E6  0875               	movf	leituraADC@leitura+1,w
  2905  12E7  00F1               	movwf	?_leituraADC+1
  2906  12E8  0874               	movf	leituraADC@leitura,w
  2907  12E9  00F0               	movwf	?_leituraADC
  2908  12EA                     l350:
  2909  12EA  0008               	return
  2910  12EB                     __end_of_leituraADC:
  2911                           
  2912                           	psect	text6
  2913  11A9                     __ptext6:	
  2914 ;; *************** function _inicioADC *****************
  2915 ;; Defined at:
  2916 ;;		line 465 in file "main.c"
  2917 ;; Parameters:    Size  Location     Type
  2918 ;;		None
  2919 ;; Auto vars:     Size  Location     Type
  2920 ;;		None
  2921 ;; Return value:  Size  Location     Type
  2922 ;;                  1    wreg      void 
  2923 ;; Registers used:
  2924 ;;		wreg
  2925 ;; Tracked objects:
  2926 ;;		On entry : 0/0
  2927 ;;		On exit  : 0/0
  2928 ;;		Unchanged: 0/0
  2929 ;; Data sizes:     COMMON   BANK0   BANK1   BANK3   BANK2
  2930 ;;      Params:         0       0       0       0       0
  2931 ;;      Locals:         0       0       0       0       0
  2932 ;;      Temps:          0       0       0       0       0
  2933 ;;      Totals:         0       0       0       0       0
  2934 ;;Total ram usage:        0 bytes
  2935 ;; Hardware stack levels used: 1
  2936 ;; This function calls:
  2937 ;;		Nothing
  2938 ;; This function is called by:
  2939 ;;		_main
  2940 ;; This function uses a non-reentrant model
  2941 ;;
  2942                           
  2943                           
  2944                           ;psect for function _inicioADC
  2945  11A9                     _inicioADC:
  2946  11A9                     l3249:	
  2947                           ;incstack = 0
  2948                           ; Regs used in _inicioADC: [wreg]
  2949                           
  2950                           
  2951                           ;main.c: 466:     TRISA = 0xFF;
  2952  11A9  30FF               	movlw	255
  2953  11AA  1683               	bsf	3,5	;RP0=1, select bank1
  2954  11AB  1303               	bcf	3,6	;RP1=0, select bank1
  2955  11AC  0085               	movwf	5	;volatile
  2956                           
  2957                           ;main.c: 468:     ADCON0 = 0x81;
  2958  11AD  3081               	movlw	129
  2959  11AE  1283               	bcf	3,5	;RP0=0, select bank0
  2960  11AF  1303               	bcf	3,6	;RP1=0, select bank0
  2961  11B0  009F               	movwf	31	;volatile
  2962                           
  2963                           ;main.c: 472:     ADCON1 = 0x80;
  2964  11B1  3080               	movlw	128
  2965  11B2  1683               	bsf	3,5	;RP0=1, select bank1
  2966  11B3  1303               	bcf	3,6	;RP1=0, select bank1
  2967  11B4  009F               	movwf	31	;volatile
  2968  11B5                     l344:
  2969  11B5  0008               	return
  2970  11B6                     __end_of_inicioADC:
  2971                           
  2972                           	psect	text7
  2973  08FE                     __ptext7:	
  2974 ;; *************** function _configZonas *****************
  2975 ;; Defined at:
  2976 ;;		line 157 in file "main.c"
  2977 ;; Parameters:    Size  Location     Type
  2978 ;;		None
  2979 ;; Auto vars:     Size  Location     Type
  2980 ;;  pos             1    0        unsigned char 
  2981 ;; Return value:  Size  Location     Type
  2982 ;;                  1    wreg      void 
  2983 ;; Registers used:
  2984 ;;		wreg, fsr0l, fsr0h, status,2, status,0, btemp+1, pclath, cstack
  2985 ;; Tracked objects:
  2986 ;;		On entry : 0/0
  2987 ;;		On exit  : 0/0
  2988 ;;		Unchanged: 0/0
  2989 ;; Data sizes:     COMMON   BANK0   BANK1   BANK3   BANK2
  2990 ;;      Params:         0       0       0       0       0
  2991 ;;      Locals:         0       0       0       0       0
  2992 ;;      Temps:          0       3       0       0       0
  2993 ;;      Totals:         0       3       0       0       0
  2994 ;;Total ram usage:        3 bytes
  2995 ;; Hardware stack levels used: 1
  2996 ;; Hardware stack levels required when called: 5
  2997 ;; This function calls:
  2998 ;;		_infoZonas
  2999 ;;		_setaZona
  3000 ;; This function is called by:
  3001 ;;		_main
  3002 ;; This function uses a non-reentrant model
  3003 ;;
  3004                           
  3005                           
  3006                           ;psect for function _configZonas
  3007  08FE                     _configZonas:
  3008  08FE                     l4027:	
  3009                           ;incstack = 0
  3010                           ; Regs used in _configZonas: [wreg-fsr0h+status,2+status,0+btemp+1+pclath+cstack]
  3011                           
  3012                           
  3013                           ;main.c: 158:     infoZonas();
  3014  08FE  160A  118A  224F  120A  158A  	fcall	_infoZonas
  3015  0903                     l4029:
  3016                           
  3017                           ;main.c: 159:     _delay((unsigned long)((100)*(20000000/4000.0)));
  3018  0903  3003               	movlw	3
  3019  0904  1283               	bcf	3,5	;RP0=0, select bank0
  3020  0905  1303               	bcf	3,6	;RP1=0, select bank0
  3021  0906  00AA               	movwf	??_configZonas+2
  3022  0907  308A               	movlw	138
  3023  0908  00A9               	movwf	??_configZonas+1
  3024  0909  3055               	movlw	85
  3025  090A  00A8               	movwf	??_configZonas
  3026  090B                     u4617:
  3027  090B  0BA8               	decfsz	??_configZonas,f
  3028  090C  290B               	goto	u4617
  3029  090D  0BA9               	decfsz	??_configZonas+1,f
  3030  090E  290B               	goto	u4617
  3031  090F  0BAA               	decfsz	??_configZonas+2,f
  3032  0910  290B               	goto	u4617
  3033  0911                     l4031:
  3034  0911                     l4033:
  3035                           
  3036                           ;main.c: 161:     zonaConfig = 1;
  3037  0911  3001               	movlw	1
  3038  0912  1283               	bcf	3,5	;RP0=0, select bank0
  3039  0913  1303               	bcf	3,6	;RP1=0, select bank0
  3040  0914  00DF               	movwf	_zonaConfig
  3041  0915  3000               	movlw	0
  3042  0916  00E0               	movwf	_zonaConfig+1
  3043                           
  3044                           ;main.c: 162:     while (zonaConfig){
  3045  0917  29D0               	goto	l4061
  3046  0918                     l4035:
  3047                           
  3048                           ;main.c: 164:         PORTB = 0b11101111;
  3049  0918  30EF               	movlw	239
  3050  0919  0086               	movwf	6	;volatile
  3051  091A                     l4037:
  3052                           
  3053                           ;main.c: 165:         if (RB0 == 0){
  3054  091A  1806               	btfsc	6,0	;volatile
  3055  091B  291D               	goto	u4361
  3056  091C  291E               	goto	u4360
  3057  091D                     u4361:
  3058  091D  2946               	goto	l4043
  3059  091E                     u4360:
  3060  091E                     l4039:
  3061                           
  3062                           ;main.c: 166:             _delay((unsigned long)((200)*(20000000/4000.0)));
  3063  091E  3006               	movlw	6
  3064  091F  1283               	bcf	3,5	;RP0=0, select bank0
  3065  0920  1303               	bcf	3,6	;RP1=0, select bank0
  3066  0921  00AA               	movwf	??_configZonas+2
  3067  0922  3013               	movlw	19
  3068  0923  00A9               	movwf	??_configZonas+1
  3069  0924  30AD               	movlw	173
  3070  0925  00A8               	movwf	??_configZonas
  3071  0926                     u4627:
  3072  0926  0BA8               	decfsz	??_configZonas,f
  3073  0927  2926               	goto	u4627
  3074  0928  0BA9               	decfsz	??_configZonas+1,f
  3075  0929  2926               	goto	u4627
  3076  092A  0BAA               	decfsz	??_configZonas+2,f
  3077  092B  2926               	goto	u4627
  3078                           
  3079                           ;main.c: 168:             _delay((unsigned long)((2)*(20000000/4000.0)));
  3080  092C  300D               	movlw	13
  3081  092D  1283               	bcf	3,5	;RP0=0, select bank0
  3082  092E  1303               	bcf	3,6	;RP1=0, select bank0
  3083  092F  00A9               	movwf	??_configZonas+1
  3084  0930  30FB               	movlw	251
  3085  0931  00A8               	movwf	??_configZonas
  3086  0932                     u4637:
  3087  0932  0BA8               	decfsz	??_configZonas,f
  3088  0933  2932               	goto	u4637
  3089  0934  0BA9               	decfsz	??_configZonas+1,f
  3090  0935  2932               	goto	u4637
  3091  0936                     l4041:
  3092                           
  3093                           ;main.c: 169:             setaZona(msgZonaDisparadas, msgConfigDispara, pos);
  3094  0936  30AF               	movlw	(low (_msgConfigDispara| 0))& (0+255)
  3095  0937  1283               	bcf	3,5	;RP0=0, select bank0
  3096  0938  1303               	bcf	3,6	;RP1=0, select bank0
  3097  0939  00A8               	movwf	??_configZonas
  3098  093A  0828               	movf	??_configZonas,w
  3099  093B  00FA               	movwf	setaZona@msgConfigDispara
  3100  093C  3031               	movlw	49
  3101  093D  00FB               	movwf	setaZona@pos
  3102  093E  3000               	movlw	0
  3103  093F  00FC               	movwf	setaZona@pos+1
  3104  0940  30A0               	movlw	(low (_msgZonaDisparadas| 0))& (0+255)
  3105  0941  120A  158A  202D  120A  158A  	fcall	_setaZona
  3106  0946                     l4043:
  3107                           
  3108                           ;main.c: 171:         if (RB1 == 0){
  3109  0946  1283               	bcf	3,5	;RP0=0, select bank0
  3110  0947  1303               	bcf	3,6	;RP1=0, select bank0
  3111  0948  1886               	btfsc	6,1	;volatile
  3112  0949  294B               	goto	u4371
  3113  094A  294C               	goto	u4370
  3114  094B                     u4371:
  3115  094B  2974               	goto	l4049
  3116  094C                     u4370:
  3117  094C                     l4045:
  3118                           
  3119                           ;main.c: 172:             _delay((unsigned long)((200)*(20000000/4000.0)));
  3120  094C  3006               	movlw	6
  3121  094D  1283               	bcf	3,5	;RP0=0, select bank0
  3122  094E  1303               	bcf	3,6	;RP1=0, select bank0
  3123  094F  00AA               	movwf	??_configZonas+2
  3124  0950  3013               	movlw	19
  3125  0951  00A9               	movwf	??_configZonas+1
  3126  0952  30AD               	movlw	173
  3127  0953  00A8               	movwf	??_configZonas
  3128  0954                     u4647:
  3129  0954  0BA8               	decfsz	??_configZonas,f
  3130  0955  2954               	goto	u4647
  3131  0956  0BA9               	decfsz	??_configZonas+1,f
  3132  0957  2954               	goto	u4647
  3133  0958  0BAA               	decfsz	??_configZonas+2,f
  3134  0959  2954               	goto	u4647
  3135                           
  3136                           ;main.c: 174:             _delay((unsigned long)((2)*(20000000/4000.0)));
  3137  095A  300D               	movlw	13
  3138  095B  1283               	bcf	3,5	;RP0=0, select bank0
  3139  095C  1303               	bcf	3,6	;RP1=0, select bank0
  3140  095D  00A9               	movwf	??_configZonas+1
  3141  095E  30FB               	movlw	251
  3142  095F  00A8               	movwf	??_configZonas
  3143  0960                     u4657:
  3144  0960  0BA8               	decfsz	??_configZonas,f
  3145  0961  2960               	goto	u4657
  3146  0962  0BA9               	decfsz	??_configZonas+1,f
  3147  0963  2960               	goto	u4657
  3148  0964                     l4047:
  3149                           
  3150                           ;main.c: 175:             setaZona(msgZonaDisparadas, msgConfigDispara, pos);
  3151  0964  30AF               	movlw	(low (_msgConfigDispara| 0))& (0+255)
  3152  0965  1283               	bcf	3,5	;RP0=0, select bank0
  3153  0966  1303               	bcf	3,6	;RP1=0, select bank0
  3154  0967  00A8               	movwf	??_configZonas
  3155  0968  0828               	movf	??_configZonas,w
  3156  0969  00FA               	movwf	setaZona@msgConfigDispara
  3157  096A  3032               	movlw	50
  3158  096B  00FB               	movwf	setaZona@pos
  3159  096C  3000               	movlw	0
  3160  096D  00FC               	movwf	setaZona@pos+1
  3161  096E  30A0               	movlw	(low (_msgZonaDisparadas| 0))& (0+255)
  3162  096F  120A  158A  202D  120A  158A  	fcall	_setaZona
  3163  0974                     l4049:
  3164                           
  3165                           ;main.c: 177:         if (RB2 == 0){
  3166  0974  1283               	bcf	3,5	;RP0=0, select bank0
  3167  0975  1303               	bcf	3,6	;RP1=0, select bank0
  3168  0976  1906               	btfsc	6,2	;volatile
  3169  0977  2979               	goto	u4381
  3170  0978  297A               	goto	u4380
  3171  0979                     u4381:
  3172  0979  29A2               	goto	l4055
  3173  097A                     u4380:
  3174  097A                     l4051:
  3175                           
  3176                           ;main.c: 178:             _delay((unsigned long)((200)*(20000000/4000.0)));
  3177  097A  3006               	movlw	6
  3178  097B  1283               	bcf	3,5	;RP0=0, select bank0
  3179  097C  1303               	bcf	3,6	;RP1=0, select bank0
  3180  097D  00AA               	movwf	??_configZonas+2
  3181  097E  3013               	movlw	19
  3182  097F  00A9               	movwf	??_configZonas+1
  3183  0980  30AD               	movlw	173
  3184  0981  00A8               	movwf	??_configZonas
  3185  0982                     u4667:
  3186  0982  0BA8               	decfsz	??_configZonas,f
  3187  0983  2982               	goto	u4667
  3188  0984  0BA9               	decfsz	??_configZonas+1,f
  3189  0985  2982               	goto	u4667
  3190  0986  0BAA               	decfsz	??_configZonas+2,f
  3191  0987  2982               	goto	u4667
  3192                           
  3193                           ;main.c: 180:             _delay((unsigned long)((2)*(20000000/4000.0)));
  3194  0988  300D               	movlw	13
  3195  0989  1283               	bcf	3,5	;RP0=0, select bank0
  3196  098A  1303               	bcf	3,6	;RP1=0, select bank0
  3197  098B  00A9               	movwf	??_configZonas+1
  3198  098C  30FB               	movlw	251
  3199  098D  00A8               	movwf	??_configZonas
  3200  098E                     u4677:
  3201  098E  0BA8               	decfsz	??_configZonas,f
  3202  098F  298E               	goto	u4677
  3203  0990  0BA9               	decfsz	??_configZonas+1,f
  3204  0991  298E               	goto	u4677
  3205  0992                     l4053:
  3206                           
  3207                           ;main.c: 181:             setaZona(msgZonaDisparadas, msgConfigDispara, pos);
  3208  0992  30AF               	movlw	(low (_msgConfigDispara| 0))& (0+255)
  3209  0993  1283               	bcf	3,5	;RP0=0, select bank0
  3210  0994  1303               	bcf	3,6	;RP1=0, select bank0
  3211  0995  00A8               	movwf	??_configZonas
  3212  0996  0828               	movf	??_configZonas,w
  3213  0997  00FA               	movwf	setaZona@msgConfigDispara
  3214  0998  3033               	movlw	51
  3215  0999  00FB               	movwf	setaZona@pos
  3216  099A  3000               	movlw	0
  3217  099B  00FC               	movwf	setaZona@pos+1
  3218  099C  30A0               	movlw	(low (_msgZonaDisparadas| 0))& (0+255)
  3219  099D  120A  158A  202D  120A  158A  	fcall	_setaZona
  3220  09A2                     l4055:
  3221                           
  3222                           ;main.c: 183:         if (RB3 == 0){
  3223  09A2  1283               	bcf	3,5	;RP0=0, select bank0
  3224  09A3  1303               	bcf	3,6	;RP1=0, select bank0
  3225  09A4  1986               	btfsc	6,3	;volatile
  3226  09A5  29A7               	goto	u4391
  3227  09A6  29A8               	goto	u4390
  3228  09A7                     u4391:
  3229  09A7  29D0               	goto	l4061
  3230  09A8                     u4390:
  3231  09A8                     l4057:
  3232                           
  3233                           ;main.c: 184:             _delay((unsigned long)((200)*(20000000/4000.0)));
  3234  09A8  3006               	movlw	6
  3235  09A9  1283               	bcf	3,5	;RP0=0, select bank0
  3236  09AA  1303               	bcf	3,6	;RP1=0, select bank0
  3237  09AB  00AA               	movwf	??_configZonas+2
  3238  09AC  3013               	movlw	19
  3239  09AD  00A9               	movwf	??_configZonas+1
  3240  09AE  30AD               	movlw	173
  3241  09AF  00A8               	movwf	??_configZonas
  3242  09B0                     u4687:
  3243  09B0  0BA8               	decfsz	??_configZonas,f
  3244  09B1  29B0               	goto	u4687
  3245  09B2  0BA9               	decfsz	??_configZonas+1,f
  3246  09B3  29B0               	goto	u4687
  3247  09B4  0BAA               	decfsz	??_configZonas+2,f
  3248  09B5  29B0               	goto	u4687
  3249                           
  3250                           ;main.c: 186:             _delay((unsigned long)((2)*(20000000/4000.0)));
  3251  09B6  300D               	movlw	13
  3252  09B7  1283               	bcf	3,5	;RP0=0, select bank0
  3253  09B8  1303               	bcf	3,6	;RP1=0, select bank0
  3254  09B9  00A9               	movwf	??_configZonas+1
  3255  09BA  30FB               	movlw	251
  3256  09BB  00A8               	movwf	??_configZonas
  3257  09BC                     u4697:
  3258  09BC  0BA8               	decfsz	??_configZonas,f
  3259  09BD  29BC               	goto	u4697
  3260  09BE  0BA9               	decfsz	??_configZonas+1,f
  3261  09BF  29BC               	goto	u4697
  3262  09C0                     l4059:
  3263                           
  3264                           ;main.c: 187:             setaZona(msgZonaDisparadas, msgConfigDispara, pos);
  3265  09C0  30AF               	movlw	(low (_msgConfigDispara| 0))& (0+255)
  3266  09C1  1283               	bcf	3,5	;RP0=0, select bank0
  3267  09C2  1303               	bcf	3,6	;RP1=0, select bank0
  3268  09C3  00A8               	movwf	??_configZonas
  3269  09C4  0828               	movf	??_configZonas,w
  3270  09C5  00FA               	movwf	setaZona@msgConfigDispara
  3271  09C6  3034               	movlw	52
  3272  09C7  00FB               	movwf	setaZona@pos
  3273  09C8  3000               	movlw	0
  3274  09C9  00FC               	movwf	setaZona@pos+1
  3275  09CA  30A0               	movlw	(low (_msgZonaDisparadas| 0))& (0+255)
  3276  09CB  120A  158A  202D  120A  158A  	fcall	_setaZona
  3277  09D0                     l4061:
  3278                           
  3279                           ;main.c: 162:     while (zonaConfig){
  3280  09D0  1283               	bcf	3,5	;RP0=0, select bank0
  3281  09D1  1303               	bcf	3,6	;RP1=0, select bank0
  3282  09D2  085F               	movf	_zonaConfig,w
  3283  09D3  0460               	iorwf	_zonaConfig+1,w
  3284  09D4  1D03               	btfss	3,2
  3285  09D5  29D7               	goto	u4401
  3286  09D6  29D8               	goto	u4400
  3287  09D7                     u4401:
  3288  09D7  2918               	goto	l4035
  3289  09D8                     u4400:
  3290  09D8                     l232:
  3291  09D8  0008               	return
  3292  09D9                     __end_of_configZonas:
  3293                           
  3294                           	psect	text8
  3295  082D                     __ptext8:	
  3296 ;; *************** function _setaZona *****************
  3297 ;; Defined at:
  3298 ;;		line 125 in file "main.c"
  3299 ;; Parameters:    Size  Location     Type
  3300 ;;  msgZonaDispa    1    wreg     PTR unsigned char 
  3301 ;;		 -> msgZonaDisparadas(15), 
  3302 ;;  msgConfigDis    1   10[COMMON] PTR unsigned char 
  3303 ;;		 -> msgConfigDispara(15), 
  3304 ;;  pos             2   11[COMMON] PTR unsigned char 
  3305 ;;		 -> RAM(512), 
  3306 ;; Auto vars:     Size  Location     Type
  3307 ;;  msgZonaDispa    1    7[BANK0 ] PTR unsigned char 
  3308 ;;		 -> msgZonaDisparadas(15), 
  3309 ;;  i               2    5[BANK0 ] int 
  3310 ;;  i               2    3[BANK0 ] int 
  3311 ;; Return value:  Size  Location     Type
  3312 ;;                  1    wreg      void 
  3313 ;; Registers used:
  3314 ;;		wreg, fsr0l, fsr0h, status,2, status,0, btemp+1, pclath, cstack
  3315 ;; Tracked objects:
  3316 ;;		On entry : 0/0
  3317 ;;		On exit  : 0/0
  3318 ;;		Unchanged: 0/0
  3319 ;; Data sizes:     COMMON   BANK0   BANK1   BANK3   BANK2
  3320 ;;      Params:         3       0       0       0       0
  3321 ;;      Locals:         0       5       0       0       0
  3322 ;;      Temps:          0       3       0       0       0
  3323 ;;      Totals:         3       8       0       0       0
  3324 ;;Total ram usage:       11 bytes
  3325 ;; Hardware stack levels used: 1
  3326 ;; Hardware stack levels required when called: 4
  3327 ;; This function calls:
  3328 ;;		_infoZonas
  3329 ;; This function is called by:
  3330 ;;		_configZonas
  3331 ;;		_validaUser
  3332 ;; This function uses a non-reentrant model
  3333 ;;
  3334                           
  3335                           
  3336                           ;psect for function _setaZona
  3337  082D                     _setaZona:
  3338                           
  3339                           ;incstack = 0
  3340                           ; Regs used in _setaZona: [wreg-fsr0h+status,2+status,0+btemp+1+pclath+cstack]
  3341                           ;setaZona@msgZonaDisparadas stored from wreg
  3342  082D  1283               	bcf	3,5	;RP0=0, select bank0
  3343  082E  1303               	bcf	3,6	;RP1=0, select bank0
  3344  082F  00A7               	movwf	setaZona@msgZonaDisparadas
  3345  0830                     l3731:
  3346                           
  3347                           ;main.c: 126:     if (senhaCoaAtivo){
  3348  0830  0861               	movf	_senhaCoaAtivo,w
  3349  0831  0462               	iorwf	_senhaCoaAtivo+1,w
  3350  0832  1903               	btfsc	3,2
  3351  0833  2835               	goto	u4001
  3352  0834  2836               	goto	u4000
  3353  0835                     u4001:
  3354  0835  2883               	goto	l3749
  3355  0836                     u4000:
  3356  0836                     l3733:
  3357                           
  3358                           ;main.c: 127:         for (int i = 0; msgZonaDisparadas[i] != '\0'; i++){
  3359  0836  01A3               	clrf	setaZona@i
  3360  0837  01A4               	clrf	setaZona@i+1
  3361  0838  2877               	goto	l3747
  3362  0839                     l3735:
  3363                           
  3364                           ;main.c: 128:             if(msgZonaDisparadas[i] == '1' && msgConfigDispara[i] == pos){
  3365  0839  0823               	movf	setaZona@i,w
  3366  083A  0727               	addwf	setaZona@msgZonaDisparadas,w
  3367  083B  00A0               	movwf	??_setaZona
  3368  083C  0820               	movf	??_setaZona,w
  3369  083D  0084               	movwf	4
  3370  083E  3031               	movlw	49
  3371  083F  0600               	xorwf	0,w
  3372  0840  1D03               	btfss	3,2
  3373  0841  2843               	goto	u4011
  3374  0842  2844               	goto	u4010
  3375  0843                     u4011:
  3376  0843  286F               	goto	l3745
  3377  0844                     u4010:
  3378  0844                     l3737:
  3379  0844  0823               	movf	setaZona@i,w
  3380  0845  077A               	addwf	setaZona@msgConfigDispara,w
  3381  0846  00A0               	movwf	??_setaZona
  3382  0847  0820               	movf	??_setaZona,w
  3383  0848  0084               	movwf	4
  3384  0849  0800               	movf	0,w
  3385  084A  00A1               	movwf	??_setaZona+1
  3386  084B  01A2               	clrf	??_setaZona+2
  3387  084C  087C               	movf	setaZona@pos+1,w
  3388  084D  0622               	xorwf	??_setaZona+2,w
  3389  084E  1D03               	skipz
  3390  084F  2852               	goto	u4025
  3391  0850  087B               	movf	setaZona@pos,w
  3392  0851  0621               	xorwf	??_setaZona+1,w
  3393  0852                     u4025:
  3394  0852  1D03               	skipz
  3395  0853  2855               	goto	u4021
  3396  0854  2856               	goto	u4020
  3397  0855                     u4021:
  3398  0855  286F               	goto	l3745
  3399  0856                     u4020:
  3400  0856                     l3739:
  3401                           
  3402                           ;main.c: 129:                 msgZonaDisparadas[i] = '0';
  3403  0856  3030               	movlw	48
  3404  0857  00A0               	movwf	??_setaZona
  3405  0858  0823               	movf	setaZona@i,w
  3406  0859  0727               	addwf	setaZona@msgZonaDisparadas,w
  3407  085A  00A1               	movwf	??_setaZona+1
  3408  085B  0821               	movf	??_setaZona+1,w
  3409  085C  0084               	movwf	4
  3410  085D  0820               	movf	??_setaZona,w
  3411  085E  0080               	movwf	0
  3412  085F                     l3741:
  3413                           
  3414                           ;main.c: 130:                 _delay((unsigned long)((2)*(20000000/4000.0)));
  3415  085F  300D               	movlw	13
  3416  0860  1283               	bcf	3,5	;RP0=0, select bank0
  3417  0861  1303               	bcf	3,6	;RP1=0, select bank0
  3418  0862  00A1               	movwf	??_setaZona+1
  3419  0863  30FB               	movlw	251
  3420  0864  00A0               	movwf	??_setaZona
  3421  0865                     u4707:
  3422  0865  0BA0               	decfsz	??_setaZona,f
  3423  0866  2865               	goto	u4707
  3424  0867  0BA1               	decfsz	??_setaZona+1,f
  3425  0868  2865               	goto	u4707
  3426  0869                     l3743:
  3427                           
  3428                           ;main.c: 131:                 pos++;
  3429  0869  3001               	movlw	1
  3430  086A  07FB               	addwf	setaZona@pos,f
  3431  086B  1803               	skipnc
  3432  086C  0AFC               	incf	setaZona@pos+1,f
  3433  086D  3000               	movlw	0
  3434  086E  07FC               	addwf	setaZona@pos+1,f
  3435  086F                     l3745:
  3436                           
  3437                           ;main.c: 133:         }
  3438  086F  3001               	movlw	1
  3439  0870  1283               	bcf	3,5	;RP0=0, select bank0
  3440  0871  1303               	bcf	3,6	;RP1=0, select bank0
  3441  0872  07A3               	addwf	setaZona@i,f
  3442  0873  1803               	skipnc
  3443  0874  0AA4               	incf	setaZona@i+1,f
  3444  0875  3000               	movlw	0
  3445  0876  07A4               	addwf	setaZona@i+1,f
  3446  0877                     l3747:
  3447  0877  0823               	movf	setaZona@i,w
  3448  0878  0727               	addwf	setaZona@msgZonaDisparadas,w
  3449  0879  00A0               	movwf	??_setaZona
  3450  087A  0820               	movf	??_setaZona,w
  3451  087B  0084               	movwf	4
  3452  087C  1383               	bcf	3,7	;select IRP bank0
  3453  087D  0800               	movf	0,w
  3454  087E  1D03               	btfss	3,2
  3455  087F  2881               	goto	u4031
  3456  0880  2882               	goto	u4030
  3457  0881                     u4031:
  3458  0881  2839               	goto	l3735
  3459  0882                     u4030:
  3460  0882  28F6               	goto	l3769
  3461  0883                     l3749:
  3462  0883  0861               	movf	_senhaCoaAtivo,w
  3463  0884  0462               	iorwf	_senhaCoaAtivo+1,w
  3464  0885  1D03               	btfss	3,2
  3465  0886  2888               	goto	u4041
  3466  0887  2889               	goto	u4040
  3467  0888                     u4041:
  3468  0888  28F6               	goto	l3769
  3469  0889                     u4040:
  3470  0889                     l3751:
  3471                           
  3472                           ;main.c: 136:         for (int i = 0; msgZonaDisparadas[i] != '\0'; i++){
  3473  0889  01A5               	clrf	setaZona@i_185
  3474  088A  01A6               	clrf	setaZona@i_185+1
  3475  088B  28EB               	goto	l213
  3476  088C                     l3753:
  3477                           
  3478                           ;main.c: 137:             if(msgZonaDisparadas[i] == '0' && msgConfigDispara[i] == pos){
  3479  088C  0825               	movf	setaZona@i_185,w
  3480  088D  0727               	addwf	setaZona@msgZonaDisparadas,w
  3481  088E  00A0               	movwf	??_setaZona
  3482  088F  0820               	movf	??_setaZona,w
  3483  0890  0084               	movwf	4
  3484  0891  3030               	movlw	48
  3485  0892  0600               	xorwf	0,w
  3486  0893  1D03               	btfss	3,2
  3487  0894  2896               	goto	u4051
  3488  0895  2897               	goto	u4050
  3489  0896                     u4051:
  3490  0896  28B3               	goto	l3759
  3491  0897                     u4050:
  3492  0897                     l3755:
  3493  0897  0825               	movf	setaZona@i_185,w
  3494  0898  077A               	addwf	setaZona@msgConfigDispara,w
  3495  0899  00A0               	movwf	??_setaZona
  3496  089A  0820               	movf	??_setaZona,w
  3497  089B  0084               	movwf	4
  3498  089C  0800               	movf	0,w
  3499  089D  00A1               	movwf	??_setaZona+1
  3500  089E  01A2               	clrf	??_setaZona+2
  3501  089F  087C               	movf	setaZona@pos+1,w
  3502  08A0  0622               	xorwf	??_setaZona+2,w
  3503  08A1  1D03               	skipz
  3504  08A2  28A5               	goto	u4065
  3505  08A3  087B               	movf	setaZona@pos,w
  3506  08A4  0621               	xorwf	??_setaZona+1,w
  3507  08A5                     u4065:
  3508  08A5  1D03               	skipz
  3509  08A6  28A8               	goto	u4061
  3510  08A7  28A9               	goto	u4060
  3511  08A8                     u4061:
  3512  08A8  28B3               	goto	l3759
  3513  08A9                     u4060:
  3514  08A9                     l3757:
  3515                           
  3516                           ;main.c: 138:                 msgZonaDisparadas[i] = '1';
  3517  08A9  3031               	movlw	49
  3518  08AA  00A0               	movwf	??_setaZona
  3519  08AB  0825               	movf	setaZona@i_185,w
  3520  08AC  0727               	addwf	setaZona@msgZonaDisparadas,w
  3521  08AD  00A1               	movwf	??_setaZona+1
  3522  08AE  0821               	movf	??_setaZona+1,w
  3523  08AF  0084               	movwf	4
  3524  08B0  0820               	movf	??_setaZona,w
  3525  08B1  0080               	movwf	0
  3526                           
  3527                           ;main.c: 139:             }
  3528  08B2  28D9               	goto	l3765
  3529  08B3                     l3759:
  3530  08B3  0825               	movf	setaZona@i_185,w
  3531  08B4  0727               	addwf	setaZona@msgZonaDisparadas,w
  3532  08B5  00A0               	movwf	??_setaZona
  3533  08B6  0820               	movf	??_setaZona,w
  3534  08B7  0084               	movwf	4
  3535  08B8  3031               	movlw	49
  3536  08B9  0600               	xorwf	0,w
  3537  08BA  1D03               	btfss	3,2
  3538  08BB  28BD               	goto	u4071
  3539  08BC  28BE               	goto	u4070
  3540  08BD                     u4071:
  3541  08BD  28D9               	goto	l3765
  3542  08BE                     u4070:
  3543  08BE                     l3761:
  3544  08BE  0825               	movf	setaZona@i_185,w
  3545  08BF  077A               	addwf	setaZona@msgConfigDispara,w
  3546  08C0  00A0               	movwf	??_setaZona
  3547  08C1  0820               	movf	??_setaZona,w
  3548  08C2  0084               	movwf	4
  3549  08C3  0800               	movf	0,w
  3550  08C4  00A1               	movwf	??_setaZona+1
  3551  08C5  01A2               	clrf	??_setaZona+2
  3552  08C6  087C               	movf	setaZona@pos+1,w
  3553  08C7  0622               	xorwf	??_setaZona+2,w
  3554  08C8  1D03               	skipz
  3555  08C9  28CC               	goto	u4085
  3556  08CA  087B               	movf	setaZona@pos,w
  3557  08CB  0621               	xorwf	??_setaZona+1,w
  3558  08CC                     u4085:
  3559  08CC  1D03               	skipz
  3560  08CD  28CF               	goto	u4081
  3561  08CE  28D0               	goto	u4080
  3562  08CF                     u4081:
  3563  08CF  28D9               	goto	l3765
  3564  08D0                     u4080:
  3565  08D0                     l3763:
  3566                           
  3567                           ;main.c: 141:                 msgZonaDisparadas[i] = '0';
  3568  08D0  3030               	movlw	48
  3569  08D1  00A0               	movwf	??_setaZona
  3570  08D2  0825               	movf	setaZona@i_185,w
  3571  08D3  0727               	addwf	setaZona@msgZonaDisparadas,w
  3572  08D4  00A1               	movwf	??_setaZona+1
  3573  08D5  0821               	movf	??_setaZona+1,w
  3574  08D6  0084               	movwf	4
  3575  08D7  0820               	movf	??_setaZona,w
  3576  08D8  0080               	movwf	0
  3577  08D9                     l3765:
  3578                           
  3579                           ;main.c: 143:             _delay((unsigned long)((2)*(20000000/4000.0)));
  3580  08D9  300D               	movlw	13
  3581  08DA  1283               	bcf	3,5	;RP0=0, select bank0
  3582  08DB  1303               	bcf	3,6	;RP1=0, select bank0
  3583  08DC  00A1               	movwf	??_setaZona+1
  3584  08DD  30FB               	movlw	251
  3585  08DE  00A0               	movwf	??_setaZona
  3586  08DF                     u4717:
  3587  08DF  0BA0               	decfsz	??_setaZona,f
  3588  08E0  28DF               	goto	u4717
  3589  08E1  0BA1               	decfsz	??_setaZona+1,f
  3590  08E2  28DF               	goto	u4717
  3591  08E3                     l3767:
  3592                           
  3593                           ;main.c: 144:         }
  3594  08E3  3001               	movlw	1
  3595  08E4  1283               	bcf	3,5	;RP0=0, select bank0
  3596  08E5  1303               	bcf	3,6	;RP1=0, select bank0
  3597  08E6  07A5               	addwf	setaZona@i_185,f
  3598  08E7  1803               	skipnc
  3599  08E8  0AA6               	incf	setaZona@i_185+1,f
  3600  08E9  3000               	movlw	0
  3601  08EA  07A6               	addwf	setaZona@i_185+1,f
  3602  08EB                     l213:
  3603  08EB  0825               	movf	setaZona@i_185,w
  3604  08EC  0727               	addwf	setaZona@msgZonaDisparadas,w
  3605  08ED  00A0               	movwf	??_setaZona
  3606  08EE  0820               	movf	??_setaZona,w
  3607  08EF  0084               	movwf	4
  3608  08F0  1383               	bcf	3,7	;select IRP bank0
  3609  08F1  0800               	movf	0,w
  3610  08F2  1D03               	btfss	3,2
  3611  08F3  28F5               	goto	u4091
  3612  08F4  28F6               	goto	u4090
  3613  08F5                     u4091:
  3614  08F5  288C               	goto	l3753
  3615  08F6                     u4090:
  3616  08F6                     l3769:
  3617                           
  3618                           ;main.c: 147:     zonaConfig = 0;
  3619  08F6  01DF               	clrf	_zonaConfig
  3620  08F7  01E0               	clrf	_zonaConfig+1
  3621  08F8                     l3771:
  3622                           
  3623                           ;main.c: 148:     infoZonas();
  3624  08F8  160A  118A  224F  120A  158A  	fcall	_infoZonas
  3625  08FD                     l219:
  3626  08FD  0008               	return
  3627  08FE                     __end_of_setaZona:
  3628                           
  3629                           	psect	text9
  3630  124F                     __ptext9:	
  3631 ;; *************** function _infoZonas *****************
  3632 ;; Defined at:
  3633 ;;		line 150 in file "main.c"
  3634 ;; Parameters:    Size  Location     Type
  3635 ;;		None
  3636 ;; Auto vars:     Size  Location     Type
  3637 ;;		None
  3638 ;; Return value:  Size  Location     Type
  3639 ;;                  1    wreg      void 
  3640 ;; Registers used:
  3641 ;;		wreg, fsr0l, fsr0h, status,2, status,0, btemp+1, pclath, cstack
  3642 ;; Tracked objects:
  3643 ;;		On entry : 0/0
  3644 ;;		On exit  : 0/0
  3645 ;;		Unchanged: 0/0
  3646 ;; Data sizes:     COMMON   BANK0   BANK1   BANK3   BANK2
  3647 ;;      Params:         0       0       0       0       0
  3648 ;;      Locals:         0       0       0       0       0
  3649 ;;      Temps:          0       0       0       0       0
  3650 ;;      Totals:         0       0       0       0       0
  3651 ;;Total ram usage:        0 bytes
  3652 ;; Hardware stack levels used: 1
  3653 ;; Hardware stack levels required when called: 3
  3654 ;; This function calls:
  3655 ;;		_LCD_limpa
  3656 ;;		_LCD_linha1
  3657 ;;		_LCD_linha2
  3658 ;;		_escreveMesagem
  3659 ;; This function is called by:
  3660 ;;		_main
  3661 ;;		_setaZona
  3662 ;;		_configZonas
  3663 ;; This function uses a non-reentrant model
  3664 ;;
  3665                           
  3666                           
  3667                           ;psect for function _infoZonas
  3668  124F                     _infoZonas:
  3669  124F                     l3693:	
  3670                           ;incstack = 0
  3671                           ; Regs used in _infoZonas: [wreg-fsr0h+status,2+status,0+btemp+1+pclath+cstack]
  3672                           
  3673                           
  3674                           ;main.c: 151:     LCD_limpa();
  3675  124F  160A  118A  21D4  160A  118A  	fcall	_LCD_limpa
  3676                           
  3677                           ;main.c: 152:     LCD_linha1();
  3678  1254  160A  118A  21E4  160A  118A  	fcall	_LCD_linha1
  3679  1259                     l3695:
  3680                           
  3681                           ;main.c: 153:     escreveMesagem(msgConfigDispara);
  3682  1259  30AF               	movlw	(low (_msgConfigDispara| 0))& (0+255)
  3683  125A  00F3               	movwf	escreveMesagem@texto
  3684  125B  3000               	movlw	0
  3685  125C  00F4               	movwf	escreveMesagem@texto+1
  3686  125D  160A  118A  231E  160A  118A  	fcall	_escreveMesagem
  3687  1262                     l3697:
  3688                           
  3689                           ;main.c: 154:     LCD_linha2();
  3690  1262  160A  118A  21C4  160A  118A  	fcall	_LCD_linha2
  3691                           
  3692                           ;main.c: 155:     escreveMesagem(msgZonaDisparadas);
  3693  1267  30A0               	movlw	(low (_msgZonaDisparadas| 0))& (0+255)
  3694  1268  00F3               	movwf	escreveMesagem@texto
  3695  1269  3000               	movlw	0
  3696  126A  00F4               	movwf	escreveMesagem@texto+1
  3697  126B  160A  118A  231E  160A  118A  	fcall	_escreveMesagem
  3698  1270                     l222:
  3699  1270  0008               	return
  3700  1271                     __end_of_infoZonas:
  3701                           
  3702                           	psect	text10
  3703  1464                     __ptext10:	
  3704 ;; *************** function _alteraSenhas *****************
  3705 ;; Defined at:
  3706 ;;		line 275 in file "main.c"
  3707 ;; Parameters:    Size  Location     Type
  3708 ;;  opConfig        2   44[BANK0 ] unsigned int 
  3709 ;; Auto vars:     Size  Location     Type
  3710 ;;		None
  3711 ;; Return value:  Size  Location     Type
  3712 ;;                  1    wreg      void 
  3713 ;; Registers used:
  3714 ;;		wreg, fsr0l, fsr0h, status,2, status,0, btemp+1, pclath, cstack
  3715 ;; Tracked objects:
  3716 ;;		On entry : 0/0
  3717 ;;		On exit  : 0/0
  3718 ;;		Unchanged: 0/0
  3719 ;; Data sizes:     COMMON   BANK0   BANK1   BANK3   BANK2
  3720 ;;      Params:         0       2       0       0       0
  3721 ;;      Locals:         0       0       0       0       0
  3722 ;;      Temps:          0       2       0       0       0
  3723 ;;      Totals:         0       4       0       0       0
  3724 ;;Total ram usage:        4 bytes
  3725 ;; Hardware stack levels used: 1
  3726 ;; Hardware stack levels required when called: 6
  3727 ;; This function calls:
  3728 ;;		_LCD_init
  3729 ;;		_LCD_limpa
  3730 ;;		_Linha2
  3731 ;;		_escreveMesagem
  3732 ;;		_rotinaValidaSenha
  3733 ;; This function is called by:
  3734 ;;		_main
  3735 ;; This function uses a non-reentrant model
  3736 ;;
  3737                           
  3738                           
  3739                           ;psect for function _alteraSenhas
  3740  1464                     _alteraSenhas:
  3741  1464                     l4005:	
  3742                           ;incstack = 0
  3743                           ; Regs used in _alteraSenhas: [wreg-fsr0h+status,2+status,0+btemp+1+pclath+cstack]
  3744                           
  3745                           
  3746                           ;main.c: 276:     LCD_init();
  3747  1464  160A  118A  22EB  160A  118A  	fcall	_LCD_init
  3748                           
  3749                           ;main.c: 277:     LCD_limpa();
  3750  1469  160A  118A  21D4  160A  118A  	fcall	_LCD_limpa
  3751  146E                     l4007:
  3752                           
  3753                           ;main.c: 278:     _delay((unsigned long)((2)*(20000000/4000.0)));
  3754  146E  300D               	movlw	13
  3755  146F  1283               	bcf	3,5	;RP0=0, select bank0
  3756  1470  1303               	bcf	3,6	;RP1=0, select bank0
  3757  1471  00CF               	movwf	??_alteraSenhas+1
  3758  1472  30FB               	movlw	251
  3759  1473  00CE               	movwf	??_alteraSenhas
  3760  1474                     u4727:
  3761  1474  0BCE               	decfsz	??_alteraSenhas,f
  3762  1475  2C74               	goto	u4727
  3763  1476  0BCF               	decfsz	??_alteraSenhas+1,f
  3764  1477  2C74               	goto	u4727
  3765  1478                     l4009:
  3766                           
  3767                           ;main.c: 279:     alteraSenha = 1;
  3768  1478  3001               	movlw	1
  3769  1479  1283               	bcf	3,5	;RP0=0, select bank0
  3770  147A  1303               	bcf	3,6	;RP1=0, select bank0
  3771  147B  00D9               	movwf	_alteraSenha
  3772  147C  3000               	movlw	0
  3773  147D  00DA               	movwf	_alteraSenha+1
  3774  147E                     l4011:
  3775                           
  3776                           ;main.c: 280:     escreveMesagem(msgDigiteNovaSenha);
  3777  147E  3050               	movlw	(low (_msgDigiteNovaSenha| (0+256)))& (0+255)
  3778  147F  00F3               	movwf	escreveMesagem@texto
  3779  1480  3001               	movlw	1
  3780  1481  00F4               	movwf	escreveMesagem@texto+1
  3781  1482  160A  118A  231E  160A  118A  	fcall	_escreveMesagem
  3782  1487                     l4013:
  3783                           
  3784                           ;main.c: 281:     Linha2();
  3785  1487  160A  118A  2355  160A  118A  	fcall	_Linha2
  3786  148C                     l4015:
  3787                           
  3788                           ;main.c: 282:     if (opConfig == 1){
  3789  148C  1283               	bcf	3,5	;RP0=0, select bank0
  3790  148D  1303               	bcf	3,6	;RP1=0, select bank0
  3791  148E  034C               	decf	alteraSenhas@opConfig,w
  3792  148F  044D               	iorwf	alteraSenhas@opConfig+1,w
  3793  1490  1D03               	btfss	3,2
  3794  1491  2C93               	goto	u4331
  3795  1492  2C94               	goto	u4330
  3796  1493                     u4331:
  3797  1493  2C9B               	goto	l4019
  3798  1494                     u4330:
  3799  1494                     l4017:
  3800                           
  3801                           ;main.c: 283:         rotinaValidaSenha(senhaConfig);
  3802  1494  30D5               	movlw	(low (_senhaConfig| 0))& (0+255)
  3803  1495  160A  118A  23D3  160A  118A  	fcall	_rotinaValidaSenha
  3804                           
  3805                           ;main.c: 284:     }
  3806  149A  2CB6               	goto	l276
  3807  149B                     l4019:
  3808  149B  3002               	movlw	2
  3809  149C  064C               	xorwf	alteraSenhas@opConfig,w
  3810  149D  044D               	iorwf	alteraSenhas@opConfig+1,w
  3811  149E  1D03               	btfss	3,2
  3812  149F  2CA1               	goto	u4341
  3813  14A0  2CA2               	goto	u4340
  3814  14A1                     u4341:
  3815  14A1  2CA9               	goto	l4023
  3816  14A2                     u4340:
  3817  14A2                     l4021:
  3818                           
  3819                           ;main.c: 286:         rotinaValidaSenha(senhaUser);
  3820  14A2  30E4               	movlw	(low (_senhaUser| 0))& (0+255)
  3821  14A3  160A  118A  23D3  160A  118A  	fcall	_rotinaValidaSenha
  3822                           
  3823                           ;main.c: 287:     }
  3824  14A8  2CB6               	goto	l276
  3825  14A9                     l4023:
  3826  14A9  3003               	movlw	3
  3827  14AA  064C               	xorwf	alteraSenhas@opConfig,w
  3828  14AB  044D               	iorwf	alteraSenhas@opConfig+1,w
  3829  14AC  1D03               	btfss	3,2
  3830  14AD  2CAF               	goto	u4351
  3831  14AE  2CB0               	goto	u4350
  3832  14AF                     u4351:
  3833  14AF  2CB6               	goto	l276
  3834  14B0                     u4350:
  3835  14B0                     l4025:
  3836                           
  3837                           ;main.c: 289:         rotinaValidaSenha(senhaCoa);
  3838  14B0  30DA               	movlw	(low (_senhaCoa| 0))& (0+255)
  3839  14B1  160A  118A  23D3  160A  118A  	fcall	_rotinaValidaSenha
  3840  14B6                     l276:
  3841  14B6  0008               	return
  3842  14B7                     __end_of_alteraSenhas:
  3843                           
  3844                           	psect	text11
  3845  13D3                     __ptext11:	
  3846 ;; *************** function _rotinaValidaSenha *****************
  3847 ;; Defined at:
  3848 ;;		line 262 in file "main.c"
  3849 ;; Parameters:    Size  Location     Type
  3850 ;;  senhaOp         1    wreg     PTR unsigned char 
  3851 ;;		 -> senhaCoa(5), senhaUser(5), senhaConfig(5), 
  3852 ;; Auto vars:     Size  Location     Type
  3853 ;;  senhaOp         1   43[BANK0 ] PTR unsigned char 
  3854 ;;		 -> senhaCoa(5), senhaUser(5), senhaConfig(5), 
  3855 ;; Return value:  Size  Location     Type
  3856 ;;                  1    wreg      void 
  3857 ;; Registers used:
  3858 ;;		wreg, fsr0l, fsr0h, status,2, status,0, btemp+1, pclath, cstack
  3859 ;; Tracked objects:
  3860 ;;		On entry : 0/0
  3861 ;;		On exit  : 0/0
  3862 ;;		Unchanged: 0/0
  3863 ;; Data sizes:     COMMON   BANK0   BANK1   BANK3   BANK2
  3864 ;;      Params:         0       0       0       0       0
  3865 ;;      Locals:         0       1       0       0       0
  3866 ;;      Temps:          0       3       0       0       0
  3867 ;;      Totals:         0       4       0       0       0
  3868 ;;Total ram usage:        4 bytes
  3869 ;; Hardware stack levels used: 1
  3870 ;; Hardware stack levels required when called: 5
  3871 ;; This function calls:
  3872 ;;		_LCD_limpa
  3873 ;;		_LCD_linha2
  3874 ;;		_escreveMesagem
  3875 ;;		_inputSenhaAlter
  3876 ;; This function is called by:
  3877 ;;		_alteraSenhas
  3878 ;; This function uses a non-reentrant model
  3879 ;;
  3880                           
  3881                           
  3882                           ;psect for function _rotinaValidaSenha
  3883  13D3                     _rotinaValidaSenha:
  3884                           
  3885                           ;incstack = 0
  3886                           ; Regs used in _rotinaValidaSenha: [wreg-fsr0h+status,2+status,0+btemp+1+pclath+cstack]
  3887                           ;rotinaValidaSenha@senhaOp stored from wreg
  3888  13D3  1283               	bcf	3,5	;RP0=0, select bank0
  3889  13D4  1303               	bcf	3,6	;RP1=0, select bank0
  3890  13D5  00CB               	movwf	rotinaValidaSenha@senhaOp
  3891  13D6                     l3773:
  3892                           
  3893                           ;main.c: 263:     inputSenhaAlter(senhaOp);
  3894  13D6  084B               	movf	rotinaValidaSenha@senhaOp,w
  3895  13D7  160A  118A  2512  160A  118A  	fcall	_inputSenhaAlter
  3896  13DC                     l3775:
  3897                           
  3898                           ;main.c: 264:         LCD_limpa();
  3899  13DC  160A  118A  21D4  160A  118A  	fcall	_LCD_limpa
  3900  13E1                     l3777:
  3901                           
  3902                           ;main.c: 265:         if (validaSenha){
  3903  13E1  1283               	bcf	3,5	;RP0=0, select bank0
  3904  13E2  1303               	bcf	3,6	;RP1=0, select bank0
  3905  13E3  085D               	movf	_validaSenha,w
  3906  13E4  045E               	iorwf	_validaSenha+1,w
  3907  13E5  1903               	btfsc	3,2
  3908  13E6  2BE8               	goto	u4101
  3909  13E7  2BE9               	goto	u4100
  3910  13E8                     u4101:
  3911  13E8  2C03               	goto	l3785
  3912  13E9                     u4100:
  3913  13E9                     l3779:
  3914                           
  3915                           ;main.c: 266:             escreveMesagem(msgSenhaAtualizada);
  3916  13E9  3010               	movlw	(low (_msgSenhaAtualizada| (0+256)))& (0+255)
  3917  13EA  00F3               	movwf	escreveMesagem@texto
  3918  13EB  3001               	movlw	1
  3919  13EC  00F4               	movwf	escreveMesagem@texto+1
  3920  13ED  160A  118A  231E  160A  118A  	fcall	_escreveMesagem
  3921  13F2                     l3781:
  3922                           
  3923                           ;main.c: 267:             LCD_linha2();
  3924  13F2  160A  118A  21C4  160A  118A  	fcall	_LCD_linha2
  3925  13F7                     l3783:
  3926                           
  3927                           ;main.c: 268:             escreveMesagem(senhaOp);
  3928  13F7  1283               	bcf	3,5	;RP0=0, select bank0
  3929  13F8  1303               	bcf	3,6	;RP1=0, select bank0
  3930  13F9  084B               	movf	rotinaValidaSenha@senhaOp,w
  3931  13FA  00F3               	movwf	escreveMesagem@texto
  3932  13FB  3000               	movlw	0
  3933  13FC  00F4               	movwf	escreveMesagem@texto+1
  3934  13FD  160A  118A  231E  160A  118A  	fcall	_escreveMesagem
  3935                           
  3936                           ;main.c: 269:         }
  3937  1402  2C0C               	goto	l3787
  3938  1403                     l3785:
  3939                           
  3940                           ;main.c: 271:             escreveMesagem(msgSenhaCancelada);
  3941  1403  3031               	movlw	(low (_msgSenhaCancelada| (0+256)))& (0+255)
  3942  1404  00F3               	movwf	escreveMesagem@texto
  3943  1405  3001               	movlw	1
  3944  1406  00F4               	movwf	escreveMesagem@texto+1
  3945  1407  160A  118A  231E  160A  118A  	fcall	_escreveMesagem
  3946  140C                     l3787:
  3947                           
  3948                           ;main.c: 273:         _delay((unsigned long)((2000)*(20000000/4000.0)));
  3949  140C  3033               	movlw	51
  3950  140D  1283               	bcf	3,5	;RP0=0, select bank0
  3951  140E  1303               	bcf	3,6	;RP1=0, select bank0
  3952  140F  00CA               	movwf	??_rotinaValidaSenha+2
  3953  1410  30BB               	movlw	187
  3954  1411  00C9               	movwf	??_rotinaValidaSenha+1
  3955  1412  30DF               	movlw	223
  3956  1413  00C8               	movwf	??_rotinaValidaSenha
  3957  1414                     u4737:
  3958  1414  0BC8               	decfsz	??_rotinaValidaSenha,f
  3959  1415  2C14               	goto	u4737
  3960  1416  0BC9               	decfsz	??_rotinaValidaSenha+1,f
  3961  1417  2C14               	goto	u4737
  3962  1418  0BCA               	decfsz	??_rotinaValidaSenha+2,f
  3963  1419  2C14               	goto	u4737
  3964  141A                     l268:
  3965  141A  0008               	return
  3966  141B                     __end_of_rotinaValidaSenha:
  3967                           
  3968                           	psect	text12
  3969  1512                     __ptext12:	
  3970 ;; *************** function _inputSenhaAlter *****************
  3971 ;; Defined at:
  3972 ;;		line 253 in file "main.c"
  3973 ;; Parameters:    Size  Location     Type
  3974 ;;  senhaDestino    1    wreg     PTR unsigned char 
  3975 ;;		 -> senhaCoa(5), senhaUser(5), senhaConfig(5), 
  3976 ;; Auto vars:     Size  Location     Type
  3977 ;;  senhaDestino    1   37[BANK0 ] PTR unsigned char 
  3978 ;;		 -> senhaCoa(5), senhaUser(5), senhaConfig(5), 
  3979 ;;  i               2   38[BANK0 ] int 
  3980 ;; Return value:  Size  Location     Type
  3981 ;;                  1    wreg      void 
  3982 ;; Registers used:
  3983 ;;		wreg, fsr0l, fsr0h, status,2, status,0, btemp+1, pclath, cstack
  3984 ;; Tracked objects:
  3985 ;;		On entry : 0/0
  3986 ;;		On exit  : 0/0
  3987 ;;		Unchanged: 0/0
  3988 ;; Data sizes:     COMMON   BANK0   BANK1   BANK3   BANK2
  3989 ;;      Params:         0       0       0       0       0
  3990 ;;      Locals:         0       3       0       0       0
  3991 ;;      Temps:          0       2       0       0       0
  3992 ;;      Totals:         0       5       0       0       0
  3993 ;;Total ram usage:        5 bytes
  3994 ;; Hardware stack levels used: 1
  3995 ;; Hardware stack levels required when called: 4
  3996 ;; This function calls:
  3997 ;;		_confereTeclado
  3998 ;;		_teclado
  3999 ;;		_valida_senha
  4000 ;; This function is called by:
  4001 ;;		_rotinaValidaSenha
  4002 ;; This function uses a non-reentrant model
  4003 ;;
  4004                           
  4005                           
  4006                           ;psect for function _inputSenhaAlter
  4007  1512                     _inputSenhaAlter:
  4008                           
  4009                           ;incstack = 0
  4010                           ; Regs used in _inputSenhaAlter: [wreg-fsr0h+status,2+status,0+btemp+1+pclath+cstack]
  4011                           ;inputSenhaAlter@senhaDestino stored from wreg
  4012  1512  1283               	bcf	3,5	;RP0=0, select bank0
  4013  1513  1303               	bcf	3,6	;RP1=0, select bank0
  4014  1514  00C5               	movwf	inputSenhaAlter@senhaDestino
  4015  1515                     l3699:
  4016                           
  4017                           ;main.c: 254:     for (int i = 0; i < 4; i++){
  4018  1515  01C6               	clrf	inputSenhaAlter@i
  4019  1516  01C7               	clrf	inputSenhaAlter@i+1
  4020  1517                     l3705:
  4021                           
  4022                           ;main.c: 255:         input = 10;
  4023  1517  300A               	movlw	10
  4024  1518  1283               	bcf	3,5	;RP0=0, select bank0
  4025  1519  1303               	bcf	3,6	;RP1=0, select bank0
  4026  151A  00EB               	movwf	_input
  4027  151B  3000               	movlw	0
  4028  151C  00EC               	movwf	_input+1
  4029                           
  4030                           ;main.c: 256:         while (input == 10){teclado();}
  4031  151D  2D23               	goto	l3709
  4032  151E                     l3707:
  4033  151E  120A  118A  20FE  160A  118A  	fcall	_teclado
  4034  1523                     l3709:
  4035  1523  300A               	movlw	10
  4036  1524  1283               	bcf	3,5	;RP0=0, select bank0
  4037  1525  1303               	bcf	3,6	;RP1=0, select bank0
  4038  1526  066B               	xorwf	_input,w
  4039  1527  046C               	iorwf	_input+1,w
  4040  1528  1903               	btfsc	3,2
  4041  1529  2D2B               	goto	u3971
  4042  152A  2D2C               	goto	u3970
  4043  152B                     u3971:
  4044  152B  2D1E               	goto	l3707
  4045  152C                     u3970:
  4046  152C                     l3711:
  4047                           
  4048                           ;main.c: 257:         _delay((unsigned long)((2)*(20000000/4000.0)));
  4049  152C  300D               	movlw	13
  4050  152D  1283               	bcf	3,5	;RP0=0, select bank0
  4051  152E  1303               	bcf	3,6	;RP1=0, select bank0
  4052  152F  00C4               	movwf	??_inputSenhaAlter+1
  4053  1530  30FB               	movlw	251
  4054  1531  00C3               	movwf	??_inputSenhaAlter
  4055  1532                     u4747:
  4056  1532  0BC3               	decfsz	??_inputSenhaAlter,f
  4057  1533  2D32               	goto	u4747
  4058  1534  0BC4               	decfsz	??_inputSenhaAlter+1,f
  4059  1535  2D32               	goto	u4747
  4060  1536                     l3713:
  4061                           
  4062                           ;main.c: 258:         senhaDestino[i] = confereTeclado(input);
  4063  1536  1283               	bcf	3,5	;RP0=0, select bank0
  4064  1537  1303               	bcf	3,6	;RP1=0, select bank0
  4065  1538  086C               	movf	_input+1,w
  4066  1539  00F1               	movwf	confereTeclado@numero+1
  4067  153A  086B               	movf	_input,w
  4068  153B  00F0               	movwf	confereTeclado@numero
  4069  153C  160A  118A  25CC  160A  118A  	fcall	_confereTeclado
  4070  1541  1283               	bcf	3,5	;RP0=0, select bank0
  4071  1542  1303               	bcf	3,6	;RP1=0, select bank0
  4072  1543  00C3               	movwf	??_inputSenhaAlter
  4073  1544  0846               	movf	inputSenhaAlter@i,w
  4074  1545  0745               	addwf	inputSenhaAlter@senhaDestino,w
  4075  1546  00C4               	movwf	??_inputSenhaAlter+1
  4076  1547  0844               	movf	??_inputSenhaAlter+1,w
  4077  1548  0084               	movwf	4
  4078  1549  0843               	movf	??_inputSenhaAlter,w
  4079  154A  1383               	bcf	3,7	;select IRP bank0
  4080  154B  0080               	movwf	0
  4081  154C                     l3715:
  4082                           
  4083                           ;main.c: 259:     }
  4084  154C  3001               	movlw	1
  4085  154D  07C6               	addwf	inputSenhaAlter@i,f
  4086  154E  1803               	skipnc
  4087  154F  0AC7               	incf	inputSenhaAlter@i+1,f
  4088  1550  3000               	movlw	0
  4089  1551  07C7               	addwf	inputSenhaAlter@i+1,f
  4090  1552                     l3717:
  4091  1552  0847               	movf	inputSenhaAlter@i+1,w
  4092  1553  3A80               	xorlw	128
  4093  1554  00FF               	movwf	btemp+1
  4094  1555  3080               	movlw	128
  4095  1556  027F               	subwf	btemp+1,w
  4096  1557  1D03               	skipz
  4097  1558  2D5B               	goto	u3985
  4098  1559  3004               	movlw	4
  4099  155A  0246               	subwf	inputSenhaAlter@i,w
  4100  155B                     u3985:
  4101  155B  1C03               	skipc
  4102  155C  2D5E               	goto	u3981
  4103  155D  2D5F               	goto	u3980
  4104  155E                     u3981:
  4105  155E  2D17               	goto	l3705
  4106  155F                     u3980:
  4107  155F                     l3719:
  4108                           
  4109                           ;main.c: 260:     validaSenha = valida_senha(senhaDestino);
  4110  155F  1283               	bcf	3,5	;RP0=0, select bank0
  4111  1560  1303               	bcf	3,6	;RP1=0, select bank0
  4112  1561  0845               	movf	inputSenhaAlter@senhaDestino,w
  4113  1562  160A  118A  275A  160A  118A  	fcall	_valida_senha
  4114  1567  1283               	bcf	3,5	;RP0=0, select bank0
  4115  1568  1303               	bcf	3,6	;RP1=0, select bank0
  4116  1569  083C               	movf	?_valida_senha+1,w
  4117  156A  00DE               	movwf	_validaSenha+1
  4118  156B  083B               	movf	?_valida_senha,w
  4119  156C  00DD               	movwf	_validaSenha
  4120  156D                     l263:
  4121  156D  0008               	return
  4122  156E                     __end_of_inputSenhaAlter:
  4123                           
  4124                           	psect	text13
  4125  175A                     __ptext13:	
  4126 ;; *************** function _valida_senha *****************
  4127 ;; Defined at:
  4128 ;;		line 226 in file "main.c"
  4129 ;; Parameters:    Size  Location     Type
  4130 ;;  texto           1    wreg     PTR unsigned char 
  4131 ;;		 -> senhaCoa(5), senhaUser(5), senhaConfig(5), 
  4132 ;; Auto vars:     Size  Location     Type
  4133 ;;  texto           1   32[BANK0 ] PTR unsigned char 
  4134 ;;		 -> senhaCoa(5), senhaUser(5), senhaConfig(5), 
  4135 ;;  aceito          2   33[BANK0 ] unsigned int 
  4136 ;; Return value:  Size  Location     Type
  4137 ;;                  2   27[BANK0 ] unsigned int 
  4138 ;; Registers used:
  4139 ;;		wreg, fsr0l, fsr0h, status,2, status,0, btemp+1, pclath, cstack
  4140 ;; Tracked objects:
  4141 ;;		On entry : 0/0
  4142 ;;		On exit  : 0/0
  4143 ;;		Unchanged: 0/0
  4144 ;; Data sizes:     COMMON   BANK0   BANK1   BANK3   BANK2
  4145 ;;      Params:         0       2       0       0       0
  4146 ;;      Locals:         0       3       0       0       0
  4147 ;;      Temps:          0       3       0       0       0
  4148 ;;      Totals:         0       8       0       0       0
  4149 ;;Total ram usage:        8 bytes
  4150 ;; Hardware stack levels used: 1
  4151 ;; Hardware stack levels required when called: 3
  4152 ;; This function calls:
  4153 ;;		_LCD_escreve
  4154 ;;		_LCD_limpa
  4155 ;;		_LCD_linha1
  4156 ;;		_LCD_linha2
  4157 ;;		_escreveMesagem
  4158 ;;		_liga_buzzer
  4159 ;; This function is called by:
  4160 ;;		_inputSenhaAlter
  4161 ;; This function uses a non-reentrant model
  4162 ;;
  4163                           
  4164                           
  4165                           ;psect for function _valida_senha
  4166  175A                     _valida_senha:
  4167                           
  4168                           ;incstack = 0
  4169                           ; Regs used in _valida_senha: [wreg-fsr0h+status,2+status,0+btemp+1+pclath+cstack]
  4170                           ;valida_senha@texto stored from wreg
  4171  175A  1283               	bcf	3,5	;RP0=0, select bank0
  4172  175B  1303               	bcf	3,6	;RP1=0, select bank0
  4173  175C  00C0               	movwf	valida_senha@texto
  4174  175D                     l3655:
  4175                           
  4176                           ;main.c: 227:     unsigned int aceito = 3;
  4177  175D  3003               	movlw	3
  4178  175E  00C1               	movwf	valida_senha@aceito
  4179  175F  3000               	movlw	0
  4180  1760  00C2               	movwf	valida_senha@aceito+1
  4181  1761                     l3657:
  4182                           
  4183                           ;main.c: 228:     LCD_limpa();
  4184  1761  160A  118A  21D4  160A  118A  	fcall	_LCD_limpa
  4185                           
  4186                           ;main.c: 229:     LCD_linha1();
  4187  1766  160A  118A  21E4  160A  118A  	fcall	_LCD_linha1
  4188  176B                     l3659:
  4189                           
  4190                           ;main.c: 230:     escreveMesagem(msgValidaSenha);
  4191  176B  3021               	movlw	(low (_msgValidaSenha| (0+256)))& (0+255)
  4192  176C  00F3               	movwf	escreveMesagem@texto
  4193  176D  3001               	movlw	1
  4194  176E  00F4               	movwf	escreveMesagem@texto+1
  4195  176F  160A  118A  231E  160A  118A  	fcall	_escreveMesagem
  4196  1774                     l3661:
  4197                           
  4198                           ;main.c: 231:     LCD_linha2();
  4199  1774  160A  118A  21C4  160A  118A  	fcall	_LCD_linha2
  4200                           
  4201                           ;main.c: 232:     escreveMesagem(texto);
  4202  1779  1283               	bcf	3,5	;RP0=0, select bank0
  4203  177A  1303               	bcf	3,6	;RP1=0, select bank0
  4204  177B  0840               	movf	valida_senha@texto,w
  4205  177C  00F3               	movwf	escreveMesagem@texto
  4206  177D  3000               	movlw	0
  4207  177E  00F4               	movwf	escreveMesagem@texto+1
  4208  177F  160A  118A  231E  160A  118A  	fcall	_escreveMesagem
  4209  1784                     l3663:
  4210                           
  4211                           ;main.c: 233:     LCD_escreve(' ');
  4212  1784  3020               	movlw	32
  4213  1785  160A  118A  21F4  160A  118A  	fcall	_LCD_escreve
  4214  178A                     l3665:
  4215                           
  4216                           ;main.c: 234:     escreveMesagem(msgAceitoOuNego);
  4217  178A  30BE               	movlw	(low (_msgAceitoOuNego| 0))& (0+255)
  4218  178B  00F3               	movwf	escreveMesagem@texto
  4219  178C  3000               	movlw	0
  4220  178D  00F4               	movwf	escreveMesagem@texto+1
  4221  178E  160A  118A  231E  160A  118A  	fcall	_escreveMesagem
  4222  1793                     l3667:
  4223                           
  4224                           ;main.c: 235:     PORTB = 0b01111111;
  4225  1793  307F               	movlw	127
  4226  1794  1283               	bcf	3,5	;RP0=0, select bank0
  4227  1795  1303               	bcf	3,6	;RP1=0, select bank0
  4228  1796  0086               	movwf	6	;volatile
  4229                           
  4230                           ;main.c: 236:     while (aceito == 3){
  4231  1797  2FE2               	goto	l3687
  4232  1798                     l3669:
  4233                           
  4234                           ;main.c: 237:         _delay((unsigned long)((200)*(20000000/4000.0)));
  4235  1798  3006               	movlw	6
  4236  1799  1283               	bcf	3,5	;RP0=0, select bank0
  4237  179A  1303               	bcf	3,6	;RP1=0, select bank0
  4238  179B  00BF               	movwf	??_valida_senha+2
  4239  179C  3013               	movlw	19
  4240  179D  00BE               	movwf	??_valida_senha+1
  4241  179E  30AD               	movlw	173
  4242  179F  00BD               	movwf	??_valida_senha
  4243  17A0                     u4757:
  4244  17A0  0BBD               	decfsz	??_valida_senha,f
  4245  17A1  2FA0               	goto	u4757
  4246  17A2  0BBE               	decfsz	??_valida_senha+1,f
  4247  17A3  2FA0               	goto	u4757
  4248  17A4  0BBF               	decfsz	??_valida_senha+2,f
  4249  17A5  2FA0               	goto	u4757
  4250  17A6                     l3671:
  4251                           
  4252                           ;main.c: 238:         if (RB2 == 0){
  4253  17A6  1283               	bcf	3,5	;RP0=0, select bank0
  4254  17A7  1303               	bcf	3,6	;RP1=0, select bank0
  4255  17A8  1906               	btfsc	6,2	;volatile
  4256  17A9  2FAB               	goto	u3941
  4257  17AA  2FAC               	goto	u3940
  4258  17AB                     u3941:
  4259  17AB  2FC3               	goto	l3679
  4260  17AC                     u3940:
  4261  17AC                     l3673:
  4262                           
  4263                           ;main.c: 239:             liga_buzzer(0.1);
  4264  17AC  303D               	movlw	61
  4265  17AD  00B8               	movwf	liga_buzzer@tempoSegundos+3
  4266  17AE  30CC               	movlw	204
  4267  17AF  00B7               	movwf	liga_buzzer@tempoSegundos+2
  4268  17B0  30CC               	movlw	204
  4269  17B1  00B6               	movwf	liga_buzzer@tempoSegundos+1
  4270  17B2  30CD               	movlw	205
  4271  17B3  00B5               	movwf	liga_buzzer@tempoSegundos
  4272  17B4  160A  118A  263C  160A  118A  	fcall	_liga_buzzer
  4273  17B9                     l3675:
  4274                           
  4275                           ;main.c: 240:             aceito = 0;
  4276  17B9  1283               	bcf	3,5	;RP0=0, select bank0
  4277  17BA  1303               	bcf	3,6	;RP1=0, select bank0
  4278  17BB  01C1               	clrf	valida_senha@aceito
  4279  17BC  01C2               	clrf	valida_senha@aceito+1
  4280  17BD                     l3677:
  4281                           
  4282                           ;main.c: 241:             LCD_escreve('E');
  4283  17BD  3045               	movlw	69
  4284  17BE  160A  118A  21F4  160A  118A  	fcall	_LCD_escreve
  4285  17C3                     l3679:
  4286                           
  4287                           ;main.c: 243:         if (RB3 == 0){
  4288  17C3  1283               	bcf	3,5	;RP0=0, select bank0
  4289  17C4  1303               	bcf	3,6	;RP1=0, select bank0
  4290  17C5  1986               	btfsc	6,3	;volatile
  4291  17C6  2FC8               	goto	u3951
  4292  17C7  2FC9               	goto	u3950
  4293  17C8                     u3951:
  4294  17C8  2FE2               	goto	l3687
  4295  17C9                     u3950:
  4296  17C9                     l3681:
  4297                           
  4298                           ;main.c: 244:             liga_buzzer(0.1);
  4299  17C9  303D               	movlw	61
  4300  17CA  00B8               	movwf	liga_buzzer@tempoSegundos+3
  4301  17CB  30CC               	movlw	204
  4302  17CC  00B7               	movwf	liga_buzzer@tempoSegundos+2
  4303  17CD  30CC               	movlw	204
  4304  17CE  00B6               	movwf	liga_buzzer@tempoSegundos+1
  4305  17CF  30CD               	movlw	205
  4306  17D0  00B5               	movwf	liga_buzzer@tempoSegundos
  4307  17D1  160A  118A  263C  160A  118A  	fcall	_liga_buzzer
  4308  17D6                     l3683:
  4309                           
  4310                           ;main.c: 245:             aceito = 1;
  4311  17D6  3001               	movlw	1
  4312  17D7  1283               	bcf	3,5	;RP0=0, select bank0
  4313  17D8  1303               	bcf	3,6	;RP1=0, select bank0
  4314  17D9  00C1               	movwf	valida_senha@aceito
  4315  17DA  3000               	movlw	0
  4316  17DB  00C2               	movwf	valida_senha@aceito+1
  4317  17DC                     l3685:
  4318                           
  4319                           ;main.c: 246:             LCD_escreve('F');
  4320  17DC  3046               	movlw	70
  4321  17DD  160A  118A  21F4  160A  118A  	fcall	_LCD_escreve
  4322  17E2                     l3687:
  4323                           
  4324                           ;main.c: 236:     while (aceito == 3){
  4325  17E2  3003               	movlw	3
  4326  17E3  1283               	bcf	3,5	;RP0=0, select bank0
  4327  17E4  1303               	bcf	3,6	;RP1=0, select bank0
  4328  17E5  0641               	xorwf	valida_senha@aceito,w
  4329  17E6  0442               	iorwf	valida_senha@aceito+1,w
  4330  17E7  1903               	btfsc	3,2
  4331  17E8  2FEA               	goto	u3961
  4332  17E9  2FEB               	goto	u3960
  4333  17EA                     u3961:
  4334  17EA  2F98               	goto	l3669
  4335  17EB                     u3960:
  4336  17EB                     l3689:
  4337                           
  4338                           ;main.c: 249:     _delay((unsigned long)((2000)*(20000000/4000.0)));
  4339  17EB  3033               	movlw	51
  4340  17EC  1283               	bcf	3,5	;RP0=0, select bank0
  4341  17ED  1303               	bcf	3,6	;RP1=0, select bank0
  4342  17EE  00BF               	movwf	??_valida_senha+2
  4343  17EF  30BB               	movlw	187
  4344  17F0  00BE               	movwf	??_valida_senha+1
  4345  17F1  30DF               	movlw	223
  4346  17F2  00BD               	movwf	??_valida_senha
  4347  17F3                     u4767:
  4348  17F3  0BBD               	decfsz	??_valida_senha,f
  4349  17F4  2FF3               	goto	u4767
  4350  17F5  0BBE               	decfsz	??_valida_senha+1,f
  4351  17F6  2FF3               	goto	u4767
  4352  17F7  0BBF               	decfsz	??_valida_senha+2,f
  4353  17F8  2FF3               	goto	u4767
  4354                           
  4355                           ;main.c: 250:     return aceito;
  4356  17F9  1283               	bcf	3,5	;RP0=0, select bank0
  4357  17FA  1303               	bcf	3,6	;RP1=0, select bank0
  4358  17FB  0842               	movf	valida_senha@aceito+1,w
  4359  17FC  00BC               	movwf	?_valida_senha+1
  4360  17FD  0841               	movf	valida_senha@aceito,w
  4361  17FE  00BB               	movwf	?_valida_senha
  4362  17FF                     l255:
  4363  17FF  0008               	return
  4364  1800                     __end_of_valida_senha:
  4365                           
  4366                           	psect	text14
  4367  131E                     __ptext14:	
  4368 ;; *************** function _escreveMesagem *****************
  4369 ;; Defined at:
  4370 ;;		line 460 in file "main.c"
  4371 ;; Parameters:    Size  Location     Type
  4372 ;;  texto           2    3[COMMON] PTR unsigned char 
  4373 ;;		 -> msgReativar(9), msgDesativarZona(15), msgSenhaDisparo(15), msgSenhaCoacao(13), 
  4374 ;;		 -> msgSenhaUsuario(14), msgSenhaConfig(13), msgSenhaCorreta(14), msgSenhaErrada(13), 
  4375 ;;		 -> senhaCoa(5), senhaUser(5), senhaConfig(5), msgDigiteNovaSenha(14), 
  4376 ;;		 -> msgSenhaCancelada(16), msgSenhaAtualizada(17), msgAceitoOuNego(9), msgValidaSenha(16), 
  4377 ;;		 -> msgZonaDisparadas(15), msgConfigDispara(15), msgChamaAjuda(10), 
  4378 ;; Auto vars:     Size  Location     Type
  4379 ;;  i               2    8[COMMON] int 
  4380 ;; Return value:  Size  Location     Type
  4381 ;;                  1    wreg      void 
  4382 ;; Registers used:
  4383 ;;		wreg, fsr0l, fsr0h, status,2, status,0, btemp+1, pclath, cstack
  4384 ;; Tracked objects:
  4385 ;;		On entry : 0/0
  4386 ;;		On exit  : 0/0
  4387 ;;		Unchanged: 0/0
  4388 ;; Data sizes:     COMMON   BANK0   BANK1   BANK3   BANK2
  4389 ;;      Params:         2       0       0       0       0
  4390 ;;      Locals:         2       0       0       0       0
  4391 ;;      Temps:          3       0       0       0       0
  4392 ;;      Totals:         7       0       0       0       0
  4393 ;;Total ram usage:        7 bytes
  4394 ;; Hardware stack levels used: 1
  4395 ;; Hardware stack levels required when called: 2
  4396 ;; This function calls:
  4397 ;;		_LCD_escreve
  4398 ;; This function is called by:
  4399 ;;		_main
  4400 ;;		_infoZonas
  4401 ;;		_valida_senha
  4402 ;;		_rotinaValidaSenha
  4403 ;;		_alteraSenhas
  4404 ;;		_validaUser
  4405 ;;		_listaZonas
  4406 ;; This function uses a non-reentrant model
  4407 ;;
  4408                           
  4409                           
  4410                           ;psect for function _escreveMesagem
  4411  131E                     _escreveMesagem:
  4412  131E                     l3647:	
  4413                           ;incstack = 0
  4414                           ; Regs used in _escreveMesagem: [wreg-fsr0h+status,2+status,0+btemp+1+pclath+cstack]
  4415                           
  4416                           
  4417                           ;main.c: 461:     for (int i = 0; texto[i] != '\0'; i++){
  4418  131E  01F8               	clrf	escreveMesagem@i
  4419  131F  01F9               	clrf	escreveMesagem@i+1
  4420  1320  2B3E               	goto	l3653
  4421  1321                     l3649:
  4422                           
  4423                           ;main.c: 462:         LCD_escreve(texto[i]);
  4424  1321  0878               	movf	escreveMesagem@i,w
  4425  1322  0773               	addwf	escreveMesagem@texto,w
  4426  1323  00F6               	movwf	??_escreveMesagem+1
  4427  1324  0874               	movf	escreveMesagem@texto+1,w
  4428  1325  00F5               	movwf	??_escreveMesagem
  4429  1326  1803               	skipnc
  4430  1327  0AF5               	incf	??_escreveMesagem,f
  4431  1328  1FF8               	btfss	escreveMesagem@i,7
  4432  1329  2B2B               	goto	u3910
  4433  132A  03F5               	decf	??_escreveMesagem,f
  4434  132B                     u3910:
  4435  132B  0875               	movf	??_escreveMesagem,w
  4436  132C  00F7               	movwf	??_escreveMesagem+2
  4437  132D  0876               	movf	??_escreveMesagem+1,w
  4438  132E  0084               	movwf	4
  4439  132F  1783               	bsf	3,7
  4440  1330  1C77               	btfss	??_escreveMesagem+2,0
  4441  1331  1383               	bcf	3,7
  4442  1332  0800               	movf	0,w
  4443  1333  160A  118A  21F4  160A  118A  	fcall	_LCD_escreve
  4444  1338                     l3651:
  4445                           
  4446                           ;main.c: 463:     }
  4447  1338  3001               	movlw	1
  4448  1339  07F8               	addwf	escreveMesagem@i,f
  4449  133A  1803               	skipnc
  4450  133B  0AF9               	incf	escreveMesagem@i+1,f
  4451  133C  3000               	movlw	0
  4452  133D  07F9               	addwf	escreveMesagem@i+1,f
  4453  133E                     l3653:
  4454  133E  0878               	movf	escreveMesagem@i,w
  4455  133F  0773               	addwf	escreveMesagem@texto,w
  4456  1340  00F6               	movwf	??_escreveMesagem+1
  4457  1341  0874               	movf	escreveMesagem@texto+1,w
  4458  1342  00F5               	movwf	??_escreveMesagem
  4459  1343  1803               	skipnc
  4460  1344  0AF5               	incf	??_escreveMesagem,f
  4461  1345  1FF8               	btfss	escreveMesagem@i,7
  4462  1346  2B48               	goto	u3920
  4463  1347  03F5               	decf	??_escreveMesagem,f
  4464  1348                     u3920:
  4465  1348  0875               	movf	??_escreveMesagem,w
  4466  1349  00F7               	movwf	??_escreveMesagem+2
  4467  134A  0876               	movf	??_escreveMesagem+1,w
  4468  134B  0084               	movwf	4
  4469  134C  1783               	bsf	3,7
  4470  134D  1C77               	btfss	??_escreveMesagem+2,0
  4471  134E  1383               	bcf	3,7
  4472  134F  0800               	movf	0,w
  4473  1350  1D03               	btfss	3,2
  4474  1351  2B53               	goto	u3931
  4475  1352  2B54               	goto	u3930
  4476  1353                     u3931:
  4477  1353  2B21               	goto	l3649
  4478  1354                     u3930:
  4479  1354                     l341:
  4480  1354  0008               	return
  4481  1355                     __end_of_escreveMesagem:
  4482                           
  4483                           	psect	text15
  4484  11E4                     __ptext15:	
  4485 ;; *************** function _LCD_linha1 *****************
  4486 ;; Defined at:
  4487 ;;		line 65 in file "./lcd.h"
  4488 ;; Parameters:    Size  Location     Type
  4489 ;;		None
  4490 ;; Auto vars:     Size  Location     Type
  4491 ;;		None
  4492 ;; Return value:  Size  Location     Type
  4493 ;;                  1    wreg      void 
  4494 ;; Registers used:
  4495 ;;		wreg, status,2, status,0, btemp+1, pclath, cstack
  4496 ;; Tracked objects:
  4497 ;;		On entry : 0/0
  4498 ;;		On exit  : 0/0
  4499 ;;		Unchanged: 0/0
  4500 ;; Data sizes:     COMMON   BANK0   BANK1   BANK3   BANK2
  4501 ;;      Params:         0       0       0       0       0
  4502 ;;      Locals:         0       0       0       0       0
  4503 ;;      Temps:          0       0       0       0       0
  4504 ;;      Totals:         0       0       0       0       0
  4505 ;;Total ram usage:        0 bytes
  4506 ;; Hardware stack levels used: 1
  4507 ;; Hardware stack levels required when called: 1
  4508 ;; This function calls:
  4509 ;;		_delay
  4510 ;; This function is called by:
  4511 ;;		_main
  4512 ;;		_infoZonas
  4513 ;;		_valida_senha
  4514 ;;		_telaInicial
  4515 ;;		_validaUser
  4516 ;;		_listaZonas
  4517 ;; This function uses a non-reentrant model
  4518 ;;
  4519                           
  4520                           
  4521                           ;psect for function _LCD_linha1
  4522  11E4                     _LCD_linha1:
  4523  11E4                     l2737:	
  4524                           ;incstack = 0
  4525                           ; Regs used in _LCD_linha1: [wreg+status,2+status,0+btemp+1+pclath+cstack]
  4526                           
  4527                           
  4528                           ;./lcd.h: 66:     PORTD = 0x02;
  4529  11E4  3002               	movlw	2
  4530  11E5  1283               	bcf	3,5	;RP0=0, select bank0
  4531  11E6  1303               	bcf	3,6	;RP1=0, select bank0
  4532  11E7  0088               	movwf	8	;volatile
  4533  11E8                     l2739:
  4534                           
  4535                           ;./lcd.h: 67:     RA5 = 0;
  4536  11E8  1285               	bcf	5,5	;volatile
  4537  11E9                     l2741:
  4538                           
  4539                           ;./lcd.h: 68:     RA4 = 0;
  4540  11E9  1205               	bcf	5,4	;volatile
  4541  11EA                     l2743:
  4542                           
  4543                           ;./lcd.h: 69:     RA3=0;
  4544  11EA  1185               	bcf	5,3	;volatile
  4545  11EB                     l2745:
  4546                           
  4547                           ;./lcd.h: 70:     delay();
  4548  11EB  160A  118A  2218  160A  118A  	fcall	_delay
  4549  11F0                     l2747:
  4550                           
  4551                           ;./lcd.h: 71:  RA3 = 1;
  4552  11F0  1283               	bcf	3,5	;RP0=0, select bank0
  4553  11F1  1303               	bcf	3,6	;RP1=0, select bank0
  4554  11F2  1585               	bsf	5,3	;volatile
  4555  11F3                     l89:
  4556  11F3  0008               	return
  4557  11F4                     __end_of_LCD_linha1:
  4558                           
  4559                           	psect	text16
  4560  11D4                     __ptext16:	
  4561 ;; *************** function _LCD_limpa *****************
  4562 ;; Defined at:
  4563 ;;		line 56 in file "./lcd.h"
  4564 ;; Parameters:    Size  Location     Type
  4565 ;;		None
  4566 ;; Auto vars:     Size  Location     Type
  4567 ;;		None
  4568 ;; Return value:  Size  Location     Type
  4569 ;;                  1    wreg      void 
  4570 ;; Registers used:
  4571 ;;		wreg, status,2, status,0, btemp+1, pclath, cstack
  4572 ;; Tracked objects:
  4573 ;;		On entry : 0/0
  4574 ;;		On exit  : 0/0
  4575 ;;		Unchanged: 0/0
  4576 ;; Data sizes:     COMMON   BANK0   BANK1   BANK3   BANK2
  4577 ;;      Params:         0       0       0       0       0
  4578 ;;      Locals:         0       0       0       0       0
  4579 ;;      Temps:          0       0       0       0       0
  4580 ;;      Totals:         0       0       0       0       0
  4581 ;;Total ram usage:        0 bytes
  4582 ;; Hardware stack levels used: 1
  4583 ;; Hardware stack levels required when called: 1
  4584 ;; This function calls:
  4585 ;;		_delay
  4586 ;; This function is called by:
  4587 ;;		_main
  4588 ;;		_infoZonas
  4589 ;;		_valida_senha
  4590 ;;		_rotinaValidaSenha
  4591 ;;		_alteraSenhas
  4592 ;;		_validaUser
  4593 ;;		_listaZonas
  4594 ;; This function uses a non-reentrant model
  4595 ;;
  4596                           
  4597                           
  4598                           ;psect for function _LCD_limpa
  4599  11D4                     _LCD_limpa:
  4600  11D4                     l2725:	
  4601                           ;incstack = 0
  4602                           ; Regs used in _LCD_limpa: [wreg+status,2+status,0+btemp+1+pclath+cstack]
  4603                           
  4604                           
  4605                           ;./lcd.h: 57:     PORTD = 0x01;
  4606  11D4  3001               	movlw	1
  4607  11D5  1283               	bcf	3,5	;RP0=0, select bank0
  4608  11D6  1303               	bcf	3,6	;RP1=0, select bank0
  4609  11D7  0088               	movwf	8	;volatile
  4610  11D8                     l2727:
  4611                           
  4612                           ;./lcd.h: 58:     RA5 = 0;
  4613  11D8  1285               	bcf	5,5	;volatile
  4614  11D9                     l2729:
  4615                           
  4616                           ;./lcd.h: 59:     RA4 = 0;
  4617  11D9  1205               	bcf	5,4	;volatile
  4618  11DA                     l2731:
  4619                           
  4620                           ;./lcd.h: 60:     RA3=0;
  4621  11DA  1185               	bcf	5,3	;volatile
  4622  11DB                     l2733:
  4623                           
  4624                           ;./lcd.h: 61:     delay();
  4625  11DB  160A  118A  2218  160A  118A  	fcall	_delay
  4626  11E0                     l2735:
  4627                           
  4628                           ;./lcd.h: 62:  RA3 = 1;
  4629  11E0  1283               	bcf	3,5	;RP0=0, select bank0
  4630  11E1  1303               	bcf	3,6	;RP1=0, select bank0
  4631  11E2  1585               	bsf	5,3	;volatile
  4632  11E3                     l86:
  4633  11E3  0008               	return
  4634  11E4                     __end_of_LCD_limpa:
  4635                           
  4636                           	psect	text17
  4637  00FE                     __ptext17:	
  4638 ;; *************** function _teclado *****************
  4639 ;; Defined at:
  4640 ;;		line 491 in file "main.c"
  4641 ;; Parameters:    Size  Location     Type
  4642 ;;		None
  4643 ;; Auto vars:     Size  Location     Type
  4644 ;;		None
  4645 ;; Return value:  Size  Location     Type
  4646 ;;                  1    wreg      void 
  4647 ;; Registers used:
  4648 ;;		wreg, status,2, status,0, btemp+1, pclath, cstack
  4649 ;; Tracked objects:
  4650 ;;		On entry : 0/0
  4651 ;;		On exit  : 0/0
  4652 ;;		Unchanged: 0/0
  4653 ;; Data sizes:     COMMON   BANK0   BANK1   BANK3   BANK2
  4654 ;;      Params:         0       0       0       0       0
  4655 ;;      Locals:         0       0       0       0       0
  4656 ;;      Temps:          0       3       0       0       0
  4657 ;;      Totals:         0       3       0       0       0
  4658 ;;Total ram usage:        3 bytes
  4659 ;; Hardware stack levels used: 1
  4660 ;; Hardware stack levels required when called: 3
  4661 ;; This function calls:
  4662 ;;		_LCD_escreve
  4663 ;;		_liga_buzzer
  4664 ;; This function is called by:
  4665 ;;		_inputSenhaAlter
  4666 ;;		_validaUser
  4667 ;; This function uses a non-reentrant model
  4668 ;;
  4669                           
  4670                           
  4671                           ;psect for function _teclado
  4672  00FE                     _teclado:
  4673  00FE                     l2855:	
  4674                           ;incstack = 0
  4675                           ; Regs used in _teclado: [wreg+status,2+status,0+btemp+1+pclath+cstack]
  4676                           
  4677                           
  4678                           ;main.c: 492:     PORTE = 0x01;
  4679  00FE  3001               	movlw	1
  4680  00FF  1283               	bcf	3,5	;RP0=0, select bank0
  4681  0100  1303               	bcf	3,6	;RP1=0, select bank0
  4682  0101  0089               	movwf	9	;volatile
  4683                           
  4684                           ;main.c: 496:     PORTB = 0b11101111;
  4685  0102  30EF               	movlw	239
  4686  0103  0086               	movwf	6	;volatile
  4687  0104                     l2857:
  4688                           
  4689                           ;main.c: 500:     if (RB0 == 0){
  4690  0104  1806               	btfsc	6,0	;volatile
  4691  0105  2907               	goto	u2961
  4692  0106  2908               	goto	u2960
  4693  0107                     u2961:
  4694  0107  293D               	goto	l2873
  4695  0108                     u2960:
  4696  0108                     l2859:
  4697                           
  4698                           ;main.c: 501:         _delay((unsigned long)((200)*(20000000/4000.0)));
  4699  0108  3006               	movlw	6
  4700  0109  1283               	bcf	3,5	;RP0=0, select bank0
  4701  010A  1303               	bcf	3,6	;RP1=0, select bank0
  4702  010B  00BD               	movwf	??_teclado+2
  4703  010C  3013               	movlw	19
  4704  010D  00BC               	movwf	??_teclado+1
  4705  010E  30AD               	movlw	173
  4706  010F  00BB               	movwf	??_teclado
  4707  0110                     u4777:
  4708  0110  0BBB               	decfsz	??_teclado,f
  4709  0111  2910               	goto	u4777
  4710  0112  0BBC               	decfsz	??_teclado+1,f
  4711  0113  2910               	goto	u4777
  4712  0114  0BBD               	decfsz	??_teclado+2,f
  4713  0115  2910               	goto	u4777
  4714  0116                     l2861:
  4715                           
  4716                           ;main.c: 502:         liga_buzzer(0.1);
  4717  0116  303D               	movlw	61
  4718  0117  1283               	bcf	3,5	;RP0=0, select bank0
  4719  0118  1303               	bcf	3,6	;RP1=0, select bank0
  4720  0119  00B8               	movwf	liga_buzzer@tempoSegundos+3
  4721  011A  30CC               	movlw	204
  4722  011B  00B7               	movwf	liga_buzzer@tempoSegundos+2
  4723  011C  30CC               	movlw	204
  4724  011D  00B6               	movwf	liga_buzzer@tempoSegundos+1
  4725  011E  30CD               	movlw	205
  4726  011F  00B5               	movwf	liga_buzzer@tempoSegundos
  4727  0120  160A  118A  263C  120A  118A  	fcall	_liga_buzzer
  4728  0125                     l2863:
  4729                           
  4730                           ;main.c: 503:         LCD_escreve('0');
  4731  0125  3030               	movlw	48
  4732  0126  160A  118A  21F4  120A  118A  	fcall	_LCD_escreve
  4733  012B                     l2865:
  4734                           
  4735                           ;main.c: 504:         if(userFalse){
  4736  012B  1283               	bcf	3,5	;RP0=0, select bank0
  4737  012C  1303               	bcf	3,6	;RP1=0, select bank0
  4738  012D  0867               	movf	_userFalse,w
  4739  012E  0468               	iorwf	_userFalse+1,w
  4740  012F  1903               	btfsc	3,2
  4741  0130  2932               	goto	u2971
  4742  0131  2933               	goto	u2970
  4743  0132                     u2971:
  4744  0132  2935               	goto	l2869
  4745  0133                     u2970:
  4746  0133                     l2867:
  4747                           
  4748                           ;main.c: 505:             input = 0;
  4749  0133  01EB               	clrf	_input
  4750  0134  01EC               	clrf	_input+1
  4751  0135                     l2869:
  4752                           
  4753                           ;main.c: 507:         if (alteraSenha){
  4754  0135  0859               	movf	_alteraSenha,w
  4755  0136  045A               	iorwf	_alteraSenha+1,w
  4756  0137  1903               	btfsc	3,2
  4757  0138  293A               	goto	u2981
  4758  0139  293B               	goto	u2980
  4759  013A                     u2981:
  4760  013A  293D               	goto	l2873
  4761  013B                     u2980:
  4762  013B                     l2871:
  4763                           
  4764                           ;main.c: 508:             input = 0;
  4765  013B  01EB               	clrf	_input
  4766  013C  01EC               	clrf	_input+1
  4767  013D                     l2873:
  4768                           
  4769                           ;main.c: 514:     if (RB1 == 0){
  4770  013D  1886               	btfsc	6,1	;volatile
  4771  013E  2940               	goto	u2991
  4772  013F  2941               	goto	u2990
  4773  0140                     u2991:
  4774  0140  297A               	goto	l2889
  4775  0141                     u2990:
  4776  0141                     l2875:
  4777                           
  4778                           ;main.c: 515:         _delay((unsigned long)((200)*(20000000/4000.0)));
  4779  0141  3006               	movlw	6
  4780  0142  1283               	bcf	3,5	;RP0=0, select bank0
  4781  0143  1303               	bcf	3,6	;RP1=0, select bank0
  4782  0144  00BD               	movwf	??_teclado+2
  4783  0145  3013               	movlw	19
  4784  0146  00BC               	movwf	??_teclado+1
  4785  0147  30AD               	movlw	173
  4786  0148  00BB               	movwf	??_teclado
  4787  0149                     u4787:
  4788  0149  0BBB               	decfsz	??_teclado,f
  4789  014A  2949               	goto	u4787
  4790  014B  0BBC               	decfsz	??_teclado+1,f
  4791  014C  2949               	goto	u4787
  4792  014D  0BBD               	decfsz	??_teclado+2,f
  4793  014E  2949               	goto	u4787
  4794  014F                     l2877:
  4795                           
  4796                           ;main.c: 516:         liga_buzzer(0.1);
  4797  014F  303D               	movlw	61
  4798  0150  1283               	bcf	3,5	;RP0=0, select bank0
  4799  0151  1303               	bcf	3,6	;RP1=0, select bank0
  4800  0152  00B8               	movwf	liga_buzzer@tempoSegundos+3
  4801  0153  30CC               	movlw	204
  4802  0154  00B7               	movwf	liga_buzzer@tempoSegundos+2
  4803  0155  30CC               	movlw	204
  4804  0156  00B6               	movwf	liga_buzzer@tempoSegundos+1
  4805  0157  30CD               	movlw	205
  4806  0158  00B5               	movwf	liga_buzzer@tempoSegundos
  4807  0159  160A  118A  263C  120A  118A  	fcall	_liga_buzzer
  4808  015E                     l2879:
  4809                           
  4810                           ;main.c: 517:         LCD_escreve('1');
  4811  015E  3031               	movlw	49
  4812  015F  160A  118A  21F4  120A  118A  	fcall	_LCD_escreve
  4813  0164                     l2881:
  4814                           
  4815                           ;main.c: 518:         if(userFalse){
  4816  0164  1283               	bcf	3,5	;RP0=0, select bank0
  4817  0165  1303               	bcf	3,6	;RP1=0, select bank0
  4818  0166  0867               	movf	_userFalse,w
  4819  0167  0468               	iorwf	_userFalse+1,w
  4820  0168  1903               	btfsc	3,2
  4821  0169  296B               	goto	u3001
  4822  016A  296C               	goto	u3000
  4823  016B                     u3001:
  4824  016B  2970               	goto	l2885
  4825  016C                     u3000:
  4826  016C                     l2883:
  4827                           
  4828                           ;main.c: 519:             input = 1;
  4829  016C  3001               	movlw	1
  4830  016D  00EB               	movwf	_input
  4831  016E  3000               	movlw	0
  4832  016F  00EC               	movwf	_input+1
  4833  0170                     l2885:
  4834                           
  4835                           ;main.c: 521:         if (alteraSenha){
  4836  0170  0859               	movf	_alteraSenha,w
  4837  0171  045A               	iorwf	_alteraSenha+1,w
  4838  0172  1903               	btfsc	3,2
  4839  0173  2975               	goto	u3011
  4840  0174  2976               	goto	u3010
  4841  0175                     u3011:
  4842  0175  297A               	goto	l2889
  4843  0176                     u3010:
  4844  0176                     l2887:
  4845                           
  4846                           ;main.c: 522:             input = 1;
  4847  0176  3001               	movlw	1
  4848  0177  00EB               	movwf	_input
  4849  0178  3000               	movlw	0
  4850  0179  00EC               	movwf	_input+1
  4851  017A                     l2889:
  4852                           
  4853                           ;main.c: 528:     if (RB2 == 0){
  4854  017A  1906               	btfsc	6,2	;volatile
  4855  017B  297D               	goto	u3021
  4856  017C  297E               	goto	u3020
  4857  017D                     u3021:
  4858  017D  29B7               	goto	l2905
  4859  017E                     u3020:
  4860  017E                     l2891:
  4861                           
  4862                           ;main.c: 529:         _delay((unsigned long)((200)*(20000000/4000.0)));
  4863  017E  3006               	movlw	6
  4864  017F  1283               	bcf	3,5	;RP0=0, select bank0
  4865  0180  1303               	bcf	3,6	;RP1=0, select bank0
  4866  0181  00BD               	movwf	??_teclado+2
  4867  0182  3013               	movlw	19
  4868  0183  00BC               	movwf	??_teclado+1
  4869  0184  30AD               	movlw	173
  4870  0185  00BB               	movwf	??_teclado
  4871  0186                     u4797:
  4872  0186  0BBB               	decfsz	??_teclado,f
  4873  0187  2986               	goto	u4797
  4874  0188  0BBC               	decfsz	??_teclado+1,f
  4875  0189  2986               	goto	u4797
  4876  018A  0BBD               	decfsz	??_teclado+2,f
  4877  018B  2986               	goto	u4797
  4878  018C                     l2893:
  4879                           
  4880                           ;main.c: 530:         liga_buzzer(0.1);
  4881  018C  303D               	movlw	61
  4882  018D  1283               	bcf	3,5	;RP0=0, select bank0
  4883  018E  1303               	bcf	3,6	;RP1=0, select bank0
  4884  018F  00B8               	movwf	liga_buzzer@tempoSegundos+3
  4885  0190  30CC               	movlw	204
  4886  0191  00B7               	movwf	liga_buzzer@tempoSegundos+2
  4887  0192  30CC               	movlw	204
  4888  0193  00B6               	movwf	liga_buzzer@tempoSegundos+1
  4889  0194  30CD               	movlw	205
  4890  0195  00B5               	movwf	liga_buzzer@tempoSegundos
  4891  0196  160A  118A  263C  120A  118A  	fcall	_liga_buzzer
  4892  019B                     l2895:
  4893                           
  4894                           ;main.c: 531:         LCD_escreve('2');
  4895  019B  3032               	movlw	50
  4896  019C  160A  118A  21F4  120A  118A  	fcall	_LCD_escreve
  4897  01A1                     l2897:
  4898                           
  4899                           ;main.c: 532:         if(userFalse){
  4900  01A1  1283               	bcf	3,5	;RP0=0, select bank0
  4901  01A2  1303               	bcf	3,6	;RP1=0, select bank0
  4902  01A3  0867               	movf	_userFalse,w
  4903  01A4  0468               	iorwf	_userFalse+1,w
  4904  01A5  1903               	btfsc	3,2
  4905  01A6  29A8               	goto	u3031
  4906  01A7  29A9               	goto	u3030
  4907  01A8                     u3031:
  4908  01A8  29AD               	goto	l2901
  4909  01A9                     u3030:
  4910  01A9                     l2899:
  4911                           
  4912                           ;main.c: 533:             input = 2;
  4913  01A9  3002               	movlw	2
  4914  01AA  00EB               	movwf	_input
  4915  01AB  3000               	movlw	0
  4916  01AC  00EC               	movwf	_input+1
  4917  01AD                     l2901:
  4918                           
  4919                           ;main.c: 535:         if (alteraSenha){
  4920  01AD  0859               	movf	_alteraSenha,w
  4921  01AE  045A               	iorwf	_alteraSenha+1,w
  4922  01AF  1903               	btfsc	3,2
  4923  01B0  29B2               	goto	u3041
  4924  01B1  29B3               	goto	u3040
  4925  01B2                     u3041:
  4926  01B2  29B7               	goto	l2905
  4927  01B3                     u3040:
  4928  01B3                     l2903:
  4929                           
  4930                           ;main.c: 536:             input = 2;
  4931  01B3  3002               	movlw	2
  4932  01B4  00EB               	movwf	_input
  4933  01B5  3000               	movlw	0
  4934  01B6  00EC               	movwf	_input+1
  4935  01B7                     l2905:
  4936                           
  4937                           ;main.c: 542:     if (RB3 == 0){
  4938  01B7  1986               	btfsc	6,3	;volatile
  4939  01B8  29BA               	goto	u3051
  4940  01B9  29BB               	goto	u3050
  4941  01BA                     u3051:
  4942  01BA  29F4               	goto	l362
  4943  01BB                     u3050:
  4944  01BB                     l2907:
  4945                           
  4946                           ;main.c: 543:         _delay((unsigned long)((200)*(20000000/4000.0)));
  4947  01BB  3006               	movlw	6
  4948  01BC  1283               	bcf	3,5	;RP0=0, select bank0
  4949  01BD  1303               	bcf	3,6	;RP1=0, select bank0
  4950  01BE  00BD               	movwf	??_teclado+2
  4951  01BF  3013               	movlw	19
  4952  01C0  00BC               	movwf	??_teclado+1
  4953  01C1  30AD               	movlw	173
  4954  01C2  00BB               	movwf	??_teclado
  4955  01C3                     u4807:
  4956  01C3  0BBB               	decfsz	??_teclado,f
  4957  01C4  29C3               	goto	u4807
  4958  01C5  0BBC               	decfsz	??_teclado+1,f
  4959  01C6  29C3               	goto	u4807
  4960  01C7  0BBD               	decfsz	??_teclado+2,f
  4961  01C8  29C3               	goto	u4807
  4962  01C9                     l2909:
  4963                           
  4964                           ;main.c: 544:         liga_buzzer(0.1);
  4965  01C9  303D               	movlw	61
  4966  01CA  1283               	bcf	3,5	;RP0=0, select bank0
  4967  01CB  1303               	bcf	3,6	;RP1=0, select bank0
  4968  01CC  00B8               	movwf	liga_buzzer@tempoSegundos+3
  4969  01CD  30CC               	movlw	204
  4970  01CE  00B7               	movwf	liga_buzzer@tempoSegundos+2
  4971  01CF  30CC               	movlw	204
  4972  01D0  00B6               	movwf	liga_buzzer@tempoSegundos+1
  4973  01D1  30CD               	movlw	205
  4974  01D2  00B5               	movwf	liga_buzzer@tempoSegundos
  4975  01D3  160A  118A  263C  120A  118A  	fcall	_liga_buzzer
  4976  01D8                     l2911:
  4977                           
  4978                           ;main.c: 545:         LCD_escreve('3');
  4979  01D8  3033               	movlw	51
  4980  01D9  160A  118A  21F4  120A  118A  	fcall	_LCD_escreve
  4981  01DE                     l2913:
  4982                           
  4983                           ;main.c: 546:         if(userFalse){
  4984  01DE  1283               	bcf	3,5	;RP0=0, select bank0
  4985  01DF  1303               	bcf	3,6	;RP1=0, select bank0
  4986  01E0  0867               	movf	_userFalse,w
  4987  01E1  0468               	iorwf	_userFalse+1,w
  4988  01E2  1903               	btfsc	3,2
  4989  01E3  29E5               	goto	u3061
  4990  01E4  29E6               	goto	u3060
  4991  01E5                     u3061:
  4992  01E5  29EA               	goto	l2917
  4993  01E6                     u3060:
  4994  01E6                     l2915:
  4995                           
  4996                           ;main.c: 547:             input = 3;
  4997  01E6  3003               	movlw	3
  4998  01E7  00EB               	movwf	_input
  4999  01E8  3000               	movlw	0
  5000  01E9  00EC               	movwf	_input+1
  5001  01EA                     l2917:
  5002                           
  5003                           ;main.c: 549:         if (alteraSenha){
  5004  01EA  0859               	movf	_alteraSenha,w
  5005  01EB  045A               	iorwf	_alteraSenha+1,w
  5006  01EC  1903               	btfsc	3,2
  5007  01ED  29EF               	goto	u3071
  5008  01EE  29F0               	goto	u3070
  5009  01EF                     u3071:
  5010  01EF  29F4               	goto	l362
  5011  01F0                     u3070:
  5012  01F0                     l2919:
  5013                           
  5014                           ;main.c: 550:             input = 3;
  5015  01F0  3003               	movlw	3
  5016  01F1  00EB               	movwf	_input
  5017  01F2  3000               	movlw	0
  5018  01F3  00EC               	movwf	_input+1
  5019  01F4                     l362:	
  5020                           ;main.c: 552:     }
  5021                           
  5022                           
  5023                           ;main.c: 556:     PORTB = 0b11011111;
  5024  01F4  30DF               	movlw	223
  5025  01F5  0086               	movwf	6	;volatile
  5026  01F6                     l2921:
  5027                           
  5028                           ;main.c: 560:     if (RB0 == 0){
  5029  01F6  1806               	btfsc	6,0	;volatile
  5030  01F7  29F9               	goto	u3081
  5031  01F8  29FA               	goto	u3080
  5032  01F9                     u3081:
  5033  01F9  2A33               	goto	l2937
  5034  01FA                     u3080:
  5035  01FA                     l2923:
  5036                           
  5037                           ;main.c: 561:         _delay((unsigned long)((200)*(20000000/4000.0)));
  5038  01FA  3006               	movlw	6
  5039  01FB  1283               	bcf	3,5	;RP0=0, select bank0
  5040  01FC  1303               	bcf	3,6	;RP1=0, select bank0
  5041  01FD  00BD               	movwf	??_teclado+2
  5042  01FE  3013               	movlw	19
  5043  01FF  00BC               	movwf	??_teclado+1
  5044  0200  30AD               	movlw	173
  5045  0201  00BB               	movwf	??_teclado
  5046  0202                     u4817:
  5047  0202  0BBB               	decfsz	??_teclado,f
  5048  0203  2A02               	goto	u4817
  5049  0204  0BBC               	decfsz	??_teclado+1,f
  5050  0205  2A02               	goto	u4817
  5051  0206  0BBD               	decfsz	??_teclado+2,f
  5052  0207  2A02               	goto	u4817
  5053  0208                     l2925:
  5054                           
  5055                           ;main.c: 562:         liga_buzzer(0.1);
  5056  0208  303D               	movlw	61
  5057  0209  1283               	bcf	3,5	;RP0=0, select bank0
  5058  020A  1303               	bcf	3,6	;RP1=0, select bank0
  5059  020B  00B8               	movwf	liga_buzzer@tempoSegundos+3
  5060  020C  30CC               	movlw	204
  5061  020D  00B7               	movwf	liga_buzzer@tempoSegundos+2
  5062  020E  30CC               	movlw	204
  5063  020F  00B6               	movwf	liga_buzzer@tempoSegundos+1
  5064  0210  30CD               	movlw	205
  5065  0211  00B5               	movwf	liga_buzzer@tempoSegundos
  5066  0212  160A  118A  263C  120A  118A  	fcall	_liga_buzzer
  5067  0217                     l2927:
  5068                           
  5069                           ;main.c: 563:         LCD_escreve('4');
  5070  0217  3034               	movlw	52
  5071  0218  160A  118A  21F4  120A  118A  	fcall	_LCD_escreve
  5072  021D                     l2929:
  5073                           
  5074                           ;main.c: 564:         if(userFalse){
  5075  021D  1283               	bcf	3,5	;RP0=0, select bank0
  5076  021E  1303               	bcf	3,6	;RP1=0, select bank0
  5077  021F  0867               	movf	_userFalse,w
  5078  0220  0468               	iorwf	_userFalse+1,w
  5079  0221  1903               	btfsc	3,2
  5080  0222  2A24               	goto	u3091
  5081  0223  2A25               	goto	u3090
  5082  0224                     u3091:
  5083  0224  2A29               	goto	l2933
  5084  0225                     u3090:
  5085  0225                     l2931:
  5086                           
  5087                           ;main.c: 565:             input = 4;
  5088  0225  3004               	movlw	4
  5089  0226  00EB               	movwf	_input
  5090  0227  3000               	movlw	0
  5091  0228  00EC               	movwf	_input+1
  5092  0229                     l2933:
  5093                           
  5094                           ;main.c: 567:         if (alteraSenha){
  5095  0229  0859               	movf	_alteraSenha,w
  5096  022A  045A               	iorwf	_alteraSenha+1,w
  5097  022B  1903               	btfsc	3,2
  5098  022C  2A2E               	goto	u3101
  5099  022D  2A2F               	goto	u3100
  5100  022E                     u3101:
  5101  022E  2A33               	goto	l2937
  5102  022F                     u3100:
  5103  022F                     l2935:
  5104                           
  5105                           ;main.c: 568:             input = 4;
  5106  022F  3004               	movlw	4
  5107  0230  00EB               	movwf	_input
  5108  0231  3000               	movlw	0
  5109  0232  00EC               	movwf	_input+1
  5110  0233                     l2937:
  5111                           
  5112                           ;main.c: 574:     if (RB1 == 0){
  5113  0233  1886               	btfsc	6,1	;volatile
  5114  0234  2A36               	goto	u3111
  5115  0235  2A37               	goto	u3110
  5116  0236                     u3111:
  5117  0236  2A70               	goto	l2953
  5118  0237                     u3110:
  5119  0237                     l2939:
  5120                           
  5121                           ;main.c: 575:         _delay((unsigned long)((200)*(20000000/4000.0)));
  5122  0237  3006               	movlw	6
  5123  0238  1283               	bcf	3,5	;RP0=0, select bank0
  5124  0239  1303               	bcf	3,6	;RP1=0, select bank0
  5125  023A  00BD               	movwf	??_teclado+2
  5126  023B  3013               	movlw	19
  5127  023C  00BC               	movwf	??_teclado+1
  5128  023D  30AD               	movlw	173
  5129  023E  00BB               	movwf	??_teclado
  5130  023F                     u4827:
  5131  023F  0BBB               	decfsz	??_teclado,f
  5132  0240  2A3F               	goto	u4827
  5133  0241  0BBC               	decfsz	??_teclado+1,f
  5134  0242  2A3F               	goto	u4827
  5135  0243  0BBD               	decfsz	??_teclado+2,f
  5136  0244  2A3F               	goto	u4827
  5137  0245                     l2941:
  5138                           
  5139                           ;main.c: 576:         liga_buzzer(0.1);
  5140  0245  303D               	movlw	61
  5141  0246  1283               	bcf	3,5	;RP0=0, select bank0
  5142  0247  1303               	bcf	3,6	;RP1=0, select bank0
  5143  0248  00B8               	movwf	liga_buzzer@tempoSegundos+3
  5144  0249  30CC               	movlw	204
  5145  024A  00B7               	movwf	liga_buzzer@tempoSegundos+2
  5146  024B  30CC               	movlw	204
  5147  024C  00B6               	movwf	liga_buzzer@tempoSegundos+1
  5148  024D  30CD               	movlw	205
  5149  024E  00B5               	movwf	liga_buzzer@tempoSegundos
  5150  024F  160A  118A  263C  120A  118A  	fcall	_liga_buzzer
  5151  0254                     l2943:
  5152                           
  5153                           ;main.c: 577:         LCD_escreve('5');
  5154  0254  3035               	movlw	53
  5155  0255  160A  118A  21F4  120A  118A  	fcall	_LCD_escreve
  5156  025A                     l2945:
  5157                           
  5158                           ;main.c: 578:         if(userFalse){
  5159  025A  1283               	bcf	3,5	;RP0=0, select bank0
  5160  025B  1303               	bcf	3,6	;RP1=0, select bank0
  5161  025C  0867               	movf	_userFalse,w
  5162  025D  0468               	iorwf	_userFalse+1,w
  5163  025E  1903               	btfsc	3,2
  5164  025F  2A61               	goto	u3121
  5165  0260  2A62               	goto	u3120
  5166  0261                     u3121:
  5167  0261  2A66               	goto	l2949
  5168  0262                     u3120:
  5169  0262                     l2947:
  5170                           
  5171                           ;main.c: 579:             input = 5;
  5172  0262  3005               	movlw	5
  5173  0263  00EB               	movwf	_input
  5174  0264  3000               	movlw	0
  5175  0265  00EC               	movwf	_input+1
  5176  0266                     l2949:
  5177                           
  5178                           ;main.c: 581:         if (alteraSenha){
  5179  0266  0859               	movf	_alteraSenha,w
  5180  0267  045A               	iorwf	_alteraSenha+1,w
  5181  0268  1903               	btfsc	3,2
  5182  0269  2A6B               	goto	u3131
  5183  026A  2A6C               	goto	u3130
  5184  026B                     u3131:
  5185  026B  2A70               	goto	l2953
  5186  026C                     u3130:
  5187  026C                     l2951:
  5188                           
  5189                           ;main.c: 582:             input = 5;
  5190  026C  3005               	movlw	5
  5191  026D  00EB               	movwf	_input
  5192  026E  3000               	movlw	0
  5193  026F  00EC               	movwf	_input+1
  5194  0270                     l2953:
  5195                           
  5196                           ;main.c: 588:     if (RB2 == 0){
  5197  0270  1906               	btfsc	6,2	;volatile
  5198  0271  2A73               	goto	u3141
  5199  0272  2A74               	goto	u3140
  5200  0273                     u3141:
  5201  0273  2AAD               	goto	l2969
  5202  0274                     u3140:
  5203  0274                     l2955:
  5204                           
  5205                           ;main.c: 589:         _delay((unsigned long)((200)*(20000000/4000.0)));
  5206  0274  3006               	movlw	6
  5207  0275  1283               	bcf	3,5	;RP0=0, select bank0
  5208  0276  1303               	bcf	3,6	;RP1=0, select bank0
  5209  0277  00BD               	movwf	??_teclado+2
  5210  0278  3013               	movlw	19
  5211  0279  00BC               	movwf	??_teclado+1
  5212  027A  30AD               	movlw	173
  5213  027B  00BB               	movwf	??_teclado
  5214  027C                     u4837:
  5215  027C  0BBB               	decfsz	??_teclado,f
  5216  027D  2A7C               	goto	u4837
  5217  027E  0BBC               	decfsz	??_teclado+1,f
  5218  027F  2A7C               	goto	u4837
  5219  0280  0BBD               	decfsz	??_teclado+2,f
  5220  0281  2A7C               	goto	u4837
  5221  0282                     l2957:
  5222                           
  5223                           ;main.c: 590:         liga_buzzer(0.1);
  5224  0282  303D               	movlw	61
  5225  0283  1283               	bcf	3,5	;RP0=0, select bank0
  5226  0284  1303               	bcf	3,6	;RP1=0, select bank0
  5227  0285  00B8               	movwf	liga_buzzer@tempoSegundos+3
  5228  0286  30CC               	movlw	204
  5229  0287  00B7               	movwf	liga_buzzer@tempoSegundos+2
  5230  0288  30CC               	movlw	204
  5231  0289  00B6               	movwf	liga_buzzer@tempoSegundos+1
  5232  028A  30CD               	movlw	205
  5233  028B  00B5               	movwf	liga_buzzer@tempoSegundos
  5234  028C  160A  118A  263C  120A  118A  	fcall	_liga_buzzer
  5235  0291                     l2959:
  5236                           
  5237                           ;main.c: 591:         LCD_escreve('6');
  5238  0291  3036               	movlw	54
  5239  0292  160A  118A  21F4  120A  118A  	fcall	_LCD_escreve
  5240  0297                     l2961:
  5241                           
  5242                           ;main.c: 592:         if(userFalse){
  5243  0297  1283               	bcf	3,5	;RP0=0, select bank0
  5244  0298  1303               	bcf	3,6	;RP1=0, select bank0
  5245  0299  0867               	movf	_userFalse,w
  5246  029A  0468               	iorwf	_userFalse+1,w
  5247  029B  1903               	btfsc	3,2
  5248  029C  2A9E               	goto	u3151
  5249  029D  2A9F               	goto	u3150
  5250  029E                     u3151:
  5251  029E  2AA3               	goto	l2965
  5252  029F                     u3150:
  5253  029F                     l2963:
  5254                           
  5255                           ;main.c: 593:             input = 6;
  5256  029F  3006               	movlw	6
  5257  02A0  00EB               	movwf	_input
  5258  02A1  3000               	movlw	0
  5259  02A2  00EC               	movwf	_input+1
  5260  02A3                     l2965:
  5261                           
  5262                           ;main.c: 595:         if (alteraSenha){
  5263  02A3  0859               	movf	_alteraSenha,w
  5264  02A4  045A               	iorwf	_alteraSenha+1,w
  5265  02A5  1903               	btfsc	3,2
  5266  02A6  2AA8               	goto	u3161
  5267  02A7  2AA9               	goto	u3160
  5268  02A8                     u3161:
  5269  02A8  2AAD               	goto	l2969
  5270  02A9                     u3160:
  5271  02A9                     l2967:
  5272                           
  5273                           ;main.c: 596:             input = 6;
  5274  02A9  3006               	movlw	6
  5275  02AA  00EB               	movwf	_input
  5276  02AB  3000               	movlw	0
  5277  02AC  00EC               	movwf	_input+1
  5278  02AD                     l2969:
  5279                           
  5280                           ;main.c: 602:     if (RB3 == 0){
  5281  02AD  1986               	btfsc	6,3	;volatile
  5282  02AE  2AB0               	goto	u3171
  5283  02AF  2AB1               	goto	u3170
  5284  02B0                     u3171:
  5285  02B0  2AEA               	goto	l374
  5286  02B1                     u3170:
  5287  02B1                     l2971:
  5288                           
  5289                           ;main.c: 603:         _delay((unsigned long)((200)*(20000000/4000.0)));
  5290  02B1  3006               	movlw	6
  5291  02B2  1283               	bcf	3,5	;RP0=0, select bank0
  5292  02B3  1303               	bcf	3,6	;RP1=0, select bank0
  5293  02B4  00BD               	movwf	??_teclado+2
  5294  02B5  3013               	movlw	19
  5295  02B6  00BC               	movwf	??_teclado+1
  5296  02B7  30AD               	movlw	173
  5297  02B8  00BB               	movwf	??_teclado
  5298  02B9                     u4847:
  5299  02B9  0BBB               	decfsz	??_teclado,f
  5300  02BA  2AB9               	goto	u4847
  5301  02BB  0BBC               	decfsz	??_teclado+1,f
  5302  02BC  2AB9               	goto	u4847
  5303  02BD  0BBD               	decfsz	??_teclado+2,f
  5304  02BE  2AB9               	goto	u4847
  5305  02BF                     l2973:
  5306                           
  5307                           ;main.c: 604:         liga_buzzer(0.1);
  5308  02BF  303D               	movlw	61
  5309  02C0  1283               	bcf	3,5	;RP0=0, select bank0
  5310  02C1  1303               	bcf	3,6	;RP1=0, select bank0
  5311  02C2  00B8               	movwf	liga_buzzer@tempoSegundos+3
  5312  02C3  30CC               	movlw	204
  5313  02C4  00B7               	movwf	liga_buzzer@tempoSegundos+2
  5314  02C5  30CC               	movlw	204
  5315  02C6  00B6               	movwf	liga_buzzer@tempoSegundos+1
  5316  02C7  30CD               	movlw	205
  5317  02C8  00B5               	movwf	liga_buzzer@tempoSegundos
  5318  02C9  160A  118A  263C  120A  118A  	fcall	_liga_buzzer
  5319  02CE                     l2975:
  5320                           
  5321                           ;main.c: 605:         LCD_escreve('7');
  5322  02CE  3037               	movlw	55
  5323  02CF  160A  118A  21F4  120A  118A  	fcall	_LCD_escreve
  5324  02D4                     l2977:
  5325                           
  5326                           ;main.c: 606:         if(userFalse){
  5327  02D4  1283               	bcf	3,5	;RP0=0, select bank0
  5328  02D5  1303               	bcf	3,6	;RP1=0, select bank0
  5329  02D6  0867               	movf	_userFalse,w
  5330  02D7  0468               	iorwf	_userFalse+1,w
  5331  02D8  1903               	btfsc	3,2
  5332  02D9  2ADB               	goto	u3181
  5333  02DA  2ADC               	goto	u3180
  5334  02DB                     u3181:
  5335  02DB  2AE0               	goto	l2981
  5336  02DC                     u3180:
  5337  02DC                     l2979:
  5338                           
  5339                           ;main.c: 607:             input = 7;
  5340  02DC  3007               	movlw	7
  5341  02DD  00EB               	movwf	_input
  5342  02DE  3000               	movlw	0
  5343  02DF  00EC               	movwf	_input+1
  5344  02E0                     l2981:
  5345                           
  5346                           ;main.c: 609:         if (alteraSenha){
  5347  02E0  0859               	movf	_alteraSenha,w
  5348  02E1  045A               	iorwf	_alteraSenha+1,w
  5349  02E2  1903               	btfsc	3,2
  5350  02E3  2AE5               	goto	u3191
  5351  02E4  2AE6               	goto	u3190
  5352  02E5                     u3191:
  5353  02E5  2AEA               	goto	l374
  5354  02E6                     u3190:
  5355  02E6                     l2983:
  5356                           
  5357                           ;main.c: 610:             input = 7;
  5358  02E6  3007               	movlw	7
  5359  02E7  00EB               	movwf	_input
  5360  02E8  3000               	movlw	0
  5361  02E9  00EC               	movwf	_input+1
  5362  02EA                     l374:	
  5363                           ;main.c: 612:     }
  5364                           
  5365                           
  5366                           ;main.c: 616:     PORTB = 0b10111111;
  5367  02EA  30BF               	movlw	191
  5368  02EB  0086               	movwf	6	;volatile
  5369  02EC                     l2985:
  5370                           
  5371                           ;main.c: 620:     if (RB0 == 0){
  5372  02EC  1806               	btfsc	6,0	;volatile
  5373  02ED  2AEF               	goto	u3201
  5374  02EE  2AF0               	goto	u3200
  5375  02EF                     u3201:
  5376  02EF  2B29               	goto	l3001
  5377  02F0                     u3200:
  5378  02F0                     l2987:
  5379                           
  5380                           ;main.c: 621:         _delay((unsigned long)((200)*(20000000/4000.0)));
  5381  02F0  3006               	movlw	6
  5382  02F1  1283               	bcf	3,5	;RP0=0, select bank0
  5383  02F2  1303               	bcf	3,6	;RP1=0, select bank0
  5384  02F3  00BD               	movwf	??_teclado+2
  5385  02F4  3013               	movlw	19
  5386  02F5  00BC               	movwf	??_teclado+1
  5387  02F6  30AD               	movlw	173
  5388  02F7  00BB               	movwf	??_teclado
  5389  02F8                     u4857:
  5390  02F8  0BBB               	decfsz	??_teclado,f
  5391  02F9  2AF8               	goto	u4857
  5392  02FA  0BBC               	decfsz	??_teclado+1,f
  5393  02FB  2AF8               	goto	u4857
  5394  02FC  0BBD               	decfsz	??_teclado+2,f
  5395  02FD  2AF8               	goto	u4857
  5396  02FE                     l2989:
  5397                           
  5398                           ;main.c: 622:         liga_buzzer(0.1);
  5399  02FE  303D               	movlw	61
  5400  02FF  1283               	bcf	3,5	;RP0=0, select bank0
  5401  0300  1303               	bcf	3,6	;RP1=0, select bank0
  5402  0301  00B8               	movwf	liga_buzzer@tempoSegundos+3
  5403  0302  30CC               	movlw	204
  5404  0303  00B7               	movwf	liga_buzzer@tempoSegundos+2
  5405  0304  30CC               	movlw	204
  5406  0305  00B6               	movwf	liga_buzzer@tempoSegundos+1
  5407  0306  30CD               	movlw	205
  5408  0307  00B5               	movwf	liga_buzzer@tempoSegundos
  5409  0308  160A  118A  263C  120A  118A  	fcall	_liga_buzzer
  5410  030D                     l2991:
  5411                           
  5412                           ;main.c: 623:         LCD_escreve('8');
  5413  030D  3038               	movlw	56
  5414  030E  160A  118A  21F4  120A  118A  	fcall	_LCD_escreve
  5415  0313                     l2993:
  5416                           
  5417                           ;main.c: 624:         if(userFalse){
  5418  0313  1283               	bcf	3,5	;RP0=0, select bank0
  5419  0314  1303               	bcf	3,6	;RP1=0, select bank0
  5420  0315  0867               	movf	_userFalse,w
  5421  0316  0468               	iorwf	_userFalse+1,w
  5422  0317  1903               	btfsc	3,2
  5423  0318  2B1A               	goto	u3211
  5424  0319  2B1B               	goto	u3210
  5425  031A                     u3211:
  5426  031A  2B1F               	goto	l2997
  5427  031B                     u3210:
  5428  031B                     l2995:
  5429                           
  5430                           ;main.c: 625:             input = 8;
  5431  031B  3008               	movlw	8
  5432  031C  00EB               	movwf	_input
  5433  031D  3000               	movlw	0
  5434  031E  00EC               	movwf	_input+1
  5435  031F                     l2997:
  5436                           
  5437                           ;main.c: 627:         if (alteraSenha){
  5438  031F  0859               	movf	_alteraSenha,w
  5439  0320  045A               	iorwf	_alteraSenha+1,w
  5440  0321  1903               	btfsc	3,2
  5441  0322  2B24               	goto	u3221
  5442  0323  2B25               	goto	u3220
  5443  0324                     u3221:
  5444  0324  2B29               	goto	l3001
  5445  0325                     u3220:
  5446  0325                     l2999:
  5447                           
  5448                           ;main.c: 628:             input = 8;
  5449  0325  3008               	movlw	8
  5450  0326  00EB               	movwf	_input
  5451  0327  3000               	movlw	0
  5452  0328  00EC               	movwf	_input+1
  5453  0329                     l3001:
  5454                           
  5455                           ;main.c: 634:     if (RB1 == 0){
  5456  0329  1886               	btfsc	6,1	;volatile
  5457  032A  2B2C               	goto	u3231
  5458  032B  2B2D               	goto	u3230
  5459  032C                     u3231:
  5460  032C  2B66               	goto	l3017
  5461  032D                     u3230:
  5462  032D                     l3003:
  5463                           
  5464                           ;main.c: 635:         _delay((unsigned long)((200)*(20000000/4000.0)));
  5465  032D  3006               	movlw	6
  5466  032E  1283               	bcf	3,5	;RP0=0, select bank0
  5467  032F  1303               	bcf	3,6	;RP1=0, select bank0
  5468  0330  00BD               	movwf	??_teclado+2
  5469  0331  3013               	movlw	19
  5470  0332  00BC               	movwf	??_teclado+1
  5471  0333  30AD               	movlw	173
  5472  0334  00BB               	movwf	??_teclado
  5473  0335                     u4867:
  5474  0335  0BBB               	decfsz	??_teclado,f
  5475  0336  2B35               	goto	u4867
  5476  0337  0BBC               	decfsz	??_teclado+1,f
  5477  0338  2B35               	goto	u4867
  5478  0339  0BBD               	decfsz	??_teclado+2,f
  5479  033A  2B35               	goto	u4867
  5480  033B                     l3005:
  5481                           
  5482                           ;main.c: 636:         liga_buzzer(0.1);
  5483  033B  303D               	movlw	61
  5484  033C  1283               	bcf	3,5	;RP0=0, select bank0
  5485  033D  1303               	bcf	3,6	;RP1=0, select bank0
  5486  033E  00B8               	movwf	liga_buzzer@tempoSegundos+3
  5487  033F  30CC               	movlw	204
  5488  0340  00B7               	movwf	liga_buzzer@tempoSegundos+2
  5489  0341  30CC               	movlw	204
  5490  0342  00B6               	movwf	liga_buzzer@tempoSegundos+1
  5491  0343  30CD               	movlw	205
  5492  0344  00B5               	movwf	liga_buzzer@tempoSegundos
  5493  0345  160A  118A  263C  120A  118A  	fcall	_liga_buzzer
  5494  034A                     l3007:
  5495                           
  5496                           ;main.c: 637:         LCD_escreve('9');
  5497  034A  3039               	movlw	57
  5498  034B  160A  118A  21F4  120A  118A  	fcall	_LCD_escreve
  5499  0350                     l3009:
  5500                           
  5501                           ;main.c: 638:         if(userFalse){
  5502  0350  1283               	bcf	3,5	;RP0=0, select bank0
  5503  0351  1303               	bcf	3,6	;RP1=0, select bank0
  5504  0352  0867               	movf	_userFalse,w
  5505  0353  0468               	iorwf	_userFalse+1,w
  5506  0354  1903               	btfsc	3,2
  5507  0355  2B57               	goto	u3241
  5508  0356  2B58               	goto	u3240
  5509  0357                     u3241:
  5510  0357  2B5C               	goto	l3013
  5511  0358                     u3240:
  5512  0358                     l3011:
  5513                           
  5514                           ;main.c: 639:             input = 9;
  5515  0358  3009               	movlw	9
  5516  0359  00EB               	movwf	_input
  5517  035A  3000               	movlw	0
  5518  035B  00EC               	movwf	_input+1
  5519  035C                     l3013:
  5520                           
  5521                           ;main.c: 641:         if (alteraSenha){
  5522  035C  0859               	movf	_alteraSenha,w
  5523  035D  045A               	iorwf	_alteraSenha+1,w
  5524  035E  1903               	btfsc	3,2
  5525  035F  2B61               	goto	u3251
  5526  0360  2B62               	goto	u3250
  5527  0361                     u3251:
  5528  0361  2B66               	goto	l3017
  5529  0362                     u3250:
  5530  0362                     l3015:
  5531                           
  5532                           ;main.c: 642:             input = 9;
  5533  0362  3009               	movlw	9
  5534  0363  00EB               	movwf	_input
  5535  0364  3000               	movlw	0
  5536  0365  00EC               	movwf	_input+1
  5537  0366                     l3017:
  5538                           
  5539                           ;main.c: 648:     if (RB2 == 0){
  5540  0366  1906               	btfsc	6,2	;volatile
  5541  0367  2B69               	goto	u3261
  5542  0368  2B6A               	goto	u3260
  5543  0369                     u3261:
  5544  0369  2B8D               	goto	l3025
  5545  036A                     u3260:
  5546  036A                     l3019:
  5547                           
  5548                           ;main.c: 649:         _delay((unsigned long)((200)*(20000000/4000.0)));
  5549  036A  3006               	movlw	6
  5550  036B  1283               	bcf	3,5	;RP0=0, select bank0
  5551  036C  1303               	bcf	3,6	;RP1=0, select bank0
  5552  036D  00BD               	movwf	??_teclado+2
  5553  036E  3013               	movlw	19
  5554  036F  00BC               	movwf	??_teclado+1
  5555  0370  30AD               	movlw	173
  5556  0371  00BB               	movwf	??_teclado
  5557  0372                     u4877:
  5558  0372  0BBB               	decfsz	??_teclado,f
  5559  0373  2B72               	goto	u4877
  5560  0374  0BBC               	decfsz	??_teclado+1,f
  5561  0375  2B72               	goto	u4877
  5562  0376  0BBD               	decfsz	??_teclado+2,f
  5563  0377  2B72               	goto	u4877
  5564  0378                     l3021:
  5565                           
  5566                           ;main.c: 650:         liga_buzzer(0.1);
  5567  0378  303D               	movlw	61
  5568  0379  1283               	bcf	3,5	;RP0=0, select bank0
  5569  037A  1303               	bcf	3,6	;RP1=0, select bank0
  5570  037B  00B8               	movwf	liga_buzzer@tempoSegundos+3
  5571  037C  30CC               	movlw	204
  5572  037D  00B7               	movwf	liga_buzzer@tempoSegundos+2
  5573  037E  30CC               	movlw	204
  5574  037F  00B6               	movwf	liga_buzzer@tempoSegundos+1
  5575  0380  30CD               	movlw	205
  5576  0381  00B5               	movwf	liga_buzzer@tempoSegundos
  5577  0382  160A  118A  263C  120A  118A  	fcall	_liga_buzzer
  5578  0387                     l3023:
  5579                           
  5580                           ;main.c: 651:         LCD_escreve('A');
  5581  0387  3041               	movlw	65
  5582  0388  160A  118A  21F4  120A  118A  	fcall	_LCD_escreve
  5583  038D                     l3025:
  5584                           
  5585                           ;main.c: 656:     if (RB3 == 0){
  5586  038D  1283               	bcf	3,5	;RP0=0, select bank0
  5587  038E  1303               	bcf	3,6	;RP1=0, select bank0
  5588  038F  1986               	btfsc	6,3	;volatile
  5589  0390  2B92               	goto	u3271
  5590  0391  2B93               	goto	u3270
  5591  0392                     u3271:
  5592  0392  2BB6               	goto	l384
  5593  0393                     u3270:
  5594  0393                     l3027:
  5595                           
  5596                           ;main.c: 657:         _delay((unsigned long)((200)*(20000000/4000.0)));
  5597  0393  3006               	movlw	6
  5598  0394  1283               	bcf	3,5	;RP0=0, select bank0
  5599  0395  1303               	bcf	3,6	;RP1=0, select bank0
  5600  0396  00BD               	movwf	??_teclado+2
  5601  0397  3013               	movlw	19
  5602  0398  00BC               	movwf	??_teclado+1
  5603  0399  30AD               	movlw	173
  5604  039A  00BB               	movwf	??_teclado
  5605  039B                     u4887:
  5606  039B  0BBB               	decfsz	??_teclado,f
  5607  039C  2B9B               	goto	u4887
  5608  039D  0BBC               	decfsz	??_teclado+1,f
  5609  039E  2B9B               	goto	u4887
  5610  039F  0BBD               	decfsz	??_teclado+2,f
  5611  03A0  2B9B               	goto	u4887
  5612  03A1                     l3029:
  5613                           
  5614                           ;main.c: 658:         liga_buzzer(0.1);
  5615  03A1  303D               	movlw	61
  5616  03A2  1283               	bcf	3,5	;RP0=0, select bank0
  5617  03A3  1303               	bcf	3,6	;RP1=0, select bank0
  5618  03A4  00B8               	movwf	liga_buzzer@tempoSegundos+3
  5619  03A5  30CC               	movlw	204
  5620  03A6  00B7               	movwf	liga_buzzer@tempoSegundos+2
  5621  03A7  30CC               	movlw	204
  5622  03A8  00B6               	movwf	liga_buzzer@tempoSegundos+1
  5623  03A9  30CD               	movlw	205
  5624  03AA  00B5               	movwf	liga_buzzer@tempoSegundos
  5625  03AB  160A  118A  263C  120A  118A  	fcall	_liga_buzzer
  5626  03B0                     l3031:
  5627                           
  5628                           ;main.c: 659:         LCD_escreve('B');
  5629  03B0  3042               	movlw	66
  5630  03B1  160A  118A  21F4  120A  118A  	fcall	_LCD_escreve
  5631  03B6                     l384:	
  5632                           ;main.c: 660:     }
  5633                           
  5634                           
  5635                           ;main.c: 664:     PORTB = 0b01111111;
  5636  03B6  307F               	movlw	127
  5637  03B7  1283               	bcf	3,5	;RP0=0, select bank0
  5638  03B8  1303               	bcf	3,6	;RP1=0, select bank0
  5639  03B9  0086               	movwf	6	;volatile
  5640  03BA                     l3033:
  5641                           
  5642                           ;main.c: 668:     if (RB0 == 0){
  5643  03BA  1806               	btfsc	6,0	;volatile
  5644  03BB  2BBD               	goto	u3281
  5645  03BC  2BBE               	goto	u3280
  5646  03BD                     u3281:
  5647  03BD  2BE1               	goto	l3041
  5648  03BE                     u3280:
  5649  03BE                     l3035:
  5650                           
  5651                           ;main.c: 669:         _delay((unsigned long)((200)*(20000000/4000.0)));
  5652  03BE  3006               	movlw	6
  5653  03BF  1283               	bcf	3,5	;RP0=0, select bank0
  5654  03C0  1303               	bcf	3,6	;RP1=0, select bank0
  5655  03C1  00BD               	movwf	??_teclado+2
  5656  03C2  3013               	movlw	19
  5657  03C3  00BC               	movwf	??_teclado+1
  5658  03C4  30AD               	movlw	173
  5659  03C5  00BB               	movwf	??_teclado
  5660  03C6                     u4897:
  5661  03C6  0BBB               	decfsz	??_teclado,f
  5662  03C7  2BC6               	goto	u4897
  5663  03C8  0BBC               	decfsz	??_teclado+1,f
  5664  03C9  2BC6               	goto	u4897
  5665  03CA  0BBD               	decfsz	??_teclado+2,f
  5666  03CB  2BC6               	goto	u4897
  5667  03CC                     l3037:
  5668                           
  5669                           ;main.c: 670:         liga_buzzer(0.1);
  5670  03CC  303D               	movlw	61
  5671  03CD  1283               	bcf	3,5	;RP0=0, select bank0
  5672  03CE  1303               	bcf	3,6	;RP1=0, select bank0
  5673  03CF  00B8               	movwf	liga_buzzer@tempoSegundos+3
  5674  03D0  30CC               	movlw	204
  5675  03D1  00B7               	movwf	liga_buzzer@tempoSegundos+2
  5676  03D2  30CC               	movlw	204
  5677  03D3  00B6               	movwf	liga_buzzer@tempoSegundos+1
  5678  03D4  30CD               	movlw	205
  5679  03D5  00B5               	movwf	liga_buzzer@tempoSegundos
  5680  03D6  160A  118A  263C  120A  118A  	fcall	_liga_buzzer
  5681  03DB                     l3039:
  5682                           
  5683                           ;main.c: 671:         LCD_escreve('C');
  5684  03DB  3043               	movlw	67
  5685  03DC  160A  118A  21F4  120A  118A  	fcall	_LCD_escreve
  5686  03E1                     l3041:
  5687                           
  5688                           ;main.c: 676:     if (RB1 == 0){
  5689  03E1  1283               	bcf	3,5	;RP0=0, select bank0
  5690  03E2  1303               	bcf	3,6	;RP1=0, select bank0
  5691  03E3  1886               	btfsc	6,1	;volatile
  5692  03E4  2BE6               	goto	u3291
  5693  03E5  2BE7               	goto	u3290
  5694  03E6                     u3291:
  5695  03E6  2C0A               	goto	l3049
  5696  03E7                     u3290:
  5697  03E7                     l3043:
  5698                           
  5699                           ;main.c: 677:         _delay((unsigned long)((200)*(20000000/4000.0)));
  5700  03E7  3006               	movlw	6
  5701  03E8  1283               	bcf	3,5	;RP0=0, select bank0
  5702  03E9  1303               	bcf	3,6	;RP1=0, select bank0
  5703  03EA  00BD               	movwf	??_teclado+2
  5704  03EB  3013               	movlw	19
  5705  03EC  00BC               	movwf	??_teclado+1
  5706  03ED  30AD               	movlw	173
  5707  03EE  00BB               	movwf	??_teclado
  5708  03EF                     u4907:
  5709  03EF  0BBB               	decfsz	??_teclado,f
  5710  03F0  2BEF               	goto	u4907
  5711  03F1  0BBC               	decfsz	??_teclado+1,f
  5712  03F2  2BEF               	goto	u4907
  5713  03F3  0BBD               	decfsz	??_teclado+2,f
  5714  03F4  2BEF               	goto	u4907
  5715  03F5                     l3045:
  5716                           
  5717                           ;main.c: 678:         liga_buzzer(0.1);
  5718  03F5  303D               	movlw	61
  5719  03F6  1283               	bcf	3,5	;RP0=0, select bank0
  5720  03F7  1303               	bcf	3,6	;RP1=0, select bank0
  5721  03F8  00B8               	movwf	liga_buzzer@tempoSegundos+3
  5722  03F9  30CC               	movlw	204
  5723  03FA  00B7               	movwf	liga_buzzer@tempoSegundos+2
  5724  03FB  30CC               	movlw	204
  5725  03FC  00B6               	movwf	liga_buzzer@tempoSegundos+1
  5726  03FD  30CD               	movlw	205
  5727  03FE  00B5               	movwf	liga_buzzer@tempoSegundos
  5728  03FF  160A  118A  263C  120A  118A  	fcall	_liga_buzzer
  5729  0404                     l3047:
  5730                           
  5731                           ;main.c: 679:         LCD_escreve('D');
  5732  0404  3044               	movlw	68
  5733  0405  160A  118A  21F4  120A  118A  	fcall	_LCD_escreve
  5734  040A                     l3049:
  5735                           
  5736                           ;main.c: 684:     if (RB2 == 0){
  5737  040A  1283               	bcf	3,5	;RP0=0, select bank0
  5738  040B  1303               	bcf	3,6	;RP1=0, select bank0
  5739  040C  1906               	btfsc	6,2	;volatile
  5740  040D  2C0F               	goto	u3301
  5741  040E  2C10               	goto	u3300
  5742  040F                     u3301:
  5743  040F  2C33               	goto	l3057
  5744  0410                     u3300:
  5745  0410                     l3051:
  5746                           
  5747                           ;main.c: 685:         _delay((unsigned long)((200)*(20000000/4000.0)));
  5748  0410  3006               	movlw	6
  5749  0411  1283               	bcf	3,5	;RP0=0, select bank0
  5750  0412  1303               	bcf	3,6	;RP1=0, select bank0
  5751  0413  00BD               	movwf	??_teclado+2
  5752  0414  3013               	movlw	19
  5753  0415  00BC               	movwf	??_teclado+1
  5754  0416  30AD               	movlw	173
  5755  0417  00BB               	movwf	??_teclado
  5756  0418                     u4917:
  5757  0418  0BBB               	decfsz	??_teclado,f
  5758  0419  2C18               	goto	u4917
  5759  041A  0BBC               	decfsz	??_teclado+1,f
  5760  041B  2C18               	goto	u4917
  5761  041C  0BBD               	decfsz	??_teclado+2,f
  5762  041D  2C18               	goto	u4917
  5763  041E                     l3053:
  5764                           
  5765                           ;main.c: 686:         liga_buzzer(0.1);
  5766  041E  303D               	movlw	61
  5767  041F  1283               	bcf	3,5	;RP0=0, select bank0
  5768  0420  1303               	bcf	3,6	;RP1=0, select bank0
  5769  0421  00B8               	movwf	liga_buzzer@tempoSegundos+3
  5770  0422  30CC               	movlw	204
  5771  0423  00B7               	movwf	liga_buzzer@tempoSegundos+2
  5772  0424  30CC               	movlw	204
  5773  0425  00B6               	movwf	liga_buzzer@tempoSegundos+1
  5774  0426  30CD               	movlw	205
  5775  0427  00B5               	movwf	liga_buzzer@tempoSegundos
  5776  0428  160A  118A  263C  120A  118A  	fcall	_liga_buzzer
  5777  042D                     l3055:
  5778                           
  5779                           ;main.c: 687:         LCD_escreve('E');
  5780  042D  3045               	movlw	69
  5781  042E  160A  118A  21F4  120A  118A  	fcall	_LCD_escreve
  5782  0433                     l3057:
  5783                           
  5784                           ;main.c: 692:     if (RB3 == 0){
  5785  0433  1283               	bcf	3,5	;RP0=0, select bank0
  5786  0434  1303               	bcf	3,6	;RP1=0, select bank0
  5787  0435  1986               	btfsc	6,3	;volatile
  5788  0436  2C38               	goto	u3311
  5789  0437  2C39               	goto	u3310
  5790  0438                     u3311:
  5791  0438  2C5C               	goto	l389
  5792  0439                     u3310:
  5793  0439                     l3059:
  5794                           
  5795                           ;main.c: 693:         _delay((unsigned long)((200)*(20000000/4000.0)));
  5796  0439  3006               	movlw	6
  5797  043A  1283               	bcf	3,5	;RP0=0, select bank0
  5798  043B  1303               	bcf	3,6	;RP1=0, select bank0
  5799  043C  00BD               	movwf	??_teclado+2
  5800  043D  3013               	movlw	19
  5801  043E  00BC               	movwf	??_teclado+1
  5802  043F  30AD               	movlw	173
  5803  0440  00BB               	movwf	??_teclado
  5804  0441                     u4927:
  5805  0441  0BBB               	decfsz	??_teclado,f
  5806  0442  2C41               	goto	u4927
  5807  0443  0BBC               	decfsz	??_teclado+1,f
  5808  0444  2C41               	goto	u4927
  5809  0445  0BBD               	decfsz	??_teclado+2,f
  5810  0446  2C41               	goto	u4927
  5811  0447                     l3061:
  5812                           
  5813                           ;main.c: 694:         liga_buzzer(0.1);
  5814  0447  303D               	movlw	61
  5815  0448  1283               	bcf	3,5	;RP0=0, select bank0
  5816  0449  1303               	bcf	3,6	;RP1=0, select bank0
  5817  044A  00B8               	movwf	liga_buzzer@tempoSegundos+3
  5818  044B  30CC               	movlw	204
  5819  044C  00B7               	movwf	liga_buzzer@tempoSegundos+2
  5820  044D  30CC               	movlw	204
  5821  044E  00B6               	movwf	liga_buzzer@tempoSegundos+1
  5822  044F  30CD               	movlw	205
  5823  0450  00B5               	movwf	liga_buzzer@tempoSegundos
  5824  0451  160A  118A  263C  120A  118A  	fcall	_liga_buzzer
  5825  0456                     l3063:
  5826                           
  5827                           ;main.c: 695:         LCD_escreve('F');
  5828  0456  3046               	movlw	70
  5829  0457  160A  118A  21F4  120A  118A  	fcall	_LCD_escreve
  5830  045C                     l389:
  5831  045C  0008               	return
  5832  045D                     __end_of_teclado:
  5833                           
  5834                           	psect	text18
  5835  163C                     __ptext18:	
  5836 ;; *************** function _liga_buzzer *****************
  5837 ;; Defined at:
  5838 ;;		line 292 in file "main.c"
  5839 ;; Parameters:    Size  Location     Type
  5840 ;;  tempoSegundo    4   21[BANK0 ] float 
  5841 ;; Auto vars:     Size  Location     Type
  5842 ;;		None
  5843 ;; Return value:  Size  Location     Type
  5844 ;;                  1    wreg      void 
  5845 ;; Registers used:
  5846 ;;		wreg, status,2, status,0, btemp+1, pclath, cstack
  5847 ;; Tracked objects:
  5848 ;;		On entry : 0/0
  5849 ;;		On exit  : 0/0
  5850 ;;		Unchanged: 0/0
  5851 ;; Data sizes:     COMMON   BANK0   BANK1   BANK3   BANK2
  5852 ;;      Params:         0       4       0       0       0
  5853 ;;      Locals:         0       0       0       0       0
  5854 ;;      Temps:          0       2       0       0       0
  5855 ;;      Totals:         0       6       0       0       0
  5856 ;;Total ram usage:        6 bytes
  5857 ;; Hardware stack levels used: 1
  5858 ;; Hardware stack levels required when called: 2
  5859 ;; This function calls:
  5860 ;;		___flge
  5861 ;;		___flmul
  5862 ;;		___flsub
  5863 ;; This function is called by:
  5864 ;;		_main
  5865 ;;		_valida_senha
  5866 ;;		_listaZonas
  5867 ;;		_teclado
  5868 ;; This function uses a non-reentrant model
  5869 ;;
  5870                           
  5871                           
  5872                           ;psect for function _liga_buzzer
  5873  163C                     _liga_buzzer:
  5874  163C                     l2769:	
  5875                           ;incstack = 0
  5876                           ; Regs used in _liga_buzzer: [wreg+status,2+status,0+btemp+1+pclath+cstack]
  5877                           
  5878                           
  5879                           ;main.c: 293:     tempoSegundos = tempoSegundos * 1000;
  5880  163C  3044               	movlw	68
  5881  163D  1283               	bcf	3,5	;RP0=0, select bank0
  5882  163E  1303               	bcf	3,6	;RP1=0, select bank0
  5883  163F  00A3               	movwf	___flmul@b+3
  5884  1640  307A               	movlw	122
  5885  1641  00A2               	movwf	___flmul@b+2
  5886  1642  3000               	movlw	0
  5887  1643  00A1               	movwf	___flmul@b+1
  5888  1644  3000               	movlw	0
  5889  1645  00A0               	movwf	___flmul@b
  5890  1646  0838               	movf	liga_buzzer@tempoSegundos+3,w
  5891  1647  00A7               	movwf	___flmul@a+3
  5892  1648  0837               	movf	liga_buzzer@tempoSegundos+2,w
  5893  1649  00A6               	movwf	___flmul@a+2
  5894  164A  0836               	movf	liga_buzzer@tempoSegundos+1,w
  5895  164B  00A5               	movwf	___flmul@a+1
  5896  164C  0835               	movf	liga_buzzer@tempoSegundos,w
  5897  164D  00A4               	movwf	___flmul@a
  5898  164E  120A  118A  245D  160A  118A  	fcall	___flmul
  5899  1653  1283               	bcf	3,5	;RP0=0, select bank0
  5900  1654  1303               	bcf	3,6	;RP1=0, select bank0
  5901  1655  0823               	movf	?___flmul+3,w
  5902  1656  00B8               	movwf	liga_buzzer@tempoSegundos+3
  5903  1657  0822               	movf	?___flmul+2,w
  5904  1658  00B7               	movwf	liga_buzzer@tempoSegundos+2
  5905  1659  0821               	movf	?___flmul+1,w
  5906  165A  00B6               	movwf	liga_buzzer@tempoSegundos+1
  5907  165B  0820               	movf	?___flmul,w
  5908  165C  00B5               	movwf	liga_buzzer@tempoSegundos
  5909  165D                     l2771:
  5910                           
  5911                           ;main.c: 294:     _delay((unsigned long)((10)*(20000000/4000.0)));
  5912  165D  3041               	movlw	65
  5913  165E  1283               	bcf	3,5	;RP0=0, select bank0
  5914  165F  1303               	bcf	3,6	;RP1=0, select bank0
  5915  1660  00BA               	movwf	??_liga_buzzer+1
  5916  1661  30ED               	movlw	237
  5917  1662  00B9               	movwf	??_liga_buzzer
  5918  1663                     u4937:
  5919  1663  0BB9               	decfsz	??_liga_buzzer,f
  5920  1664  2E63               	goto	u4937
  5921  1665  0BBA               	decfsz	??_liga_buzzer+1,f
  5922  1666  2E63               	goto	u4937
  5923  1667  2E68               	nop2
  5924                           
  5925                           ;main.c: 295:     while(tempoSegundos > 0){
  5926  1668  2E98               	goto	l2779
  5927  1669                     l2773:
  5928                           
  5929                           ;main.c: 296:        PORTE = 0;
  5930  1669  1283               	bcf	3,5	;RP0=0, select bank0
  5931  166A  1303               	bcf	3,6	;RP1=0, select bank0
  5932  166B  0189               	clrf	9	;volatile
  5933  166C                     l2775:
  5934                           
  5935                           ;main.c: 297:         _delay((unsigned long)((1)*(20000000/4000.0)));
  5936  166C  3007               	movlw	7
  5937  166D  1283               	bcf	3,5	;RP0=0, select bank0
  5938  166E  1303               	bcf	3,6	;RP1=0, select bank0
  5939  166F  00BA               	movwf	??_liga_buzzer+1
  5940  1670  307C               	movlw	124
  5941  1671  00B9               	movwf	??_liga_buzzer
  5942  1672                     u4947:
  5943  1672  0BB9               	decfsz	??_liga_buzzer,f
  5944  1673  2E72               	goto	u4947
  5945  1674  0BBA               	decfsz	??_liga_buzzer+1,f
  5946  1675  2E72               	goto	u4947
  5947  1676  0000               	nop
  5948  1677                     l2777:
  5949                           
  5950                           ;main.c: 298:         tempoSegundos--;
  5951  1677  303F               	movlw	63
  5952  1678  1283               	bcf	3,5	;RP0=0, select bank0
  5953  1679  1303               	bcf	3,6	;RP1=0, select bank0
  5954  167A  00AB               	movwf	___flsub@a+3
  5955  167B  3080               	movlw	128
  5956  167C  00AA               	movwf	___flsub@a+2
  5957  167D  3000               	movlw	0
  5958  167E  00A9               	movwf	___flsub@a+1
  5959  167F  3000               	movlw	0
  5960  1680  00A8               	movwf	___flsub@a
  5961  1681  0838               	movf	liga_buzzer@tempoSegundos+3,w
  5962  1682  00AF               	movwf	___flsub@b+3
  5963  1683  0837               	movf	liga_buzzer@tempoSegundos+2,w
  5964  1684  00AE               	movwf	___flsub@b+2
  5965  1685  0836               	movf	liga_buzzer@tempoSegundos+1,w
  5966  1686  00AD               	movwf	___flsub@b+1
  5967  1687  0835               	movf	liga_buzzer@tempoSegundos,w
  5968  1688  00AC               	movwf	___flsub@b
  5969  1689  160A  118A  2271  160A  118A  	fcall	___flsub
  5970  168E  1283               	bcf	3,5	;RP0=0, select bank0
  5971  168F  1303               	bcf	3,6	;RP1=0, select bank0
  5972  1690  082B               	movf	?___flsub+3,w
  5973  1691  00B8               	movwf	liga_buzzer@tempoSegundos+3
  5974  1692  082A               	movf	?___flsub+2,w
  5975  1693  00B7               	movwf	liga_buzzer@tempoSegundos+2
  5976  1694  0829               	movf	?___flsub+1,w
  5977  1695  00B6               	movwf	liga_buzzer@tempoSegundos+1
  5978  1696  0828               	movf	?___flsub,w
  5979  1697  00B5               	movwf	liga_buzzer@tempoSegundos
  5980  1698                     l2779:
  5981                           
  5982                           ;main.c: 295:     while(tempoSegundos > 0){
  5983  1698  3000               	movlw	0
  5984  1699  00F3               	movwf	___flge@ff1+3
  5985  169A  3000               	movlw	0
  5986  169B  00F2               	movwf	___flge@ff1+2
  5987  169C  3000               	movlw	0
  5988  169D  00F1               	movwf	___flge@ff1+1
  5989  169E  3000               	movlw	0
  5990  169F  00F0               	movwf	___flge@ff1
  5991  16A0  1283               	bcf	3,5	;RP0=0, select bank0
  5992  16A1  1303               	bcf	3,6	;RP1=0, select bank0
  5993  16A2  0838               	movf	liga_buzzer@tempoSegundos+3,w
  5994  16A3  00F7               	movwf	___flge@ff2+3
  5995  16A4  0837               	movf	liga_buzzer@tempoSegundos+2,w
  5996  16A5  00F6               	movwf	___flge@ff2+2
  5997  16A6  0836               	movf	liga_buzzer@tempoSegundos+1,w
  5998  16A7  00F5               	movwf	___flge@ff2+1
  5999  16A8  0835               	movf	liga_buzzer@tempoSegundos,w
  6000  16A9  00F4               	movwf	___flge@ff2
  6001  16AA  160A  118A  26B8  160A  118A  	fcall	___flge
  6002  16AF  1C03               	btfss	3,0
  6003  16B0  2EB2               	goto	u2921
  6004  16B1  2EB3               	goto	u2920
  6005  16B2                     u2921:
  6006  16B2  2E69               	goto	l2773
  6007  16B3                     u2920:
  6008  16B3                     l2781:
  6009                           
  6010                           ;main.c: 300:     PORTE = 0x0F;
  6011  16B3  300F               	movlw	15
  6012  16B4  1283               	bcf	3,5	;RP0=0, select bank0
  6013  16B5  1303               	bcf	3,6	;RP1=0, select bank0
  6014  16B6  0089               	movwf	9	;volatile
  6015  16B7                     l282:
  6016  16B7  0008               	return
  6017  16B8                     __end_of_liga_buzzer:
  6018                           
  6019                           	psect	text19
  6020  1271                     __ptext19:	
  6021 ;; *************** function ___flsub *****************
  6022 ;; Defined at:
  6023 ;;		line 242 in file "C:\Program Files\Microchip\xc8\v2.32\pic\sources\c90\common\sprcadd.c"
  6024 ;; Parameters:    Size  Location     Type
  6025 ;;  a               4    8[BANK0 ] void 
  6026 ;;  b               4   12[BANK0 ] void 
  6027 ;; Auto vars:     Size  Location     Type
  6028 ;;		None
  6029 ;; Return value:  Size  Location     Type
  6030 ;;                  4    8[BANK0 ] void 
  6031 ;; Registers used:
  6032 ;;		wreg, status,2, status,0, btemp+1, pclath, cstack
  6033 ;; Tracked objects:
  6034 ;;		On entry : 0/0
  6035 ;;		On exit  : 0/0
  6036 ;;		Unchanged: 0/0
  6037 ;; Data sizes:     COMMON   BANK0   BANK1   BANK3   BANK2
  6038 ;;      Params:         0       8       0       0       0
  6039 ;;      Locals:         0       0       0       0       0
  6040 ;;      Temps:          0       0       0       0       0
  6041 ;;      Totals:         0       8       0       0       0
  6042 ;;Total ram usage:        8 bytes
  6043 ;; Hardware stack levels used: 1
  6044 ;; Hardware stack levels required when called: 1
  6045 ;; This function calls:
  6046 ;;		___fladd
  6047 ;; This function is called by:
  6048 ;;		_liga_buzzer
  6049 ;; This function uses a non-reentrant model
  6050 ;;
  6051                           
  6052                           
  6053                           ;psect for function ___flsub
  6054  1271                     ___flsub:
  6055  1271                     l2579:	
  6056                           ;incstack = 0
  6057                           ; Regs used in ___flsub: [wreg+status,2+status,0+btemp+1+pclath+cstack]
  6058                           
  6059  1271  3080               	movlw	128
  6060  1272  1283               	bcf	3,5	;RP0=0, select bank0
  6061  1273  1303               	bcf	3,6	;RP1=0, select bank0
  6062  1274  06AB               	xorwf	___flsub@a+3,f
  6063  1275                     l2581:
  6064  1275  082F               	movf	___flsub@b+3,w
  6065  1276  00F3               	movwf	___fladd@b+3
  6066  1277  082E               	movf	___flsub@b+2,w
  6067  1278  00F2               	movwf	___fladd@b+2
  6068  1279  082D               	movf	___flsub@b+1,w
  6069  127A  00F1               	movwf	___fladd@b+1
  6070  127B  082C               	movf	___flsub@b,w
  6071  127C  00F0               	movwf	___fladd@b
  6072  127D  082B               	movf	___flsub@a+3,w
  6073  127E  00F7               	movwf	___fladd@a+3
  6074  127F  082A               	movf	___flsub@a+2,w
  6075  1280  00F6               	movwf	___fladd@a+2
  6076  1281  0829               	movf	___flsub@a+1,w
  6077  1282  00F5               	movwf	___fladd@a+1
  6078  1283  0828               	movf	___flsub@a,w
  6079  1284  00F4               	movwf	___fladd@a
  6080  1285  120A  158A  2568  160A  118A  	fcall	___fladd
  6081  128A  0873               	movf	?___fladd+3,w
  6082  128B  1283               	bcf	3,5	;RP0=0, select bank0
  6083  128C  1303               	bcf	3,6	;RP1=0, select bank0
  6084  128D  00AB               	movwf	?___flsub+3
  6085  128E  0872               	movf	?___fladd+2,w
  6086  128F  00AA               	movwf	?___flsub+2
  6087  1290  0871               	movf	?___fladd+1,w
  6088  1291  00A9               	movwf	?___flsub+1
  6089  1292  0870               	movf	?___fladd,w
  6090  1293  00A8               	movwf	?___flsub
  6091  1294                     l814:
  6092  1294  0008               	return
  6093  1295                     __end_of___flsub:
  6094                           
  6095                           	psect	text20
  6096  0D68                     __ptext20:	
  6097 ;; *************** function ___fladd *****************
  6098 ;; Defined at:
  6099 ;;		line 10 in file "C:\Program Files\Microchip\xc8\v2.32\pic\sources\c90\common\sprcadd.c"
  6100 ;; Parameters:    Size  Location     Type
  6101 ;;  b               4    0[COMMON] void 
  6102 ;;  a               4    4[COMMON] void 
  6103 ;; Auto vars:     Size  Location     Type
  6104 ;;  grs             1   11[COMMON] unsigned char 
  6105 ;;  bexp            1   10[COMMON] unsigned char 
  6106 ;;  aexp            1    9[COMMON] unsigned char 
  6107 ;;  signs           1    8[COMMON] unsigned char 
  6108 ;; Return value:  Size  Location     Type
  6109 ;;                  4    0[COMMON] unsigned char 
  6110 ;; Registers used:
  6111 ;;		wreg, status,2, status,0, btemp+1
  6112 ;; Tracked objects:
  6113 ;;		On entry : 0/0
  6114 ;;		On exit  : 0/0
  6115 ;;		Unchanged: 0/0
  6116 ;; Data sizes:     COMMON   BANK0   BANK1   BANK3   BANK2
  6117 ;;      Params:         8       0       0       0       0
  6118 ;;      Locals:         4       0       0       0       0
  6119 ;;      Temps:          0       8       0       0       0
  6120 ;;      Totals:        12       8       0       0       0
  6121 ;;Total ram usage:       20 bytes
  6122 ;; Hardware stack levels used: 1
  6123 ;; This function calls:
  6124 ;;		Nothing
  6125 ;; This function is called by:
  6126 ;;		___flsub
  6127 ;; This function uses a non-reentrant model
  6128 ;;
  6129                           
  6130                           
  6131                           ;psect for function ___fladd
  6132  0D68                     ___fladd:
  6133  0D68                     l2339:	
  6134                           ;incstack = 0
  6135                           ; Regs used in ___fladd: [wreg+status,2+status,0+btemp+1]
  6136                           
  6137  0D68  0873               	movf	___fladd@b+3,w
  6138  0D69  3980               	andlw	128
  6139  0D6A  1283               	bcf	3,5	;RP0=0, select bank0
  6140  0D6B  1303               	bcf	3,6	;RP1=0, select bank0
  6141  0D6C  00A0               	movwf	??___fladd
  6142  0D6D  0820               	movf	??___fladd,w
  6143  0D6E  00F8               	movwf	___fladd@signs
  6144  0D6F                     l2341:
  6145  0D6F  0873               	movf	___fladd@b+3,w
  6146  0D70  00A0               	movwf	??___fladd
  6147  0D71  0720               	addwf	??___fladd,w
  6148  0D72  00A1               	movwf	??___fladd+1
  6149  0D73  0821               	movf	??___fladd+1,w
  6150  0D74  00FA               	movwf	___fladd@bexp
  6151  0D75                     l2343:
  6152  0D75  1FF2               	btfss	___fladd@b+2,7
  6153  0D76  2D78               	goto	u1961
  6154  0D77  2D79               	goto	u1960
  6155  0D78                     u1961:
  6156  0D78  2D7A               	goto	l2347
  6157  0D79                     u1960:
  6158  0D79                     l2345:
  6159  0D79  147A               	bsf	___fladd@bexp,0
  6160  0D7A                     l2347:
  6161  0D7A  087A               	movf	___fladd@bexp,w
  6162  0D7B  1903               	btfsc	3,2
  6163  0D7C  2D7E               	goto	u1971
  6164  0D7D  2D7F               	goto	u1970
  6165  0D7E                     u1971:
  6166  0D7E  2D8F               	goto	l2357
  6167  0D7F                     u1970:
  6168  0D7F                     l2349:
  6169  0D7F  0A7A               	incf	___fladd@bexp,w
  6170  0D80  1D03               	btfss	3,2
  6171  0D81  2D83               	goto	u1981
  6172  0D82  2D84               	goto	u1980
  6173  0D83                     u1981:
  6174  0D83  2D8C               	goto	l2353
  6175  0D84                     u1980:
  6176  0D84                     l2351:
  6177  0D84  3000               	movlw	0
  6178  0D85  00F3               	movwf	___fladd@b+3
  6179  0D86  3000               	movlw	0
  6180  0D87  00F2               	movwf	___fladd@b+2
  6181  0D88  3000               	movlw	0
  6182  0D89  00F1               	movwf	___fladd@b+1
  6183  0D8A  3000               	movlw	0
  6184  0D8B  00F0               	movwf	___fladd@b
  6185  0D8C                     l2353:
  6186  0D8C  17F2               	bsf	___fladd@b+2,7
  6187  0D8D                     l2355:
  6188  0D8D  01F3               	clrf	___fladd@b+3
  6189  0D8E  2D97               	goto	l2359
  6190  0D8F                     l2357:
  6191  0D8F  3000               	movlw	0
  6192  0D90  00F3               	movwf	___fladd@b+3
  6193  0D91  3000               	movlw	0
  6194  0D92  00F2               	movwf	___fladd@b+2
  6195  0D93  3000               	movlw	0
  6196  0D94  00F1               	movwf	___fladd@b+1
  6197  0D95  3000               	movlw	0
  6198  0D96  00F0               	movwf	___fladd@b
  6199  0D97                     l2359:
  6200  0D97  0877               	movf	___fladd@a+3,w
  6201  0D98  3980               	andlw	128
  6202  0D99  00A0               	movwf	??___fladd
  6203  0D9A  0820               	movf	??___fladd,w
  6204  0D9B  00F9               	movwf	___fladd@aexp
  6205  0D9C                     l2361:
  6206  0D9C  0879               	movf	___fladd@aexp,w
  6207  0D9D  0678               	xorwf	___fladd@signs,w
  6208  0D9E  1903               	skipnz
  6209  0D9F  2DA1               	goto	u1991
  6210  0DA0  2DA2               	goto	u1990
  6211  0DA1                     u1991:
  6212  0DA1  2DA3               	goto	l2365
  6213  0DA2                     u1990:
  6214  0DA2                     l2363:
  6215  0DA2  1778               	bsf	___fladd@signs,6
  6216  0DA3                     l2365:
  6217  0DA3  0877               	movf	___fladd@a+3,w
  6218  0DA4  00A0               	movwf	??___fladd
  6219  0DA5  0720               	addwf	??___fladd,w
  6220  0DA6  00A1               	movwf	??___fladd+1
  6221  0DA7  0821               	movf	??___fladd+1,w
  6222  0DA8  00F9               	movwf	___fladd@aexp
  6223  0DA9                     l2367:
  6224  0DA9  1FF6               	btfss	___fladd@a+2,7
  6225  0DAA  2DAC               	goto	u2001
  6226  0DAB  2DAD               	goto	u2000
  6227  0DAC                     u2001:
  6228  0DAC  2DAE               	goto	l2371
  6229  0DAD                     u2000:
  6230  0DAD                     l2369:
  6231  0DAD  1479               	bsf	___fladd@aexp,0
  6232  0DAE                     l2371:
  6233  0DAE  0879               	movf	___fladd@aexp,w
  6234  0DAF  1903               	btfsc	3,2
  6235  0DB0  2DB2               	goto	u2011
  6236  0DB1  2DB3               	goto	u2010
  6237  0DB2                     u2011:
  6238  0DB2  2DC3               	goto	l2381
  6239  0DB3                     u2010:
  6240  0DB3                     l2373:
  6241  0DB3  0A79               	incf	___fladd@aexp,w
  6242  0DB4  1D03               	btfss	3,2
  6243  0DB5  2DB7               	goto	u2021
  6244  0DB6  2DB8               	goto	u2020
  6245  0DB7                     u2021:
  6246  0DB7  2DC0               	goto	l2377
  6247  0DB8                     u2020:
  6248  0DB8                     l2375:
  6249  0DB8  3000               	movlw	0
  6250  0DB9  00F7               	movwf	___fladd@a+3
  6251  0DBA  3000               	movlw	0
  6252  0DBB  00F6               	movwf	___fladd@a+2
  6253  0DBC  3000               	movlw	0
  6254  0DBD  00F5               	movwf	___fladd@a+1
  6255  0DBE  3000               	movlw	0
  6256  0DBF  00F4               	movwf	___fladd@a
  6257  0DC0                     l2377:
  6258  0DC0  17F6               	bsf	___fladd@a+2,7
  6259  0DC1                     l2379:
  6260  0DC1  01F7               	clrf	___fladd@a+3
  6261  0DC2  2DCB               	goto	l768
  6262  0DC3                     l2381:
  6263  0DC3  3000               	movlw	0
  6264  0DC4  00F7               	movwf	___fladd@a+3
  6265  0DC5  3000               	movlw	0
  6266  0DC6  00F6               	movwf	___fladd@a+2
  6267  0DC7  3000               	movlw	0
  6268  0DC8  00F5               	movwf	___fladd@a+1
  6269  0DC9  3000               	movlw	0
  6270  0DCA  00F4               	movwf	___fladd@a
  6271  0DCB                     l768:
  6272  0DCB  087A               	movf	___fladd@bexp,w
  6273  0DCC  0279               	subwf	___fladd@aexp,w
  6274  0DCD  1803               	skipnc
  6275  0DCE  2DD0               	goto	u2031
  6276  0DCF  2DD1               	goto	u2030
  6277  0DD0                     u2031:
  6278  0DD0  2E15               	goto	l2417
  6279  0DD1                     u2030:
  6280  0DD1                     l2383:
  6281  0DD1  1F78               	btfss	___fladd@signs,6
  6282  0DD2  2DD4               	goto	u2041
  6283  0DD3  2DD5               	goto	u2040
  6284  0DD4                     u2041:
  6285  0DD4  2DD9               	goto	l2387
  6286  0DD5                     u2040:
  6287  0DD5                     l2385:
  6288  0DD5  3080               	movlw	128
  6289  0DD6  00A0               	movwf	??___fladd
  6290  0DD7  0820               	movf	??___fladd,w
  6291  0DD8  06F8               	xorwf	___fladd@signs,f
  6292  0DD9                     l2387:
  6293  0DD9  087A               	movf	___fladd@bexp,w
  6294  0DDA  00A0               	movwf	??___fladd
  6295  0DDB  0820               	movf	??___fladd,w
  6296  0DDC  00FB               	movwf	___fladd@grs
  6297  0DDD                     l2389:
  6298  0DDD  0879               	movf	___fladd@aexp,w
  6299  0DDE  00A0               	movwf	??___fladd
  6300  0DDF  0820               	movf	??___fladd,w
  6301  0DE0  00FA               	movwf	___fladd@bexp
  6302  0DE1                     l2391:
  6303  0DE1  087B               	movf	___fladd@grs,w
  6304  0DE2  00A0               	movwf	??___fladd
  6305  0DE3  0820               	movf	??___fladd,w
  6306  0DE4  00F9               	movwf	___fladd@aexp
  6307  0DE5                     l2393:
  6308  0DE5  0870               	movf	___fladd@b,w
  6309  0DE6  00A0               	movwf	??___fladd
  6310  0DE7  0820               	movf	??___fladd,w
  6311  0DE8  00FB               	movwf	___fladd@grs
  6312  0DE9                     l2395:
  6313  0DE9  0874               	movf	___fladd@a,w
  6314  0DEA  00A0               	movwf	??___fladd
  6315  0DEB  0820               	movf	??___fladd,w
  6316  0DEC  00F0               	movwf	___fladd@b
  6317  0DED                     l2397:
  6318  0DED  087B               	movf	___fladd@grs,w
  6319  0DEE  00A0               	movwf	??___fladd
  6320  0DEF  0820               	movf	??___fladd,w
  6321  0DF0  00F4               	movwf	___fladd@a
  6322  0DF1                     l2399:
  6323  0DF1  0871               	movf	___fladd@b+1,w
  6324  0DF2  00A0               	movwf	??___fladd
  6325  0DF3  0820               	movf	??___fladd,w
  6326  0DF4  00FB               	movwf	___fladd@grs
  6327  0DF5                     l2401:
  6328  0DF5  0875               	movf	___fladd@a+1,w
  6329  0DF6  00A0               	movwf	??___fladd
  6330  0DF7  0820               	movf	??___fladd,w
  6331  0DF8  00F1               	movwf	___fladd@b+1
  6332  0DF9                     l2403:
  6333  0DF9  087B               	movf	___fladd@grs,w
  6334  0DFA  00A0               	movwf	??___fladd
  6335  0DFB  0820               	movf	??___fladd,w
  6336  0DFC  00F5               	movwf	___fladd@a+1
  6337  0DFD                     l2405:
  6338  0DFD  0872               	movf	___fladd@b+2,w
  6339  0DFE  00A0               	movwf	??___fladd
  6340  0DFF  0820               	movf	??___fladd,w
  6341  0E00  00FB               	movwf	___fladd@grs
  6342  0E01                     l2407:
  6343  0E01  0876               	movf	___fladd@a+2,w
  6344  0E02  00A0               	movwf	??___fladd
  6345  0E03  0820               	movf	??___fladd,w
  6346  0E04  00F2               	movwf	___fladd@b+2
  6347  0E05                     l2409:
  6348  0E05  087B               	movf	___fladd@grs,w
  6349  0E06  00A0               	movwf	??___fladd
  6350  0E07  0820               	movf	??___fladd,w
  6351  0E08  00F6               	movwf	___fladd@a+2
  6352  0E09                     l2411:
  6353  0E09  0873               	movf	___fladd@b+3,w
  6354  0E0A  00A0               	movwf	??___fladd
  6355  0E0B  0820               	movf	??___fladd,w
  6356  0E0C  00FB               	movwf	___fladd@grs
  6357  0E0D                     l2413:
  6358  0E0D  0877               	movf	___fladd@a+3,w
  6359  0E0E  00A0               	movwf	??___fladd
  6360  0E0F  0820               	movf	??___fladd,w
  6361  0E10  00F3               	movwf	___fladd@b+3
  6362  0E11                     l2415:
  6363  0E11  087B               	movf	___fladd@grs,w
  6364  0E12  00A0               	movwf	??___fladd
  6365  0E13  0820               	movf	??___fladd,w
  6366  0E14  00F7               	movwf	___fladd@a+3
  6367  0E15                     l2417:
  6368  0E15  01FB               	clrf	___fladd@grs
  6369  0E16                     l2419:
  6370  0E16  0879               	movf	___fladd@aexp,w
  6371  0E17  00A0               	movwf	??___fladd
  6372  0E18  01A1               	clrf	??___fladd+1
  6373  0E19  0821               	movf	??___fladd+1,w
  6374  0E1A  00A3               	movwf	??___fladd+3
  6375  0E1B  087A               	movf	___fladd@bexp,w
  6376  0E1C  0220               	subwf	??___fladd,w
  6377  0E1D  00A2               	movwf	??___fladd+2
  6378  0E1E  1C03               	skipc
  6379  0E1F  03A3               	decf	??___fladd+3,f
  6380  0E20  0823               	movf	??___fladd+3,w
  6381  0E21  3A80               	xorlw	128
  6382  0E22  00FF               	movwf	btemp+1
  6383  0E23  3080               	movlw	128
  6384  0E24  027F               	subwf	btemp+1,w
  6385  0E25  1D03               	skipz
  6386  0E26  2E29               	goto	u2055
  6387  0E27  301A               	movlw	26
  6388  0E28  0222               	subwf	??___fladd+2,w
  6389  0E29                     u2055:
  6390  0E29  1C03               	skipc
  6391  0E2A  2E2C               	goto	u2051
  6392  0E2B  2E2D               	goto	u2050
  6393  0E2C                     u2051:
  6394  0E2C  2E6E               	goto	l2435
  6395  0E2D                     u2050:
  6396  0E2D                     l2421:
  6397  0E2D  0873               	movf	___fladd@b+3,w
  6398  0E2E  0472               	iorwf	___fladd@b+2,w
  6399  0E2F  0471               	iorwf	___fladd@b+1,w
  6400  0E30  0470               	iorwf	___fladd@b,w
  6401  0E31  1D03               	skipz
  6402  0E32  2E34               	goto	u2061
  6403  0E33  2E36               	goto	u2060
  6404  0E34                     u2061:
  6405  0E34  3001               	movlw	1
  6406  0E35  2E37               	goto	u2070
  6407  0E36                     u2060:
  6408  0E36  3000               	movlw	0
  6409  0E37                     u2070:
  6410  0E37  1283               	bcf	3,5	;RP0=0, select bank0
  6411  0E38  1303               	bcf	3,6	;RP1=0, select bank0
  6412  0E39  00A0               	movwf	??___fladd
  6413  0E3A  0820               	movf	??___fladd,w
  6414  0E3B  00FB               	movwf	___fladd@grs
  6415  0E3C  3000               	movlw	0
  6416  0E3D  00F3               	movwf	___fladd@b+3
  6417  0E3E  3000               	movlw	0
  6418  0E3F  00F2               	movwf	___fladd@b+2
  6419  0E40  3000               	movlw	0
  6420  0E41  00F1               	movwf	___fladd@b+1
  6421  0E42  3000               	movlw	0
  6422  0E43  00F0               	movwf	___fladd@b
  6423  0E44  0879               	movf	___fladd@aexp,w
  6424  0E45  00A0               	movwf	??___fladd
  6425  0E46  0820               	movf	??___fladd,w
  6426  0E47  00FA               	movwf	___fladd@bexp
  6427  0E48  2E74               	goto	l772
  6428  0E49                     l774:
  6429  0E49  1C7B               	btfss	___fladd@grs,0
  6430  0E4A  2E4C               	goto	u2081
  6431  0E4B  2E4D               	goto	u2080
  6432  0E4C                     u2081:
  6433  0E4C  2E58               	goto	l2425
  6434  0E4D                     u2080:
  6435  0E4D                     l2423:
  6436  0E4D  087B               	movf	___fladd@grs,w
  6437  0E4E  1283               	bcf	3,5	;RP0=0, select bank0
  6438  0E4F  1303               	bcf	3,6	;RP1=0, select bank0
  6439  0E50  00A0               	movwf	??___fladd
  6440  0E51  1003               	clrc
  6441  0E52  0C20               	rrf	??___fladd,w
  6442  0E53  3801               	iorlw	1
  6443  0E54  00A1               	movwf	??___fladd+1
  6444  0E55  0821               	movf	??___fladd+1,w
  6445  0E56  00FB               	movwf	___fladd@grs
  6446  0E57  2E5A               	goto	l2427
  6447  0E58                     l2425:
  6448  0E58  1003               	clrc
  6449  0E59  0CFB               	rrf	___fladd@grs,f
  6450  0E5A                     l2427:
  6451  0E5A  1C70               	btfss	___fladd@b,0
  6452  0E5B  2E5D               	goto	u2091
  6453  0E5C  2E5E               	goto	u2090
  6454  0E5D                     u2091:
  6455  0E5D  2E5F               	goto	l2431
  6456  0E5E                     u2090:
  6457  0E5E                     l2429:
  6458  0E5E  17FB               	bsf	___fladd@grs,7
  6459  0E5F                     l2431:
  6460  0E5F  3001               	movlw	1
  6461  0E60  1283               	bcf	3,5	;RP0=0, select bank0
  6462  0E61  1303               	bcf	3,6	;RP1=0, select bank0
  6463  0E62  00A0               	movwf	??___fladd
  6464  0E63                     u2105:
  6465  0E63  0D73               	rlf	___fladd@b+3,w
  6466  0E64  0CF3               	rrf	___fladd@b+3,f
  6467  0E65  0CF2               	rrf	___fladd@b+2,f
  6468  0E66  0CF1               	rrf	___fladd@b+1,f
  6469  0E67  0CF0               	rrf	___fladd@b,f
  6470  0E68  0BA0               	decfsz	??___fladd& (0+127),f
  6471  0E69  2E63               	goto	u2105
  6472  0E6A                     l2433:
  6473  0E6A  3001               	movlw	1
  6474  0E6B  00A0               	movwf	??___fladd
  6475  0E6C  0820               	movf	??___fladd,w
  6476  0E6D  07FA               	addwf	___fladd@bexp,f
  6477  0E6E                     l2435:
  6478  0E6E  0879               	movf	___fladd@aexp,w
  6479  0E6F  027A               	subwf	___fladd@bexp,w
  6480  0E70  1C03               	skipc
  6481  0E71  2E73               	goto	u2111
  6482  0E72  2E74               	goto	u2110
  6483  0E73                     u2111:
  6484  0E73  2E49               	goto	l774
  6485  0E74                     u2110:
  6486  0E74                     l772:
  6487  0E74  1B78               	btfsc	___fladd@signs,6
  6488  0E75  2E77               	goto	u2121
  6489  0E76  2E78               	goto	u2120
  6490  0E77                     u2121:
  6491  0E77  2EC7               	goto	l2461
  6492  0E78                     u2120:
  6493  0E78                     l2437:
  6494  0E78  087A               	movf	___fladd@bexp,w
  6495  0E79  1D03               	btfss	3,2
  6496  0E7A  2E7C               	goto	u2131
  6497  0E7B  2E7D               	goto	u2130
  6498  0E7C                     u2131:
  6499  0E7C  2E86               	goto	l2443
  6500  0E7D                     u2130:
  6501  0E7D                     l2439:
  6502  0E7D  3000               	movlw	0
  6503  0E7E  00F3               	movwf	?___fladd+3
  6504  0E7F  3000               	movlw	0
  6505  0E80  00F2               	movwf	?___fladd+2
  6506  0E81  3000               	movlw	0
  6507  0E82  00F1               	movwf	?___fladd+1
  6508  0E83  3000               	movlw	0
  6509  0E84  00F0               	movwf	?___fladd
  6510  0E85  2FFF               	goto	l781
  6511  0E86                     l2443:
  6512  0E86  0874               	movf	___fladd@a,w
  6513  0E87  07F0               	addwf	___fladd@b,f
  6514  0E88  0875               	movf	___fladd@a+1,w
  6515  0E89  1103               	clrz
  6516  0E8A  1803               	skipnc
  6517  0E8B  3E01               	addlw	1
  6518  0E8C  1903               	skipnz
  6519  0E8D  2E8F               	goto	u2141
  6520  0E8E  07F1               	addwf	___fladd@b+1,f
  6521  0E8F                     u2141:
  6522  0E8F  0876               	movf	___fladd@a+2,w
  6523  0E90  1103               	clrz
  6524  0E91  1803               	skipnc
  6525  0E92  3E01               	addlw	1
  6526  0E93  1903               	skipnz
  6527  0E94  2E96               	goto	u2142
  6528  0E95  07F2               	addwf	___fladd@b+2,f
  6529  0E96                     u2142:
  6530  0E96  0877               	movf	___fladd@a+3,w
  6531  0E97  1103               	clrz
  6532  0E98  1803               	skipnc
  6533  0E99  3E01               	addlw	1
  6534  0E9A  1903               	skipnz
  6535  0E9B  2E9D               	goto	u2143
  6536  0E9C  07F3               	addwf	___fladd@b+3,f
  6537  0E9D                     u2143:
  6538  0E9D                     l2445:
  6539  0E9D  1C73               	btfss	___fladd@b+3,0
  6540  0E9E  2EA0               	goto	u2151
  6541  0E9F  2EA1               	goto	u2150
  6542  0EA0                     u2151:
  6543  0EA0  2F7F               	goto	l2495
  6544  0EA1                     u2150:
  6545  0EA1                     l2447:
  6546  0EA1  1C7B               	btfss	___fladd@grs,0
  6547  0EA2  2EA4               	goto	u2161
  6548  0EA3  2EA5               	goto	u2160
  6549  0EA4                     u2161:
  6550  0EA4  2EB0               	goto	l2451
  6551  0EA5                     u2160:
  6552  0EA5                     l2449:
  6553  0EA5  087B               	movf	___fladd@grs,w
  6554  0EA6  1283               	bcf	3,5	;RP0=0, select bank0
  6555  0EA7  1303               	bcf	3,6	;RP1=0, select bank0
  6556  0EA8  00A0               	movwf	??___fladd
  6557  0EA9  1003               	clrc
  6558  0EAA  0C20               	rrf	??___fladd,w
  6559  0EAB  3801               	iorlw	1
  6560  0EAC  00A1               	movwf	??___fladd+1
  6561  0EAD  0821               	movf	??___fladd+1,w
  6562  0EAE  00FB               	movwf	___fladd@grs
  6563  0EAF  2EB2               	goto	l2453
  6564  0EB0                     l2451:
  6565  0EB0  1003               	clrc
  6566  0EB1  0CFB               	rrf	___fladd@grs,f
  6567  0EB2                     l2453:
  6568  0EB2  1C70               	btfss	___fladd@b,0
  6569  0EB3  2EB5               	goto	u2171
  6570  0EB4  2EB6               	goto	u2170
  6571  0EB5                     u2171:
  6572  0EB5  2EB7               	goto	l2457
  6573  0EB6                     u2170:
  6574  0EB6                     l2455:
  6575  0EB6  17FB               	bsf	___fladd@grs,7
  6576  0EB7                     l2457:
  6577  0EB7  3001               	movlw	1
  6578  0EB8  1283               	bcf	3,5	;RP0=0, select bank0
  6579  0EB9  1303               	bcf	3,6	;RP1=0, select bank0
  6580  0EBA  00A0               	movwf	??___fladd
  6581  0EBB                     u2185:
  6582  0EBB  0D73               	rlf	___fladd@b+3,w
  6583  0EBC  0CF3               	rrf	___fladd@b+3,f
  6584  0EBD  0CF2               	rrf	___fladd@b+2,f
  6585  0EBE  0CF1               	rrf	___fladd@b+1,f
  6586  0EBF  0CF0               	rrf	___fladd@b,f
  6587  0EC0  0BA0               	decfsz	??___fladd& (0+127),f
  6588  0EC1  2EBB               	goto	u2185
  6589  0EC2                     l2459:
  6590  0EC2  3001               	movlw	1
  6591  0EC3  00A0               	movwf	??___fladd
  6592  0EC4  0820               	movf	??___fladd,w
  6593  0EC5  07FA               	addwf	___fladd@bexp,f
  6594  0EC6  2F7F               	goto	l2495
  6595  0EC7                     l2461:
  6596  0EC7  0873               	movf	___fladd@b+3,w
  6597  0EC8  3A80               	xorlw	128
  6598  0EC9  00FF               	movwf	btemp+1
  6599  0ECA  0877               	movf	___fladd@a+3,w
  6600  0ECB  3A80               	xorlw	128
  6601  0ECC  027F               	subwf	btemp+1,w
  6602  0ECD  1D03               	skipz
  6603  0ECE  2ED9               	goto	u2193
  6604  0ECF  0876               	movf	___fladd@a+2,w
  6605  0ED0  0272               	subwf	___fladd@b+2,w
  6606  0ED1  1D03               	skipz
  6607  0ED2  2ED9               	goto	u2193
  6608  0ED3  0875               	movf	___fladd@a+1,w
  6609  0ED4  0271               	subwf	___fladd@b+1,w
  6610  0ED5  1D03               	skipz
  6611  0ED6  2ED9               	goto	u2193
  6612  0ED7  0874               	movf	___fladd@a,w
  6613  0ED8  0270               	subwf	___fladd@b,w
  6614  0ED9                     u2193:
  6615  0ED9  1803               	skipnc
  6616  0EDA  2EDC               	goto	u2191
  6617  0EDB  2EDD               	goto	u2190
  6618  0EDC                     u2191:
  6619  0EDC  2F37               	goto	l2471
  6620  0EDD                     u2190:
  6621  0EDD                     l2463:
  6622  0EDD  30FF               	movlw	255
  6623  0EDE  1283               	bcf	3,5	;RP0=0, select bank0
  6624  0EDF  1303               	bcf	3,6	;RP1=0, select bank0
  6625  0EE0  00A0               	movwf	??___fladd
  6626  0EE1  30FF               	movlw	255
  6627  0EE2  00A1               	movwf	??___fladd+1
  6628  0EE3  30FF               	movlw	255
  6629  0EE4  00A2               	movwf	??___fladd+2
  6630  0EE5  30FF               	movlw	255
  6631  0EE6  00A3               	movwf	??___fladd+3
  6632  0EE7  0874               	movf	___fladd@a,w
  6633  0EE8  00A4               	movwf	??___fladd+4
  6634  0EE9  0875               	movf	___fladd@a+1,w
  6635  0EEA  00A5               	movwf	??___fladd+5
  6636  0EEB  0876               	movf	___fladd@a+2,w
  6637  0EEC  00A6               	movwf	??___fladd+6
  6638  0EED  0877               	movf	___fladd@a+3,w
  6639  0EEE  00A7               	movwf	??___fladd+7
  6640  0EEF  0870               	movf	___fladd@b,w
  6641  0EF0  02A4               	subwf	??___fladd+4,f
  6642  0EF1  0871               	movf	___fladd@b+1,w
  6643  0EF2  1C03               	skipc
  6644  0EF3  0F71               	incfsz	___fladd@b+1,w
  6645  0EF4  2EF6               	goto	u2201
  6646  0EF5  2EF7               	goto	u2202
  6647  0EF6                     u2201:
  6648  0EF6  02A5               	subwf	??___fladd+5,f
  6649  0EF7                     u2202:
  6650  0EF7  0872               	movf	___fladd@b+2,w
  6651  0EF8  1C03               	skipc
  6652  0EF9  0F72               	incfsz	___fladd@b+2,w
  6653  0EFA  2EFC               	goto	u2203
  6654  0EFB  2EFD               	goto	u2204
  6655  0EFC                     u2203:
  6656  0EFC  02A6               	subwf	??___fladd+6,f
  6657  0EFD                     u2204:
  6658  0EFD  0873               	movf	___fladd@b+3,w
  6659  0EFE  1C03               	skipc
  6660  0EFF  0F73               	incfsz	___fladd@b+3,w
  6661  0F00  2F02               	goto	u2205
  6662  0F01  2F03               	goto	u2206
  6663  0F02                     u2205:
  6664  0F02  02A7               	subwf	??___fladd+7,f
  6665  0F03                     u2206:
  6666  0F03  0824               	movf	??___fladd+4,w
  6667  0F04  07A0               	addwf	??___fladd,f
  6668  0F05  0825               	movf	??___fladd+5,w
  6669  0F06  1803               	skipnc
  6670  0F07  0F25               	incfsz	??___fladd+5,w
  6671  0F08  2F0A               	goto	u2210
  6672  0F09  2F0B               	goto	u2211
  6673  0F0A                     u2210:
  6674  0F0A  07A1               	addwf	??___fladd+1,f
  6675  0F0B                     u2211:
  6676  0F0B  0826               	movf	??___fladd+6,w
  6677  0F0C  1803               	skipnc
  6678  0F0D  0F26               	incfsz	??___fladd+6,w
  6679  0F0E  2F10               	goto	u2212
  6680  0F0F  2F11               	goto	u2213
  6681  0F10                     u2212:
  6682  0F10  07A2               	addwf	??___fladd+2,f
  6683  0F11                     u2213:
  6684  0F11  0827               	movf	??___fladd+7,w
  6685  0F12  1803               	skipnc
  6686  0F13  0A27               	incf	??___fladd+7,w
  6687  0F14  07A3               	addwf	??___fladd+3,f
  6688  0F15  0823               	movf	??___fladd+3,w
  6689  0F16  00F3               	movwf	___fladd@b+3
  6690  0F17  0822               	movf	??___fladd+2,w
  6691  0F18  00F2               	movwf	___fladd@b+2
  6692  0F19  0821               	movf	??___fladd+1,w
  6693  0F1A  00F1               	movwf	___fladd@b+1
  6694  0F1B  0820               	movf	??___fladd,w
  6695  0F1C  00F0               	movwf	___fladd@b
  6696  0F1D                     l2465:
  6697  0F1D  3080               	movlw	128
  6698  0F1E  00A0               	movwf	??___fladd
  6699  0F1F  0820               	movf	??___fladd,w
  6700  0F20  06F8               	xorwf	___fladd@signs,f
  6701  0F21  09FB               	comf	___fladd@grs,f
  6702  0F22  0AFB               	incf	___fladd@grs,f
  6703  0F23                     l2467:
  6704  0F23  087B               	movf	___fladd@grs,w
  6705  0F24  1D03               	btfss	3,2
  6706  0F25  2F27               	goto	u2221
  6707  0F26  2F28               	goto	u2220
  6708  0F27                     u2221:
  6709  0F27  2F45               	goto	l789
  6710  0F28                     u2220:
  6711  0F28                     l2469:
  6712  0F28  3001               	movlw	1
  6713  0F29  07F0               	addwf	___fladd@b,f
  6714  0F2A  3000               	movlw	0
  6715  0F2B  1803               	skipnc
  6716  0F2C  3001               	movlw	1
  6717  0F2D  07F1               	addwf	___fladd@b+1,f
  6718  0F2E  3000               	movlw	0
  6719  0F2F  1803               	skipnc
  6720  0F30  3001               	movlw	1
  6721  0F31  07F2               	addwf	___fladd@b+2,f
  6722  0F32  3000               	movlw	0
  6723  0F33  1803               	skipnc
  6724  0F34  3001               	movlw	1
  6725  0F35  07F3               	addwf	___fladd@b+3,f
  6726  0F36  2F45               	goto	l789
  6727  0F37                     l2471:
  6728  0F37  0874               	movf	___fladd@a,w
  6729  0F38  02F0               	subwf	___fladd@b,f
  6730  0F39  0875               	movf	___fladd@a+1,w
  6731  0F3A  1C03               	skipc
  6732  0F3B  0F75               	incfsz	___fladd@a+1,w
  6733  0F3C  02F1               	subwf	___fladd@b+1,f
  6734  0F3D  0876               	movf	___fladd@a+2,w
  6735  0F3E  1C03               	skipc
  6736  0F3F  0F76               	incfsz	___fladd@a+2,w
  6737  0F40  02F2               	subwf	___fladd@b+2,f
  6738  0F41  0877               	movf	___fladd@a+3,w
  6739  0F42  1C03               	skipc
  6740  0F43  0F77               	incfsz	___fladd@a+3,w
  6741  0F44  02F3               	subwf	___fladd@b+3,f
  6742  0F45                     l789:
  6743  0F45  0873               	movf	___fladd@b+3,w
  6744  0F46  0472               	iorwf	___fladd@b+2,w
  6745  0F47  0471               	iorwf	___fladd@b+1,w
  6746  0F48  0470               	iorwf	___fladd@b,w
  6747  0F49  1D03               	skipz
  6748  0F4A  2F4C               	goto	u2231
  6749  0F4B  2F4D               	goto	u2230
  6750  0F4C                     u2231:
  6751  0F4C  2F7B               	goto	l2493
  6752  0F4D                     u2230:
  6753  0F4D                     l2473:
  6754  0F4D  087B               	movf	___fladd@grs,w
  6755  0F4E  1D03               	btfss	3,2
  6756  0F4F  2F51               	goto	u2241
  6757  0F50  2F52               	goto	u2240
  6758  0F51                     u2241:
  6759  0F51  2F7B               	goto	l2493
  6760  0F52                     u2240:
  6761  0F52                     l2475:
  6762  0F52  3000               	movlw	0
  6763  0F53  00F3               	movwf	?___fladd+3
  6764  0F54  3000               	movlw	0
  6765  0F55  00F2               	movwf	?___fladd+2
  6766  0F56  3000               	movlw	0
  6767  0F57  00F1               	movwf	?___fladd+1
  6768  0F58  3000               	movlw	0
  6769  0F59  00F0               	movwf	?___fladd
  6770  0F5A  2FFF               	goto	l781
  6771  0F5B                     l2479:
  6772  0F5B  3001               	movlw	1
  6773  0F5C  1283               	bcf	3,5	;RP0=0, select bank0
  6774  0F5D  1303               	bcf	3,6	;RP1=0, select bank0
  6775  0F5E  00A0               	movwf	??___fladd
  6776  0F5F                     u2255:
  6777  0F5F  1003               	clrc
  6778  0F60  0DF0               	rlf	___fladd@b,f
  6779  0F61  0DF1               	rlf	___fladd@b+1,f
  6780  0F62  0DF2               	rlf	___fladd@b+2,f
  6781  0F63  0DF3               	rlf	___fladd@b+3,f
  6782  0F64  0BA0               	decfsz	??___fladd,f
  6783  0F65  2F5F               	goto	u2255
  6784  0F66                     l2481:
  6785  0F66  1FFB               	btfss	___fladd@grs,7
  6786  0F67  2F69               	goto	u2261
  6787  0F68  2F6A               	goto	u2260
  6788  0F69                     u2261:
  6789  0F69  2F6B               	goto	l793
  6790  0F6A                     u2260:
  6791  0F6A                     l2483:
  6792  0F6A  1470               	bsf	___fladd@b,0
  6793  0F6B                     l793:
  6794  0F6B  1C7B               	btfss	___fladd@grs,0
  6795  0F6C  2F6E               	goto	u2271
  6796  0F6D  2F6F               	goto	u2270
  6797  0F6E                     u2271:
  6798  0F6E  2F72               	goto	l2487
  6799  0F6F                     u2270:
  6800  0F6F                     l2485:
  6801  0F6F  1403               	setc
  6802  0F70  0DFB               	rlf	___fladd@grs,f
  6803  0F71  2F74               	goto	l2489
  6804  0F72                     l2487:
  6805  0F72  1003               	clrc
  6806  0F73  0DFB               	rlf	___fladd@grs,f
  6807  0F74                     l2489:
  6808  0F74  087A               	movf	___fladd@bexp,w
  6809  0F75  1903               	btfsc	3,2
  6810  0F76  2F78               	goto	u2281
  6811  0F77  2F79               	goto	u2280
  6812  0F78                     u2281:
  6813  0F78  2F7B               	goto	l2493
  6814  0F79                     u2280:
  6815  0F79                     l2491:
  6816  0F79  3001               	movlw	1
  6817  0F7A  02FA               	subwf	___fladd@bexp,f
  6818  0F7B                     l2493:
  6819  0F7B  1FF2               	btfss	___fladd@b+2,7
  6820  0F7C  2F7E               	goto	u2291
  6821  0F7D  2F7F               	goto	u2290
  6822  0F7E                     u2291:
  6823  0F7E  2F5B               	goto	l2479
  6824  0F7F                     u2290:
  6825  0F7F                     l2495:
  6826  0F7F  01F9               	clrf	___fladd@aexp
  6827  0F80                     l2497:
  6828  0F80  1FFB               	btfss	___fladd@grs,7
  6829  0F81  2F83               	goto	u2301
  6830  0F82  2F84               	goto	u2300
  6831  0F83                     u2301:
  6832  0F83  2F92               	goto	l2505
  6833  0F84                     u2300:
  6834  0F84                     l2499:
  6835  0F84  087B               	movf	___fladd@grs,w
  6836  0F85  397F               	andlw	127
  6837  0F86  1903               	btfsc	3,2
  6838  0F87  2F89               	goto	u2311
  6839  0F88  2F8A               	goto	u2310
  6840  0F89                     u2311:
  6841  0F89  2F8D               	goto	l799
  6842  0F8A                     u2310:
  6843  0F8A                     l2501:
  6844  0F8A  01F9               	clrf	___fladd@aexp
  6845  0F8B  0AF9               	incf	___fladd@aexp,f
  6846  0F8C  2F92               	goto	l2505
  6847  0F8D                     l799:
  6848  0F8D  1C70               	btfss	___fladd@b,0
  6849  0F8E  2F90               	goto	u2321
  6850  0F8F  2F91               	goto	u2320
  6851  0F90                     u2321:
  6852  0F90  2F92               	goto	l2505
  6853  0F91                     u2320:
  6854  0F91  2F8A               	goto	l2501
  6855  0F92                     l2505:
  6856  0F92  0879               	movf	___fladd@aexp,w
  6857  0F93  1903               	btfsc	3,2
  6858  0F94  2F96               	goto	u2331
  6859  0F95  2F97               	goto	u2330
  6860  0F96                     u2331:
  6861  0F96  2FCD               	goto	l802
  6862  0F97                     u2330:
  6863  0F97                     l2507:
  6864  0F97  3001               	movlw	1
  6865  0F98  07F0               	addwf	___fladd@b,f
  6866  0F99  3000               	movlw	0
  6867  0F9A  1803               	skipnc
  6868  0F9B  3001               	movlw	1
  6869  0F9C  07F1               	addwf	___fladd@b+1,f
  6870  0F9D  3000               	movlw	0
  6871  0F9E  1803               	skipnc
  6872  0F9F  3001               	movlw	1
  6873  0FA0  07F2               	addwf	___fladd@b+2,f
  6874  0FA1  3000               	movlw	0
  6875  0FA2  1803               	skipnc
  6876  0FA3  3001               	movlw	1
  6877  0FA4  07F3               	addwf	___fladd@b+3,f
  6878  0FA5                     l2509:
  6879  0FA5  1C73               	btfss	___fladd@b+3,0
  6880  0FA6  2FA8               	goto	u2341
  6881  0FA7  2FA9               	goto	u2340
  6882  0FA8                     u2341:
  6883  0FA8  2FCD               	goto	l802
  6884  0FA9                     u2340:
  6885  0FA9                     l2511:
  6886  0FA9  0870               	movf	___fladd@b,w
  6887  0FAA  1283               	bcf	3,5	;RP0=0, select bank0
  6888  0FAB  1303               	bcf	3,6	;RP1=0, select bank0
  6889  0FAC  00A0               	movwf	??___fladd
  6890  0FAD  0871               	movf	___fladd@b+1,w
  6891  0FAE  00A1               	movwf	??___fladd+1
  6892  0FAF  0872               	movf	___fladd@b+2,w
  6893  0FB0  00A2               	movwf	??___fladd+2
  6894  0FB1  0873               	movf	___fladd@b+3,w
  6895  0FB2  00A3               	movwf	??___fladd+3
  6896  0FB3  3001               	movlw	1
  6897  0FB4  00A4               	movwf	??___fladd+4
  6898  0FB5                     u2355:
  6899  0FB5  0D23               	rlf	??___fladd+3,w
  6900  0FB6  0CA3               	rrf	??___fladd+3,f
  6901  0FB7  0CA2               	rrf	??___fladd+2,f
  6902  0FB8  0CA1               	rrf	??___fladd+1,f
  6903  0FB9  0CA0               	rrf	??___fladd,f
  6904  0FBA                     u2350:
  6905  0FBA  0BA4               	decfsz	??___fladd+4,f
  6906  0FBB  2FB5               	goto	u2355
  6907  0FBC  0823               	movf	??___fladd+3,w
  6908  0FBD  00F3               	movwf	___fladd@b+3
  6909  0FBE  0822               	movf	??___fladd+2,w
  6910  0FBF  00F2               	movwf	___fladd@b+2
  6911  0FC0  0821               	movf	??___fladd+1,w
  6912  0FC1  00F1               	movwf	___fladd@b+1
  6913  0FC2  0820               	movf	??___fladd,w
  6914  0FC3  00F0               	movwf	___fladd@b
  6915  0FC4  0A7A               	incf	___fladd@bexp,w
  6916  0FC5  1903               	btfsc	3,2
  6917  0FC6  2FC8               	goto	u2361
  6918  0FC7  2FC9               	goto	u2360
  6919  0FC8                     u2361:
  6920  0FC8  2FCD               	goto	l802
  6921  0FC9                     u2360:
  6922  0FC9                     l2513:
  6923  0FC9  3001               	movlw	1
  6924  0FCA  00A0               	movwf	??___fladd
  6925  0FCB  0820               	movf	??___fladd,w
  6926  0FCC  07FA               	addwf	___fladd@bexp,f
  6927  0FCD                     l802:
  6928  0FCD  0A7A               	incf	___fladd@bexp,w
  6929  0FCE  1903               	btfsc	3,2
  6930  0FCF  2FD1               	goto	u2371
  6931  0FD0  2FD2               	goto	u2370
  6932  0FD1                     u2371:
  6933  0FD1  2FD7               	goto	l2517
  6934  0FD2                     u2370:
  6935  0FD2                     l2515:
  6936  0FD2  087A               	movf	___fladd@bexp,w
  6937  0FD3  1D03               	btfss	3,2
  6938  0FD4  2FD6               	goto	u2381
  6939  0FD5  2FD7               	goto	u2380
  6940  0FD6                     u2381:
  6941  0FD6  2FE5               	goto	l2523
  6942  0FD7                     u2380:
  6943  0FD7                     l2517:
  6944  0FD7  3000               	movlw	0
  6945  0FD8  00F3               	movwf	___fladd@b+3
  6946  0FD9  3000               	movlw	0
  6947  0FDA  00F2               	movwf	___fladd@b+2
  6948  0FDB  3000               	movlw	0
  6949  0FDC  00F1               	movwf	___fladd@b+1
  6950  0FDD  3000               	movlw	0
  6951  0FDE  00F0               	movwf	___fladd@b
  6952  0FDF                     l2519:
  6953  0FDF  087A               	movf	___fladd@bexp,w
  6954  0FE0  1D03               	btfss	3,2
  6955  0FE1  2FE3               	goto	u2391
  6956  0FE2  2FE4               	goto	u2390
  6957  0FE3                     u2391:
  6958  0FE3  2FE5               	goto	l2523
  6959  0FE4                     u2390:
  6960  0FE4                     l2521:
  6961  0FE4  01F8               	clrf	___fladd@signs
  6962  0FE5                     l2523:
  6963  0FE5  1C7A               	btfss	___fladd@bexp,0
  6964  0FE6  2FE8               	goto	u2401
  6965  0FE7  2FE9               	goto	u2400
  6966  0FE8                     u2401:
  6967  0FE8  2FEB               	goto	l2527
  6968  0FE9                     u2400:
  6969  0FE9                     l2525:
  6970  0FE9  17F2               	bsf	___fladd@b+2,7
  6971  0FEA  2FF1               	goto	l810
  6972  0FEB                     l2527:
  6973  0FEB  307F               	movlw	127
  6974  0FEC  1283               	bcf	3,5	;RP0=0, select bank0
  6975  0FED  1303               	bcf	3,6	;RP1=0, select bank0
  6976  0FEE  00A0               	movwf	??___fladd
  6977  0FEF  0820               	movf	??___fladd,w
  6978  0FF0  05F2               	andwf	___fladd@b+2,f
  6979  0FF1                     l810:
  6980  0FF1  087A               	movf	___fladd@bexp,w
  6981  0FF2  1283               	bcf	3,5	;RP0=0, select bank0
  6982  0FF3  1303               	bcf	3,6	;RP1=0, select bank0
  6983  0FF4  00A0               	movwf	??___fladd
  6984  0FF5  1003               	clrc
  6985  0FF6  0C20               	rrf	??___fladd,w
  6986  0FF7  00A1               	movwf	??___fladd+1
  6987  0FF8  0821               	movf	??___fladd+1,w
  6988  0FF9  00F3               	movwf	___fladd@b+3
  6989  0FFA                     l2529:
  6990  0FFA  1FF8               	btfss	___fladd@signs,7
  6991  0FFB  2FFD               	goto	u2411
  6992  0FFC  2FFE               	goto	u2410
  6993  0FFD                     u2411:
  6994  0FFD  2FFF               	goto	l811
  6995  0FFE                     u2410:
  6996  0FFE                     l2531:
  6997  0FFE  17F3               	bsf	___fladd@b+3,7
  6998  0FFF                     l811:
  6999  0FFF                     l781:
  7000  0FFF  0008               	return
  7001  1000                     __end_of___fladd:
  7002                           
  7003                           	psect	text21
  7004  045D                     __ptext21:	
  7005 ;; *************** function ___flmul *****************
  7006 ;; Defined at:
  7007 ;;		line 8 in file "C:\Program Files\Microchip\xc8\v2.32\pic\sources\c90\common\sprcmul.c"
  7008 ;; Parameters:    Size  Location     Type
  7009 ;;  b               4    0[BANK0 ] unsigned char 
  7010 ;;  a               4    4[BANK0 ] unsigned char 
  7011 ;; Auto vars:     Size  Location     Type
  7012 ;;  prod            4   15[BANK0 ] struct .
  7013 ;;  grs             4    9[BANK0 ] unsigned long 
  7014 ;;  temp            2   19[BANK0 ] struct .
  7015 ;;  bexp            1   14[BANK0 ] unsigned char 
  7016 ;;  aexp            1   13[BANK0 ] unsigned char 
  7017 ;;  sign            1    8[BANK0 ] unsigned char 
  7018 ;; Return value:  Size  Location     Type
  7019 ;;                  4    0[BANK0 ] unsigned char 
  7020 ;; Registers used:
  7021 ;;		wreg, status,2, status,0, btemp+1, pclath, cstack
  7022 ;; Tracked objects:
  7023 ;;		On entry : 0/0
  7024 ;;		On exit  : 0/0
  7025 ;;		Unchanged: 0/0
  7026 ;; Data sizes:     COMMON   BANK0   BANK1   BANK3   BANK2
  7027 ;;      Params:         0       8       0       0       0
  7028 ;;      Locals:         0      13       0       0       0
  7029 ;;      Temps:          5       0       0       0       0
  7030 ;;      Totals:         5      21       0       0       0
  7031 ;;Total ram usage:       26 bytes
  7032 ;; Hardware stack levels used: 1
  7033 ;; Hardware stack levels required when called: 1
  7034 ;; This function calls:
  7035 ;;		__Umul8_16
  7036 ;; This function is called by:
  7037 ;;		_liga_buzzer
  7038 ;; This function uses a non-reentrant model
  7039 ;;
  7040                           
  7041                           
  7042                           ;psect for function ___flmul
  7043  045D                     ___flmul:
  7044  045D                     l2585:	
  7045                           ;incstack = 0
  7046                           ; Regs used in ___flmul: [wreg+status,2+status,0+btemp+1+pclath+cstack]
  7047                           
  7048  045D  1283               	bcf	3,5	;RP0=0, select bank0
  7049  045E  1303               	bcf	3,6	;RP1=0, select bank0
  7050  045F  0823               	movf	___flmul@b+3,w
  7051  0460  3980               	andlw	128
  7052  0461  00F9               	movwf	??___flmul
  7053  0462  0879               	movf	??___flmul,w
  7054  0463  00A8               	movwf	___flmul@sign
  7055  0464                     l2587:
  7056  0464  0823               	movf	___flmul@b+3,w
  7057  0465  00F9               	movwf	??___flmul
  7058  0466  0779               	addwf	??___flmul,w
  7059  0467  00FA               	movwf	??___flmul+1
  7060  0468  087A               	movf	??___flmul+1,w
  7061  0469  00AE               	movwf	___flmul@bexp
  7062  046A                     l2589:
  7063  046A  1FA2               	btfss	___flmul@b+2,7
  7064  046B  2C6D               	goto	u2521
  7065  046C  2C6E               	goto	u2520
  7066  046D                     u2521:
  7067  046D  2C6F               	goto	l2593
  7068  046E                     u2520:
  7069  046E                     l2591:
  7070  046E  142E               	bsf	___flmul@bexp,0
  7071  046F                     l2593:
  7072  046F  082E               	movf	___flmul@bexp,w
  7073  0470  1903               	btfsc	3,2
  7074  0471  2C73               	goto	u2531
  7075  0472  2C74               	goto	u2530
  7076  0473                     u2531:
  7077  0473  2C83               	goto	l2601
  7078  0474                     u2530:
  7079  0474                     l2595:
  7080  0474  0A2E               	incf	___flmul@bexp,w
  7081  0475  1D03               	btfss	3,2
  7082  0476  2C78               	goto	u2541
  7083  0477  2C79               	goto	u2540
  7084  0478                     u2541:
  7085  0478  2C81               	goto	l2599
  7086  0479                     u2540:
  7087  0479                     l2597:
  7088  0479  3000               	movlw	0
  7089  047A  00A3               	movwf	___flmul@b+3
  7090  047B  3000               	movlw	0
  7091  047C  00A2               	movwf	___flmul@b+2
  7092  047D  3000               	movlw	0
  7093  047E  00A1               	movwf	___flmul@b+1
  7094  047F  3000               	movlw	0
  7095  0480  00A0               	movwf	___flmul@b
  7096  0481                     l2599:
  7097  0481  17A2               	bsf	___flmul@b+2,7
  7098  0482  2C8B               	goto	l2603
  7099  0483                     l2601:
  7100  0483  3000               	movlw	0
  7101  0484  00A3               	movwf	___flmul@b+3
  7102  0485  3000               	movlw	0
  7103  0486  00A2               	movwf	___flmul@b+2
  7104  0487  3000               	movlw	0
  7105  0488  00A1               	movwf	___flmul@b+1
  7106  0489  3000               	movlw	0
  7107  048A  00A0               	movwf	___flmul@b
  7108  048B                     l2603:
  7109  048B  0827               	movf	___flmul@a+3,w
  7110  048C  3980               	andlw	128
  7111  048D  00F9               	movwf	??___flmul
  7112  048E  0879               	movf	??___flmul,w
  7113  048F  06A8               	xorwf	___flmul@sign,f
  7114  0490                     l2605:
  7115  0490  0827               	movf	___flmul@a+3,w
  7116  0491  00F9               	movwf	??___flmul
  7117  0492  0779               	addwf	??___flmul,w
  7118  0493  00FA               	movwf	??___flmul+1
  7119  0494  087A               	movf	??___flmul+1,w
  7120  0495  00AD               	movwf	___flmul@aexp
  7121  0496                     l2607:
  7122  0496  1FA6               	btfss	___flmul@a+2,7
  7123  0497  2C99               	goto	u2551
  7124  0498  2C9A               	goto	u2550
  7125  0499                     u2551:
  7126  0499  2C9B               	goto	l2611
  7127  049A                     u2550:
  7128  049A                     l2609:
  7129  049A  142D               	bsf	___flmul@aexp,0
  7130  049B                     l2611:
  7131  049B  082D               	movf	___flmul@aexp,w
  7132  049C  1903               	btfsc	3,2
  7133  049D  2C9F               	goto	u2561
  7134  049E  2CA0               	goto	u2560
  7135  049F                     u2561:
  7136  049F  2CAF               	goto	l2619
  7137  04A0                     u2560:
  7138  04A0                     l2613:
  7139  04A0  0A2D               	incf	___flmul@aexp,w
  7140  04A1  1D03               	btfss	3,2
  7141  04A2  2CA4               	goto	u2571
  7142  04A3  2CA5               	goto	u2570
  7143  04A4                     u2571:
  7144  04A4  2CAD               	goto	l2617
  7145  04A5                     u2570:
  7146  04A5                     l2615:
  7147  04A5  3000               	movlw	0
  7148  04A6  00A7               	movwf	___flmul@a+3
  7149  04A7  3000               	movlw	0
  7150  04A8  00A6               	movwf	___flmul@a+2
  7151  04A9  3000               	movlw	0
  7152  04AA  00A5               	movwf	___flmul@a+1
  7153  04AB  3000               	movlw	0
  7154  04AC  00A4               	movwf	___flmul@a
  7155  04AD                     l2617:
  7156  04AD  17A6               	bsf	___flmul@a+2,7
  7157  04AE  2CB7               	goto	l2621
  7158  04AF                     l2619:
  7159  04AF  3000               	movlw	0
  7160  04B0  00A7               	movwf	___flmul@a+3
  7161  04B1  3000               	movlw	0
  7162  04B2  00A6               	movwf	___flmul@a+2
  7163  04B3  3000               	movlw	0
  7164  04B4  00A5               	movwf	___flmul@a+1
  7165  04B5  3000               	movlw	0
  7166  04B6  00A4               	movwf	___flmul@a
  7167  04B7                     l2621:
  7168  04B7  082D               	movf	___flmul@aexp,w
  7169  04B8  1903               	btfsc	3,2
  7170  04B9  2CBB               	goto	u2581
  7171  04BA  2CBC               	goto	u2580
  7172  04BB                     u2581:
  7173  04BB  2CC1               	goto	l2625
  7174  04BC                     u2580:
  7175  04BC                     l2623:
  7176  04BC  082E               	movf	___flmul@bexp,w
  7177  04BD  1D03               	btfss	3,2
  7178  04BE  2CC0               	goto	u2591
  7179  04BF  2CC1               	goto	u2590
  7180  04C0                     u2591:
  7181  04C0  2CCA               	goto	l2629
  7182  04C1                     u2590:
  7183  04C1                     l2625:
  7184  04C1  3000               	movlw	0
  7185  04C2  00A3               	movwf	?___flmul+3
  7186  04C3  3000               	movlw	0
  7187  04C4  00A2               	movwf	?___flmul+2
  7188  04C5  3000               	movlw	0
  7189  04C6  00A1               	movwf	?___flmul+1
  7190  04C7  3000               	movlw	0
  7191  04C8  00A0               	movwf	?___flmul
  7192  04C9  2FBD               	goto	l864
  7193  04CA                     l2629:
  7194  04CA  0820               	movf	___flmul@b,w
  7195  04CB  00F9               	movwf	??___flmul
  7196  04CC  0879               	movf	??___flmul,w
  7197  04CD  00F0               	movwf	__Umul8_16@multiplicand
  7198  04CE  0826               	movf	___flmul@a+2,w
  7199  04CF  160A  118A  2295  120A  118A  	fcall	__Umul8_16
  7200  04D4  0871               	movf	?__Umul8_16+1,w
  7201  04D5  1283               	bcf	3,5	;RP0=0, select bank0
  7202  04D6  1303               	bcf	3,6	;RP1=0, select bank0
  7203  04D7  00B4               	movwf	___flmul@temp+1
  7204  04D8  0870               	movf	?__Umul8_16,w
  7205  04D9  00B3               	movwf	___flmul@temp
  7206  04DA                     l2631:
  7207  04DA  0833               	movf	___flmul@temp,w
  7208  04DB  00F9               	movwf	??___flmul
  7209  04DC  01FA               	clrf	??___flmul+1
  7210  04DD  01FB               	clrf	??___flmul+2
  7211  04DE  01FC               	clrf	??___flmul+3
  7212  04DF  087C               	movf	??___flmul+3,w
  7213  04E0  00AC               	movwf	___flmul@grs+3
  7214  04E1  087B               	movf	??___flmul+2,w
  7215  04E2  00AB               	movwf	___flmul@grs+2
  7216  04E3  087A               	movf	??___flmul+1,w
  7217  04E4  00AA               	movwf	___flmul@grs+1
  7218  04E5  0879               	movf	??___flmul,w
  7219  04E6  00A9               	movwf	___flmul@grs
  7220  04E7                     l2633:
  7221  04E7  0834               	movf	___flmul@temp+1,w
  7222  04E8  00F9               	movwf	??___flmul
  7223  04E9  01FA               	clrf	??___flmul+1
  7224  04EA  01FB               	clrf	??___flmul+2
  7225  04EB  01FC               	clrf	??___flmul+3
  7226  04EC  087C               	movf	??___flmul+3,w
  7227  04ED  00B2               	movwf	___flmul@prod+3
  7228  04EE  087B               	movf	??___flmul+2,w
  7229  04EF  00B1               	movwf	___flmul@prod+2
  7230  04F0  087A               	movf	??___flmul+1,w
  7231  04F1  00B0               	movwf	___flmul@prod+1
  7232  04F2  0879               	movf	??___flmul,w
  7233  04F3  00AF               	movwf	___flmul@prod
  7234  04F4  0821               	movf	___flmul@b+1,w
  7235  04F5  00F9               	movwf	??___flmul
  7236  04F6  0879               	movf	??___flmul,w
  7237  04F7  00F0               	movwf	__Umul8_16@multiplicand
  7238  04F8  0825               	movf	___flmul@a+1,w
  7239  04F9  160A  118A  2295  120A  118A  	fcall	__Umul8_16
  7240  04FE  0871               	movf	?__Umul8_16+1,w
  7241  04FF  1283               	bcf	3,5	;RP0=0, select bank0
  7242  0500  1303               	bcf	3,6	;RP1=0, select bank0
  7243  0501  00B4               	movwf	___flmul@temp+1
  7244  0502  0870               	movf	?__Umul8_16,w
  7245  0503  00B3               	movwf	___flmul@temp
  7246  0504                     l2635:
  7247  0504  0833               	movf	___flmul@temp,w
  7248  0505  00F9               	movwf	??___flmul
  7249  0506  01FA               	clrf	??___flmul+1
  7250  0507  01FB               	clrf	??___flmul+2
  7251  0508  01FC               	clrf	??___flmul+3
  7252  0509  0879               	movf	??___flmul,w
  7253  050A  07A9               	addwf	___flmul@grs,f
  7254  050B  087A               	movf	??___flmul+1,w
  7255  050C  1103               	clrz
  7256  050D  1803               	skipnc
  7257  050E  3E01               	addlw	1
  7258  050F  1903               	skipnz
  7259  0510  2D12               	goto	u2601
  7260  0511  07AA               	addwf	___flmul@grs+1,f
  7261  0512                     u2601:
  7262  0512  087B               	movf	??___flmul+2,w
  7263  0513  1103               	clrz
  7264  0514  1803               	skipnc
  7265  0515  3E01               	addlw	1
  7266  0516  1903               	skipnz
  7267  0517  2D19               	goto	u2602
  7268  0518  07AB               	addwf	___flmul@grs+2,f
  7269  0519                     u2602:
  7270  0519  087C               	movf	??___flmul+3,w
  7271  051A  1103               	clrz
  7272  051B  1803               	skipnc
  7273  051C  3E01               	addlw	1
  7274  051D  1903               	skipnz
  7275  051E  2D20               	goto	u2603
  7276  051F  07AC               	addwf	___flmul@grs+3,f
  7277  0520                     u2603:
  7278  0520                     l2637:
  7279  0520  0834               	movf	___flmul@temp+1,w
  7280  0521  00F9               	movwf	??___flmul
  7281  0522  01FA               	clrf	??___flmul+1
  7282  0523  01FB               	clrf	??___flmul+2
  7283  0524  01FC               	clrf	??___flmul+3
  7284  0525  0879               	movf	??___flmul,w
  7285  0526  07AF               	addwf	___flmul@prod,f
  7286  0527  087A               	movf	??___flmul+1,w
  7287  0528  1103               	clrz
  7288  0529  1803               	skipnc
  7289  052A  3E01               	addlw	1
  7290  052B  1903               	skipnz
  7291  052C  2D2E               	goto	u2611
  7292  052D  07B0               	addwf	___flmul@prod+1,f
  7293  052E                     u2611:
  7294  052E  087B               	movf	??___flmul+2,w
  7295  052F  1103               	clrz
  7296  0530  1803               	skipnc
  7297  0531  3E01               	addlw	1
  7298  0532  1903               	skipnz
  7299  0533  2D35               	goto	u2612
  7300  0534  07B1               	addwf	___flmul@prod+2,f
  7301  0535                     u2612:
  7302  0535  087C               	movf	??___flmul+3,w
  7303  0536  1103               	clrz
  7304  0537  1803               	skipnc
  7305  0538  3E01               	addlw	1
  7306  0539  1903               	skipnz
  7307  053A  2D3C               	goto	u2613
  7308  053B  07B2               	addwf	___flmul@prod+3,f
  7309  053C                     u2613:
  7310  053C  0822               	movf	___flmul@b+2,w
  7311  053D  00F9               	movwf	??___flmul
  7312  053E  0879               	movf	??___flmul,w
  7313  053F  00F0               	movwf	__Umul8_16@multiplicand
  7314  0540  0824               	movf	___flmul@a,w
  7315  0541  160A  118A  2295  120A  118A  	fcall	__Umul8_16
  7316  0546  0871               	movf	?__Umul8_16+1,w
  7317  0547  1283               	bcf	3,5	;RP0=0, select bank0
  7318  0548  1303               	bcf	3,6	;RP1=0, select bank0
  7319  0549  00B4               	movwf	___flmul@temp+1
  7320  054A  0870               	movf	?__Umul8_16,w
  7321  054B  00B3               	movwf	___flmul@temp
  7322  054C                     l2639:
  7323  054C  0833               	movf	___flmul@temp,w
  7324  054D  00F9               	movwf	??___flmul
  7325  054E  01FA               	clrf	??___flmul+1
  7326  054F  01FB               	clrf	??___flmul+2
  7327  0550  01FC               	clrf	??___flmul+3
  7328  0551  0879               	movf	??___flmul,w
  7329  0552  07A9               	addwf	___flmul@grs,f
  7330  0553  087A               	movf	??___flmul+1,w
  7331  0554  1103               	clrz
  7332  0555  1803               	skipnc
  7333  0556  3E01               	addlw	1
  7334  0557  1903               	skipnz
  7335  0558  2D5A               	goto	u2621
  7336  0559  07AA               	addwf	___flmul@grs+1,f
  7337  055A                     u2621:
  7338  055A  087B               	movf	??___flmul+2,w
  7339  055B  1103               	clrz
  7340  055C  1803               	skipnc
  7341  055D  3E01               	addlw	1
  7342  055E  1903               	skipnz
  7343  055F  2D61               	goto	u2622
  7344  0560  07AB               	addwf	___flmul@grs+2,f
  7345  0561                     u2622:
  7346  0561  087C               	movf	??___flmul+3,w
  7347  0562  1103               	clrz
  7348  0563  1803               	skipnc
  7349  0564  3E01               	addlw	1
  7350  0565  1903               	skipnz
  7351  0566  2D68               	goto	u2623
  7352  0567  07AC               	addwf	___flmul@grs+3,f
  7353  0568                     u2623:
  7354  0568                     l2641:
  7355  0568  0834               	movf	___flmul@temp+1,w
  7356  0569  00F9               	movwf	??___flmul
  7357  056A  01FA               	clrf	??___flmul+1
  7358  056B  01FB               	clrf	??___flmul+2
  7359  056C  01FC               	clrf	??___flmul+3
  7360  056D  0879               	movf	??___flmul,w
  7361  056E  07AF               	addwf	___flmul@prod,f
  7362  056F  087A               	movf	??___flmul+1,w
  7363  0570  1103               	clrz
  7364  0571  1803               	skipnc
  7365  0572  3E01               	addlw	1
  7366  0573  1903               	skipnz
  7367  0574  2D76               	goto	u2631
  7368  0575  07B0               	addwf	___flmul@prod+1,f
  7369  0576                     u2631:
  7370  0576  087B               	movf	??___flmul+2,w
  7371  0577  1103               	clrz
  7372  0578  1803               	skipnc
  7373  0579  3E01               	addlw	1
  7374  057A  1903               	skipnz
  7375  057B  2D7D               	goto	u2632
  7376  057C  07B1               	addwf	___flmul@prod+2,f
  7377  057D                     u2632:
  7378  057D  087C               	movf	??___flmul+3,w
  7379  057E  1103               	clrz
  7380  057F  1803               	skipnc
  7381  0580  3E01               	addlw	1
  7382  0581  1903               	skipnz
  7383  0582  2D84               	goto	u2633
  7384  0583  07B2               	addwf	___flmul@prod+3,f
  7385  0584                     u2633:
  7386  0584                     l2643:
  7387  0584  3008               	movlw	8
  7388  0585  00F9               	movwf	??___flmul
  7389  0586                     u2645:
  7390  0586  1003               	clrc
  7391  0587  0DA9               	rlf	___flmul@grs,f
  7392  0588  0DAA               	rlf	___flmul@grs+1,f
  7393  0589  0DAB               	rlf	___flmul@grs+2,f
  7394  058A  0DAC               	rlf	___flmul@grs+3,f
  7395  058B  0BF9               	decfsz	??___flmul,f
  7396  058C  2D86               	goto	u2645
  7397  058D                     l2645:
  7398  058D  0821               	movf	___flmul@b+1,w
  7399  058E  00F9               	movwf	??___flmul
  7400  058F  0879               	movf	??___flmul,w
  7401  0590  00F0               	movwf	__Umul8_16@multiplicand
  7402  0591  0824               	movf	___flmul@a,w
  7403  0592  160A  118A  2295  120A  118A  	fcall	__Umul8_16
  7404  0597  0871               	movf	?__Umul8_16+1,w
  7405  0598  1283               	bcf	3,5	;RP0=0, select bank0
  7406  0599  1303               	bcf	3,6	;RP1=0, select bank0
  7407  059A  00B4               	movwf	___flmul@temp+1
  7408  059B  0870               	movf	?__Umul8_16,w
  7409  059C  00B3               	movwf	___flmul@temp
  7410  059D                     l2647:
  7411  059D  0833               	movf	___flmul@temp,w
  7412  059E  00F9               	movwf	??___flmul
  7413  059F  0834               	movf	___flmul@temp+1,w
  7414  05A0  00FA               	movwf	??___flmul+1
  7415  05A1  01FB               	clrf	??___flmul+2
  7416  05A2  01FC               	clrf	??___flmul+3
  7417  05A3  0879               	movf	??___flmul,w
  7418  05A4  07A9               	addwf	___flmul@grs,f
  7419  05A5  087A               	movf	??___flmul+1,w
  7420  05A6  1103               	clrz
  7421  05A7  1803               	skipnc
  7422  05A8  3E01               	addlw	1
  7423  05A9  1903               	skipnz
  7424  05AA  2DAC               	goto	u2651
  7425  05AB  07AA               	addwf	___flmul@grs+1,f
  7426  05AC                     u2651:
  7427  05AC  087B               	movf	??___flmul+2,w
  7428  05AD  1103               	clrz
  7429  05AE  1803               	skipnc
  7430  05AF  3E01               	addlw	1
  7431  05B0  1903               	skipnz
  7432  05B1  2DB3               	goto	u2652
  7433  05B2  07AB               	addwf	___flmul@grs+2,f
  7434  05B3                     u2652:
  7435  05B3  087C               	movf	??___flmul+3,w
  7436  05B4  1103               	clrz
  7437  05B5  1803               	skipnc
  7438  05B6  3E01               	addlw	1
  7439  05B7  1903               	skipnz
  7440  05B8  2DBA               	goto	u2653
  7441  05B9  07AC               	addwf	___flmul@grs+3,f
  7442  05BA                     u2653:
  7443  05BA                     l2649:
  7444  05BA  0820               	movf	___flmul@b,w
  7445  05BB  00F9               	movwf	??___flmul
  7446  05BC  0879               	movf	??___flmul,w
  7447  05BD  00F0               	movwf	__Umul8_16@multiplicand
  7448  05BE  0825               	movf	___flmul@a+1,w
  7449  05BF  160A  118A  2295  120A  118A  	fcall	__Umul8_16
  7450  05C4  0871               	movf	?__Umul8_16+1,w
  7451  05C5  1283               	bcf	3,5	;RP0=0, select bank0
  7452  05C6  1303               	bcf	3,6	;RP1=0, select bank0
  7453  05C7  00B4               	movwf	___flmul@temp+1
  7454  05C8  0870               	movf	?__Umul8_16,w
  7455  05C9  00B3               	movwf	___flmul@temp
  7456  05CA                     l2651:
  7457  05CA  0833               	movf	___flmul@temp,w
  7458  05CB  00F9               	movwf	??___flmul
  7459  05CC  0834               	movf	___flmul@temp+1,w
  7460  05CD  00FA               	movwf	??___flmul+1
  7461  05CE  01FB               	clrf	??___flmul+2
  7462  05CF  01FC               	clrf	??___flmul+3
  7463  05D0  0879               	movf	??___flmul,w
  7464  05D1  07A9               	addwf	___flmul@grs,f
  7465  05D2  087A               	movf	??___flmul+1,w
  7466  05D3  1103               	clrz
  7467  05D4  1803               	skipnc
  7468  05D5  3E01               	addlw	1
  7469  05D6  1903               	skipnz
  7470  05D7  2DD9               	goto	u2661
  7471  05D8  07AA               	addwf	___flmul@grs+1,f
  7472  05D9                     u2661:
  7473  05D9  087B               	movf	??___flmul+2,w
  7474  05DA  1103               	clrz
  7475  05DB  1803               	skipnc
  7476  05DC  3E01               	addlw	1
  7477  05DD  1903               	skipnz
  7478  05DE  2DE0               	goto	u2662
  7479  05DF  07AB               	addwf	___flmul@grs+2,f
  7480  05E0                     u2662:
  7481  05E0  087C               	movf	??___flmul+3,w
  7482  05E1  1103               	clrz
  7483  05E2  1803               	skipnc
  7484  05E3  3E01               	addlw	1
  7485  05E4  1903               	skipnz
  7486  05E5  2DE7               	goto	u2663
  7487  05E6  07AC               	addwf	___flmul@grs+3,f
  7488  05E7                     u2663:
  7489  05E7                     l2653:
  7490  05E7  3008               	movlw	8
  7491  05E8  00F9               	movwf	??___flmul
  7492  05E9                     u2675:
  7493  05E9  1003               	clrc
  7494  05EA  0DA9               	rlf	___flmul@grs,f
  7495  05EB  0DAA               	rlf	___flmul@grs+1,f
  7496  05EC  0DAB               	rlf	___flmul@grs+2,f
  7497  05ED  0DAC               	rlf	___flmul@grs+3,f
  7498  05EE  0BF9               	decfsz	??___flmul,f
  7499  05EF  2DE9               	goto	u2675
  7500  05F0  0820               	movf	___flmul@b,w
  7501  05F1  00F9               	movwf	??___flmul
  7502  05F2  0879               	movf	??___flmul,w
  7503  05F3  00F0               	movwf	__Umul8_16@multiplicand
  7504  05F4  0824               	movf	___flmul@a,w
  7505  05F5  160A  118A  2295  120A  118A  	fcall	__Umul8_16
  7506  05FA  0871               	movf	?__Umul8_16+1,w
  7507  05FB  1283               	bcf	3,5	;RP0=0, select bank0
  7508  05FC  1303               	bcf	3,6	;RP1=0, select bank0
  7509  05FD  00B4               	movwf	___flmul@temp+1
  7510  05FE  0870               	movf	?__Umul8_16,w
  7511  05FF  00B3               	movwf	___flmul@temp
  7512  0600                     l2655:
  7513  0600  0833               	movf	___flmul@temp,w
  7514  0601  00F9               	movwf	??___flmul
  7515  0602  0834               	movf	___flmul@temp+1,w
  7516  0603  00FA               	movwf	??___flmul+1
  7517  0604  01FB               	clrf	??___flmul+2
  7518  0605  01FC               	clrf	??___flmul+3
  7519  0606  0879               	movf	??___flmul,w
  7520  0607  07A9               	addwf	___flmul@grs,f
  7521  0608  087A               	movf	??___flmul+1,w
  7522  0609  1103               	clrz
  7523  060A  1803               	skipnc
  7524  060B  3E01               	addlw	1
  7525  060C  1903               	skipnz
  7526  060D  2E0F               	goto	u2681
  7527  060E  07AA               	addwf	___flmul@grs+1,f
  7528  060F                     u2681:
  7529  060F  087B               	movf	??___flmul+2,w
  7530  0610  1103               	clrz
  7531  0611  1803               	skipnc
  7532  0612  3E01               	addlw	1
  7533  0613  1903               	skipnz
  7534  0614  2E16               	goto	u2682
  7535  0615  07AB               	addwf	___flmul@grs+2,f
  7536  0616                     u2682:
  7537  0616  087C               	movf	??___flmul+3,w
  7538  0617  1103               	clrz
  7539  0618  1803               	skipnc
  7540  0619  3E01               	addlw	1
  7541  061A  1903               	skipnz
  7542  061B  2E1D               	goto	u2683
  7543  061C  07AC               	addwf	___flmul@grs+3,f
  7544  061D                     u2683:
  7545  061D                     l2657:
  7546  061D  0821               	movf	___flmul@b+1,w
  7547  061E  00F9               	movwf	??___flmul
  7548  061F  0879               	movf	??___flmul,w
  7549  0620  00F0               	movwf	__Umul8_16@multiplicand
  7550  0621  0826               	movf	___flmul@a+2,w
  7551  0622  160A  118A  2295  120A  118A  	fcall	__Umul8_16
  7552  0627  0871               	movf	?__Umul8_16+1,w
  7553  0628  1283               	bcf	3,5	;RP0=0, select bank0
  7554  0629  1303               	bcf	3,6	;RP1=0, select bank0
  7555  062A  00B4               	movwf	___flmul@temp+1
  7556  062B  0870               	movf	?__Umul8_16,w
  7557  062C  00B3               	movwf	___flmul@temp
  7558  062D  0833               	movf	___flmul@temp,w
  7559  062E  00F9               	movwf	??___flmul
  7560  062F  0834               	movf	___flmul@temp+1,w
  7561  0630  00FA               	movwf	??___flmul+1
  7562  0631  01FB               	clrf	??___flmul+2
  7563  0632  01FC               	clrf	??___flmul+3
  7564  0633  0879               	movf	??___flmul,w
  7565  0634  07AF               	addwf	___flmul@prod,f
  7566  0635  087A               	movf	??___flmul+1,w
  7567  0636  1103               	clrz
  7568  0637  1803               	skipnc
  7569  0638  3E01               	addlw	1
  7570  0639  1903               	skipnz
  7571  063A  2E3C               	goto	u2691
  7572  063B  07B0               	addwf	___flmul@prod+1,f
  7573  063C                     u2691:
  7574  063C  087B               	movf	??___flmul+2,w
  7575  063D  1103               	clrz
  7576  063E  1803               	skipnc
  7577  063F  3E01               	addlw	1
  7578  0640  1903               	skipnz
  7579  0641  2E43               	goto	u2692
  7580  0642  07B1               	addwf	___flmul@prod+2,f
  7581  0643                     u2692:
  7582  0643  087C               	movf	??___flmul+3,w
  7583  0644  1103               	clrz
  7584  0645  1803               	skipnc
  7585  0646  3E01               	addlw	1
  7586  0647  1903               	skipnz
  7587  0648  2E4A               	goto	u2693
  7588  0649  07B2               	addwf	___flmul@prod+3,f
  7589  064A                     u2693:
  7590  064A                     l2659:
  7591  064A  0822               	movf	___flmul@b+2,w
  7592  064B  00F9               	movwf	??___flmul
  7593  064C  0879               	movf	??___flmul,w
  7594  064D  00F0               	movwf	__Umul8_16@multiplicand
  7595  064E  0825               	movf	___flmul@a+1,w
  7596  064F  160A  118A  2295  120A  118A  	fcall	__Umul8_16
  7597  0654  0871               	movf	?__Umul8_16+1,w
  7598  0655  1283               	bcf	3,5	;RP0=0, select bank0
  7599  0656  1303               	bcf	3,6	;RP1=0, select bank0
  7600  0657  00B4               	movwf	___flmul@temp+1
  7601  0658  0870               	movf	?__Umul8_16,w
  7602  0659  00B3               	movwf	___flmul@temp
  7603  065A                     l2661:
  7604  065A  0833               	movf	___flmul@temp,w
  7605  065B  00F9               	movwf	??___flmul
  7606  065C  0834               	movf	___flmul@temp+1,w
  7607  065D  00FA               	movwf	??___flmul+1
  7608  065E  01FB               	clrf	??___flmul+2
  7609  065F  01FC               	clrf	??___flmul+3
  7610  0660  0879               	movf	??___flmul,w
  7611  0661  07AF               	addwf	___flmul@prod,f
  7612  0662  087A               	movf	??___flmul+1,w
  7613  0663  1103               	clrz
  7614  0664  1803               	skipnc
  7615  0665  3E01               	addlw	1
  7616  0666  1903               	skipnz
  7617  0667  2E69               	goto	u2701
  7618  0668  07B0               	addwf	___flmul@prod+1,f
  7619  0669                     u2701:
  7620  0669  087B               	movf	??___flmul+2,w
  7621  066A  1103               	clrz
  7622  066B  1803               	skipnc
  7623  066C  3E01               	addlw	1
  7624  066D  1903               	skipnz
  7625  066E  2E70               	goto	u2702
  7626  066F  07B1               	addwf	___flmul@prod+2,f
  7627  0670                     u2702:
  7628  0670  087C               	movf	??___flmul+3,w
  7629  0671  1103               	clrz
  7630  0672  1803               	skipnc
  7631  0673  3E01               	addlw	1
  7632  0674  1903               	skipnz
  7633  0675  2E77               	goto	u2703
  7634  0676  07B2               	addwf	___flmul@prod+3,f
  7635  0677                     u2703:
  7636  0677  0822               	movf	___flmul@b+2,w
  7637  0678  00F9               	movwf	??___flmul
  7638  0679  0879               	movf	??___flmul,w
  7639  067A  00F0               	movwf	__Umul8_16@multiplicand
  7640  067B  0826               	movf	___flmul@a+2,w
  7641  067C  160A  118A  2295  120A  118A  	fcall	__Umul8_16
  7642  0681  0871               	movf	?__Umul8_16+1,w
  7643  0682  1283               	bcf	3,5	;RP0=0, select bank0
  7644  0683  1303               	bcf	3,6	;RP1=0, select bank0
  7645  0684  00B4               	movwf	___flmul@temp+1
  7646  0685  0870               	movf	?__Umul8_16,w
  7647  0686  00B3               	movwf	___flmul@temp
  7648  0687                     l2663:
  7649  0687  0833               	movf	___flmul@temp,w
  7650  0688  00F9               	movwf	??___flmul
  7651  0689  0834               	movf	___flmul@temp+1,w
  7652  068A  00FA               	movwf	??___flmul+1
  7653  068B  01FB               	clrf	??___flmul+2
  7654  068C  01FC               	clrf	??___flmul+3
  7655  068D  3008               	movlw	8
  7656  068E                     u2715:
  7657  068E  1003               	clrc
  7658  068F  0DF9               	rlf	??___flmul,f
  7659  0690  0DFA               	rlf	??___flmul+1,f
  7660  0691  0DFB               	rlf	??___flmul+2,f
  7661  0692  0DFC               	rlf	??___flmul+3,f
  7662  0693                     u2710:
  7663  0693  3EFF               	addlw	-1
  7664  0694  1D03               	skipz
  7665  0695  2E8E               	goto	u2715
  7666  0696  0879               	movf	??___flmul,w
  7667  0697  07AF               	addwf	___flmul@prod,f
  7668  0698  087A               	movf	??___flmul+1,w
  7669  0699  1103               	clrz
  7670  069A  1803               	skipnc
  7671  069B  3E01               	addlw	1
  7672  069C  1903               	skipnz
  7673  069D  2E9F               	goto	u2721
  7674  069E  07B0               	addwf	___flmul@prod+1,f
  7675  069F                     u2721:
  7676  069F  087B               	movf	??___flmul+2,w
  7677  06A0  1103               	clrz
  7678  06A1  1803               	skipnc
  7679  06A2  3E01               	addlw	1
  7680  06A3  1903               	skipnz
  7681  06A4  2EA6               	goto	u2722
  7682  06A5  07B1               	addwf	___flmul@prod+2,f
  7683  06A6                     u2722:
  7684  06A6  087C               	movf	??___flmul+3,w
  7685  06A7  1103               	clrz
  7686  06A8  1803               	skipnc
  7687  06A9  3E01               	addlw	1
  7688  06AA  1903               	skipnz
  7689  06AB  2EAD               	goto	u2723
  7690  06AC  07B2               	addwf	___flmul@prod+3,f
  7691  06AD                     u2723:
  7692  06AD                     l2665:
  7693  06AD  0829               	movf	___flmul@grs,w
  7694  06AE  00F9               	movwf	??___flmul
  7695  06AF  082A               	movf	___flmul@grs+1,w
  7696  06B0  00FA               	movwf	??___flmul+1
  7697  06B1  082B               	movf	___flmul@grs+2,w
  7698  06B2  00FB               	movwf	??___flmul+2
  7699  06B3  082C               	movf	___flmul@grs+3,w
  7700  06B4  00FC               	movwf	??___flmul+3
  7701  06B5  3018               	movlw	24
  7702  06B6                     u2735:
  7703  06B6  1003               	clrc
  7704  06B7  0CFC               	rrf	??___flmul+3,f
  7705  06B8  0CFB               	rrf	??___flmul+2,f
  7706  06B9  0CFA               	rrf	??___flmul+1,f
  7707  06BA  0CF9               	rrf	??___flmul,f
  7708  06BB                     u2730:
  7709  06BB  3EFF               	addlw	-1
  7710  06BC  1D03               	skipz
  7711  06BD  2EB6               	goto	u2735
  7712  06BE  0879               	movf	??___flmul,w
  7713  06BF  07AF               	addwf	___flmul@prod,f
  7714  06C0  087A               	movf	??___flmul+1,w
  7715  06C1  1103               	clrz
  7716  06C2  1803               	skipnc
  7717  06C3  3E01               	addlw	1
  7718  06C4  1903               	skipnz
  7719  06C5  2EC7               	goto	u2741
  7720  06C6  07B0               	addwf	___flmul@prod+1,f
  7721  06C7                     u2741:
  7722  06C7  087B               	movf	??___flmul+2,w
  7723  06C8  1103               	clrz
  7724  06C9  1803               	skipnc
  7725  06CA  3E01               	addlw	1
  7726  06CB  1903               	skipnz
  7727  06CC  2ECE               	goto	u2742
  7728  06CD  07B1               	addwf	___flmul@prod+2,f
  7729  06CE                     u2742:
  7730  06CE  087C               	movf	??___flmul+3,w
  7731  06CF  1103               	clrz
  7732  06D0  1803               	skipnc
  7733  06D1  3E01               	addlw	1
  7734  06D2  1903               	skipnz
  7735  06D3  2ED5               	goto	u2743
  7736  06D4  07B2               	addwf	___flmul@prod+3,f
  7737  06D5                     u2743:
  7738  06D5                     l2667:
  7739  06D5  3008               	movlw	8
  7740  06D6  00F9               	movwf	??___flmul
  7741  06D7                     u2755:
  7742  06D7  1003               	clrc
  7743  06D8  0DA9               	rlf	___flmul@grs,f
  7744  06D9  0DAA               	rlf	___flmul@grs+1,f
  7745  06DA  0DAB               	rlf	___flmul@grs+2,f
  7746  06DB  0DAC               	rlf	___flmul@grs+3,f
  7747  06DC  0BF9               	decfsz	??___flmul,f
  7748  06DD  2ED7               	goto	u2755
  7749  06DE                     l2669:
  7750  06DE  082E               	movf	___flmul@bexp,w
  7751  06DF  072D               	addwf	___flmul@aexp,w
  7752  06E0  00F9               	movwf	??___flmul
  7753  06E1  01FA               	clrf	??___flmul+1
  7754  06E2  0DFA               	rlf	??___flmul+1,f
  7755  06E3  0879               	movf	??___flmul,w
  7756  06E4  3E82               	addlw	130
  7757  06E5  00B3               	movwf	___flmul@temp
  7758  06E6  087A               	movf	??___flmul+1,w
  7759  06E7  1803               	skipnc
  7760  06E8  3E01               	addlw	1
  7761  06E9  3EFF               	addlw	255
  7762  06EA  00B4               	movwf	___flmul@temp+1
  7763  06EB  2F09               	goto	l2681
  7764  06EC                     l2671:
  7765  06EC  3001               	movlw	1
  7766  06ED  00F9               	movwf	??___flmul
  7767  06EE                     u2765:
  7768  06EE  1003               	clrc
  7769  06EF  0DAF               	rlf	___flmul@prod,f
  7770  06F0  0DB0               	rlf	___flmul@prod+1,f
  7771  06F1  0DB1               	rlf	___flmul@prod+2,f
  7772  06F2  0DB2               	rlf	___flmul@prod+3,f
  7773  06F3  0BF9               	decfsz	??___flmul,f
  7774  06F4  2EEE               	goto	u2765
  7775  06F5                     l2673:
  7776  06F5  1FAC               	btfss	___flmul@grs+3,7
  7777  06F6  2EF8               	goto	u2771
  7778  06F7  2EF9               	goto	u2770
  7779  06F8                     u2771:
  7780  06F8  2EFA               	goto	l2677
  7781  06F9                     u2770:
  7782  06F9                     l2675:
  7783  06F9  142F               	bsf	___flmul@prod,0
  7784  06FA                     l2677:
  7785  06FA  3001               	movlw	1
  7786  06FB  00F9               	movwf	??___flmul
  7787  06FC                     u2785:
  7788  06FC  1003               	clrc
  7789  06FD  0DA9               	rlf	___flmul@grs,f
  7790  06FE  0DAA               	rlf	___flmul@grs+1,f
  7791  06FF  0DAB               	rlf	___flmul@grs+2,f
  7792  0700  0DAC               	rlf	___flmul@grs+3,f
  7793  0701  0BF9               	decfsz	??___flmul,f
  7794  0702  2EFC               	goto	u2785
  7795  0703                     l2679:
  7796  0703  30FF               	movlw	255
  7797  0704  07B3               	addwf	___flmul@temp,f
  7798  0705  1803               	skipnc
  7799  0706  0AB4               	incf	___flmul@temp+1,f
  7800  0707  30FF               	movlw	255
  7801  0708  07B4               	addwf	___flmul@temp+1,f
  7802  0709                     l2681:
  7803  0709  1FB1               	btfss	___flmul@prod+2,7
  7804  070A  2F0C               	goto	u2791
  7805  070B  2F0D               	goto	u2790
  7806  070C                     u2791:
  7807  070C  2EEC               	goto	l2671
  7808  070D                     u2790:
  7809  070D                     l2683:
  7810  070D  01AD               	clrf	___flmul@aexp
  7811  070E                     l2685:
  7812  070E  1FAC               	btfss	___flmul@grs+3,7
  7813  070F  2F11               	goto	u2801
  7814  0710  2F12               	goto	u2800
  7815  0711                     u2801:
  7816  0711  2F2E               	goto	l2693
  7817  0712                     u2800:
  7818  0712                     l2687:
  7819  0712  30FF               	movlw	255
  7820  0713  0529               	andwf	___flmul@grs,w
  7821  0714  00F9               	movwf	??___flmul
  7822  0715  30FF               	movlw	255
  7823  0716  052A               	andwf	___flmul@grs+1,w
  7824  0717  00FA               	movwf	??___flmul+1
  7825  0718  30FF               	movlw	255
  7826  0719  052B               	andwf	___flmul@grs+2,w
  7827  071A  00FB               	movwf	??___flmul+2
  7828  071B  307F               	movlw	127
  7829  071C  052C               	andwf	___flmul@grs+3,w
  7830  071D  00FC               	movwf	??___flmul+3
  7831  071E  087C               	movf	??___flmul+3,w
  7832  071F  047B               	iorwf	??___flmul+2,w
  7833  0720  047A               	iorwf	??___flmul+1,w
  7834  0721  0479               	iorwf	??___flmul,w
  7835  0722  1903               	skipnz
  7836  0723  2F25               	goto	u2811
  7837  0724  2F26               	goto	u2810
  7838  0725                     u2811:
  7839  0725  2F29               	goto	l870
  7840  0726                     u2810:
  7841  0726                     l2689:
  7842  0726  01AD               	clrf	___flmul@aexp
  7843  0727  0AAD               	incf	___flmul@aexp,f
  7844  0728  2F2E               	goto	l2693
  7845  0729                     l870:
  7846  0729  1C2F               	btfss	___flmul@prod,0
  7847  072A  2F2C               	goto	u2821
  7848  072B  2F2D               	goto	u2820
  7849  072C                     u2821:
  7850  072C  2F2E               	goto	l2693
  7851  072D                     u2820:
  7852  072D  2F26               	goto	l2689
  7853  072E                     l2693:
  7854  072E  082D               	movf	___flmul@aexp,w
  7855  072F  1903               	btfsc	3,2
  7856  0730  2F32               	goto	u2831
  7857  0731  2F33               	goto	u2830
  7858  0732                     u2831:
  7859  0732  2F64               	goto	l2703
  7860  0733                     u2830:
  7861  0733                     l2695:
  7862  0733  3001               	movlw	1
  7863  0734  07AF               	addwf	___flmul@prod,f
  7864  0735  3000               	movlw	0
  7865  0736  1803               	skipnc
  7866  0737  3001               	movlw	1
  7867  0738  07B0               	addwf	___flmul@prod+1,f
  7868  0739  3000               	movlw	0
  7869  073A  1803               	skipnc
  7870  073B  3001               	movlw	1
  7871  073C  07B1               	addwf	___flmul@prod+2,f
  7872  073D  3000               	movlw	0
  7873  073E  1803               	skipnc
  7874  073F  3001               	movlw	1
  7875  0740  07B2               	addwf	___flmul@prod+3,f
  7876  0741                     l2697:
  7877  0741  1C32               	btfss	___flmul@prod+3,0
  7878  0742  2F44               	goto	u2841
  7879  0743  2F45               	goto	u2840
  7880  0744                     u2841:
  7881  0744  2F64               	goto	l2703
  7882  0745                     u2840:
  7883  0745                     l2699:
  7884  0745  082F               	movf	___flmul@prod,w
  7885  0746  00F9               	movwf	??___flmul
  7886  0747  0830               	movf	___flmul@prod+1,w
  7887  0748  00FA               	movwf	??___flmul+1
  7888  0749  0831               	movf	___flmul@prod+2,w
  7889  074A  00FB               	movwf	??___flmul+2
  7890  074B  0832               	movf	___flmul@prod+3,w
  7891  074C  00FC               	movwf	??___flmul+3
  7892  074D  3001               	movlw	1
  7893  074E  00FD               	movwf	??___flmul+4
  7894  074F                     u2855:
  7895  074F  0D7C               	rlf	??___flmul+3,w
  7896  0750  0CFC               	rrf	??___flmul+3,f
  7897  0751  0CFB               	rrf	??___flmul+2,f
  7898  0752  0CFA               	rrf	??___flmul+1,f
  7899  0753  0CF9               	rrf	??___flmul,f
  7900  0754                     u2850:
  7901  0754  0BFD               	decfsz	??___flmul+4,f
  7902  0755  2F4F               	goto	u2855
  7903  0756  087C               	movf	??___flmul+3,w
  7904  0757  00B2               	movwf	___flmul@prod+3
  7905  0758  087B               	movf	??___flmul+2,w
  7906  0759  00B1               	movwf	___flmul@prod+2
  7907  075A  087A               	movf	??___flmul+1,w
  7908  075B  00B0               	movwf	___flmul@prod+1
  7909  075C  0879               	movf	??___flmul,w
  7910  075D  00AF               	movwf	___flmul@prod
  7911  075E                     l2701:
  7912  075E  3001               	movlw	1
  7913  075F  07B3               	addwf	___flmul@temp,f
  7914  0760  1803               	skipnc
  7915  0761  0AB4               	incf	___flmul@temp+1,f
  7916  0762  3000               	movlw	0
  7917  0763  07B4               	addwf	___flmul@temp+1,f
  7918  0764                     l2703:
  7919  0764  0834               	movf	___flmul@temp+1,w
  7920  0765  3A80               	xorlw	128
  7921  0766  00FF               	movwf	btemp+1
  7922  0767  3080               	movlw	128
  7923  0768  027F               	subwf	btemp+1,w
  7924  0769  1D03               	skipz
  7925  076A  2F6D               	goto	u2865
  7926  076B  30FF               	movlw	255
  7927  076C  0233               	subwf	___flmul@temp,w
  7928  076D                     u2865:
  7929  076D  1C03               	skipc
  7930  076E  2F70               	goto	u2861
  7931  076F  2F71               	goto	u2860
  7932  0770                     u2861:
  7933  0770  2F7C               	goto	l2707
  7934  0771                     u2860:
  7935  0771                     l2705:
  7936  0771  307F               	movlw	127
  7937  0772  1283               	bcf	3,5	;RP0=0, select bank0
  7938  0773  1303               	bcf	3,6	;RP1=0, select bank0
  7939  0774  00B2               	movwf	___flmul@prod+3
  7940  0775  3080               	movlw	128
  7941  0776  00B1               	movwf	___flmul@prod+2
  7942  0777  3000               	movlw	0
  7943  0778  00B0               	movwf	___flmul@prod+1
  7944  0779  3000               	movlw	0
  7945  077A  00AF               	movwf	___flmul@prod
  7946  077B  2FB1               	goto	l876
  7947  077C                     l2707:
  7948  077C  1283               	bcf	3,5	;RP0=0, select bank0
  7949  077D  1303               	bcf	3,6	;RP1=0, select bank0
  7950  077E  0834               	movf	___flmul@temp+1,w
  7951  077F  3A80               	xorlw	128
  7952  0780  00FF               	movwf	btemp+1
  7953  0781  3080               	movlw	128
  7954  0782  027F               	subwf	btemp+1,w
  7955  0783  1D03               	skipz
  7956  0784  2F87               	goto	u2875
  7957  0785  3001               	movlw	1
  7958  0786  0233               	subwf	___flmul@temp,w
  7959  0787                     u2875:
  7960  0787  1803               	skipnc
  7961  0788  2F8A               	goto	u2871
  7962  0789  2F8B               	goto	u2870
  7963  078A                     u2871:
  7964  078A  2F97               	goto	l2713
  7965  078B                     u2870:
  7966  078B                     l2709:
  7967  078B  3000               	movlw	0
  7968  078C  1283               	bcf	3,5	;RP0=0, select bank0
  7969  078D  1303               	bcf	3,6	;RP1=0, select bank0
  7970  078E  00B2               	movwf	___flmul@prod+3
  7971  078F  3000               	movlw	0
  7972  0790  00B1               	movwf	___flmul@prod+2
  7973  0791  3000               	movlw	0
  7974  0792  00B0               	movwf	___flmul@prod+1
  7975  0793  3000               	movlw	0
  7976  0794  00AF               	movwf	___flmul@prod
  7977  0795                     l2711:
  7978  0795  01A8               	clrf	___flmul@sign
  7979  0796  2FB1               	goto	l876
  7980  0797                     l2713:
  7981  0797  1283               	bcf	3,5	;RP0=0, select bank0
  7982  0798  1303               	bcf	3,6	;RP1=0, select bank0
  7983  0799  0833               	movf	___flmul@temp,w
  7984  079A  00F9               	movwf	??___flmul
  7985  079B  0879               	movf	??___flmul,w
  7986  079C  00AE               	movwf	___flmul@bexp
  7987  079D  30FF               	movlw	255
  7988  079E  05AF               	andwf	___flmul@prod,f
  7989  079F  30FF               	movlw	255
  7990  07A0  05B0               	andwf	___flmul@prod+1,f
  7991  07A1  307F               	movlw	127
  7992  07A2  05B1               	andwf	___flmul@prod+2,f
  7993  07A3  3000               	movlw	0
  7994  07A4  05B2               	andwf	___flmul@prod+3,f
  7995  07A5                     l2715:
  7996  07A5  1C2E               	btfss	___flmul@bexp,0
  7997  07A6  2FA8               	goto	u2881
  7998  07A7  2FA9               	goto	u2880
  7999  07A8                     u2881:
  8000  07A8  2FAA               	goto	l2719
  8001  07A9                     u2880:
  8002  07A9                     l2717:
  8003  07A9  17B1               	bsf	___flmul@prod+2,7
  8004  07AA                     l2719:
  8005  07AA  082E               	movf	___flmul@bexp,w
  8006  07AB  00F9               	movwf	??___flmul
  8007  07AC  1003               	clrc
  8008  07AD  0C79               	rrf	??___flmul,w
  8009  07AE  00FA               	movwf	??___flmul+1
  8010  07AF  087A               	movf	??___flmul+1,w
  8011  07B0  00B2               	movwf	___flmul@prod+3
  8012  07B1                     l876:
  8013  07B1  0828               	movf	___flmul@sign,w
  8014  07B2  00F9               	movwf	??___flmul
  8015  07B3  0879               	movf	??___flmul,w
  8016  07B4  04B2               	iorwf	___flmul@prod+3,f
  8017  07B5                     l2721:
  8018  07B5  0832               	movf	___flmul@prod+3,w
  8019  07B6  00A3               	movwf	?___flmul+3
  8020  07B7  0831               	movf	___flmul@prod+2,w
  8021  07B8  00A2               	movwf	?___flmul+2
  8022  07B9  0830               	movf	___flmul@prod+1,w
  8023  07BA  00A1               	movwf	?___flmul+1
  8024  07BB  082F               	movf	___flmul@prod,w
  8025  07BC  00A0               	movwf	?___flmul
  8026  07BD                     l864:
  8027  07BD  0008               	return
  8028  07BE                     __end_of___flmul:
  8029                           
  8030                           	psect	text22
  8031  1295                     __ptext22:	
  8032 ;; *************** function __Umul8_16 *****************
  8033 ;; Defined at:
  8034 ;;		line 4 in file "C:\Program Files\Microchip\xc8\v2.32\pic\sources\c90\common\Umul8_16.c"
  8035 ;; Parameters:    Size  Location     Type
  8036 ;;  multiplier      1    wreg     unsigned char 
  8037 ;;  multiplicand    1    0[COMMON] unsigned char 
  8038 ;; Auto vars:     Size  Location     Type
  8039 ;;  multiplier      1    8[COMMON] unsigned char 
  8040 ;;  word_mpld       2    6[COMMON] unsigned int 
  8041 ;;  product         2    4[COMMON] unsigned int 
  8042 ;; Return value:  Size  Location     Type
  8043 ;;                  2    0[COMMON] unsigned int 
  8044 ;; Registers used:
  8045 ;;		wreg, status,2, status,0
  8046 ;; Tracked objects:
  8047 ;;		On entry : 0/0
  8048 ;;		On exit  : 0/0
  8049 ;;		Unchanged: 0/0
  8050 ;; Data sizes:     COMMON   BANK0   BANK1   BANK3   BANK2
  8051 ;;      Params:         2       0       0       0       0
  8052 ;;      Locals:         5       0       0       0       0
  8053 ;;      Temps:          2       0       0       0       0
  8054 ;;      Totals:         9       0       0       0       0
  8055 ;;Total ram usage:        9 bytes
  8056 ;; Hardware stack levels used: 1
  8057 ;; This function calls:
  8058 ;;		Nothing
  8059 ;; This function is called by:
  8060 ;;		___flmul
  8061 ;; This function uses a non-reentrant model
  8062 ;;
  8063                           
  8064                           
  8065                           ;psect for function __Umul8_16
  8066  1295                     __Umul8_16:
  8067                           
  8068                           ;incstack = 0
  8069                           ; Regs used in __Umul8_16: [wreg+status,2+status,0]
  8070                           ;__Umul8_16@multiplier stored from wreg
  8071  1295  00F8               	movwf	__Umul8_16@multiplier
  8072  1296                     l2533:
  8073  1296  01F4               	clrf	__Umul8_16@product
  8074  1297  01F5               	clrf	__Umul8_16@product+1
  8075  1298                     l2535:
  8076  1298  0870               	movf	__Umul8_16@multiplicand,w
  8077  1299  00F2               	movwf	??__Umul8_16
  8078  129A  01F3               	clrf	??__Umul8_16+1
  8079  129B  0872               	movf	??__Umul8_16,w
  8080  129C  00F6               	movwf	__Umul8_16@word_mpld
  8081  129D  0873               	movf	??__Umul8_16+1,w
  8082  129E  00F7               	movwf	__Umul8_16@word_mpld+1
  8083  129F                     l2537:
  8084  129F  1C78               	btfss	__Umul8_16@multiplier,0
  8085  12A0  2AA2               	goto	u2421
  8086  12A1  2AA3               	goto	u2420
  8087  12A2                     u2421:
  8088  12A2  2AA9               	goto	l883
  8089  12A3                     u2420:
  8090  12A3                     l2539:
  8091  12A3  0876               	movf	__Umul8_16@word_mpld,w
  8092  12A4  07F4               	addwf	__Umul8_16@product,f
  8093  12A5  1803               	skipnc
  8094  12A6  0AF5               	incf	__Umul8_16@product+1,f
  8095  12A7  0877               	movf	__Umul8_16@word_mpld+1,w
  8096  12A8  07F5               	addwf	__Umul8_16@product+1,f
  8097  12A9                     l883:
  8098  12A9  3001               	movlw	1
  8099  12AA                     u2435:
  8100  12AA  1003               	clrc
  8101  12AB  0DF6               	rlf	__Umul8_16@word_mpld,f
  8102  12AC  0DF7               	rlf	__Umul8_16@word_mpld+1,f
  8103  12AD  3EFF               	addlw	-1
  8104  12AE  1D03               	skipz
  8105  12AF  2AAA               	goto	u2435
  8106  12B0  1003               	clrc
  8107  12B1  0CF8               	rrf	__Umul8_16@multiplier,f
  8108  12B2                     l2541:
  8109  12B2  0878               	movf	__Umul8_16@multiplier,w
  8110  12B3  1D03               	btfss	3,2
  8111  12B4  2AB6               	goto	u2441
  8112  12B5  2AB7               	goto	u2440
  8113  12B6                     u2441:
  8114  12B6  2A9F               	goto	l2537
  8115  12B7                     u2440:
  8116  12B7                     l2543:
  8117  12B7  0875               	movf	__Umul8_16@product+1,w
  8118  12B8  00F1               	movwf	?__Umul8_16+1
  8119  12B9  0874               	movf	__Umul8_16@product,w
  8120  12BA  00F0               	movwf	?__Umul8_16
  8121  12BB                     l885:
  8122  12BB  0008               	return
  8123  12BC                     __end_of__Umul8_16:
  8124                           
  8125                           	psect	text23
  8126  16B8                     __ptext23:	
  8127 ;; *************** function ___flge *****************
  8128 ;; Defined at:
  8129 ;;		line 4 in file "C:\Program Files\Microchip\xc8\v2.32\pic\sources\c90\common\flge.c"
  8130 ;; Parameters:    Size  Location     Type
  8131 ;;  ff1             4    0[COMMON] unsigned int 
  8132 ;;  ff2             4    4[COMMON] unsigned int 
  8133 ;; Auto vars:     Size  Location     Type
  8134 ;;		None
  8135 ;; Return value:  Size  Location     Type
  8136 ;;		None               void
  8137 ;; Registers used:
  8138 ;;		wreg, status,2, status,0
  8139 ;; Tracked objects:
  8140 ;;		On entry : 0/0
  8141 ;;		On exit  : 0/0
  8142 ;;		Unchanged: 0/0
  8143 ;; Data sizes:     COMMON   BANK0   BANK1   BANK3   BANK2
  8144 ;;      Params:         8       0       0       0       0
  8145 ;;      Locals:         0       0       0       0       0
  8146 ;;      Temps:          4       0       0       0       0
  8147 ;;      Totals:        12       0       0       0       0
  8148 ;;Total ram usage:       12 bytes
  8149 ;; Hardware stack levels used: 1
  8150 ;; This function calls:
  8151 ;;		Nothing
  8152 ;; This function is called by:
  8153 ;;		_liga_buzzer
  8154 ;; This function uses a non-reentrant model
  8155 ;;
  8156                           
  8157                           
  8158                           ;psect for function ___flge
  8159  16B8                     ___flge:
  8160  16B8                     l2559:	
  8161                           ;incstack = 0
  8162                           ; Regs used in ___flge: [wreg+status,2+status,0]
  8163                           
  8164  16B8  3000               	movlw	0
  8165  16B9  0570               	andwf	___flge@ff1,w
  8166  16BA  00F8               	movwf	??___flge
  8167  16BB  3000               	movlw	0
  8168  16BC  0571               	andwf	___flge@ff1+1,w
  8169  16BD  00F9               	movwf	??___flge+1
  8170  16BE  3080               	movlw	128
  8171  16BF  0572               	andwf	___flge@ff1+2,w
  8172  16C0  00FA               	movwf	??___flge+2
  8173  16C1  307F               	movlw	127
  8174  16C2  0573               	andwf	___flge@ff1+3,w
  8175  16C3  00FB               	movwf	??___flge+3
  8176  16C4  087B               	movf	??___flge+3,w
  8177  16C5  047A               	iorwf	??___flge+2,w
  8178  16C6  0479               	iorwf	??___flge+1,w
  8179  16C7  0478               	iorwf	??___flge,w
  8180  16C8  1D03               	skipz
  8181  16C9  2ECB               	goto	u2451
  8182  16CA  2ECC               	goto	u2450
  8183  16CB                     u2451:
  8184  16CB  2ED4               	goto	l649
  8185  16CC                     u2450:
  8186  16CC                     l2561:
  8187  16CC  3000               	movlw	0
  8188  16CD  00F3               	movwf	___flge@ff1+3
  8189  16CE  3000               	movlw	0
  8190  16CF  00F2               	movwf	___flge@ff1+2
  8191  16D0  3000               	movlw	0
  8192  16D1  00F1               	movwf	___flge@ff1+1
  8193  16D2  3000               	movlw	0
  8194  16D3  00F0               	movwf	___flge@ff1
  8195  16D4                     l649:
  8196  16D4  3000               	movlw	0
  8197  16D5  0574               	andwf	___flge@ff2,w
  8198  16D6  00F8               	movwf	??___flge
  8199  16D7  3000               	movlw	0
  8200  16D8  0575               	andwf	___flge@ff2+1,w
  8201  16D9  00F9               	movwf	??___flge+1
  8202  16DA  3080               	movlw	128
  8203  16DB  0576               	andwf	___flge@ff2+2,w
  8204  16DC  00FA               	movwf	??___flge+2
  8205  16DD  307F               	movlw	127
  8206  16DE  0577               	andwf	___flge@ff2+3,w
  8207  16DF  00FB               	movwf	??___flge+3
  8208  16E0  087B               	movf	??___flge+3,w
  8209  16E1  047A               	iorwf	??___flge+2,w
  8210  16E2  0479               	iorwf	??___flge+1,w
  8211  16E3  0478               	iorwf	??___flge,w
  8212  16E4  1D03               	skipz
  8213  16E5  2EE7               	goto	u2461
  8214  16E6  2EE8               	goto	u2460
  8215  16E7                     u2461:
  8216  16E7  2EF0               	goto	l2565
  8217  16E8                     u2460:
  8218  16E8                     l2563:
  8219  16E8  3000               	movlw	0
  8220  16E9  00F7               	movwf	___flge@ff2+3
  8221  16EA  3000               	movlw	0
  8222  16EB  00F6               	movwf	___flge@ff2+2
  8223  16EC  3000               	movlw	0
  8224  16ED  00F5               	movwf	___flge@ff2+1
  8225  16EE  3000               	movlw	0
  8226  16EF  00F4               	movwf	___flge@ff2
  8227  16F0                     l2565:
  8228  16F0  1FF3               	btfss	___flge@ff1+3,7
  8229  16F1  2EF3               	goto	u2471
  8230  16F2  2EF4               	goto	u2470
  8231  16F3                     u2471:
  8232  16F3  2F18               	goto	l2569
  8233  16F4                     u2470:
  8234  16F4                     l2567:
  8235  16F4  3000               	movlw	0
  8236  16F5  00F8               	movwf	??___flge
  8237  16F6  3000               	movlw	0
  8238  16F7  00F9               	movwf	??___flge+1
  8239  16F8  3000               	movlw	0
  8240  16F9  00FA               	movwf	??___flge+2
  8241  16FA  3080               	movlw	128
  8242  16FB  00FB               	movwf	??___flge+3
  8243  16FC  0870               	movf	___flge@ff1,w
  8244  16FD  02F8               	subwf	??___flge,f
  8245  16FE  0871               	movf	___flge@ff1+1,w
  8246  16FF  1C03               	skipc
  8247  1700  0F71               	incfsz	___flge@ff1+1,w
  8248  1701  2F03               	goto	u2481
  8249  1702  2F04               	goto	u2482
  8250  1703                     u2481:
  8251  1703  02F9               	subwf	??___flge+1,f
  8252  1704                     u2482:
  8253  1704  0872               	movf	___flge@ff1+2,w
  8254  1705  1C03               	skipc
  8255  1706  0F72               	incfsz	___flge@ff1+2,w
  8256  1707  2F09               	goto	u2483
  8257  1708  2F0A               	goto	u2484
  8258  1709                     u2483:
  8259  1709  02FA               	subwf	??___flge+2,f
  8260  170A                     u2484:
  8261  170A  0873               	movf	___flge@ff1+3,w
  8262  170B  1C03               	skipc
  8263  170C  0F73               	incfsz	___flge@ff1+3,w
  8264  170D  2F0F               	goto	u2485
  8265  170E  2F10               	goto	u2486
  8266  170F                     u2485:
  8267  170F  02FB               	subwf	??___flge+3,f
  8268  1710                     u2486:
  8269  1710  087B               	movf	??___flge+3,w
  8270  1711  00F3               	movwf	___flge@ff1+3
  8271  1712  087A               	movf	??___flge+2,w
  8272  1713  00F2               	movwf	___flge@ff1+2
  8273  1714  0879               	movf	??___flge+1,w
  8274  1715  00F1               	movwf	___flge@ff1+1
  8275  1716  0878               	movf	??___flge,w
  8276  1717  00F0               	movwf	___flge@ff1
  8277  1718                     l2569:
  8278  1718  1FF7               	btfss	___flge@ff2+3,7
  8279  1719  2F1B               	goto	u2491
  8280  171A  2F1C               	goto	u2490
  8281  171B                     u2491:
  8282  171B  2F40               	goto	l652
  8283  171C                     u2490:
  8284  171C                     l2571:
  8285  171C  3000               	movlw	0
  8286  171D  00F8               	movwf	??___flge
  8287  171E  3000               	movlw	0
  8288  171F  00F9               	movwf	??___flge+1
  8289  1720  3000               	movlw	0
  8290  1721  00FA               	movwf	??___flge+2
  8291  1722  3080               	movlw	128
  8292  1723  00FB               	movwf	??___flge+3
  8293  1724  0874               	movf	___flge@ff2,w
  8294  1725  02F8               	subwf	??___flge,f
  8295  1726  0875               	movf	___flge@ff2+1,w
  8296  1727  1C03               	skipc
  8297  1728  0F75               	incfsz	___flge@ff2+1,w
  8298  1729  2F2B               	goto	u2501
  8299  172A  2F2C               	goto	u2502
  8300  172B                     u2501:
  8301  172B  02F9               	subwf	??___flge+1,f
  8302  172C                     u2502:
  8303  172C  0876               	movf	___flge@ff2+2,w
  8304  172D  1C03               	skipc
  8305  172E  0F76               	incfsz	___flge@ff2+2,w
  8306  172F  2F31               	goto	u2503
  8307  1730  2F32               	goto	u2504
  8308  1731                     u2503:
  8309  1731  02FA               	subwf	??___flge+2,f
  8310  1732                     u2504:
  8311  1732  0877               	movf	___flge@ff2+3,w
  8312  1733  1C03               	skipc
  8313  1734  0F77               	incfsz	___flge@ff2+3,w
  8314  1735  2F37               	goto	u2505
  8315  1736  2F38               	goto	u2506
  8316  1737                     u2505:
  8317  1737  02FB               	subwf	??___flge+3,f
  8318  1738                     u2506:
  8319  1738  087B               	movf	??___flge+3,w
  8320  1739  00F7               	movwf	___flge@ff2+3
  8321  173A  087A               	movf	??___flge+2,w
  8322  173B  00F6               	movwf	___flge@ff2+2
  8323  173C  0879               	movf	??___flge+1,w
  8324  173D  00F5               	movwf	___flge@ff2+1
  8325  173E  0878               	movf	??___flge,w
  8326  173F  00F4               	movwf	___flge@ff2
  8327  1740                     l652:
  8328  1740  3080               	movlw	128
  8329  1741  06F3               	xorwf	___flge@ff1+3,f
  8330  1742  3080               	movlw	128
  8331  1743  06F7               	xorwf	___flge@ff2+3,f
  8332  1744  0877               	movf	___flge@ff2+3,w
  8333  1745  0273               	subwf	___flge@ff1+3,w
  8334  1746  1D03               	skipz
  8335  1747  2F52               	goto	u2515
  8336  1748  0876               	movf	___flge@ff2+2,w
  8337  1749  0272               	subwf	___flge@ff1+2,w
  8338  174A  1D03               	skipz
  8339  174B  2F52               	goto	u2515
  8340  174C  0875               	movf	___flge@ff2+1,w
  8341  174D  0271               	subwf	___flge@ff1+1,w
  8342  174E  1D03               	skipz
  8343  174F  2F52               	goto	u2515
  8344  1750  0874               	movf	___flge@ff2,w
  8345  1751  0270               	subwf	___flge@ff1,w
  8346  1752                     u2515:
  8347  1752  1803               	skipnc
  8348  1753  2F55               	goto	u2511
  8349  1754  2F56               	goto	u2510
  8350  1755                     u2511:
  8351  1755  2F58               	goto	l2575
  8352  1756                     u2510:
  8353  1756                     l2573:
  8354  1756  1003               	clrc
  8355  1757  2F59               	goto	l653
  8356  1758                     l2575:
  8357  1758  1403               	setc
  8358  1759                     l653:
  8359  1759  0008               	return
  8360  175A                     __end_of___flge:
  8361                           
  8362                           	psect	text24
  8363  15CC                     __ptext24:	
  8364 ;; *************** function _confereTeclado *****************
  8365 ;; Defined at:
  8366 ;;		line 191 in file "main.c"
  8367 ;; Parameters:    Size  Location     Type
  8368 ;;  numero          2    0[COMMON] unsigned int 
  8369 ;; Auto vars:     Size  Location     Type
  8370 ;;		None
  8371 ;; Return value:  Size  Location     Type
  8372 ;;                  1    wreg      unsigned char 
  8373 ;; Registers used:
  8374 ;;		wreg, fsr0l, fsr0h, status,2, status,0
  8375 ;; Tracked objects:
  8376 ;;		On entry : 0/0
  8377 ;;		On exit  : 0/0
  8378 ;;		Unchanged: 0/0
  8379 ;; Data sizes:     COMMON   BANK0   BANK1   BANK3   BANK2
  8380 ;;      Params:         2       0       0       0       0
  8381 ;;      Locals:         0       0       0       0       0
  8382 ;;      Temps:          0       0       0       0       0
  8383 ;;      Totals:         2       0       0       0       0
  8384 ;;Total ram usage:        2 bytes
  8385 ;; Hardware stack levels used: 1
  8386 ;; This function calls:
  8387 ;;		Nothing
  8388 ;; This function is called by:
  8389 ;;		_inputSenhaAlter
  8390 ;;		_validaUser
  8391 ;; This function uses a non-reentrant model
  8392 ;;
  8393                           
  8394                           
  8395                           ;psect for function _confereTeclado
  8396  15CC                     _confereTeclado:
  8397  15CC                     l2783:	
  8398                           ;incstack = 0
  8399                           ; Regs used in _confereTeclado: [wreg-fsr0h+status,2+status,0]
  8400                           
  8401                           
  8402                           ;main.c: 192:    switch (numero){
  8403  15CC  2E13               	goto	l2807
  8404  15CD                     l2785:
  8405                           
  8406                           ;main.c: 194:             aux = '1';
  8407  15CD  3031               	movlw	49
  8408  15CE  1283               	bcf	3,5	;RP0=0, select bank0
  8409  15CF  1303               	bcf	3,6	;RP1=0, select bank0
  8410  15D0  00DB               	movwf	_aux
  8411  15D1  3000               	movlw	0
  8412  15D2  00DC               	movwf	_aux+1
  8413                           
  8414                           ;main.c: 195:         break;
  8415  15D3  2E38               	goto	l2809
  8416  15D4                     l2787:
  8417                           
  8418                           ;main.c: 197:             aux = '2';
  8419  15D4  3032               	movlw	50
  8420  15D5  1283               	bcf	3,5	;RP0=0, select bank0
  8421  15D6  1303               	bcf	3,6	;RP1=0, select bank0
  8422  15D7  00DB               	movwf	_aux
  8423  15D8  3000               	movlw	0
  8424  15D9  00DC               	movwf	_aux+1
  8425                           
  8426                           ;main.c: 198:         break;
  8427  15DA  2E38               	goto	l2809
  8428  15DB                     l2789:
  8429                           
  8430                           ;main.c: 200:             aux = '3';
  8431  15DB  3033               	movlw	51
  8432  15DC  1283               	bcf	3,5	;RP0=0, select bank0
  8433  15DD  1303               	bcf	3,6	;RP1=0, select bank0
  8434  15DE  00DB               	movwf	_aux
  8435  15DF  3000               	movlw	0
  8436  15E0  00DC               	movwf	_aux+1
  8437                           
  8438                           ;main.c: 201:         break;
  8439  15E1  2E38               	goto	l2809
  8440  15E2                     l2791:
  8441                           
  8442                           ;main.c: 203:             aux = '4';
  8443  15E2  3034               	movlw	52
  8444  15E3  1283               	bcf	3,5	;RP0=0, select bank0
  8445  15E4  1303               	bcf	3,6	;RP1=0, select bank0
  8446  15E5  00DB               	movwf	_aux
  8447  15E6  3000               	movlw	0
  8448  15E7  00DC               	movwf	_aux+1
  8449                           
  8450                           ;main.c: 204:         break;
  8451  15E8  2E38               	goto	l2809
  8452  15E9                     l2793:
  8453                           
  8454                           ;main.c: 206:             aux = '5';
  8455  15E9  3035               	movlw	53
  8456  15EA  1283               	bcf	3,5	;RP0=0, select bank0
  8457  15EB  1303               	bcf	3,6	;RP1=0, select bank0
  8458  15EC  00DB               	movwf	_aux
  8459  15ED  3000               	movlw	0
  8460  15EE  00DC               	movwf	_aux+1
  8461                           
  8462                           ;main.c: 207:         break;
  8463  15EF  2E38               	goto	l2809
  8464  15F0                     l2795:
  8465                           
  8466                           ;main.c: 209:             aux = '6';
  8467  15F0  3036               	movlw	54
  8468  15F1  1283               	bcf	3,5	;RP0=0, select bank0
  8469  15F2  1303               	bcf	3,6	;RP1=0, select bank0
  8470  15F3  00DB               	movwf	_aux
  8471  15F4  3000               	movlw	0
  8472  15F5  00DC               	movwf	_aux+1
  8473                           
  8474                           ;main.c: 210:         break;
  8475  15F6  2E38               	goto	l2809
  8476  15F7                     l2797:
  8477                           
  8478                           ;main.c: 212:             aux = '7';
  8479  15F7  3037               	movlw	55
  8480  15F8  1283               	bcf	3,5	;RP0=0, select bank0
  8481  15F9  1303               	bcf	3,6	;RP1=0, select bank0
  8482  15FA  00DB               	movwf	_aux
  8483  15FB  3000               	movlw	0
  8484  15FC  00DC               	movwf	_aux+1
  8485                           
  8486                           ;main.c: 213:         break;
  8487  15FD  2E38               	goto	l2809
  8488  15FE                     l2799:
  8489                           
  8490                           ;main.c: 215:             aux = '8';
  8491  15FE  3038               	movlw	56
  8492  15FF  1283               	bcf	3,5	;RP0=0, select bank0
  8493  1600  1303               	bcf	3,6	;RP1=0, select bank0
  8494  1601  00DB               	movwf	_aux
  8495  1602  3000               	movlw	0
  8496  1603  00DC               	movwf	_aux+1
  8497                           
  8498                           ;main.c: 216:         break;
  8499  1604  2E38               	goto	l2809
  8500  1605                     l2801:
  8501                           
  8502                           ;main.c: 218:             aux = '9';
  8503  1605  3039               	movlw	57
  8504  1606  1283               	bcf	3,5	;RP0=0, select bank0
  8505  1607  1303               	bcf	3,6	;RP1=0, select bank0
  8506  1608  00DB               	movwf	_aux
  8507  1609  3000               	movlw	0
  8508  160A  00DC               	movwf	_aux+1
  8509                           
  8510                           ;main.c: 219:         break;
  8511  160B  2E38               	goto	l2809
  8512  160C                     l2803:
  8513                           
  8514                           ;main.c: 221:             aux = '0';
  8515  160C  3030               	movlw	48
  8516  160D  1283               	bcf	3,5	;RP0=0, select bank0
  8517  160E  1303               	bcf	3,6	;RP1=0, select bank0
  8518  160F  00DB               	movwf	_aux
  8519  1610  3000               	movlw	0
  8520  1611  00DC               	movwf	_aux+1
  8521                           
  8522                           ;main.c: 222:         break;
  8523  1612  2E38               	goto	l2809
  8524  1613                     l2807:
  8525                           
  8526                           ; Switch on 2 bytes has been partitioned into a top level switch of size 1, and 1 sub-sw
      +                          itches
  8527                           ; Switch size 1, requested type "simple"
  8528                           ; Number of cases is 1, Range of values is 0 to 0
  8529                           ; switch strategies available:
  8530                           ; Name         Instructions Cycles
  8531                           ; simple_byte            4     3 (average)
  8532                           ; direct_byte           11     8 (fixed)
  8533                           ; jumptable            260     6 (fixed)
  8534                           ;	Chosen strategy is simple_byte
  8535  1613  0871               	movf	confereTeclado@numero+1,w
  8536  1614  3A00               	xorlw	0	; case 0
  8537  1615  1903               	skipnz
  8538  1616  2E18               	goto	l4179
  8539  1617  2E38               	goto	l2809
  8540  1618                     l4179:
  8541                           
  8542                           ; Switch size 1, requested type "simple"
  8543                           ; Number of cases is 10, Range of values is 0 to 9
  8544                           ; switch strategies available:
  8545                           ; Name         Instructions Cycles
  8546                           ; simple_byte           31    16 (average)
  8547                           ; direct_byte           38     8 (fixed)
  8548                           ; jumptable            260     6 (fixed)
  8549                           ;	Chosen strategy is simple_byte
  8550  1618  0870               	movf	confereTeclado@numero,w
  8551  1619  3A00               	xorlw	0	; case 0
  8552  161A  1903               	skipnz
  8553  161B  2E0C               	goto	l2803
  8554  161C  3A01               	xorlw	1	; case 1
  8555  161D  1903               	skipnz
  8556  161E  2DCD               	goto	l2785
  8557  161F  3A03               	xorlw	3	; case 2
  8558  1620  1903               	skipnz
  8559  1621  2DD4               	goto	l2787
  8560  1622  3A01               	xorlw	1	; case 3
  8561  1623  1903               	skipnz
  8562  1624  2DDB               	goto	l2789
  8563  1625  3A07               	xorlw	7	; case 4
  8564  1626  1903               	skipnz
  8565  1627  2DE2               	goto	l2791
  8566  1628  3A01               	xorlw	1	; case 5
  8567  1629  1903               	skipnz
  8568  162A  2DE9               	goto	l2793
  8569  162B  3A03               	xorlw	3	; case 6
  8570  162C  1903               	skipnz
  8571  162D  2DF0               	goto	l2795
  8572  162E  3A01               	xorlw	1	; case 7
  8573  162F  1903               	skipnz
  8574  1630  2DF7               	goto	l2797
  8575  1631  3A0F               	xorlw	15	; case 8
  8576  1632  1903               	skipnz
  8577  1633  2DFE               	goto	l2799
  8578  1634  3A01               	xorlw	1	; case 9
  8579  1635  1903               	skipnz
  8580  1636  2E05               	goto	l2801
  8581  1637  2E38               	goto	l2809
  8582  1638                     l2809:
  8583                           
  8584                           ;main.c: 224:    return aux;
  8585  1638  1283               	bcf	3,5	;RP0=0, select bank0
  8586  1639  1303               	bcf	3,6	;RP1=0, select bank0
  8587  163A  085B               	movf	_aux,w
  8588  163B                     l247:
  8589  163B  0008               	return
  8590  163C                     __end_of_confereTeclado:
  8591                           
  8592                           	psect	text25
  8593  1355                     __ptext25:	
  8594 ;; *************** function _Linha2 *****************
  8595 ;; Defined at:
  8596 ;;		line 310 in file "main.c"
  8597 ;; Parameters:    Size  Location     Type
  8598 ;;		None
  8599 ;; Auto vars:     Size  Location     Type
  8600 ;;  i               2    7[COMMON] int 
  8601 ;; Return value:  Size  Location     Type
  8602 ;;                  1    wreg      void 
  8603 ;; Registers used:
  8604 ;;		wreg, fsr0l, fsr0h, status,2, status,0, btemp+1, pclath, cstack
  8605 ;; Tracked objects:
  8606 ;;		On entry : 0/0
  8607 ;;		On exit  : 0/0
  8608 ;;		Unchanged: 0/0
  8609 ;; Data sizes:     COMMON   BANK0   BANK1   BANK3   BANK2
  8610 ;;      Params:         0       0       0       0       0
  8611 ;;      Locals:         2       0       0       0       0
  8612 ;;      Temps:          2       0       0       0       0
  8613 ;;      Totals:         4       0       0       0       0
  8614 ;;Total ram usage:        4 bytes
  8615 ;; Hardware stack levels used: 1
  8616 ;; Hardware stack levels required when called: 3
  8617 ;; This function calls:
  8618 ;;		_LCD_escreve
  8619 ;;		_LCD_linha2
  8620 ;;		_espacoLivre
  8621 ;;		_strlen
  8622 ;; This function is called by:
  8623 ;;		_alteraSenhas
  8624 ;;		_validaUser
  8625 ;; This function uses a non-reentrant model
  8626 ;;
  8627                           
  8628                           
  8629                           ;psect for function _Linha2
  8630  1355                     _Linha2:
  8631  1355                     l3789:	
  8632                           ;incstack = 0
  8633                           ; Regs used in _Linha2: [wreg-fsr0h+status,2+status,0+btemp+1+pclath+cstack]
  8634                           
  8635                           
  8636                           ;main.c: 311:     LCD_linha2();
  8637  1355  160A  118A  21C4  160A  118A  	fcall	_LCD_linha2
  8638                           
  8639                           ;main.c: 312:     espacoLivre();
  8640  135A  160A  118A  222E  160A  118A  	fcall	_espacoLivre
  8641  135F                     l3791:
  8642                           
  8643                           ;main.c: 313:     for (int i = 0; i <= strlen(msgMascara)-1; i++){
  8644  135F  01F7               	clrf	Linha2@i
  8645  1360  01F8               	clrf	Linha2@i+1
  8646  1361  2B72               	goto	l3797
  8647  1362                     l3793:
  8648                           
  8649                           ;main.c: 314:         LCD_escreve(msgMascara[i]);
  8650  1362  0877               	movf	Linha2@i,w
  8651  1363  3ED0               	addlw	(low (_msgMascara| 0))& (0+255)
  8652  1364  0084               	movwf	4
  8653  1365  1383               	bcf	3,7	;select IRP bank1
  8654  1366  0800               	movf	0,w
  8655  1367  160A  118A  21F4  160A  118A  	fcall	_LCD_escreve
  8656  136C                     l3795:
  8657                           
  8658                           ;main.c: 315:     }
  8659  136C  3001               	movlw	1
  8660  136D  07F7               	addwf	Linha2@i,f
  8661  136E  1803               	skipnc
  8662  136F  0AF8               	incf	Linha2@i+1,f
  8663  1370  3000               	movlw	0
  8664  1371  07F8               	addwf	Linha2@i+1,f
  8665  1372                     l3797:
  8666  1372  30D0               	movlw	(low (_msgMascara| 0))& (0+255)
  8667  1373  00F0               	movwf	strlen@s
  8668  1374  3000               	movlw	0
  8669  1375  00F1               	movwf	strlen@s+1
  8670  1376  120A  118A  2004  160A  118A  	fcall	_strlen
  8671  137B  0870               	movf	?_strlen,w
  8672  137C  3EFF               	addlw	255
  8673  137D  00F5               	movwf	??_Linha2
  8674  137E  0871               	movf	?_strlen+1,w
  8675  137F  1803               	skipnc
  8676  1380  3E01               	addlw	1
  8677  1381  3EFF               	addlw	255
  8678  1382  00F6               	movwf	??_Linha2+1
  8679  1383  0878               	movf	Linha2@i+1,w
  8680  1384  0276               	subwf	??_Linha2+1,w
  8681  1385  1D03               	skipz
  8682  1386  2B89               	goto	u4115
  8683  1387  0877               	movf	Linha2@i,w
  8684  1388  0275               	subwf	??_Linha2,w
  8685  1389                     u4115:
  8686  1389  1803               	skipnc
  8687  138A  2B8C               	goto	u4111
  8688  138B  2B8D               	goto	u4110
  8689  138C                     u4111:
  8690  138C  2B62               	goto	l3793
  8691  138D                     u4110:
  8692  138D                     l3799:
  8693                           
  8694                           ;main.c: 316:     espacoLivre();
  8695  138D  160A  118A  222E  160A  118A  	fcall	_espacoLivre
  8696  1392                     l294:
  8697  1392  0008               	return
  8698  1393                     __end_of_Linha2:
  8699                           
  8700                           	psect	text26
  8701  0004                     __ptext26:	
  8702 ;; *************** function _strlen *****************
  8703 ;; Defined at:
  8704 ;;		line 4 in file "C:\Program Files\Microchip\xc8\v2.32\pic\sources\c90\common\strlen.c"
  8705 ;; Parameters:    Size  Location     Type
  8706 ;;  s               2    0[COMMON] PTR const unsigned char 
  8707 ;;		 -> msgMascara(5), msgDigiteSenha(15), 
  8708 ;; Auto vars:     Size  Location     Type
  8709 ;;  cp              2    2[COMMON] PTR const unsigned char 
  8710 ;;		 -> msgMascara(5), msgDigiteSenha(15), 
  8711 ;; Return value:  Size  Location     Type
  8712 ;;                  2    0[COMMON] unsigned int 
  8713 ;; Registers used:
  8714 ;;		wreg, fsr0l, fsr0h, status,2, status,0
  8715 ;; Tracked objects:
  8716 ;;		On entry : 0/0
  8717 ;;		On exit  : 0/0
  8718 ;;		Unchanged: 0/0
  8719 ;; Data sizes:     COMMON   BANK0   BANK1   BANK3   BANK2
  8720 ;;      Params:         2       0       0       0       0
  8721 ;;      Locals:         2       0       0       0       0
  8722 ;;      Temps:          0       0       0       0       0
  8723 ;;      Totals:         4       0       0       0       0
  8724 ;;Total ram usage:        4 bytes
  8725 ;; Hardware stack levels used: 1
  8726 ;; This function calls:
  8727 ;;		Nothing
  8728 ;; This function is called by:
  8729 ;;		_telaInicial
  8730 ;;		_Linha2
  8731 ;; This function uses a non-reentrant model
  8732 ;;
  8733                           
  8734                           
  8735                           ;psect for function _strlen
  8736  0004                     _strlen:
  8737  0004                     l3721:	
  8738                           ;incstack = 0
  8739                           ; Regs used in _strlen: [wreg-fsr0h+status,2+status,0]
  8740                           
  8741  0004  0870               	movf	strlen@s,w
  8742  0005  00F2               	movwf	strlen@cp
  8743  0006  0871               	movf	strlen@s+1,w
  8744  0007  00F3               	movwf	strlen@cp+1
  8745  0008  280F               	goto	l3725
  8746  0009                     l3723:
  8747  0009  3001               	movlw	1
  8748  000A  07F2               	addwf	strlen@cp,f
  8749  000B  1803               	skipnc
  8750  000C  0AF3               	incf	strlen@cp+1,f
  8751  000D  3000               	movlw	0
  8752  000E  07F3               	addwf	strlen@cp+1,f
  8753  000F                     l3725:
  8754  000F  0872               	movf	strlen@cp,w
  8755  0010  0084               	movwf	4
  8756  0011  1783               	bsf	3,7
  8757  0012  1C73               	btfss	strlen@cp+1,0
  8758  0013  1383               	bcf	3,7
  8759  0014  0800               	movf	0,w
  8760  0015  1D03               	btfss	3,2
  8761  0016  2818               	goto	u3991
  8762  0017  2819               	goto	u3990
  8763  0018                     u3991:
  8764  0018  2809               	goto	l3723
  8765  0019                     u3990:
  8766  0019                     l3727:
  8767  0019  0870               	movf	strlen@s,w
  8768  001A  0272               	subwf	strlen@cp,w
  8769  001B  00F0               	movwf	?_strlen
  8770  001C  0871               	movf	strlen@s+1,w
  8771  001D  1C03               	skipc
  8772  001E  0A71               	incf	strlen@s+1,w
  8773  001F  0273               	subwf	strlen@cp+1,w
  8774  0020  00F1               	movwf	?_strlen+1
  8775  0021                     l937:
  8776  0021  0008               	return
  8777  0022                     __end_of_strlen:
  8778                           
  8779                           	psect	text27
  8780  122E                     __ptext27:	
  8781 ;; *************** function _espacoLivre *****************
  8782 ;; Defined at:
  8783 ;;		line 318 in file "main.c"
  8784 ;; Parameters:    Size  Location     Type
  8785 ;;		None
  8786 ;; Auto vars:     Size  Location     Type
  8787 ;;  i               2    3[COMMON] int 
  8788 ;; Return value:  Size  Location     Type
  8789 ;;                  1    wreg      void 
  8790 ;; Registers used:
  8791 ;;		wreg, status,2, status,0, btemp+1, pclath, cstack
  8792 ;; Tracked objects:
  8793 ;;		On entry : 0/0
  8794 ;;		On exit  : 0/0
  8795 ;;		Unchanged: 0/0
  8796 ;; Data sizes:     COMMON   BANK0   BANK1   BANK3   BANK2
  8797 ;;      Params:         0       0       0       0       0
  8798 ;;      Locals:         2       0       0       0       0
  8799 ;;      Temps:          0       0       0       0       0
  8800 ;;      Totals:         2       0       0       0       0
  8801 ;;Total ram usage:        2 bytes
  8802 ;; Hardware stack levels used: 1
  8803 ;; Hardware stack levels required when called: 2
  8804 ;; This function calls:
  8805 ;;		_LCD_escreve
  8806 ;;		_LCD_linha2
  8807 ;; This function is called by:
  8808 ;;		_Linha2
  8809 ;; This function uses a non-reentrant model
  8810 ;;
  8811                           
  8812                           
  8813                           ;psect for function _espacoLivre
  8814  122E                     _espacoLivre:
  8815  122E                     l3117:	
  8816                           ;incstack = 0
  8817                           ; Regs used in _espacoLivre: [wreg+status,2+status,0+btemp+1+pclath+cstack]
  8818                           
  8819                           
  8820                           ;main.c: 319:     LCD_linha2();
  8821  122E  160A  118A  21C4  160A  118A  	fcall	_LCD_linha2
  8822  1233                     l3119:
  8823                           
  8824                           ;main.c: 320:     for (int i = 0; i < 6; i++){
  8825  1233  01F3               	clrf	espacoLivre@i
  8826  1234  01F4               	clrf	espacoLivre@i+1
  8827  1235                     l3125:
  8828                           
  8829                           ;main.c: 321:         LCD_escreve(' ');
  8830  1235  3020               	movlw	32
  8831  1236  160A  118A  21F4  160A  118A  	fcall	_LCD_escreve
  8832  123B                     l3127:
  8833                           
  8834                           ;main.c: 322:     }
  8835  123B  3001               	movlw	1
  8836  123C  07F3               	addwf	espacoLivre@i,f
  8837  123D  1803               	skipnc
  8838  123E  0AF4               	incf	espacoLivre@i+1,f
  8839  123F  3000               	movlw	0
  8840  1240  07F4               	addwf	espacoLivre@i+1,f
  8841  1241                     l3129:
  8842  1241  0874               	movf	espacoLivre@i+1,w
  8843  1242  3A80               	xorlw	128
  8844  1243  00FF               	movwf	btemp+1
  8845  1244  3080               	movlw	128
  8846  1245  027F               	subwf	btemp+1,w
  8847  1246  1D03               	skipz
  8848  1247  2A4A               	goto	u3355
  8849  1248  3006               	movlw	6
  8850  1249  0273               	subwf	espacoLivre@i,w
  8851  124A                     u3355:
  8852  124A  1C03               	skipc
  8853  124B  2A4D               	goto	u3351
  8854  124C  2A4E               	goto	u3350
  8855  124D                     u3351:
  8856  124D  2A35               	goto	l3125
  8857  124E                     u3350:
  8858  124E                     l299:
  8859  124E  0008               	return
  8860  124F                     __end_of_espacoLivre:
  8861                           
  8862                           	psect	text28
  8863  11C4                     __ptext28:	
  8864 ;; *************** function _LCD_linha2 *****************
  8865 ;; Defined at:
  8866 ;;		line 73 in file "./lcd.h"
  8867 ;; Parameters:    Size  Location     Type
  8868 ;;		None
  8869 ;; Auto vars:     Size  Location     Type
  8870 ;;		None
  8871 ;; Return value:  Size  Location     Type
  8872 ;;                  1    wreg      void 
  8873 ;; Registers used:
  8874 ;;		wreg, status,2, status,0, btemp+1, pclath, cstack
  8875 ;; Tracked objects:
  8876 ;;		On entry : 0/0
  8877 ;;		On exit  : 0/0
  8878 ;;		Unchanged: 0/0
  8879 ;; Data sizes:     COMMON   BANK0   BANK1   BANK3   BANK2
  8880 ;;      Params:         0       0       0       0       0
  8881 ;;      Locals:         0       0       0       0       0
  8882 ;;      Temps:          0       0       0       0       0
  8883 ;;      Totals:         0       0       0       0       0
  8884 ;;Total ram usage:        0 bytes
  8885 ;; Hardware stack levels used: 1
  8886 ;; Hardware stack levels required when called: 1
  8887 ;; This function calls:
  8888 ;;		_delay
  8889 ;; This function is called by:
  8890 ;;		_infoZonas
  8891 ;;		_valida_senha
  8892 ;;		_rotinaValidaSenha
  8893 ;;		_Linha2
  8894 ;;		_espacoLivre
  8895 ;;		_listaZonas
  8896 ;; This function uses a non-reentrant model
  8897 ;;
  8898                           
  8899                           
  8900                           ;psect for function _LCD_linha2
  8901  11C4                     _LCD_linha2:
  8902  11C4                     l2749:	
  8903                           ;incstack = 0
  8904                           ; Regs used in _LCD_linha2: [wreg+status,2+status,0+btemp+1+pclath+cstack]
  8905                           
  8906                           
  8907                           ;./lcd.h: 74:     PORTD = 0xC0;
  8908  11C4  30C0               	movlw	192
  8909  11C5  1283               	bcf	3,5	;RP0=0, select bank0
  8910  11C6  1303               	bcf	3,6	;RP1=0, select bank0
  8911  11C7  0088               	movwf	8	;volatile
  8912  11C8                     l2751:
  8913                           
  8914                           ;./lcd.h: 75:     RA5 = 0;
  8915  11C8  1285               	bcf	5,5	;volatile
  8916  11C9                     l2753:
  8917                           
  8918                           ;./lcd.h: 76:     RA4 = 0;
  8919  11C9  1205               	bcf	5,4	;volatile
  8920  11CA                     l2755:
  8921                           
  8922                           ;./lcd.h: 77:     RA3=0;
  8923  11CA  1185               	bcf	5,3	;volatile
  8924  11CB                     l2757:
  8925                           
  8926                           ;./lcd.h: 78:     delay();
  8927  11CB  160A  118A  2218  160A  118A  	fcall	_delay
  8928  11D0                     l2759:
  8929                           
  8930                           ;./lcd.h: 79:  RA3 = 1;
  8931  11D0  1283               	bcf	3,5	;RP0=0, select bank0
  8932  11D1  1303               	bcf	3,6	;RP1=0, select bank0
  8933  11D2  1585               	bsf	5,3	;volatile
  8934  11D3                     l92:
  8935  11D3  0008               	return
  8936  11D4                     __end_of_LCD_linha2:
  8937                           
  8938                           	psect	text29
  8939  11F4                     __ptext29:	
  8940 ;; *************** function _LCD_escreve *****************
  8941 ;; Defined at:
  8942 ;;		line 46 in file "./lcd.h"
  8943 ;; Parameters:    Size  Location     Type
  8944 ;;  x               1    wreg     unsigned char 
  8945 ;; Auto vars:     Size  Location     Type
  8946 ;;  x               1    2[COMMON] unsigned char 
  8947 ;; Return value:  Size  Location     Type
  8948 ;;                  1    wreg      void 
  8949 ;; Registers used:
  8950 ;;		wreg, status,2, status,0, btemp+1, pclath, cstack
  8951 ;; Tracked objects:
  8952 ;;		On entry : 0/0
  8953 ;;		On exit  : 0/0
  8954 ;;		Unchanged: 0/0
  8955 ;; Data sizes:     COMMON   BANK0   BANK1   BANK3   BANK2
  8956 ;;      Params:         0       0       0       0       0
  8957 ;;      Locals:         1       0       0       0       0
  8958 ;;      Temps:          0       0       0       0       0
  8959 ;;      Totals:         1       0       0       0       0
  8960 ;;Total ram usage:        1 bytes
  8961 ;; Hardware stack levels used: 1
  8962 ;; Hardware stack levels required when called: 1
  8963 ;; This function calls:
  8964 ;;		_delay
  8965 ;; This function is called by:
  8966 ;;		_valida_senha
  8967 ;;		_telaInicial
  8968 ;;		_Linha2
  8969 ;;		_espacoLivre
  8970 ;;		_listaZonas
  8971 ;;		_escreveMesagem
  8972 ;;		_teclado
  8973 ;;		_LCD_escreveFrase
  8974 ;; This function uses a non-reentrant model
  8975 ;;
  8976                           
  8977                           
  8978                           ;psect for function _LCD_escreve
  8979  11F4                     _LCD_escreve:
  8980                           
  8981                           ;incstack = 0
  8982                           ; Regs used in _LCD_escreve: [wreg+status,2+status,0+btemp+1+pclath+cstack]
  8983                           ;LCD_escreve@x stored from wreg
  8984  11F4  00F2               	movwf	LCD_escreve@x
  8985  11F5                     l2547:
  8986                           
  8987                           ;./lcd.h: 46: void LCD_escreve(char x);./lcd.h: 47: {;./lcd.h: 48:  PORTD = x;
  8988  11F5  0872               	movf	LCD_escreve@x,w
  8989  11F6  1283               	bcf	3,5	;RP0=0, select bank0
  8990  11F7  1303               	bcf	3,6	;RP1=0, select bank0
  8991  11F8  0088               	movwf	8	;volatile
  8992  11F9                     l2549:
  8993                           
  8994                           ;./lcd.h: 49:  RA5 = 1;
  8995  11F9  1685               	bsf	5,5	;volatile
  8996  11FA                     l2551:
  8997                           
  8998                           ;./lcd.h: 50:  RA4 = 0;
  8999  11FA  1205               	bcf	5,4	;volatile
  9000  11FB                     l2553:
  9001                           
  9002                           ;./lcd.h: 51:  RA3 = 0;
  9003  11FB  1185               	bcf	5,3	;volatile
  9004  11FC                     l2555:
  9005                           
  9006                           ;./lcd.h: 52:  delay();
  9007  11FC  160A  118A  2218  160A  118A  	fcall	_delay
  9008  1201                     l2557:
  9009                           
  9010                           ;./lcd.h: 53:  RA3 = 1;
  9011  1201  1283               	bcf	3,5	;RP0=0, select bank0
  9012  1202  1303               	bcf	3,6	;RP1=0, select bank0
  9013  1203  1585               	bsf	5,3	;volatile
  9014  1204                     l83:
  9015  1204  0008               	return
  9016  1205                     __end_of_LCD_escreve:
  9017                           
  9018                           	psect	text30
  9019  12EB                     __ptext30:	
  9020 ;; *************** function _LCD_init *****************
  9021 ;; Defined at:
  9022 ;;		line 31 in file "./lcd.h"
  9023 ;; Parameters:    Size  Location     Type
  9024 ;;		None
  9025 ;; Auto vars:     Size  Location     Type
  9026 ;;		None
  9027 ;; Return value:  Size  Location     Type
  9028 ;;                  1    wreg      void 
  9029 ;; Registers used:
  9030 ;;		wreg, status,2, status,0, btemp+1, pclath, cstack
  9031 ;; Tracked objects:
  9032 ;;		On entry : 0/0
  9033 ;;		On exit  : 0/0
  9034 ;;		Unchanged: 0/0
  9035 ;; Data sizes:     COMMON   BANK0   BANK1   BANK3   BANK2
  9036 ;;      Params:         0       0       0       0       0
  9037 ;;      Locals:         0       0       0       0       0
  9038 ;;      Temps:          0       0       0       0       0
  9039 ;;      Totals:         0       0       0       0       0
  9040 ;;Total ram usage:        0 bytes
  9041 ;; Hardware stack levels used: 1
  9042 ;; Hardware stack levels required when called: 2
  9043 ;; This function calls:
  9044 ;;		_LCD_enable
  9045 ;;		_init
  9046 ;; This function is called by:
  9047 ;;		_main
  9048 ;;		_alteraSenhas
  9049 ;;		_validaUser
  9050 ;;		_listaZonas
  9051 ;; This function uses a non-reentrant model
  9052 ;;
  9053                           
  9054                           
  9055                           ;psect for function _LCD_init
  9056  12EB                     _LCD_init:
  9057  12EB                     l3131:	
  9058                           ;incstack = 0
  9059                           ; Regs used in _LCD_init: [wreg+status,2+status,0+btemp+1+pclath+cstack]
  9060                           
  9061                           
  9062                           ;./lcd.h: 33:     init();
  9063  12EB  160A  118A  219D  160A  118A  	fcall	_init
  9064  12F0                     l3133:
  9065                           
  9066                           ;./lcd.h: 34:  PORTD = 0X1;
  9067  12F0  3001               	movlw	1
  9068  12F1  1283               	bcf	3,5	;RP0=0, select bank0
  9069  12F2  1303               	bcf	3,6	;RP1=0, select bank0
  9070  12F3  0088               	movwf	8	;volatile
  9071  12F4                     l3135:
  9072                           
  9073                           ;./lcd.h: 35:  LCD_enable();
  9074  12F4  160A  118A  21B6  160A  118A  	fcall	_LCD_enable
  9075  12F9                     l3137:
  9076                           
  9077                           ;./lcd.h: 36:  PORTD = 0X38;
  9078  12F9  3038               	movlw	56
  9079  12FA  1283               	bcf	3,5	;RP0=0, select bank0
  9080  12FB  1303               	bcf	3,6	;RP1=0, select bank0
  9081  12FC  0088               	movwf	8	;volatile
  9082  12FD                     l3139:
  9083                           
  9084                           ;./lcd.h: 37:  LCD_enable();
  9085  12FD  160A  118A  21B6  160A  118A  	fcall	_LCD_enable
  9086  1302                     l3141:
  9087                           
  9088                           ;./lcd.h: 38:  PORTD = 0X0e;
  9089  1302  300E               	movlw	14
  9090  1303  1283               	bcf	3,5	;RP0=0, select bank0
  9091  1304  1303               	bcf	3,6	;RP1=0, select bank0
  9092  1305  0088               	movwf	8	;volatile
  9093  1306                     l3143:
  9094                           
  9095                           ;./lcd.h: 39:  LCD_enable();
  9096  1306  160A  118A  21B6  160A  118A  	fcall	_LCD_enable
  9097  130B                     l3145:
  9098                           
  9099                           ;./lcd.h: 40:  PORTD = 0X06;
  9100  130B  3006               	movlw	6
  9101  130C  1283               	bcf	3,5	;RP0=0, select bank0
  9102  130D  1303               	bcf	3,6	;RP1=0, select bank0
  9103  130E  0088               	movwf	8	;volatile
  9104  130F                     l3147:
  9105                           
  9106                           ;./lcd.h: 41:  LCD_enable();
  9107  130F  160A  118A  21B6  160A  118A  	fcall	_LCD_enable
  9108  1314                     l3149:
  9109                           
  9110                           ;./lcd.h: 42:  PORTD = 0X80;
  9111  1314  3080               	movlw	128
  9112  1315  1283               	bcf	3,5	;RP0=0, select bank0
  9113  1316  1303               	bcf	3,6	;RP1=0, select bank0
  9114  1317  0088               	movwf	8	;volatile
  9115  1318                     l3151:
  9116                           
  9117                           ;./lcd.h: 43:  LCD_enable();
  9118  1318  160A  118A  21B6  160A  118A  	fcall	_LCD_enable
  9119  131D                     l80:
  9120  131D  0008               	return
  9121  131E                     __end_of_LCD_init:
  9122                           
  9123                           	psect	text31
  9124  119D                     __ptext31:	
  9125 ;; *************** function _init *****************
  9126 ;; Defined at:
  9127 ;;		line 23 in file "./lcd.h"
  9128 ;; Parameters:    Size  Location     Type
  9129 ;;		None
  9130 ;; Auto vars:     Size  Location     Type
  9131 ;;		None
  9132 ;; Return value:  Size  Location     Type
  9133 ;;                  1    wreg      void 
  9134 ;; Registers used:
  9135 ;;		wreg, status,2
  9136 ;; Tracked objects:
  9137 ;;		On entry : 0/0
  9138 ;;		On exit  : 0/0
  9139 ;;		Unchanged: 0/0
  9140 ;; Data sizes:     COMMON   BANK0   BANK1   BANK3   BANK2
  9141 ;;      Params:         0       0       0       0       0
  9142 ;;      Locals:         0       0       0       0       0
  9143 ;;      Temps:          0       0       0       0       0
  9144 ;;      Totals:         0       0       0       0       0
  9145 ;;Total ram usage:        0 bytes
  9146 ;; Hardware stack levels used: 1
  9147 ;; This function calls:
  9148 ;;		Nothing
  9149 ;; This function is called by:
  9150 ;;		_LCD_init
  9151 ;; This function uses a non-reentrant model
  9152 ;;
  9153                           
  9154                           
  9155                           ;psect for function _init
  9156  119D                     _init:
  9157  119D                     l3065:	
  9158                           ;incstack = 0
  9159                           ; Regs used in _init: [wreg+status,2]
  9160                           
  9161                           
  9162                           ;./lcd.h: 25:  ADCON1 = 0X07;
  9163  119D  3007               	movlw	7
  9164  119E  1683               	bsf	3,5	;RP0=1, select bank1
  9165  119F  1303               	bcf	3,6	;RP1=0, select bank1
  9166  11A0  009F               	movwf	31	;volatile
  9167  11A1                     l3067:
  9168                           
  9169                           ;./lcd.h: 26:      RA1=1;
  9170  11A1  1283               	bcf	3,5	;RP0=0, select bank0
  9171  11A2  1303               	bcf	3,6	;RP1=0, select bank0
  9172  11A3  1485               	bsf	5,1	;volatile
  9173  11A4                     l3069:
  9174                           
  9175                           ;./lcd.h: 27:  TRISA = 0X00;
  9176  11A4  1683               	bsf	3,5	;RP0=1, select bank1
  9177  11A5  1303               	bcf	3,6	;RP1=0, select bank1
  9178  11A6  0185               	clrf	5	;volatile
  9179  11A7                     l3071:
  9180                           
  9181                           ;./lcd.h: 28:  TRISD = 0X00;
  9182  11A7  0188               	clrf	8	;volatile
  9183  11A8                     l77:
  9184  11A8  0008               	return
  9185  11A9                     __end_of_init:
  9186                           
  9187                           	psect	text32
  9188  11B6                     __ptext32:	
  9189 ;; *************** function _LCD_enable *****************
  9190 ;; Defined at:
  9191 ;;		line 85 in file "./lcd.h"
  9192 ;; Parameters:    Size  Location     Type
  9193 ;;		None
  9194 ;; Auto vars:     Size  Location     Type
  9195 ;;		None
  9196 ;; Return value:  Size  Location     Type
  9197 ;;                  1    wreg      void 
  9198 ;; Registers used:
  9199 ;;		wreg, status,2, status,0, btemp+1, pclath, cstack
  9200 ;; Tracked objects:
  9201 ;;		On entry : 0/0
  9202 ;;		On exit  : 0/0
  9203 ;;		Unchanged: 0/0
  9204 ;; Data sizes:     COMMON   BANK0   BANK1   BANK3   BANK2
  9205 ;;      Params:         0       0       0       0       0
  9206 ;;      Locals:         0       0       0       0       0
  9207 ;;      Temps:          0       0       0       0       0
  9208 ;;      Totals:         0       0       0       0       0
  9209 ;;Total ram usage:        0 bytes
  9210 ;; Hardware stack levels used: 1
  9211 ;; Hardware stack levels required when called: 1
  9212 ;; This function calls:
  9213 ;;		_delay
  9214 ;; This function is called by:
  9215 ;;		_LCD_init
  9216 ;; This function uses a non-reentrant model
  9217 ;;
  9218                           
  9219                           
  9220                           ;psect for function _LCD_enable
  9221  11B6                     _LCD_enable:
  9222  11B6                     l3073:	
  9223                           ;incstack = 0
  9224                           ; Regs used in _LCD_enable: [wreg+status,2+status,0+btemp+1+pclath+cstack]
  9225                           
  9226                           
  9227                           ;./lcd.h: 87:  RA5 = 0;
  9228  11B6  1283               	bcf	3,5	;RP0=0, select bank0
  9229  11B7  1303               	bcf	3,6	;RP1=0, select bank0
  9230  11B8  1285               	bcf	5,5	;volatile
  9231                           
  9232                           ;./lcd.h: 88:  RA4 = 0;
  9233  11B9  1205               	bcf	5,4	;volatile
  9234                           
  9235                           ;./lcd.h: 89:  RA3 = 0;
  9236  11BA  1185               	bcf	5,3	;volatile
  9237  11BB                     l3075:
  9238                           
  9239                           ;./lcd.h: 90:  delay();
  9240  11BB  160A  118A  2218  160A  118A  	fcall	_delay
  9241  11C0                     l3077:
  9242                           
  9243                           ;./lcd.h: 91:  RA3 = 1;
  9244  11C0  1283               	bcf	3,5	;RP0=0, select bank0
  9245  11C1  1303               	bcf	3,6	;RP1=0, select bank0
  9246  11C2  1585               	bsf	5,3	;volatile
  9247  11C3                     l95:
  9248  11C3  0008               	return
  9249  11C4                     __end_of_LCD_enable:
  9250                           
  9251                           	psect	text33
  9252  1218                     __ptext33:	
  9253 ;; *************** function _delay *****************
  9254 ;; Defined at:
  9255 ;;		line 94 in file "./lcd.h"
  9256 ;; Parameters:    Size  Location     Type
  9257 ;;		None
  9258 ;; Auto vars:     Size  Location     Type
  9259 ;;  i               2    0[COMMON] int 
  9260 ;; Return value:  Size  Location     Type
  9261 ;;                  1    wreg      void 
  9262 ;; Registers used:
  9263 ;;		wreg, status,2, btemp+1
  9264 ;; Tracked objects:
  9265 ;;		On entry : 0/0
  9266 ;;		On exit  : 0/0
  9267 ;;		Unchanged: 0/0
  9268 ;; Data sizes:     COMMON   BANK0   BANK1   BANK3   BANK2
  9269 ;;      Params:         0       0       0       0       0
  9270 ;;      Locals:         2       0       0       0       0
  9271 ;;      Temps:          0       0       0       0       0
  9272 ;;      Totals:         2       0       0       0       0
  9273 ;;Total ram usage:        2 bytes
  9274 ;; Hardware stack levels used: 1
  9275 ;; This function calls:
  9276 ;;		Nothing
  9277 ;; This function is called by:
  9278 ;;		_LCD_escreve
  9279 ;;		_LCD_limpa
  9280 ;;		_LCD_linha1
  9281 ;;		_LCD_linha2
  9282 ;;		_LCD_enable
  9283 ;; This function uses a non-reentrant model
  9284 ;;
  9285                           
  9286                           
  9287                           ;psect for function _delay
  9288  1218                     _delay:
  9289  1218                     l2329:	
  9290                           ;incstack = 0
  9291                           ; Regs used in _delay: [wreg+status,2+btemp+1]
  9292                           
  9293                           
  9294                           ;./lcd.h: 96:  int i;;./lcd.h: 97:  for (i = 0;i < 5000;i++);
  9295  1218  01F0               	clrf	delay@i
  9296  1219  01F1               	clrf	delay@i+1
  9297  121A                     l2335:
  9298  121A  3001               	movlw	1
  9299  121B  07F0               	addwf	delay@i,f
  9300  121C  1803               	skipnc
  9301  121D  0AF1               	incf	delay@i+1,f
  9302  121E  3000               	movlw	0
  9303  121F  07F1               	addwf	delay@i+1,f
  9304  1220                     l2337:
  9305  1220  0871               	movf	delay@i+1,w
  9306  1221  3A80               	xorlw	128
  9307  1222  00FF               	movwf	btemp+1
  9308  1223  3093               	movlw	147
  9309  1224  027F               	subwf	btemp+1,w
  9310  1225  1D03               	skipz
  9311  1226  2A29               	goto	u1955
  9312  1227  3088               	movlw	136
  9313  1228  0270               	subwf	delay@i,w
  9314  1229                     u1955:
  9315  1229  1C03               	skipc
  9316  122A  2A2C               	goto	u1951
  9317  122B  2A2D               	goto	u1950
  9318  122C                     u1951:
  9319  122C  2A1A               	goto	l2335
  9320  122D                     u1950:
  9321  122D                     l100:
  9322  122D  0008               	return
  9323  122E                     __end_of_delay:
  9324  007E                     btemp	set	126	;btemp
  9325  007E                     wtemp0	set	126

Data Sizes:
    Strings     0
    Constant    0
    Data        268
    BSS         16
    Persistent  0
    Stack       0

Auto Spaces:
    Space          Size  Autos    Used
    COMMON           14     14      14
    BANK0            80     51      77
    BANK1            80      0      73
    BANK3            96      0      94
    BANK2            96      0      91

Pointer List with Targets:

    strlen@s	PTR const unsigned char  size(2) Largest target is 15
		 -> msgMascara(BANK1[5]), msgDigiteSenha(BANK2[15]), 

    strlen@cp	PTR const unsigned char  size(2) Largest target is 15
		 -> msgMascara(BANK1[5]), msgDigiteSenha(BANK2[15]), 

    strcmp@s2	PTR const unsigned char  size(1) Largest target is 5
		 -> senhaUserConfere(BANK1[5]), 

    strcmp@s1	PTR const unsigned char  size(1) Largest target is 5
		 -> senhaCoa(BANK1[5]), senhaUser(BANK1[5]), 

    escreveMesagem@texto	PTR unsigned char  size(2) Largest target is 17
		 -> msgReativar(BANK1[9]), msgDesativarZona(BANK3[15]), msgSenhaDisparo(BANK3[15]), msgSenhaCoacao(BANK3[13]), 
		 -> msgSenhaUsuario(BANK3[14]), msgSenhaConfig(BANK3[13]), msgSenhaCorreta(BANK3[14]), msgSenhaErrada(BANK2[13]), 
		 -> senhaCoa(BANK1[5]), senhaUser(BANK1[5]), senhaConfig(BANK1[5]), msgDigiteNovaSenha(BANK2[14]), 
		 -> msgSenhaCancelada(BANK2[16]), msgSenhaAtualizada(BANK2[17]), msgAceitoOuNego(BANK1[9]), msgValidaSenha(BANK2[16]), 
		 -> msgZonaDisparadas(BANK1[15]), msgConfigDispara(BANK1[15]), msgChamaAjuda(BANK3[10]), 

    rotinaValidaSenha@senhaOp	PTR unsigned char  size(1) Largest target is 5
		 -> senhaCoa(BANK1[5]), senhaUser(BANK1[5]), senhaConfig(BANK1[5]), 

    inputSenhaAlter@senhaDestino	PTR unsigned char  size(1) Largest target is 5
		 -> senhaCoa(BANK1[5]), senhaUser(BANK1[5]), senhaConfig(BANK1[5]), 

    valida_senha@texto	PTR unsigned char  size(1) Largest target is 5
		 -> senhaCoa(BANK1[5]), senhaUser(BANK1[5]), senhaConfig(BANK1[5]), 

    aux	PTR unsigned char  size(2) Largest target is 512
		 -> RAM(DATA[512]), RAM(DATA[512]), RAM(DATA[512]), RAM(DATA[512]), 
		 -> RAM(DATA[512]), RAM(DATA[512]), RAM(DATA[512]), RAM(DATA[512]), 
		 -> RAM(DATA[512]), RAM(DATA[512]), RAM(DATA[512]), RAM(DATA[512]), 
		 -> RAM(DATA[512]), NULL(NULL[0]), 

    setaZona@pos	PTR unsigned char  size(2) Largest target is 512
		 -> RAM(DATA[512]), 

    setaZona@msgConfigDispara	PTR unsigned char  size(1) Largest target is 15
		 -> msgConfigDispara(BANK1[15]), 

    setaZona@msgZonaDisparadas	PTR unsigned char  size(1) Largest target is 15
		 -> msgZonaDisparadas(BANK1[15]), 


Critical Paths under _main in COMMON

    _telaInicial->_strlen
    _configZonas->_setaZona
    _infoZonas->_escreveMesagem
    _escreveMesagem->_LCD_escreve
    _LCD_linha1->_delay
    _LCD_limpa->_delay
    _liga_buzzer->___flmul
    ___flsub->___fladd
    ___flmul->__Umul8_16
    _Linha2->_espacoLivre
    _espacoLivre->_LCD_escreve
    _LCD_linha2->_delay
    _LCD_escreve->_delay
    _LCD_enable->_delay

Critical Paths under _main in BANK0

    _main->_alteraSenhas
    _validaUser->_teclado
    _listaZonas->_liga_buzzer
    _configZonas->_setaZona
    _alteraSenhas->_rotinaValidaSenha
    _rotinaValidaSenha->_inputSenhaAlter
    _inputSenhaAlter->_valida_senha
    _valida_senha->_liga_buzzer
    _teclado->_liga_buzzer
    _liga_buzzer->___flmul
    ___flsub->___fladd

Critical Paths under _main in BANK1

    None.

Critical Paths under _main in BANK3

    None.

Critical Paths under _main in BANK2

    None.

Call Graph Tables:

 ---------------------------------------------------------------------------------
 (Depth) Function   	        Calls       Base Space   Used Autos Params    Refs
 ---------------------------------------------------------------------------------
 (0) _main                                                 3     3      0   56458
                                             48 BANK0      3     3      0
                           _LCD_init
                          _LCD_limpa
                         _LCD_linha1
                       _alteraSenhas
                        _configZonas
                     _escreveMesagem
                          _infoZonas
                          _inicioADC
                         _leituraADC
                        _liga_buzzer
                         _listaZonas
                         _validaUser
 ---------------------------------------------------------------------------------
 (1) _validaUser                                           6     6      0   13477
                                             30 BANK0      5     5      0
                           _LCD_init
                          _LCD_limpa
                         _LCD_linha1
                             _Linha2
                     _confereTeclado
                     _escreveMesagem
                           _setaZona
                             _strcmp
                            _teclado
                        _telaInicial
 ---------------------------------------------------------------------------------
 (2) _telaInicial                                          4     4      0     392
                                              4 COMMON     4     4      0
                        _LCD_escreve
                         _LCD_linha1
                             _strlen
 ---------------------------------------------------------------------------------
 (2) _strcmp                                               7     5      2     527
                                              0 COMMON     7     5      2
 ---------------------------------------------------------------------------------
 (1) _listaZonas                                           5     3      2    8778
                                             27 BANK0      5     3      2
                        _LCD_escreve
                           _LCD_init
                          _LCD_limpa
                         _LCD_linha1
                         _LCD_linha2
                     _escreveMesagem
                        _liga_buzzer
 ---------------------------------------------------------------------------------
 (1) _leituraADC                                           7     5      2      45
                                              0 COMMON     7     5      2
 ---------------------------------------------------------------------------------
 (1) _inicioADC                                            0     0      0       0
 ---------------------------------------------------------------------------------
 (1) _configZonas                                          4     4      0    4684
                                              8 BANK0      3     3      0
                          _infoZonas
                           _setaZona
 ---------------------------------------------------------------------------------
 (2) _setaZona                                            11     8      3    3206
                                             10 COMMON     3     0      3
                                              0 BANK0      8     8      0
                          _infoZonas
 ---------------------------------------------------------------------------------
 (3) _infoZonas                                            0     0      0    1336
                          _LCD_limpa
                         _LCD_linha1
                         _LCD_linha2
                     _escreveMesagem
 ---------------------------------------------------------------------------------
 (1) _alteraSenhas                                         4     2      2   19750
                                             44 BANK0      4     2      2
                           _LCD_init
                          _LCD_limpa
                             _Linha2
                     _escreveMesagem
                  _rotinaValidaSenha
 ---------------------------------------------------------------------------------
 (2) _rotinaValidaSenha                                    4     4      0   17545
                                             40 BANK0      4     4      0
                          _LCD_limpa
                         _LCD_linha2
                     _escreveMesagem
                    _inputSenhaAlter
 ---------------------------------------------------------------------------------
 (3) _inputSenhaAlter                                      5     5      0   16085
                                             35 BANK0      5     5      0
                     _confereTeclado
                            _teclado
                       _valida_senha
 ---------------------------------------------------------------------------------
 (4) _valida_senha                                         8     6      2    8594
                                             27 BANK0      8     6      2
                        _LCD_escreve
                          _LCD_limpa
                         _LCD_linha1
                         _LCD_linha2
                     _escreveMesagem
                        _liga_buzzer
 ---------------------------------------------------------------------------------
 (4) _escreveMesagem                                       7     5      2    1198
                                              3 COMMON     7     5      2
                        _LCD_escreve
 ---------------------------------------------------------------------------------
 (3) _LCD_linha1                                           0     0      0      46
                              _delay
 ---------------------------------------------------------------------------------
 (4) _LCD_limpa                                            0     0      0      46
                              _delay
 ---------------------------------------------------------------------------------
 (2) _teclado                                              3     3      0    7120
                                             27 BANK0      3     3      0
                        _LCD_escreve
                        _liga_buzzer
 ---------------------------------------------------------------------------------
 (3) _liga_buzzer                                          6     2      4    7052
                                             21 BANK0      6     2      4
                             ___flge
                            ___flmul
                            ___flsub
 ---------------------------------------------------------------------------------
 (4) ___flsub                                              8     0      8    2333
                                              8 BANK0      8     0      8
                            ___fladd
 ---------------------------------------------------------------------------------
 (5) ___fladd                                             20    12      8    2136
                                              0 COMMON    12     4      8
                                              0 BANK0      8     8      0
 ---------------------------------------------------------------------------------
 (4) ___flmul                                             26    18      8    2417
                                              9 COMMON     5     5      0
                                              0 BANK0     21    13      8
                          __Umul8_16
 ---------------------------------------------------------------------------------
 (5) __Umul8_16                                            9     7      2     799
                                              0 COMMON     9     7      2
 ---------------------------------------------------------------------------------
 (4) ___flge                                              12     4      8     334
                                              0 COMMON    12     4      8
 ---------------------------------------------------------------------------------
 (2) _confereTeclado                                       2     0      2     174
                                              0 COMMON     2     0      2
 ---------------------------------------------------------------------------------
 (2) _Linha2                                               4     4      0     552
                                              5 COMMON     4     4      0
                        _LCD_escreve
                         _LCD_linha2
                        _espacoLivre
                             _strlen
 ---------------------------------------------------------------------------------
 (3) _strlen                                               4     2      2     210
                                              0 COMMON     4     2      2
 ---------------------------------------------------------------------------------
 (3) _espacoLivre                                          2     2      0     160
                                              3 COMMON     2     2      0
                        _LCD_escreve
                         _LCD_linha2
 ---------------------------------------------------------------------------------
 (4) _LCD_linha2                                           0     0      0      46
                              _delay
 ---------------------------------------------------------------------------------
 (3) _LCD_escreve                                          1     1      0      68
                                              2 COMMON     1     1      0
                              _delay
 ---------------------------------------------------------------------------------
 (2) _LCD_init                                             0     0      0      46
                         _LCD_enable
                               _init
 ---------------------------------------------------------------------------------
 (3) _init                                                 0     0      0       0
 ---------------------------------------------------------------------------------
 (3) _LCD_enable                                           0     0      0      46
                              _delay
 ---------------------------------------------------------------------------------
 (4) _delay                                                2     2      0      46
                                              0 COMMON     2     2      0
 ---------------------------------------------------------------------------------
 Estimated maximum stack depth 5
 ---------------------------------------------------------------------------------

 Call Graph Graphs:

 _main (ROOT)
   _LCD_init
     _LCD_enable
       _delay
     _init
   _LCD_limpa
     _delay
   _LCD_linha1
     _delay
   _alteraSenhas
     _LCD_init
     _LCD_limpa
     _Linha2
       _LCD_escreve
         _delay
       _LCD_linha2
         _delay
       _espacoLivre
         _LCD_escreve
         _LCD_linha2
       _strlen
     _escreveMesagem
       _LCD_escreve
     _rotinaValidaSenha
       _LCD_limpa
       _LCD_linha2
       _escreveMesagem
       _inputSenhaAlter
         _confereTeclado
         _teclado
           _LCD_escreve
           _liga_buzzer
             ___flge
             ___flmul
               __Umul8_16
             ___flsub
               ___fladd
         _valida_senha
           _LCD_escreve
           _LCD_limpa
           _LCD_linha1
           _LCD_linha2
           _escreveMesagem
           _liga_buzzer
   _configZonas
     _infoZonas
       _LCD_limpa
       _LCD_linha1
       _LCD_linha2
       _escreveMesagem
     _setaZona
       _infoZonas
   _escreveMesagem
   _infoZonas
   _inicioADC
   _leituraADC
   _liga_buzzer
   _listaZonas
     _LCD_escreve
     _LCD_init
     _LCD_limpa
     _LCD_linha1
     _LCD_linha2
     _escreveMesagem
     _liga_buzzer
   _validaUser
     _LCD_init
     _LCD_limpa
     _LCD_linha1
     _Linha2
     _confereTeclado
     _escreveMesagem
     _setaZona
     _strcmp
     _teclado
     _telaInicial
       _LCD_escreve
       _LCD_linha1
       _strlen

 Address spaces:
Name               Size   Autos  Total    Cost      Usage
BANK3               60      0      5E       9       97.9%
BITBANK3            60      0       0       8        0.0%
SFR3                 0      0       0       4        0.0%
BITSFR3              0      0       0       4        0.0%
BANK2               60      0      5B      11       94.8%
BITBANK2            60      0       0      10        0.0%
SFR2                 0      0       0       5        0.0%
BITSFR2              0      0       0       5        0.0%
BANK1               50      0      49       7       91.2%
BITBANK1            50      0       0       6        0.0%
SFR1                 0      0       0       2        0.0%
BITSFR1              0      0       0       2        0.0%
BANK0               50     33      4D       5       96.2%
BITBANK0            50      0       0       4        0.0%
SFR0                 0      0       0       1        0.0%
BITSFR0              0      0       0       1        0.0%
COMMON               E      E       E       1      100.0%
BITCOMMON            E      0       0       0        0.0%
CODE                 0      0       0       0        0.0%
DATA                 0      0     15D      12        0.0%
ABS                  0      0     15D       3        0.0%
NULL                 0      0       0       0        0.0%
STACK                0      0       0       2        0.0%
EEDATA             100      0       0       0        0.0%


Microchip Technology PIC Macro Assembler V2.32 build 20210201212658 
Symbol Table                                                                                   Mon Oct 04 16:02:50 2021

         _msgDigiteNovaSenha 0150                            pc 0002           ?_rotinaValidaSenha 0070  
                         l80 131D                           l83 1204                           l92 11D3  
                         l77 11A8                           l86 11E3                           l95 11C3  
                         l89 11F3                           fsr 0004          __Umul8_16@word_mpld 0076  
            escreveMesagem@i 0078                  ?_LCD_enable 0070                          l100 122D  
                        l213 08EB                          l222 1270                          l232 09D8  
                        l219 08FD                          l315 0B29                          l341 1354  
                        l350 12EA                          l247 163B                          l255 17FF  
                        l263 156D                          l335 0D67                          l344 11B5  
                        l282 16B7                          l362 01F4                          l347 12DC  
                        l268 141A                          l276 14B6                          l294 1392  
                        l374 02EA                          l384 03B6                          l288 13D2  
                        l810 0FF1                          l802 0FCD                          l299 124E  
                        l811 0FFF                          l652 1740                          l653 1759  
                        l389 045C                          l814 1294                          l649 16D4  
                        l931 082C                          l772 0E74                          l781 0FFF  
                        l870 0729                          l774 0E49                          l864 07BD  
                        l768 0DCB                          l937 0021                          l793 0F6B  
                        l883 12A9                          l876 07B1                          l885 12BB  
                        l789 0F45                          l799 0F8D                          _RA1 0029  
                        _RB0 0030                          _RA3 002B                          _RB1 0031  
                        _RA4 002C                          _RB2 0032                          _RA5 002D  
                        _RB3 0033                  ?_LCD_linha1 0070                  ?_LCD_linha2 0070  
        ??_rotinaValidaSenha 0048                          _aux 005B                          fsr0 0004  
                        indf 0000                 ___flmul@aexp 002D                 ___flmul@bexp 002E  
               ___flmul@sign 0028                 ___flmul@temp 0033                 ___flmul@prod 002F  
    __size_of_escreveMesagem 0037                         l3001 0329                         l3011 0358  
                       l3003 032D                         l3021 0378                         l3013 035C  
                       l3005 033B                         l3031 03B0                         l3023 0387  
                       l3015 0362                         l3007 034A                         l2401 0DF5  
                       l3041 03E1                         l3033 03BA                         l3025 038D  
                       l3009 0350                         l3017 0366                         l4001 0D52  
                       l3131 12EB                         l2411 0E09                         l2403 0DF9  
                       l3051 0410                         l3043 03E7                         l3035 03BE  
                       l3027 0393                         l3019 036A                         l4011 147E  
                       l4003 0D61                         l3141 1302                         l3133 12F0  
                       l3125 1235                         l3117 122E                         l2501 0F8A  
                       l2421 0E2D                         l2413 0E0D                         l2405 0DFD  
                       l2341 0D6F                         l3061 0447                         l3053 041E  
                       l3045 03F5                         l3037 03CC                         l3029 03A1  
                       l4021 14A2                         l4013 1487                         l4005 1464  
                       l4101 00BE                         l2335 121A                         l3071 11A7  
                       l3151 1318                         l3143 1306                         l3135 12F4  
                       l3127 123B                         l3119 1233                         l2511 0FA9  
                       l2431 0E5F                         l2423 0E4D                         l2415 0E11  
                       l2407 0E01                         l2351 0D84                         l2343 0D75  
                       l3063 0456                         l3055 042D                         l3047 0404  
                       l3039 03DB                         l4023 14A9                         l4015 148C  
                       l4007 146E                         l4031 0911                         l4111 00D1  
                       l2337 1220                         l2329 1218                         l3073 11B6  
                       l3065 119D                         l3145 130B                         l3137 12F9  
                       l3129 1241                         l2601 0483                         l2521 0FE4  
                       l2513 0FC9                         l2505 0F92                         l2433 0E6A  
                       l2425 0E58                         l2409 0E05                         l2417 0E15  
                       l2361 0D9C                         l2353 0D8C                         l2345 0D79  
                       l3057 0433                         l3049 040A                         l4025 14B0  
                       l4017 1494                         l4009 1478                         l4041 0936  
                       l4033 0911                         l3241 080D                         l4105 00C7  
                       l3075 11BB                         l3067 11A1                         l3147 130F  
                       l3139 12FD                         l2611 049B                         l2603 048B  
                       l2531 0FFE                         l2523 0FE5                         l2515 0FD2  
                       l2507 0F97                         l2451 0EB0                         l2443 0E86  
                       l2427 0E5A                         l2435 0E6E                         l2419 0E16  
                       l2371 0DAE                         l2363 0DA2                         l2355 0D8D  
                       l2347 0D7A                         l2339 0D68                         l3059 0439  
                       l4019 149B                         l4051 097A                         l4043 0946  
                       l4035 0918                         l4027 08FE                         l3243 0820  
                       l3235 0804                         l4115 00D7                         l3077 11C0  
                       l3069 11A4                         l3149 1314                         l2541 12B2  
                       l2533 1296                         l2701 075E                         l2621 04B7  
                       l2613 04A0                         l2605 0490                         l2525 0FE9  
                       l2517 0FD7                         l2509 0FA5                         l2453 0EB2  
                       l2445 0E9D                         l2437 0E78                         l2461 0EC7  
                       l2429 0E5E                         l2373 0DB3                         l2381 0DC3  
                       l2365 0DA3                         l2349 0D7F                         l2357 0D8F  
                       l4053 0992                         l4045 094C                         l4037 091A  
                       l4061 09D0                         l4029 0903                         l3341 12E0  
                       l3245 0827                         l3237 0805                         l4117 00F0  
                       l2551 11FA                         l2543 12B7                         l2535 1298  
                       l2711 0795                         l2703 0764                         l2631 04DA  
                       l2623 04BC                         l2615 04A5                         l2607 0496  
                       l2527 0FEB                         l2519 0FDF                         l2463 0EDD  
                       l2471 0F37                         l2455 0EB6                         l2447 0EA1  
                       l2439 0E7D                         l2391 0DE1                         l2383 0DD1  
                       l2375 0DB8                         l2367 0DA9                         l2359 0D97  
                       l4055 09A2                         l4047 0964                         l4039 091E  
                       l3335 12BD                         l3239 0809                         l4119 00F4  
                       l4071 0032                         l4063 0022                         l2553 11FB  
                       l2801 1605                         l2561 16CC                         l2537 129F  
                       l2721 07B5                         l2713 0797                         l2705 0771  
                       l2641 0568                         l2633 04E7                         l2625 04C1  
                       l2617 04AD                         l2609 049A                         l2529 0FFA  
                       l2481 0F66                         l2473 0F4D                         l2465 0F1D  
                       l2457 0EB7                         l2449 0EA5                         l2393 0DE5  
                       l2385 0DD5                         l2377 0DC0                         l2369 0DAD  
                       l4057 09A8                         l4049 0974                         l3249 11A9  
                       l3337 12D0                         l4081 0066                         l4073 0037  
                       l4065 0026                         l2555 11FC                         l2547 11F5  
                       l2803 160C                         l2571 171C                         l2563 16E8  
                       l2539 12A3                         l2715 07A5                         l2707 077C  
                       l2651 05CA                         l2643 0584                         l2635 0504  
                       l2619 04AF                         l2491 0F79                         l2483 0F6A  
                       l2475 0F52                         l2467 0F23                         l2459 0EC2  
                       l2395 0DE9                         l2387 0DD9                         l2379 0DC1  
                       l2731 11DA                         l4059 09C0                         l3339 12D9  
                       l4091 0085                         l4083 006B                         l4075 0040  
                       l4067 0028                         l2557 1201                         l2549 11F9  
                       l2573 1756                         l2565 16F0                         l2717 07A9  
                       l2709 078B                         l2661 065A                         l2653 05E7  
                       l2645 058D                         l2637 0520                         l2629 04CA  
                       l2485 0F6F                         l2493 0F7B                         l2469 0F28  
                       l2397 0DED                         l2389 0DDD                         l2581 1275  
                       l2901 01AD                         l2733 11DB                         l2725 11D4  
                       l2741 11E9                         l4085 006F                         l4077 004F  
                       l4093 0092                         l4069 002C                         l2751 11C8  
                       l2807 1613                         l2575 1758                         l2567 16F4  
                       l2559 16B8                         l2719 07AA                         l2671 06EC  
                       l2663 0687                         l2655 0600                         l2647 059D  
                       l2639 054C                         l2591 046E                         l2487 0F72  
                       l2479 0F5B                         l2495 0F7F                         l2399 0DF1  
                       l2911 01D8                         l2903 01B3                         l2735 11E0  
                       l2727 11D8                         l2743 11EA                         l3711 152C  
                       l4095 009B                         l4087 0073                         l4079 0058  
                       l2753 11C9                         l3721 0004                         l2809 1638  
                       l2569 1718                         l2673 06F5                         l2681 0709  
                       l2665 06AD                         l2657 061D                         l2649 05BA  
                       l2593 046F                         l2585 045D                         l2497 0F80  
                       l2489 0F74                         l2921 01F6                         l2913 01DE  
                       l2905 01B7                         l2729 11D9                         l2745 11EB  
                       l2737 11E4                         l3713 1536                         l3705 1517  
                       l3801 1393                         l4177 00DC                         l4097 00A7  
                       l4089 0081                         l2755 11CA                         l3723 0009  
                       l4179 1618                         l2683 070D                         l2675 06F9  
                       l2667 06D5                         l2659 064A                         l2595 0474  
                       l2587 0464                         l2499 0F84                         l2579 1271  
                       l2771 165D                         l2931 0225                         l2923 01FA  
                       l2915 01E6                         l2907 01BB                         l2747 11F0  
                       l2739 11E8                         l3651 1338                         l3715 154C  
                       l3707 151E                         l3731 0830                         l3811 13CC  
                       l3803 139E                         l4099 00B0                         l2757 11CB  
                       l2749 11C4                         l3725 000F                         l2693 072E  
                       l2685 070E                         l2677 06FA                         l2669 06DE  
                       l2597 0479                         l2589 046A                         l2781 16B3  
                       l2773 1669                         l2941 0245                         l2933 0229  
                       l2925 0208                         l2917 01EA                         l2909 01C9  
                       l2861 0116                         l3653 133E                         l3661 1774  
                       l3717 1552                         l3709 1523                         l3741 085F  
                       l3733 0836                         l3901 0B4C                         l3805 13A1  
                       l3821 09FC                         l3813 09D9                         l2759 11D0  
                       l3727 0019                         l2791 15E2                         l2783 15CC  
                       l2695 0733                         l2687 0712                         l2679 0703  
                       l2599 0481                         l2775 166C                         l2951 026C  
                       l2943 0254                         l2935 022F                         l2927 0217  
                       l2919 01F0                         l2871 013B                         l2863 0125  
                       l2855 00FE                         l3647 131E                         l3671 17A6  
                       l3663 1784                         l3655 175D                         l3719 155F  
                       l3751 0889                         l3743 0869                         l3735 0839  
                       l3911 0B86                         l3903 0B55                         l3807 13AB  
                       l3831 0A0B                         l3823 0A02                         l3815 09DE  
                       l2793 15E9                         l2785 15CD                         l2697 0741  
                       l2689 0726                         l2777 1677                         l2769 163C  
                       l2961 0297                         l2945 025A                         l2953 0270  
                       l2929 021D                         l2937 0233                         l2881 0164  
                       l2865 012B                         l2873 013D                         l2857 0104  
                       l3649 1321                         l3681 17C9                         l3673 17AC  
                       l3665 178A                         l3657 1761                         l3761 08BE  
                       l3753 088C                         l3737 0844                         l3745 086F  
                       l3921 0BB3                         l3905 0B63                         l3913 0B8D  
                       l3809 13B1                         l3841 0A42                         l3833 0A10  
                       l3817 09E8                         l2795 15F0                         l2787 15D4  
                       l2699 0745                         l2779 1698                         l2971 02B1  
                       l2963 029F                         l2955 0274                         l2947 0262  
                       l2939 0237                         l2891 017E                         l2883 016C  
                       l2875 0141                         l2867 0133                         l2859 0108  
                       l3683 17D6                         l3675 17B9                         l3667 1793  
                       l3659 176B                         l3771 08F8                         l3763 08D0  
                       l3755 0897                         l3739 0856                         l3747 0877  
                       l3931 0BE5                         l3923 0BB9                         l3915 0B96  
                       l3907 0B69                         l3851 0A66                         l3843 0A54  
                       l3835 0A19                         l3819 09F7                         l2797 15F7  
                       l2789 15DB                         l2981 02E0                         l2973 02BF  
                       l2965 02A3                         l2957 0282                         l2949 0266  
                       l2893 018C                         l2885 0170                         l2877 014F  
                       l2869 0135                         l3685 17DC                         l3677 17BD  
                       l3669 1798                         l3781 13F2                         l3773 13D6  
                       l3693 124F                         l3765 08D9                         l3757 08A9  
                       l3749 0883                         l3941 0C21                         l3925 0BC2  
                       l3917 0BA5                         l3933 0BEC                         l3909 0B77  
                       l3861 0A97                         l3853 0A6F                         l3845 0A5A  
                       l3837 0A2B                         l3829 0A04                         l3791 135F  
                       l2799 15FE                         l2991 030D                         l2983 02E6  
                       l2975 02CE                         l2967 02A9                         l2959 0291  
                       l2895 019B                         l2887 0176                         l2879 015E  
                       l3679 17C3                         l3687 17E2                         l3783 13F7  
                       l3775 13DC                         l3695 1259                         l3767 08E3  
                       l3759 08B3                         l3951 0C54                         l3943 0C27  
                       l3935 0BF5                         l3927 0BC8                         l3919 0BAE  
                       l3863 0A9B                         l3871 0ABD                         l3847 0A5C  
                       l3839 0A32                         l3855 0A7D                         l3793 1362  
                       l2993 0313                         l2985 02EC                         l2977 02D4  
                       l2969 02AD                         l2897 01A1                         l2889 017A  
                       l3689 17EB                         l3785 1403                         l3777 13E1  
                       l3697 1262                         l3769 08F6                         l3961 0C80  
                       l3953 0C63                         l3945 0C35                         l3937 0C0A  
                       l3929 0BD6                         l3881 0ADB                         l3873 0ACF  
                       l3865 0AA0                         l3857 0A8F                         l3849 0A61  
                       l3795 136C                         l2995 031B                         l2987 02F0  
                       l2979 02DC                         l2899 01A9                         l3699 1515  
                       l3787 140C                         l3779 13E9                         l3971 0CB3  
                       l3963 0C86                         l3955 0C6C                         l3947 0C44  
                       l3939 0C13                         l3883 0AE0                         l3875 0AD3  
                       l3891 0B0C                         l3867 0AA5                         l3859 0A93  
                       l3797 1372                         l3789 1355                         l2997 031F  
                       l2989 02FE                         l3981 0CF3                         l3973 0CC8  
                       l3965 0C94                         l3957 0C71                         l3949 0C4B  
                       l3893 0B14                         l3885 0AE5                         l3877 0AD7  
                       l3869 0AAE                         l3799 138D                         l2999 0325  
                       l3991 0D2A                         l3983 0D02                         l3975 0CD1  
                       l3967 0CA3                         l3959 0C77                         l3887 0AEE  
                       l3879 0AD7                         l3895 0B21                         l3993 0D2F  
                       l3977 0CDF                         l3985 0D09                         l3969 0CAA  
                       l3897 0B2A                         l3889 0AFC                         l3995 0D35  
                       l3987 0D12                         l3979 0CE5                         l3899 0B37  
                       l3997 0D3E                         l3989 0D21                         l3999 0D44  
                       u2000 0DAD                         u2001 0DAC                         u2010 0DB3  
                       u2011 0DB2                         u2020 0DB8                         u2021 0DB7  
                       u2110 0E74                         u2030 0DD1                         u2111 0E73  
                       u2031 0DD0                         u2120 0E78                         u2040 0DD5  
                       u3000 016C                         u2201 0EF6                         u2121 0E77  
                       u2105 0E63                         u2041 0DD4                         u3001 016B  
                       u2210 0F0A                         u2202 0EF7                         u2130 0E7D  
                       u2050 0E2D                         u3010 0176                         u2211 0F0B  
                       u2203 0EFC                         u2131 0E7C                         u2051 0E2C  
                       u3011 0175                         u2300 0F84                         u2220 0F28  
                       u2212 0F10                         u2204 0EFD                         u2060 0E36  
                       u3100 022F                         u3020 017E                         u2301 0F83  
                       u2221 0F27                         u2213 0F11                         u2205 0F02  
                       u2141 0E8F                         u2061 0E34                         u3101 022E  
                       u3021 017D                         u2310 0F8A                         u2230 0F4D  
                       u2206 0F03                         u2150 0EA1                         u2142 0E96  
                       u2070 0E37                         u3110 0237                         u3030 01A9  
                       u2311 0F89                         u2231 0F4C                         u2151 0EA0  
                       u2143 0E9D                         u2055 0E29                         u3111 0236  
                       u3031 01A8                         u2400 0FE9                         u2320 0F91  
                       u2240 0F52                         u2160 0EA5                         u2080 0E4D  
                       u3200 02F0                         u3120 0262                         u3040 01B3  
                       u4000 0836                         u2401 0FE8                         u2321 0F90  
                       u2241 0F51                         u2161 0EA4                         u2081 0E4C  
                       u3201 02EF                         u3121 0261                         u3041 01B2  
                       u4001 0835                         u2410 0FFE                         u2330 0F97  
                       u2170 0EB6                         u2090 0E5E                         u3210 031B  
                       u3130 026C                         u3050 01BB                         u4010 0844  
                       u2411 0FFD                         u2331 0F96                         u2171 0EB5  
                       u2091 0E5D                         u3211 031A                         u3131 026B  
                       u3051 01BA                         u4011 0843                         u2420 12A3  
                       u2340 0FA9                         u2260 0F6A                         u3300 0410  
                       u3220 0325                         u3140 0274                         u3060 01E6  
                       u4100 13E9                         u4020 0856                         u2501 172B  
                       u2421 12A2                         u2341 0FA8                         u2261 0F69  
                       u3301 040F                         u3221 0324                         u3141 0273  
                       u3061 01E5                         u4101 13E8                         u4021 0855  
                       u4110 138D                         u2510 1756                         u2502 172C  
                       u2350 0FBA                         u2270 0F6F                         u2190 0EDD  
                       u3310 0439                         u3230 032D                         u3150 029F  
                       u3070 01F0                         u4030 0882                         u4111 138C  
                       u2511 1755                         u2503 1731                         u2271 0F6E  
                       u2255 0F5F                         u2191 0EDC                         u3311 0438  
                       u3231 032C                         u3151 029E                         u3071 01EF  
                       u4031 0881                         u2504 1732                         u2440 12B7  
                       u2520 046E                         u2360 0FC9                         u2280 0F79  
                       u3240 0358                         u3160 02A9                         u3080 01FA  
                       u4040 0889                         u4120 13CC                         u4200 0B29  
                       u2505 1737                         u2441 12B6                         u2601 0512  
                       u2521 046D                         u2361 0FC8                         u2281 0F78  
                       u2193 0ED9                         u2185 0EBB                         u3241 0357  
                       u3161 02A8                         u3081 01F9                         u4041 0888  
                       u4025 0852                         u4121 13CB                         u4201 0B28  
                       u2506 1738                         u2450 16CC                         u2602 0519  
                       u2530 0474                         u2370 0FD2                         u2290 0F7F  
                       u3250 0362                         u3170 02B1                         u3090 0225  
                       u4050 0897                         u4210 0B37                         u4130 0A19  
                       u4115 1389                         u2515 1752                         u2451 16CB  
                       u2435 12AA                         u2611 052E                         u2603 0520  
                       u2531 0473                         u2371 0FD1                         u2355 0FB5  
                       u2291 0F7E                         u3251 0361                         u3171 02B0  
                       u3091 0224                         u4051 0896                         u4211 0B36  
                       u4131 0A18                         u2460 16E8                         u2612 0535  
                       u2540 0479                         u2380 0FD7                         u3260 036A  
                       u3180 02DC                         u4060 08A9                         u4300 0CE5  
                       u4220 0B69                         u3500 0827                         u4140 0A32  
                       u2461 16E7                         u2701 0669                         u2621 055A  
                       u2613 053C                         u2541 0478                         u2381 0FD6  
                       u3261 0369                         u3181 02DB                         u4061 08A8  
                       u4301 0CE4                         u4221 0B68                         u3501 0826  
                       u4125 13C8                         u4141 0A31                         u3350 124E  
                       u2470 16F4                         u2710 0693                         u2702 0670  
                       u2622 0561                         u2550 049A                         u2390 0FE4  
                       u3270 0393                         u3190 02E6                         u4070 08BE  
                       u4310 0D12                         u4230 0B96                         u4150 0A42  
                       u3351 124D                         u2471 16F3                         u2703 0677  
                       u2631 0576                         u2623 0568                         u2551 0499  
                       u2391 0FE3                         u3271 0392                         u3191 02E5  
                       u4071 08BD                         u4311 0D11                         u4231 0B95  
                       u4151 0A41                         u2800 0712                         u2632 057D  
                       u2560 04A0                         u3280 03BE                         u4080 08D0  
                       u4400 09D8                         u3600 12E0                         u4320 0D44  
                       u4240 0BC8                         u4160 0A54                         u2481 1703  
                       u2801 0711                         u2721 069F                         u2633 0584  
                       u2561 049F                         u3281 03BD                         u4081 08CF  
                       u4065 08A5                         u4401 09D7                         u3601 12DF  
                       u4321 0D43                         u4241 0BC7                         u4161 0A53  
                       u2490 171C                         u2482 1704                         u2810 0726  
                       u2730 06BB                         u2722 06A6                         u2570 04A5  
                       u3290 03E7                         u4330 1494                         u4090 08F6  
                       u4250 0BF5                         u4170 0A8F                         u4410 003F  
                       u3355 124A                         u2491 171B                         u2483 1709  
                       u2811 0725                         u2723 06AD                         u2715 068E  
                       u2651 05AC                         u2571 04A4                         u3291 03E6  
                       u4331 1493                         u4091 08F5                         u4251 0BF4  
                       u4171 0A8E                         u4411 003E                         u2484 170A  
                       u2820 072D                         u2652 05B3                         u2580 04BC  
                       u4340 14A2                         u4260 0C27                         u4180 0ACF  
                       u4420 0073                         u2485 170F                         u2821 072C  
                       u2741 06C7                         u2661 05D9                         u2653 05BA  
                       u2645 0586                         u2581 04BB                         u4341 14A1  
                       u4085 08CC                         u4261 0C26                         u4181 0ACE  
                       u4421 0072                         u1950 122D                         u2486 1710  
                       u2830 0733                         u2742 06CE                         u2662 05E0  
                       u2590 04C1                         u4350 14B0                         u4270 0C54  
                       u4190 0B21                         u4430 009A                         u1951 122C  
                       u2831 0732                         u2743 06D5                         u2735 06B6  
                       u2663 05E7                         u2591 04C0                         u4351 14AF  
                       u4271 0C53                         u4191 0B20                         u4431 0099  
                       u2840 0745                         u1960 0D79                         u2920 16B3  
                       u4360 091E                         u4280 0C86                         u4440 00C6  
                       u2841 0744                         u2681 060F                         u1961 0D78  
                       u2921 16B2                         u4361 091D                         u4281 0C85  
                       u4441 00C5                         u2850 0754                         u2770 06F9  
                       u2682 0616                         u1970 0D7F                         u4370 094C  
                       u4290 0CB3                         u3490 0820                         u4450 00FA  
                       u1955 1229                         u2771 06F8                         u2755 06D7  
                       u2691 063C                         u2683 061D                         u2675 05E9  
                       u1971 0D7E                         u4371 094B                         u4291 0CB2  
                       u3491 081F                         u4195 0B1D                         u4507 09F3  
                       u4451 00F9                         u2860 0771                         u2692 0643  
                       u1980 0D84                         u4380 097A                         u2861 0770  
                       u2765 06EE                         u2693 064A                         u1981 0D83  
                       u4381 0979                         u4517 0A77                         u2870 078B  
                       u2790 070D                         u1990 0DA2                         u3910 132B  
                       u4390 09A8                         u2871 078A                         u2855 074F  
                       u2791 070C                         u1991 0DA1                         u4391 09A7  
                       u4607 12D4                         u4527 0AB6                         u2880 07A9  
                       u2960 0108                         u3920 1348                         u2881 07A8  
                       u2865 076D                         u2785 06FC                         u2961 0107  
                       u4617 090B                         u4537 0AF6                         u2970 0133  
                       u3930 1354                         u2875 0787                         u2971 0132  
                       u3931 1353                         u4707 0865                         u4627 0926  
                       u3595 12C6                         u4547 0B71                         u4467 0060  
                       u2980 013B                         u3940 17AC                         u2981 013A  
                       u3941 17AB                         u4717 08DF                         u4637 0932  
                       u4557 0BD0                         u4477 007B                         u2990 0141  
                       u3950 17C9                         u4807 01C3                         u2991 0140  
                       u3951 17C8                         u4727 1474                         u4647 0954  
                       u4567 0C2F                         u4487 00B8                         u3960 17EB  
                       u4817 0202                         u3961 17EA                         u4737 1414  
                       u4657 0960                         u4577 0C8E                         u4497 09E4  
                       u3970 152C                         u4907 03EF                         u4827 023F  
                       u4747 1532                         u3971 152B                         u4667 0982  
                       u4587 0CED                         u3980 155F                         u4917 0418  
                       u4837 027C                         u4757 17A0                         u3981 155E  
                       u4677 098E                         u4597 0D4C                         u3990 0019  
                       u3991 0018                         u4927 0441                         u4847 02B9  
                       u4767 17F3                         u4687 09B0                         u4937 1663  
                       u4857 02F8                         u4777 0110                         u3985 155B  
                       u4697 09BC                         u4947 1672                         u4867 0335  
                       u4787 0149                         u4877 0372                         u4797 0186  
                       u4887 039B                         u4897 03C6                 ?_LCD_escreve 0070  
                       _main 0022                         _init 119D                         _menu 0065  
               ?_liga_buzzer 0035                         btemp 007E                 ?_espacoLivre 0070  
           _senhaUserConfere 00DF    __end_of_rotinaValidaSenha 141B                         start 0000  
         __size_of_LCD_limpa 0010             __end_of_LCD_init 131E              __end_of___fladd 1000  
                      ?_main 0070                        ?_init 0070              __end_of___flmul 07BE  
            __end_of___flsub 1295                        _PORTB 0006                        _PORTD 0008  
                      _PORTE 0009                        _TRISA 0085                        _TRISB 0086  
                      _TRISD 0088                        _TRISE 0089                        _delay 1218  
                      _input 006B              __end_of_teclado 045D                        pclath 000A  
                      status 0003                        wtemp0 007E             ?_inputSenhaAlter 0070  
        __size_of_LCD_enable 000E          __size_of_LCD_linha1 0010          __size_of_LCD_linha2 0010  
            __initialization 07BE                 __end_of_main 00FE                 __end_of_init 11A9  
               ?_telaInicial 0070                       ??_main 0050                       ??_init 0070  
       __end_of_alteraSenhas 14B7              _msgAceitoOuNego 00BE            __end_of_LCD_limpa 11E4  
                     ?_delay 0070                       _ADCON0 001F                       _ADCON1 009F  
                     _ADRESH 001E                       _ADRESL 009E   __size_of_rotinaValidaSenha 0048  
                     _Linha2 1355                       ___flge 16B8                    ??___fladd 0020  
       __size_of_configZonas 00DB                    ??___flmul 0079                    ??___flsub 007C  
          _msgSenhaCancelada 0131                       delay@i 0070              leituraADC@canal 0076  
                     _strcmp 0803                       _strlen 0004             __end_of_setaZona 08FE  
           ??_confereTeclado 0072           __size_of__Umul8_16 0027                    ??_teclado 003B  
             _escreveMesagem 131E                   ___flge@ff1 0070                   ___flge@ff2 0074  
    __end_of__initialization 07FC                    ?_LCD_init 0070         __size_of_LCD_escreve 0011  
               LCD_escreve@x 0072         __size_of_liga_buzzer 007C         __size_of_espacoLivre 0021  
             __pcstackCOMMON 0070                 __pidataBANK0 1193                 __pidataBANK1 141B  
               __pidataBANK2 14B7                 __pidataBANK3 156E                __end_of_delay 122E  
               ??_LCD_enable 0072                 ??_LCD_linha1 0072                 ??_LCD_linha2 0072  
     __end_of_escreveMesagem 1355                 espacoLivre@i 0073    setaZona@msgZonaDisparadas 0027  
                    ??_delay 0070     rotinaValidaSenha@senhaOp 004B                _msgChamaAjuda 01E4  
                 __pbssBANK0 0053           __size_of_inicioADC 000D           __size_of_infoZonas 0022  
        escreveMesagem@texto 0073                   ??_LCD_init 0072                      ?_Linha2 0070  
         __end_of_LCD_enable 11C4            __end_of__Umul8_16 12BC           __end_of_LCD_linha1 11F4  
         __end_of_LCD_linha2 11D4                   __pmaintext 0022                      ?___flge 0070  
      __size_of_alteraSenhas 0053         confereTeclado@numero 0070                      ?_strcmp 0070  
                    ?_strlen 0070              ?_escreveMesagem 0073         __size_of_telaInicial 0040  
                    Linha2@i 0077                ?_valida_senha 003B     liga_buzzer@tempoSegundos 0035  
               _alteraSenhas 1464              __size_of_Linha2 003E                    ?_setaZona 007A  
            __size_of___flge 00A2           valida_senha@aceito 0041                      ___fladd 0D68  
                    ___flmul 045D                      ___flsub 1271                   _leituraADC 12BC  
                setaZona@pos 007B                  validaUser@n 0041            __end_of_inicioADC 11B6  
                    __ptext1 09D9                      __ptext2 1393                      __ptext3 0803  
                    __ptext4 0B2A                      __ptext5 12BC                      __ptext6 11A9  
                    __ptext7 08FE                      __ptext8 082D                      __ptext9 124F  
          __end_of_infoZonas 1271              __size_of_strcmp 002A              __size_of_strlen 001E  
                 _msgMascara 00D0                      _teclado 00FE                   _listaZonas 0B2A  
       alteraSenhas@opConfig 004C                      clrloop0 118C         end_of_initialization 07FC  
             ??_valida_senha 003D                    _LCD_limpa 11D4                   _validaUser 09D9  
                 ??_setaZona 0020     __size_of_inputSenhaAlter 005C                      strcmp@r 0075  
                    strlen@s 0070                  ___fladd@grs 007B           _msgSenhaAtualizada 0110  
                 ?_LCD_limpa 0070                  ___flmul@grs 0029             _paizonaConfignel 0069  
              ??_configZonas 0028            __size_of_LCD_init 0033               __end_of_Linha2 1393  
                 _zonaConfig 005F                  ?_leituraADC 0070               __end_of___flge 175A  
             __end_of_strcmp 082D               __end_of_strlen 0022          start_initialization 07BE  
                ?_listaZonas 003B               _valorSensorAux 0053                ??_LCD_escreve 0072  
              _senhaCoaAtivo 0061                ??_liga_buzzer 0039                ??_espacoLivre 0073  
                ?_validaUser 0070                     ??_Linha2 0075                     ??___flge 0078  
                 init_fetch0 1205                    __Umul8_16 1295                  __pdataBANK0 0063  
                __pdataBANK1 00A0                  __pdataBANK2 0110                  __pdataBANK3 0190  
           ??_escreveMesagem 0075          __end_of_configZonas 09D9         __end_of_valida_senha 1800  
                   ??_strcmp 0072                     ??_strlen 0072                    ___fladd@a 0074  
                  ___fladd@b 0070            ??_inputSenhaAlter 0043                    ___flmul@a 0024  
                  ___flmul@b 0020                    ___flsub@a 0028                    ___flsub@b 002C  
              setaZona@i_185 0025                    ___latbits 0002                __pcstackBANK0 0020  
                ??_LCD_limpa 0072          __size_of_leituraADC 002F             inputSenhaAlter@i 0046  
    __size_of_confereTeclado 0070          __end_of_LCD_escreve 1205          __end_of_liga_buzzer 16B8  
                   ?___fladd 0070          __end_of_espacoLivre 124F          __size_of_listaZonas 023E  
                   ?___flmul 0020                     ?___flsub 0028            __size_of_setaZona 00D1  
          _msgZonaDisparadas 00A0                   ?__Umul8_16 0070                 telaInicial@i 0076  
              ??_telaInicial 0074               _msgDigiteSenha 0141                    _auxSensor 0063  
inputSenhaAlter@senhaDestino 0045                    _inicioADC 11A9                     ?_teclado 0070  
                _alteraSenha 0059          __size_of_validaUser 0151                    _infoZonas 124F  
             __size_of_delay 0016            valida_senha@texto 0040                     _LCD_init 12EB  
                  clear_ram0 118B                    _senhaUser 00E4                  _configZonas 08FE  
                   _GO_nDONE 00FA                    _userFalse 0067                   ?_inicioADC 0070  
                 ?_infoZonas 0070          __end_of_telaInicial 13D3                  _LCD_escreve 11F4  
                _liga_buzzer 163C                  _espacoLivre 122E             _msgDesativarZona 0190  
      __size_of_valida_senha 00A6                 ??_leituraADC 0072                  ??__Umul8_16 0072  
           __size_of___fladd 0298              _msgSenhaDisparo 019F             __size_of___flmul 0361  
           __size_of___flsub 0024              _msgSenhaCorreta 01BC              _msgSenhaUsuario 01AE  
               ??_listaZonas 003D             __size_of_teclado 035F                     __ptext10 1464  
                   __ptext11 13D3                     __ptext20 0D68                     __ptext12 1512  
                   __ptext21 045D                     __ptext13 175A                     __ptext30 12EB  
                   __ptext22 1295                     __ptext14 131E                     __ptext31 119D  
                   __ptext23 16B8                     __ptext15 11E4                     __ptext32 11B6  
                   __ptext24 15CC                     __ptext16 11D4                     __ptext33 1218  
                   __ptext25 1355                     __ptext17 00FE                     __ptext26 0004  
                   __ptext18 163C                     __ptext27 122E                     __ptext19 1271  
                   __ptext28 11C4                     __ptext29 11F4                     _opConfig 0057  
         __end_of_leituraADC 12EB                 _valida_senha 175A               _confereTeclado 15CC  
                  setaZona@i 0023                __size_of_main 00DC                __size_of_init 000C  
               ??_validaUser 003E                  _msgReativar 00C7                     _senhaCoa 00DA  
                   _setaZona 082D              _inputSenhaAlter 1512           __end_of_listaZonas 0D68  
                _telaInicial 1393                   _LCD_enable 11B6            leituraADC@leitura 0074  
                 _LCD_linha1 11E4                   _LCD_linha2 11C4                  ??_inicioADC 0070  
                _senhaConfig 00D5                  ??_infoZonas 007A                     init_ram0 1209  
         __end_of_validaUser 0B2A               _msgSenhaCoacao 01CA               _msgSenhaConfig 01D7  
             _msgSenhaErrada 015E       __end_of_confereTeclado 163C                  _validaSenha 005D  
           _msgConfigDispara 00AF               _msgValidaSenha 0121                ?_alteraSenhas 004C  
   setaZona@msgConfigDispara 007A                  _valorSensor 0055       __Umul8_16@multiplicand 0070  
      listaZonas@valorSensor 003B                     strcmp@s1 0076                     strcmp@s2 0070  
                   strlen@cp 0072                ___fladd@signs 0078              ?_confereTeclado 0070  
               ___fladd@aexp 0079                 ___fladd@bexp 007A         __Umul8_16@multiplier 0078  
    __end_of_inputSenhaAlter 156E               ??_alteraSenhas 004E                 ?_configZonas 0070  
          __Umul8_16@product 0074            _rotinaValidaSenha 13D3  
