

Microchip MPLAB XC8 Assembler V2.32 build 20210201212658 
                                                                                               Mon Oct 04 05:26:12 2021

Microchip MPLAB XC8 C Compiler v2.32 (Free license) build 20210201212658 Og1 
     1                           	processor	16F877A
     2                           	pagewidth 120
     3                           	opt	flic
     4                           	psect	idataBANK0,global,class=CODE,delta=2,noexec
     5                           	psect	idataBANK1,global,class=CODE,delta=2,noexec
     6                           	psect	idataBANK2,global,class=CODE,delta=2,noexec
     7                           	psect	idataBANK3,global,class=CODE,delta=2,noexec
     8                           	psect	cinit,global,class=CODE,merge=1,delta=2
     9                           	psect	bssBANK0,global,class=BANK0,space=1,delta=1,noexec
    10                           	psect	dataBANK0,global,class=BANK0,space=1,delta=1,noexec
    11                           	psect	dataBANK1,global,class=BANK1,space=1,delta=1,noexec
    12                           	psect	dataBANK3,global,class=BANK3,space=1,delta=1,noexec
    13                           	psect	dataBANK2,global,class=BANK2,space=1,delta=1,noexec
    14                           	psect	inittext,global,class=CODE,delta=2
    15                           	psect	clrtext,global,class=CODE,delta=2
    16                           	psect	cstackCOMMON,global,class=COMMON,space=1,delta=1,noexec
    17                           	psect	cstackBANK0,global,class=BANK0,space=1,delta=1,noexec
    18                           	psect	maintext,global,class=CODE,split=1,delta=2
    19                           	psect	text1,local,class=CODE,merge=1,delta=2
    20                           	psect	text2,local,class=CODE,merge=1,delta=2
    21                           	psect	text3,local,class=CODE,merge=1,delta=2
    22                           	psect	text4,local,class=CODE,merge=1,delta=2
    23                           	psect	text5,local,class=CODE,merge=1,delta=2
    24                           	psect	text6,local,class=CODE,merge=1,delta=2
    25                           	psect	text7,local,class=CODE,merge=1,delta=2
    26                           	psect	text8,local,class=CODE,merge=1,delta=2
    27                           	psect	text9,local,class=CODE,merge=1,delta=2
    28                           	psect	text10,local,class=CODE,merge=1,delta=2
    29                           	psect	text11,local,class=CODE,merge=1,delta=2
    30                           	psect	text12,local,class=CODE,merge=1,delta=2
    31                           	psect	text13,local,class=CODE,merge=1,delta=2
    32                           	psect	text14,local,class=CODE,merge=1,delta=2,group=1
    33                           	psect	text15,local,class=CODE,merge=1,delta=2,group=1
    34                           	psect	text16,local,class=CODE,merge=1,delta=2,group=1
    35                           	psect	text17,local,class=CODE,merge=1,delta=2,group=1
    36                           	psect	text18,local,class=CODE,merge=1,delta=2,group=1
    37                           	psect	text19,local,class=CODE,merge=1,delta=2
    38                           	psect	text20,local,class=CODE,merge=1,delta=2
    39                           	psect	text21,local,class=CODE,merge=1,delta=2,group=2
    40                           	psect	text22,local,class=CODE,merge=1,delta=2
    41                           	psect	text23,local,class=CODE,merge=1,delta=2
    42                           	psect	text24,local,class=CODE,merge=1,delta=2
    43                           	psect	text25,local,class=CODE,merge=1,delta=2
    44                           	psect	text26,local,class=CODE,merge=1,delta=2
    45                           	psect	text27,local,class=CODE,merge=1,delta=2
    46                           	psect	text28,local,class=CODE,merge=1,delta=2
    47                           	dabs	1,0x7E,2
    48  0000                     
    49                           ; Version 2.20
    50                           ; Generated 12/02/2020 GMT
    51                           ; 
    52                           ; Copyright © 2020, Microchip Technology Inc. and its subsidiaries ("Microchip")
    53                           ; All rights reserved.
    54                           ; 
    55                           ; This software is developed by Microchip Technology Inc. and its subsidiaries ("Microch
      +                          ip").
    56                           ; 
    57                           ; Redistribution and use in source and binary forms, with or without modification, are
    58                           ; permitted provided that the following conditions are met:
    59                           ; 
    60                           ;     1. Redistributions of source code must retain the above copyright notice, this lis
      +                          t of
    61                           ;        conditions and the following disclaimer.
    62                           ; 
    63                           ;     2. Redistributions in binary form must reproduce the above copyright notice, this 
      +                          list
    64                           ;        of conditions and the following disclaimer in the documentation and/or other
    65                           ;        materials provided with the distribution.
    66                           ; 
    67                           ;     3. Microchip's name may not be used to endorse or promote products derived from th
      +                          is
    68                           ;        software without specific prior written permission.
    69                           ; 
    70                           ; THIS SOFTWARE IS PROVIDED BY MICROCHIP "AS IS" AND ANY EXPRESS OR IMPLIED WARRANTIES,
    71                           ; INCLUDING, BUT NOT LIMITED TO, THE IMPLIED WARRANTIES OF MERCHANTABILITY AND FITNESS F
      +                          OR
    72                           ; PURPOSE ARE DISCLAIMED.  IN NO EVENT SHALL MICROCHIP BE LIABLE FOR ANY DIRECT, INDIREC
      +                          T,
    73                           ; INCIDENTAL, SPECIAL, EXEMPLARY, OR CONSEQUENTIAL DAMAGES (INCLUDING BUT NOT LIMITED TO
    74                           ; PROCUREMENT OF SUBSTITUTE GOODS OR SERVICES; LOSS OF USE, DATA OR PROFITS; OR BUSINESS
    75                           ; INTERRUPTION) HOWSOEVER CAUSED AND ON ANY THEORY OF LIABILITY, WHETHER IN CONTRACT, ST
      +                          RICT
    76                           ; LIABILITY, OR TORT (INCLUDING NEGLIGENCE OR OTHERWISE) ARISING IN ANY WAY OUT OF THE U
      +                          SE OF
    77                           ; THIS SOFTWARE, EVEN IF ADVISED OF THE POSSIBILITY OF SUCH DAMAGE.
    78                           ; 
    79                           ; 
    80                           ; Code-generator required, PIC16F877A Definitions
    81                           ; 
    82                           ; SFR Addresses
    83  0000                     	;# 
    84  0001                     	;# 
    85  0002                     	;# 
    86  0003                     	;# 
    87  0004                     	;# 
    88  0005                     	;# 
    89  0006                     	;# 
    90  0007                     	;# 
    91  0008                     	;# 
    92  0009                     	;# 
    93  000A                     	;# 
    94  000B                     	;# 
    95  000C                     	;# 
    96  000D                     	;# 
    97  000E                     	;# 
    98  000E                     	;# 
    99  000F                     	;# 
   100  0010                     	;# 
   101  0011                     	;# 
   102  0012                     	;# 
   103  0013                     	;# 
   104  0014                     	;# 
   105  0015                     	;# 
   106  0015                     	;# 
   107  0016                     	;# 
   108  0017                     	;# 
   109  0018                     	;# 
   110  0019                     	;# 
   111  001A                     	;# 
   112  001B                     	;# 
   113  001B                     	;# 
   114  001C                     	;# 
   115  001D                     	;# 
   116  001E                     	;# 
   117  001F                     	;# 
   118  0081                     	;# 
   119  0085                     	;# 
   120  0086                     	;# 
   121  0087                     	;# 
   122  0088                     	;# 
   123  0089                     	;# 
   124  008C                     	;# 
   125  008D                     	;# 
   126  008E                     	;# 
   127  0091                     	;# 
   128  0092                     	;# 
   129  0093                     	;# 
   130  0094                     	;# 
   131  0098                     	;# 
   132  0099                     	;# 
   133  009C                     	;# 
   134  009D                     	;# 
   135  009E                     	;# 
   136  009F                     	;# 
   137  010C                     	;# 
   138  010D                     	;# 
   139  010E                     	;# 
   140  010F                     	;# 
   141  018C                     	;# 
   142  018D                     	;# 
   143  0000                     	;# 
   144  0001                     	;# 
   145  0002                     	;# 
   146  0003                     	;# 
   147  0004                     	;# 
   148  0005                     	;# 
   149  0006                     	;# 
   150  0007                     	;# 
   151  0008                     	;# 
   152  0009                     	;# 
   153  000A                     	;# 
   154  000B                     	;# 
   155  000C                     	;# 
   156  000D                     	;# 
   157  000E                     	;# 
   158  000E                     	;# 
   159  000F                     	;# 
   160  0010                     	;# 
   161  0011                     	;# 
   162  0012                     	;# 
   163  0013                     	;# 
   164  0014                     	;# 
   165  0015                     	;# 
   166  0015                     	;# 
   167  0016                     	;# 
   168  0017                     	;# 
   169  0018                     	;# 
   170  0019                     	;# 
   171  001A                     	;# 
   172  001B                     	;# 
   173  001B                     	;# 
   174  001C                     	;# 
   175  001D                     	;# 
   176  001E                     	;# 
   177  001F                     	;# 
   178  0081                     	;# 
   179  0085                     	;# 
   180  0086                     	;# 
   181  0087                     	;# 
   182  0088                     	;# 
   183  0089                     	;# 
   184  008C                     	;# 
   185  008D                     	;# 
   186  008E                     	;# 
   187  0091                     	;# 
   188  0092                     	;# 
   189  0093                     	;# 
   190  0094                     	;# 
   191  0098                     	;# 
   192  0099                     	;# 
   193  009C                     	;# 
   194  009D                     	;# 
   195  009E                     	;# 
   196  009F                     	;# 
   197  010C                     	;# 
   198  010D                     	;# 
   199  010E                     	;# 
   200  010F                     	;# 
   201  018C                     	;# 
   202  018D                     	;# 
   203                           
   204                           	psect	idataBANK0
   205  16C2                     __pidataBANK0:
   206                           
   207                           ;initializer for _auxSensor
   208  16C2  34CC               	retlw	204
   209  16C3  3400               	retlw	0
   210                           
   211                           ;initializer for _menu
   212  16C4  3401               	retlw	1
   213  16C5  3400               	retlw	0
   214                           
   215                           ;initializer for _userFalse
   216  16C6  3401               	retlw	1
   217  16C7  3400               	retlw	0
   218                           
   219                           ;initializer for _painel
   220  16C8  3401               	retlw	1
   221  16C9  3400               	retlw	0
   222                           
   223                           ;initializer for _input
   224  16CA  340A               	retlw	10
   225  16CB  3400               	retlw	0
   226                           
   227                           ;initializer for _senhaUserConfere
   228  16CC  3430               	retlw	48
   229  16CD  3430               	retlw	48
   230  16CE  3430               	retlw	48
   231  16CF  3430               	retlw	48
   232  16D0  3400               	retlw	0
   233                           
   234                           	psect	idataBANK1
   235  08FF                     __pidataBANK1:
   236                           
   237                           ;initializer for _msgChamaAjuda
   238  08FF  3453               	retlw	83
   239  0900  3461               	retlw	97
   240  0901  3469               	retlw	105
   241  0902  3420               	retlw	32
   242  0903  3452               	retlw	82
   243  0904  3461               	retlw	97
   244  0905  3474               	retlw	116
   245  0906  3461               	retlw	97
   246  0907  346F               	retlw	111
   247  0908  3400               	retlw	0
   248                           
   249                           ;initializer for _msgZonaDisparadas
   250  0909  3420               	retlw	32
   251  090A  3420               	retlw	32
   252  090B  3420               	retlw	32
   253  090C  3420               	retlw	32
   254  090D  3420               	retlw	32
   255  090E  3420               	retlw	32
   256  090F  3420               	retlw	32
   257  0910  3431               	retlw	49
   258  0911  3420               	retlw	32
   259  0912  3431               	retlw	49
   260  0913  3420               	retlw	32
   261  0914  3431               	retlw	49
   262  0915  3420               	retlw	32
   263  0916  3431               	retlw	49
   264  0917  3400               	retlw	0
   265                           
   266                           ;initializer for _msgConfigDispara
   267  0918  3420               	retlw	32
   268  0919  345A               	retlw	90
   269  091A  346F               	retlw	111
   270  091B  346E               	retlw	110
   271  091C  3461               	retlw	97
   272  091D  343A               	retlw	58
   273  091E  3420               	retlw	32
   274  091F  3431               	retlw	49
   275  0920  3420               	retlw	32
   276  0921  3432               	retlw	50
   277  0922  3420               	retlw	32
   278  0923  3433               	retlw	51
   279  0924  3420               	retlw	32
   280  0925  3434               	retlw	52
   281  0926  3400               	retlw	0
   282                           
   283                           ;initializer for _msgAceitoOuNego
   284  0927  3444               	retlw	68
   285  0928  3469               	retlw	105
   286  0929  3467               	retlw	103
   287  092A  3469               	retlw	105
   288  092B  3474               	retlw	116
   289  092C  3465               	retlw	101
   290  092D  343A               	retlw	58
   291  092E  3420               	retlw	32
   292  092F  3400               	retlw	0
   293                           
   294                           ;initializer for _msgReativar
   295  0930  3452               	retlw	82
   296  0931  3465               	retlw	101
   297  0932  3461               	retlw	97
   298  0933  3474               	retlw	116
   299  0934  3469               	retlw	105
   300  0935  3476               	retlw	118
   301  0936  3461               	retlw	97
   302  0937  3472               	retlw	114
   303  0938  3400               	retlw	0
   304                           
   305                           ;initializer for _msgMascara
   306  0939  345F               	retlw	95
   307  093A  345F               	retlw	95
   308  093B  345F               	retlw	95
   309  093C  345F               	retlw	95
   310  093D  3400               	retlw	0
   311                           
   312                           ;initializer for _senhaConfig
   313  093E  3430               	retlw	48
   314  093F  3430               	retlw	48
   315  0940  3430               	retlw	48
   316  0941  3430               	retlw	48
   317  0942  3400               	retlw	0
   318                           
   319                           ;initializer for _senhaCoa
   320  0943  3435               	retlw	53
   321  0944  3435               	retlw	53
   322  0945  3435               	retlw	53
   323  0946  3435               	retlw	53
   324  0947  3400               	retlw	0
   325                           
   326                           ;initializer for _senhaUser
   327  0948  3431               	retlw	49
   328  0949  3432               	retlw	50
   329  094A  3431               	retlw	49
   330  094B  3432               	retlw	50
   331  094C  3400               	retlw	0
   332                           
   333                           	psect	idataBANK2
   334  08B1                     __pidataBANK2:
   335                           
   336                           ;initializer for _msgSenhaAtualizada
   337  08B1  3453               	retlw	83
   338  08B2  3465               	retlw	101
   339  08B3  346E               	retlw	110
   340  08B4  3468               	retlw	104
   341  08B5  3461               	retlw	97
   342  08B6  3420               	retlw	32
   343  08B7  3441               	retlw	65
   344  08B8  3474               	retlw	116
   345  08B9  3475               	retlw	117
   346  08BA  3461               	retlw	97
   347  08BB  346C               	retlw	108
   348  08BC  3469               	retlw	105
   349  08BD  347A               	retlw	122
   350  08BE  3461               	retlw	97
   351  08BF  3464               	retlw	100
   352  08C0  3461               	retlw	97
   353  08C1  3400               	retlw	0
   354                           
   355                           ;initializer for _msgValidaSenha
   356  08C2  344F               	retlw	79
   357  08C3  346B               	retlw	107
   358  08C4  343A               	retlw	58
   359  08C5  3446               	retlw	70
   360  08C6  3420               	retlw	32
   361  08C7  346F               	retlw	111
   362  08C8  3475               	retlw	117
   363  08C9  3420               	retlw	32
   364  08CA  344E               	retlw	78
   365  08CB  3465               	retlw	101
   366  08CC  3467               	retlw	103
   367  08CD  3461               	retlw	97
   368  08CE  3472               	retlw	114
   369  08CF  343A               	retlw	58
   370  08D0  3445               	retlw	69
   371  08D1  3400               	retlw	0
   372                           
   373                           ;initializer for _msgSenhaCancelada
   374  08D2  3453               	retlw	83
   375  08D3  3465               	retlw	101
   376  08D4  346E               	retlw	110
   377  08D5  3468               	retlw	104
   378  08D6  3461               	retlw	97
   379  08D7  3420               	retlw	32
   380  08D8  3463               	retlw	99
   381  08D9  3461               	retlw	97
   382  08DA  346E               	retlw	110
   383  08DB  3463               	retlw	99
   384  08DC  3465               	retlw	101
   385  08DD  346C               	retlw	108
   386  08DE  3461               	retlw	97
   387  08DF  3464               	retlw	100
   388  08E0  3461               	retlw	97
   389  08E1  3400               	retlw	0
   390                           
   391                           ;initializer for _msgDigiteSenha
   392  08E2  3444               	retlw	68
   393  08E3  3469               	retlw	105
   394  08E4  3467               	retlw	103
   395  08E5  3469               	retlw	105
   396  08E6  3474               	retlw	116
   397  08E7  3465               	retlw	101
   398  08E8  3420               	retlw	32
   399  08E9  3461               	retlw	97
   400  08EA  3420               	retlw	32
   401  08EB  3473               	retlw	115
   402  08EC  3465               	retlw	101
   403  08ED  346E               	retlw	110
   404  08EE  3468               	retlw	104
   405  08EF  3461               	retlw	97
   406  08F0  3400               	retlw	0
   407                           
   408                           ;initializer for _msgDigiteNovaSenha
   409  08F1  3420               	retlw	32
   410  08F2  3420               	retlw	32
   411  08F3  3420               	retlw	32
   412  08F4  344E               	retlw	78
   413  08F5  346F               	retlw	111
   414  08F6  3476               	retlw	118
   415  08F7  3461               	retlw	97
   416  08F8  3420               	retlw	32
   417  08F9  3473               	retlw	115
   418  08FA  3465               	retlw	101
   419  08FB  346E               	retlw	110
   420  08FC  3468               	retlw	104
   421  08FD  3461               	retlw	97
   422  08FE  3400               	retlw	0
   423                           
   424                           	psect	idataBANK3
   425  0A4E                     __pidataBANK3:
   426                           
   427                           ;initializer for _msgDesativarZona
   428  0A4E  3444               	retlw	68
   429  0A4F  3465               	retlw	101
   430  0A50  3473               	retlw	115
   431  0A51  3461               	retlw	97
   432  0A52  3474               	retlw	116
   433  0A53  3469               	retlw	105
   434  0A54  3476               	retlw	118
   435  0A55  3461               	retlw	97
   436  0A56  3472               	retlw	114
   437  0A57  3420               	retlw	32
   438  0A58  345A               	retlw	90
   439  0A59  346F               	retlw	111
   440  0A5A  346E               	retlw	110
   441  0A5B  3461               	retlw	97
   442  0A5C  3400               	retlw	0
   443                           
   444                           ;initializer for _msgSenhaDisparo
   445  0A5D  3453               	retlw	83
   446  0A5E  3465               	retlw	101
   447  0A5F  346E               	retlw	110
   448  0A60  3468               	retlw	104
   449  0A61  3461               	retlw	97
   450  0A62  3420               	retlw	32
   451  0A63  3444               	retlw	68
   452  0A64  3469               	retlw	105
   453  0A65  3473               	retlw	115
   454  0A66  3470               	retlw	112
   455  0A67  3461               	retlw	97
   456  0A68  3472               	retlw	114
   457  0A69  346F               	retlw	111
   458  0A6A  3400               	retlw	0
   459                           
   460                           ;initializer for _msgSenhaUsuario
   461  0A6B  3453               	retlw	83
   462  0A6C  3465               	retlw	101
   463  0A6D  346E               	retlw	110
   464  0A6E  3468               	retlw	104
   465  0A6F  3461               	retlw	97
   466  0A70  3420               	retlw	32
   467  0A71  3455               	retlw	85
   468  0A72  3473               	retlw	115
   469  0A73  3475               	retlw	117
   470  0A74  3461               	retlw	97
   471  0A75  3472               	retlw	114
   472  0A76  3469               	retlw	105
   473  0A77  346F               	retlw	111
   474  0A78  3400               	retlw	0
   475                           
   476                           ;initializer for _msgSenhaCorreta
   477  0A79  3453               	retlw	83
   478  0A7A  3465               	retlw	101
   479  0A7B  346E               	retlw	110
   480  0A7C  3468               	retlw	104
   481  0A7D  3461               	retlw	97
   482  0A7E  3420               	retlw	32
   483  0A7F  3463               	retlw	99
   484  0A80  346F               	retlw	111
   485  0A81  3472               	retlw	114
   486  0A82  3472               	retlw	114
   487  0A83  3465               	retlw	101
   488  0A84  3474               	retlw	116
   489  0A85  3461               	retlw	97
   490  0A86  3400               	retlw	0
   491                           
   492                           ;initializer for _msgSenhaCoacao
   493  0A87  3453               	retlw	83
   494  0A88  3465               	retlw	101
   495  0A89  346E               	retlw	110
   496  0A8A  3468               	retlw	104
   497  0A8B  3461               	retlw	97
   498  0A8C  3420               	retlw	32
   499  0A8D  3443               	retlw	67
   500  0A8E  346F               	retlw	111
   501  0A8F  3461               	retlw	97
   502  0A90  3463               	retlw	99
   503  0A91  3461               	retlw	97
   504  0A92  346F               	retlw	111
   505  0A93  3400               	retlw	0
   506                           
   507                           ;initializer for _msgSenhaConfig
   508  0A94  3453               	retlw	83
   509  0A95  3465               	retlw	101
   510  0A96  346E               	retlw	110
   511  0A97  3468               	retlw	104
   512  0A98  3461               	retlw	97
   513  0A99  3420               	retlw	32
   514  0A9A  3443               	retlw	67
   515  0A9B  346F               	retlw	111
   516  0A9C  346E               	retlw	110
   517  0A9D  3466               	retlw	102
   518  0A9E  3469               	retlw	105
   519  0A9F  3467               	retlw	103
   520  0AA0  3400               	retlw	0
   521                           
   522                           ;initializer for _msgSenhaErrada
   523  0AA1  3453               	retlw	83
   524  0AA2  3465               	retlw	101
   525  0AA3  346E               	retlw	110
   526  0AA4  3468               	retlw	104
   527  0AA5  3461               	retlw	97
   528  0AA6  3420               	retlw	32
   529  0AA7  3465               	retlw	101
   530  0AA8  3472               	retlw	114
   531  0AA9  3472               	retlw	114
   532  0AAA  3461               	retlw	97
   533  0AAB  3464               	retlw	100
   534  0AAC  3461               	retlw	97
   535  0AAD  3400               	retlw	0
   536  001E                     _ADRESH	set	30
   537  001F                     _ADCON0	set	31
   538  0006                     _PORTB	set	6
   539  0009                     _PORTE	set	9
   540  0008                     _PORTD	set	8
   541  00FA                     _GO_nDONE	set	250
   542  0033                     _RB3	set	51
   543  0032                     _RB2	set	50
   544  0031                     _RB1	set	49
   545  0030                     _RB0	set	48
   546  002B                     _RA3	set	43
   547  002C                     _RA4	set	44
   548  002D                     _RA5	set	45
   549  0029                     _RA1	set	41
   550  009E                     _ADRESL	set	158
   551  0086                     _TRISB	set	134
   552  0089                     _TRISE	set	137
   553  0088                     _TRISD	set	136
   554  0085                     _TRISA	set	133
   555  009F                     _ADCON1	set	159
   556                           
   557                           	psect	cinit
   558  07BE                     start_initialization:	
   559                           ; #config settings
   560                           
   561  07BE                     __initialization:
   562                           
   563                           ; Initialize objects allocated to BANK3
   564  07BE  1783               	bsf	3,7	;select IRP bank2
   565  07BF  30F0               	movlw	low (__pdataBANK3+96)
   566  07C0  00FD               	movwf	btemp+-1
   567  07C1  300A               	movlw	high __pidataBANK3
   568  07C2  00FE               	movwf	btemp
   569  07C3  304E               	movlw	low __pidataBANK3
   570  07C4  00FF               	movwf	btemp+1
   571  07C5  3090               	movlw	low __pdataBANK3
   572  07C6  0084               	movwf	4
   573  07C7  160A  118A  2716  120A  118A  	fcall	init_ram0
   574                           
   575                           ; Initialize objects allocated to BANK2
   576  07CC  305E               	movlw	low (__pdataBANK2+78)
   577  07CD  00FD               	movwf	btemp+-1
   578  07CE  3008               	movlw	high __pidataBANK2
   579  07CF  00FE               	movwf	btemp
   580  07D0  30B1               	movlw	low __pidataBANK2
   581  07D1  00FF               	movwf	btemp+1
   582  07D2  3010               	movlw	low __pdataBANK2
   583  07D3  0084               	movwf	4
   584  07D4  160A  118A  2716  120A  118A  	fcall	init_ram0
   585                           
   586                           ; Initialize objects allocated to BANK1
   587  07D9  1383               	bcf	3,7	;select IRP bank0
   588  07DA  30EE               	movlw	low (__pdataBANK1+78)
   589  07DB  00FD               	movwf	btemp+-1
   590  07DC  3008               	movlw	high __pidataBANK1
   591  07DD  00FE               	movwf	btemp
   592  07DE  30FF               	movlw	low __pidataBANK1
   593  07DF  00FF               	movwf	btemp+1
   594  07E0  30A0               	movlw	low __pdataBANK1
   595  07E1  0084               	movwf	4
   596  07E2  160A  118A  2716  120A  118A  	fcall	init_ram0
   597                           
   598                           ; Initialize objects allocated to BANK0
   599  07E7  306C               	movlw	low (__pdataBANK0+15)
   600  07E8  00FD               	movwf	btemp+-1
   601  07E9  3016               	movlw	high __pidataBANK0
   602  07EA  00FE               	movwf	btemp
   603  07EB  30C2               	movlw	low __pidataBANK0
   604  07EC  00FF               	movwf	btemp+1
   605  07ED  305D               	movlw	low __pdataBANK0
   606  07EE  0084               	movwf	4
   607  07EF  160A  118A  2716  120A  118A  	fcall	init_ram0
   608                           
   609                           ; Clear objects allocated to BANK0
   610  07F4  304D               	movlw	low __pbssBANK0
   611  07F5  0084               	movwf	4
   612  07F6  305D               	movlw	low (__pbssBANK0+16)
   613  07F7  160A  118A  2693  120A  118A  	fcall	clear_ram0
   614  07FC                     end_of_initialization:	
   615                           ;End of C runtime variable initialization code
   616                           
   617  07FC                     __end_of__initialization:
   618  07FC  0183               	clrf	3
   619  07FD  120A  158A  299E   	ljmp	_main	;jump to C main() function
   620                           
   621                           	psect	bssBANK0
   622  004D                     __pbssBANK0:
   623  004D                     _valorSensorAux:
   624  004D                     	ds	2
   625  004F                     _valorSensor:
   626  004F                     	ds	2
   627  0051                     _opConfig:
   628  0051                     	ds	2
   629  0053                     _alteraSenha:
   630  0053                     	ds	2
   631  0055                     _aux:
   632  0055                     	ds	2
   633  0057                     _validaSenha:
   634  0057                     	ds	2
   635  0059                     _zonaConfig:
   636  0059                     	ds	2
   637  005B                     _senhaCoaAtivo:
   638  005B                     	ds	2
   639                           
   640                           	psect	dataBANK0
   641  005D                     __pdataBANK0:
   642  005D                     _auxSensor:
   643  005D                     	ds	2
   644  005F                     _menu:
   645  005F                     	ds	2
   646  0061                     _userFalse:
   647  0061                     	ds	2
   648  0063                     _painel:
   649  0063                     	ds	2
   650  0065                     _input:
   651  0065                     	ds	2
   652  0067                     _senhaUserConfere:
   653  0067                     	ds	5
   654                           
   655                           	psect	dataBANK1
   656  00A0                     __pdataBANK1:
   657  00A0                     _msgChamaAjuda:
   658  00A0                     	ds	10
   659  00AA                     _msgZonaDisparadas:
   660  00AA                     	ds	15
   661  00B9                     _msgConfigDispara:
   662  00B9                     	ds	15
   663  00C8                     _msgAceitoOuNego:
   664  00C8                     	ds	9
   665  00D1                     _msgReativar:
   666  00D1                     	ds	9
   667  00DA                     _msgMascara:
   668  00DA                     	ds	5
   669  00DF                     _senhaConfig:
   670  00DF                     	ds	5
   671  00E4                     _senhaCoa:
   672  00E4                     	ds	5
   673  00E9                     _senhaUser:
   674  00E9                     	ds	5
   675                           
   676                           	psect	dataBANK3
   677  0190                     __pdataBANK3:
   678  0190                     _msgDesativarZona:
   679  0190                     	ds	15
   680  019F                     _msgSenhaDisparo:
   681  019F                     	ds	14
   682  01AD                     _msgSenhaUsuario:
   683  01AD                     	ds	14
   684  01BB                     _msgSenhaCorreta:
   685  01BB                     	ds	14
   686  01C9                     _msgSenhaCoacao:
   687  01C9                     	ds	13
   688  01D6                     _msgSenhaConfig:
   689  01D6                     	ds	13
   690  01E3                     _msgSenhaErrada:
   691  01E3                     	ds	13
   692                           
   693                           	psect	dataBANK2
   694  0110                     __pdataBANK2:
   695  0110                     _msgSenhaAtualizada:
   696  0110                     	ds	17
   697  0121                     _msgValidaSenha:
   698  0121                     	ds	16
   699  0131                     _msgSenhaCancelada:
   700  0131                     	ds	16
   701  0141                     _msgDigiteSenha:
   702  0141                     	ds	15
   703  0150                     _msgDigiteNovaSenha:
   704  0150                     	ds	14
   705                           
   706                           	psect	inittext
   707  1712                     init_fetch0:	
   708                           ;	Called with low address in FSR and high address in W
   709                           
   710  1712  087E               	movf	btemp,w
   711  1713  008A               	movwf	10
   712  1714  087F               	movf	btemp+1,w
   713  1715  0082               	movwf	2
   714  1716                     init_ram0:	
   715                           ;Called with:
   716                           ;	high address of idata address in btemp 
   717                           ;	low address of idata address in btemp+1 
   718                           ;	low address of data in FSR
   719                           ;	high address + 1 of data in btemp-1
   720                           
   721  1716  160A  118A  2712  160A  118A  	fcall	init_fetch0
   722  171B  0080               	movwf	0
   723  171C  0A84               	incf	4,f
   724  171D  0804               	movf	4,w
   725  171E  067D               	xorwf	btemp+-1,w
   726  171F  1903               	btfsc	3,2
   727  1720  3400               	retlw	0
   728  1721  0AFF               	incf	btemp+1,f
   729  1722  1903               	btfsc	3,2
   730  1723  0AFE               	incf	btemp,f
   731  1724  2F16               	goto	init_ram0
   732                           
   733                           	psect	clrtext
   734  1693                     clear_ram0:	
   735                           ;	Called with FSR containing the base address, and
   736                           ;	W with the last address+1
   737                           
   738  1693  0064               	clrwdt	;clear the watchdog before getting into this loop
   739  1694                     clrloop0:
   740  1694  0180               	clrf	0	;clear RAM location pointed to by FSR
   741  1695  0A84               	incf	4,f	;increment pointer
   742  1696  0604               	xorwf	4,w	;XOR with final address
   743  1697  1903               	btfsc	3,2	;have we reached the end yet?
   744  1698  3400               	retlw	0	;all done for this memory range, return
   745  1699  0604               	xorwf	4,w	;XOR again to restore value
   746  169A  2E94               	goto	clrloop0	;do the next byte
   747                           
   748                           	psect	cstackCOMMON
   749  0070                     __pcstackCOMMON:
   750  0070                     ?___flge:
   751  0070                     ?_LCD_enable:	
   752                           ; 1 bit 
   753                           
   754  0070                     ?_delay:	
   755                           ; 1 bytes @ 0x0
   756                           
   757  0070                     ??_delay:	
   758                           ; 1 bytes @ 0x0
   759                           
   760  0070                     ?_inicioADC:	
   761                           ; 1 bytes @ 0x0
   762                           
   763  0070                     ??_inicioADC:	
   764                           ; 1 bytes @ 0x0
   765                           
   766  0070                     ?_configZonas:	
   767                           ; 1 bytes @ 0x0
   768                           
   769  0070                     ?_teclado:	
   770                           ; 1 bytes @ 0x0
   771                           
   772  0070                     ?_Linha2:	
   773                           ; 1 bytes @ 0x0
   774                           
   775  0070                     ?_espacoLivre:	
   776                           ; 1 bytes @ 0x0
   777                           
   778  0070                     ?_init:	
   779                           ; 1 bytes @ 0x0
   780                           
   781  0070                     ??_init:	
   782                           ; 1 bytes @ 0x0
   783                           
   784  0070                     ?_LCD_init:	
   785                           ; 1 bytes @ 0x0
   786                           
   787  0070                     ?_LCD_escreve:	
   788                           ; 1 bytes @ 0x0
   789                           
   790  0070                     ?_LCD_limpa:	
   791                           ; 1 bytes @ 0x0
   792                           
   793  0070                     ?_LCD_linha1:	
   794                           ; 1 bytes @ 0x0
   795                           
   796  0070                     ?_LCD_linha2:	
   797                           ; 1 bytes @ 0x0
   798                           
   799  0070                     ?_main:	
   800                           ; 1 bytes @ 0x0
   801                           
   802  0070                     ?_setaZona:	
   803                           ; 1 bytes @ 0x0
   804                           
   805  0070                     ?_infoZonas:	
   806                           ; 1 bytes @ 0x0
   807                           
   808  0070                     ?_confereTeclado:	
   809                           ; 1 bytes @ 0x0
   810                           
   811  0070                     ?_inputSenhaAlter:	
   812                           ; 1 bytes @ 0x0
   813                           
   814  0070                     ?_rotinaValidaSenha:	
   815                           ; 1 bytes @ 0x0
   816                           
   817  0070                     ?_strlen:	
   818                           ; 1 bytes @ 0x0
   819                           
   820  0070                     ?__Umul8_16:	
   821                           ; 2 bytes @ 0x0
   822                           
   823  0070                     ?___fladd:	
   824                           ; 2 bytes @ 0x0
   825                           
   826  0070                     setaZona@msgConfigDispara:	
   827                           ; 4 bytes @ 0x0
   828                           
   829  0070                     __Umul8_16@multiplicand:	
   830                           ; 1 bytes @ 0x0
   831                           
   832  0070                     delay@i:	
   833                           ; 1 bytes @ 0x0
   834                           
   835  0070                     confereTeclado@numero:	
   836                           ; 2 bytes @ 0x0
   837                           
   838  0070                     strlen@s:	
   839                           ; 2 bytes @ 0x0
   840                           
   841  0070                     ___flge@ff1:	
   842                           ; 2 bytes @ 0x0
   843                           
   844  0070                     ___fladd@b:	
   845                           ; 4 bytes @ 0x0
   846                           
   847                           
   848                           ; 4 bytes @ 0x0
   849  0070                     	ds	1
   850  0071                     setaZona@pos:
   851                           
   852                           ; 2 bytes @ 0x1
   853  0071                     	ds	1
   854  0072                     ??_LCD_enable:
   855  0072                     ??_strlen:	
   856                           ; 1 bytes @ 0x2
   857                           
   858  0072                     ??__Umul8_16:	
   859                           ; 1 bytes @ 0x2
   860                           
   861  0072                     ??_LCD_init:	
   862                           ; 1 bytes @ 0x2
   863                           
   864  0072                     ??_LCD_escreve:	
   865                           ; 1 bytes @ 0x2
   866                           
   867  0072                     ??_LCD_limpa:	
   868                           ; 1 bytes @ 0x2
   869                           
   870  0072                     ??_LCD_linha1:	
   871                           ; 1 bytes @ 0x2
   872                           
   873  0072                     ??_LCD_linha2:	
   874                           ; 1 bytes @ 0x2
   875                           
   876  0072                     ??_confereTeclado:	
   877                           ; 1 bytes @ 0x2
   878                           
   879  0072                     LCD_escreve@x:	
   880                           ; 1 bytes @ 0x2
   881                           
   882  0072                     strlen@cp:	
   883                           ; 1 bytes @ 0x2
   884                           
   885                           
   886                           ; 2 bytes @ 0x2
   887  0072                     	ds	1
   888  0073                     ?_escreveMesagem:
   889  0073                     ??_espacoLivre:	
   890                           ; 1 bytes @ 0x3
   891                           
   892  0073                     ??_setaZona:	
   893                           ; 1 bytes @ 0x3
   894                           
   895  0073                     espacoLivre@i:	
   896                           ; 1 bytes @ 0x3
   897                           
   898  0073                     escreveMesagem@texto:	
   899                           ; 2 bytes @ 0x3
   900                           
   901                           
   902                           ; 2 bytes @ 0x3
   903  0073                     	ds	1
   904  0074                     __Umul8_16@product:
   905  0074                     ___flge@ff2:	
   906                           ; 2 bytes @ 0x4
   907                           
   908  0074                     ___fladd@a:	
   909                           ; 4 bytes @ 0x4
   910                           
   911                           
   912                           ; 4 bytes @ 0x4
   913  0074                     	ds	1
   914  0075                     ??_escreveMesagem:
   915  0075                     ??_Linha2:	
   916                           ; 1 bytes @ 0x5
   917                           
   918                           
   919                           ; 1 bytes @ 0x5
   920  0075                     	ds	1
   921  0076                     setaZona@i:
   922  0076                     __Umul8_16@word_mpld:	
   923                           ; 2 bytes @ 0x6
   924                           
   925                           
   926                           ; 2 bytes @ 0x6
   927  0076                     	ds	1
   928  0077                     Linha2@i:
   929                           
   930                           ; 2 bytes @ 0x7
   931  0077                     	ds	1
   932  0078                     ??___flge:
   933  0078                     ___fladd@signs:	
   934                           ; 1 bytes @ 0x8
   935                           
   936  0078                     __Umul8_16@multiplier:	
   937                           ; 1 bytes @ 0x8
   938                           
   939  0078                     setaZona@i_160:	
   940                           ; 1 bytes @ 0x8
   941                           
   942  0078                     escreveMesagem@i:	
   943                           ; 2 bytes @ 0x8
   944                           
   945                           
   946                           ; 2 bytes @ 0x8
   947  0078                     	ds	1
   948  0079                     ??___flmul:
   949  0079                     ___fladd@aexp:	
   950                           ; 1 bytes @ 0x9
   951                           
   952                           
   953                           ; 1 bytes @ 0x9
   954  0079                     	ds	1
   955  007A                     ??_infoZonas:
   956  007A                     ?_valida_senha:	
   957                           ; 1 bytes @ 0xA
   958                           
   959  007A                     setaZona@msgZonaDisparadas:	
   960                           ; 2 bytes @ 0xA
   961                           
   962  007A                     ___fladd@bexp:	
   963                           ; 1 bytes @ 0xA
   964                           
   965                           
   966                           ; 1 bytes @ 0xA
   967  007A                     	ds	1
   968  007B                     ___fladd@grs:
   969                           
   970                           ; 1 bytes @ 0xB
   971  007B                     	ds	1
   972  007C                     ??___flsub:
   973                           
   974                           ; 1 bytes @ 0xC
   975  007C                     	ds	2
   976  007E                     ??_main:
   977                           
   978                           	psect	cstackBANK0
   979  0020                     __pcstackBANK0:	
   980                           ; 1 bytes @ 0xE
   981                           
   982  0020                     ??_configZonas:
   983  0020                     ??_valida_senha:	
   984                           ; 1 bytes @ 0x0
   985                           
   986  0020                     ??___fladd:	
   987                           ; 1 bytes @ 0x0
   988                           
   989  0020                     ?___flmul:	
   990                           ; 1 bytes @ 0x0
   991                           
   992  0020                     ___flmul@b:	
   993                           ; 4 bytes @ 0x0
   994                           
   995                           
   996                           ; 4 bytes @ 0x0
   997  0020                     	ds	3
   998  0023                     valida_senha@texto:
   999                           
  1000                           ; 1 bytes @ 0x3
  1001  0023                     	ds	1
  1002  0024                     valida_senha@aceito:
  1003  0024                     ___flmul@a:	
  1004                           ; 2 bytes @ 0x4
  1005                           
  1006                           
  1007                           ; 4 bytes @ 0x4
  1008  0024                     	ds	4
  1009  0028                     ?___flsub:
  1010  0028                     ___flmul@sign:	
  1011                           ; 4 bytes @ 0x8
  1012                           
  1013  0028                     ___flsub@a:	
  1014                           ; 1 bytes @ 0x8
  1015                           
  1016                           
  1017                           ; 4 bytes @ 0x8
  1018  0028                     	ds	1
  1019  0029                     ___flmul@grs:
  1020                           
  1021                           ; 4 bytes @ 0x9
  1022  0029                     	ds	3
  1023  002C                     ___flsub@b:
  1024                           
  1025                           ; 4 bytes @ 0xC
  1026  002C                     	ds	1
  1027  002D                     ___flmul@aexp:
  1028                           
  1029                           ; 1 bytes @ 0xD
  1030  002D                     	ds	1
  1031  002E                     ___flmul@bexp:
  1032                           
  1033                           ; 1 bytes @ 0xE
  1034  002E                     	ds	1
  1035  002F                     ___flmul@prod:
  1036                           
  1037                           ; 4 bytes @ 0xF
  1038  002F                     	ds	4
  1039  0033                     ___flmul@temp:
  1040                           
  1041                           ; 2 bytes @ 0x13
  1042  0033                     	ds	2
  1043  0035                     ?_liga_buzzer:
  1044  0035                     liga_buzzer@tempoSegundos:	
  1045                           ; 1 bytes @ 0x15
  1046                           
  1047                           
  1048                           ; 4 bytes @ 0x15
  1049  0035                     	ds	4
  1050  0039                     ??_liga_buzzer:
  1051                           
  1052                           ; 1 bytes @ 0x19
  1053  0039                     	ds	2
  1054  003B                     ??_teclado:
  1055                           
  1056                           ; 1 bytes @ 0x1B
  1057  003B                     	ds	3
  1058  003E                     ??_inputSenhaAlter:
  1059                           
  1060                           ; 1 bytes @ 0x1E
  1061  003E                     	ds	2
  1062  0040                     inputSenhaAlter@senhaDestino:
  1063                           
  1064                           ; 1 bytes @ 0x20
  1065  0040                     	ds	1
  1066  0041                     inputSenhaAlter@i:
  1067                           
  1068                           ; 2 bytes @ 0x21
  1069  0041                     	ds	2
  1070  0043                     ??_rotinaValidaSenha:
  1071                           
  1072                           ; 1 bytes @ 0x23
  1073  0043                     	ds	3
  1074  0046                     rotinaValidaSenha@senhaOp:
  1075                           
  1076                           ; 1 bytes @ 0x26
  1077  0046                     	ds	1
  1078  0047                     ?_alteraSenhas:
  1079  0047                     alteraSenhas@opConfig:	
  1080                           ; 1 bytes @ 0x27
  1081                           
  1082                           
  1083                           ; 2 bytes @ 0x27
  1084  0047                     	ds	2
  1085  0049                     ??_alteraSenhas:
  1086                           
  1087                           ; 1 bytes @ 0x29
  1088  0049                     	ds	2
  1089  004B                     main@i:
  1090                           
  1091                           ; 2 bytes @ 0x2B
  1092  004B                     	ds	2
  1093                           
  1094                           	psect	maintext
  1095  099E                     __pmaintext:	
  1096 ;;
  1097 ;;Main: autosize = 0, tempsize = 0, incstack = 0, save=0
  1098 ;;
  1099 ;; *************** function _main *****************
  1100 ;; Defined at:
  1101 ;;		line 71 in file "main.c"
  1102 ;; Parameters:    Size  Location     Type
  1103 ;;		None
  1104 ;; Auto vars:     Size  Location     Type
  1105 ;;  i               2   43[BANK0 ] unsigned int 
  1106 ;; Return value:  Size  Location     Type
  1107 ;;                  1    wreg      void 
  1108 ;; Registers used:
  1109 ;;		wreg, fsr0l, fsr0h, status,2, status,0, btemp+1, pclath, cstack
  1110 ;; Tracked objects:
  1111 ;;		On entry : B00/0
  1112 ;;		On exit  : 0/0
  1113 ;;		Unchanged: 0/0
  1114 ;; Data sizes:     COMMON   BANK0   BANK1   BANK3   BANK2
  1115 ;;      Params:         0       0       0       0       0
  1116 ;;      Locals:         0       2       0       0       0
  1117 ;;      Temps:          0       0       0       0       0
  1118 ;;      Totals:         0       2       0       0       0
  1119 ;;Total ram usage:        2 bytes
  1120 ;; Hardware stack levels required when called: 7
  1121 ;; This function calls:
  1122 ;;		_alteraSenhas
  1123 ;;		_configZonas
  1124 ;;		_inicioADC
  1125 ;; This function is called by:
  1126 ;;		Startup code after reset
  1127 ;; This function uses a non-reentrant model
  1128 ;;
  1129                           
  1130                           
  1131                           ;psect for function _main
  1132  099E                     _main:
  1133  099E                     l3681:	
  1134                           ;incstack = 0
  1135                           ; Regs used in _main: [wreg-fsr0h+status,2+status,0+btemp+1+pclath+cstack]
  1136                           
  1137                           
  1138                           ;main.c: 72:     TRISE = 0x00;
  1139  099E  1683               	bsf	3,5	;RP0=1, select bank1
  1140  099F  1303               	bcf	3,6	;RP1=0, select bank1
  1141  09A0  0189               	clrf	9	;volatile
  1142                           
  1143                           ;main.c: 73:     TRISD = 0x00;
  1144  09A1  0188               	clrf	8	;volatile
  1145  09A2                     l3683:
  1146                           
  1147                           ;main.c: 74:     TRISB = 0x0F;
  1148  09A2  300F               	movlw	15
  1149  09A3  0086               	movwf	6	;volatile
  1150  09A4                     l3685:
  1151                           
  1152                           ;main.c: 75:     PORTE = 0x01;
  1153  09A4  3001               	movlw	1
  1154  09A5  1283               	bcf	3,5	;RP0=0, select bank0
  1155  09A6  1303               	bcf	3,6	;RP1=0, select bank0
  1156  09A7  0089               	movwf	9	;volatile
  1157  09A8                     l3687:
  1158                           
  1159                           ;main.c: 76:     inicioADC();
  1160  09A8  160A  118A  26A7  120A  158A  	fcall	_inicioADC
  1161  09AD                     l3689:
  1162                           
  1163                           ;main.c: 78:         unsigned int i = 1;
  1164  09AD  3001               	movlw	1
  1165  09AE  1283               	bcf	3,5	;RP0=0, select bank0
  1166  09AF  1303               	bcf	3,6	;RP1=0, select bank0
  1167  09B0  00CB               	movwf	main@i
  1168  09B1  3000               	movlw	0
  1169  09B2  00CC               	movwf	main@i+1
  1170                           
  1171                           ;main.c: 79:         while(i < 7){
  1172  09B3  29E5               	goto	l172
  1173  09B4                     l3691:
  1174                           
  1175                           ;main.c: 83:                     alteraSenhas(opConfig);
  1176  09B4  0852               	movf	_opConfig+1,w
  1177  09B5  00C8               	movwf	alteraSenhas@opConfig+1
  1178  09B6  0851               	movf	_opConfig,w
  1179  09B7  00C7               	movwf	alteraSenhas@opConfig
  1180  09B8  120A  158A  214D  120A  158A  	fcall	_alteraSenhas
  1181                           
  1182                           ;main.c: 84:                     break;
  1183  09BD  29DD               	goto	l3703
  1184  09BE                     l3697:
  1185                           
  1186                           ;main.c: 92:                     configZonas();
  1187  09BE  120A  158A  24C3  120A  158A  	fcall	_configZonas
  1188                           
  1189                           ;main.c: 93:                     break;
  1190  09C3  29DD               	goto	l3703
  1191  09C4                     l3701:
  1192                           
  1193                           ; Switch on 2 bytes has been partitioned into a top level switch of size 1, and 1 sub-sw
      +                          itches
  1194                           ; Switch size 1, requested type "simple"
  1195                           ; Number of cases is 1, Range of values is 0 to 0
  1196                           ; switch strategies available:
  1197                           ; Name         Instructions Cycles
  1198                           ; simple_byte            4     3 (average)
  1199                           ; direct_byte           11     8 (fixed)
  1200                           ; jumptable            260     6 (fixed)
  1201                           ;	Chosen strategy is simple_byte
  1202  09C4  0852               	movf	_opConfig+1,w
  1203  09C5  3A00               	xorlw	0	; case 0
  1204  09C6  1903               	skipnz
  1205  09C7  29C9               	goto	l3953
  1206  09C8  29DD               	goto	l3703
  1207  09C9                     l3953:
  1208                           
  1209                           ; Switch size 1, requested type "simple"
  1210                           ; Number of cases is 6, Range of values is 1 to 6
  1211                           ; switch strategies available:
  1212                           ; Name         Instructions Cycles
  1213                           ; simple_byte           19    10 (average)
  1214                           ; direct_byte           29    11 (fixed)
  1215                           ; jumptable            263     9 (fixed)
  1216                           ;	Chosen strategy is simple_byte
  1217  09C9  0851               	movf	_opConfig,w
  1218  09CA  3A01               	xorlw	1	; case 1
  1219  09CB  1903               	skipnz
  1220  09CC  29B4               	goto	l3691
  1221  09CD  3A03               	xorlw	3	; case 2
  1222  09CE  1903               	skipnz
  1223  09CF  29B4               	goto	l3691
  1224  09D0  3A01               	xorlw	1	; case 3
  1225  09D1  1903               	skipnz
  1226  09D2  29B4               	goto	l3691
  1227  09D3  3A07               	xorlw	7	; case 4
  1228  09D4  1903               	skipnz
  1229  09D5  29BE               	goto	l3697
  1230  09D6  3A01               	xorlw	1	; case 5
  1231  09D7  1903               	skipnz
  1232  09D8  29DD               	goto	l3703
  1233  09D9  3A03               	xorlw	3	; case 6
  1234  09DA  1903               	skipnz
  1235  09DB  29DD               	goto	l3703
  1236  09DC  29DD               	goto	l3703
  1237  09DD                     l3703:
  1238                           
  1239                           ;main.c: 101:         i++;
  1240  09DD  3001               	movlw	1
  1241  09DE  1283               	bcf	3,5	;RP0=0, select bank0
  1242  09DF  1303               	bcf	3,6	;RP1=0, select bank0
  1243  09E0  07CB               	addwf	main@i,f
  1244  09E1  1803               	skipnc
  1245  09E2  0ACC               	incf	main@i+1,f
  1246  09E3  3000               	movlw	0
  1247  09E4  07CC               	addwf	main@i+1,f
  1248  09E5                     l172:	
  1249                           ;main.c: 103:         }
  1250                           
  1251                           
  1252                           ;main.c: 79:         while(i < 7){
  1253  09E5  3000               	movlw	0
  1254  09E6  024C               	subwf	main@i+1,w
  1255  09E7  3007               	movlw	7
  1256  09E8  1903               	skipnz
  1257  09E9  024B               	subwf	main@i,w
  1258  09EA  1C03               	skipc
  1259  09EB  29ED               	goto	u3931
  1260  09EC  29EE               	goto	u3930
  1261  09ED                     u3931:
  1262  09ED  29C4               	goto	l3701
  1263  09EE                     u3930:
  1264  09EE  29AD               	goto	l3689
  1265  09EF  120A  118A  2800   	ljmp	start
  1266  09F2                     __end_of_main:
  1267                           
  1268                           	psect	text1
  1269  16A7                     __ptext1:	
  1270 ;; *************** function _inicioADC *****************
  1271 ;; Defined at:
  1272 ;;		line 650 in file "main.c"
  1273 ;; Parameters:    Size  Location     Type
  1274 ;;		None
  1275 ;; Auto vars:     Size  Location     Type
  1276 ;;		None
  1277 ;; Return value:  Size  Location     Type
  1278 ;;                  1    wreg      void 
  1279 ;; Registers used:
  1280 ;;		wreg
  1281 ;; Tracked objects:
  1282 ;;		On entry : 0/0
  1283 ;;		On exit  : 0/0
  1284 ;;		Unchanged: 0/0
  1285 ;; Data sizes:     COMMON   BANK0   BANK1   BANK3   BANK2
  1286 ;;      Params:         0       0       0       0       0
  1287 ;;      Locals:         0       0       0       0       0
  1288 ;;      Temps:          0       0       0       0       0
  1289 ;;      Totals:         0       0       0       0       0
  1290 ;;Total ram usage:        0 bytes
  1291 ;; Hardware stack levels used: 1
  1292 ;; This function calls:
  1293 ;;		Nothing
  1294 ;; This function is called by:
  1295 ;;		_main
  1296 ;; This function uses a non-reentrant model
  1297 ;;
  1298                           
  1299                           
  1300                           ;psect for function _inicioADC
  1301  16A7                     _inicioADC:
  1302  16A7                     l3123:	
  1303                           ;incstack = 0
  1304                           ; Regs used in _inicioADC: [wreg]
  1305                           
  1306                           
  1307                           ;main.c: 651:     TRISA = 0xFF;
  1308  16A7  30FF               	movlw	255
  1309  16A8  1683               	bsf	3,5	;RP0=1, select bank1
  1310  16A9  1303               	bcf	3,6	;RP1=0, select bank1
  1311  16AA  0085               	movwf	5	;volatile
  1312                           
  1313                           ;main.c: 653:     ADCON0 = 0x81;
  1314  16AB  3081               	movlw	129
  1315  16AC  1283               	bcf	3,5	;RP0=0, select bank0
  1316  16AD  1303               	bcf	3,6	;RP1=0, select bank0
  1317  16AE  009F               	movwf	31	;volatile
  1318                           
  1319                           ;main.c: 657:     ADCON1 = 0x80;
  1320  16AF  3080               	movlw	128
  1321  16B0  1683               	bsf	3,5	;RP0=1, select bank1
  1322  16B1  1303               	bcf	3,6	;RP1=0, select bank1
  1323  16B2  009F               	movwf	31	;volatile
  1324  16B3                     l365:
  1325  16B3  0008               	return
  1326  16B4                     __end_of_inicioADC:
  1327                           
  1328                           	psect	text2
  1329  0CC3                     __ptext2:	
  1330 ;; *************** function _configZonas *****************
  1331 ;; Defined at:
  1332 ;;		line 140 in file "main.c"
  1333 ;; Parameters:    Size  Location     Type
  1334 ;;		None
  1335 ;; Auto vars:     Size  Location     Type
  1336 ;;  pos             1    0        unsigned char 
  1337 ;; Return value:  Size  Location     Type
  1338 ;;                  1    wreg      void 
  1339 ;; Registers used:
  1340 ;;		wreg, fsr0l, fsr0h, status,2, status,0, btemp+1, pclath, cstack
  1341 ;; Tracked objects:
  1342 ;;		On entry : 0/0
  1343 ;;		On exit  : 0/0
  1344 ;;		Unchanged: 0/0
  1345 ;; Data sizes:     COMMON   BANK0   BANK1   BANK3   BANK2
  1346 ;;      Params:         0       0       0       0       0
  1347 ;;      Locals:         0       0       0       0       0
  1348 ;;      Temps:          0       3       0       0       0
  1349 ;;      Totals:         0       3       0       0       0
  1350 ;;Total ram usage:        3 bytes
  1351 ;; Hardware stack levels used: 1
  1352 ;; Hardware stack levels required when called: 4
  1353 ;; This function calls:
  1354 ;;		_infoZonas
  1355 ;;		_setaZona
  1356 ;; This function is called by:
  1357 ;;		_main
  1358 ;; This function uses a non-reentrant model
  1359 ;;
  1360                           
  1361                           
  1362                           ;psect for function _configZonas
  1363  0CC3                     _configZonas:
  1364  0CC3                     l3633:	
  1365                           ;incstack = 0
  1366                           ; Regs used in _configZonas: [wreg-fsr0h+status,2+status,0+btemp+1+pclath+cstack]
  1367                           
  1368                           
  1369                           ;main.c: 141:     infoZonas();
  1370  0CC3  160A  118A  279E  120A  158A  	fcall	_infoZonas
  1371  0CC8                     l3635:
  1372                           
  1373                           ;main.c: 142:     PORTB = 0b11101111;
  1374  0CC8  30EF               	movlw	239
  1375  0CC9  1283               	bcf	3,5	;RP0=0, select bank0
  1376  0CCA  1303               	bcf	3,6	;RP1=0, select bank0
  1377  0CCB  0086               	movwf	6	;volatile
  1378  0CCC                     l3637:
  1379  0CCC                     l3639:
  1380                           
  1381                           ;main.c: 144:     zonaConfig = 1;
  1382  0CCC  3001               	movlw	1
  1383  0CCD  00D9               	movwf	_zonaConfig
  1384  0CCE  3000               	movlw	0
  1385  0CCF  00DA               	movwf	_zonaConfig+1
  1386                           
  1387                           ;main.c: 145:     while (zonaConfig){
  1388  0CD0  2D5F               	goto	l3667
  1389  0CD1                     l3641:
  1390                           
  1391                           ;main.c: 146:         _delay((unsigned long)((250)*(20000000/4000.0)));
  1392  0CD1  3007               	movlw	7
  1393  0CD2  1283               	bcf	3,5	;RP0=0, select bank0
  1394  0CD3  1303               	bcf	3,6	;RP1=0, select bank0
  1395  0CD4  00A2               	movwf	??_configZonas+2
  1396  0CD5  3058               	movlw	88
  1397  0CD6  00A1               	movwf	??_configZonas+1
  1398  0CD7  3059               	movlw	89
  1399  0CD8  00A0               	movwf	??_configZonas
  1400  0CD9                     u4147:
  1401  0CD9  0BA0               	decfsz	??_configZonas,f
  1402  0CDA  2CD9               	goto	u4147
  1403  0CDB  0BA1               	decfsz	??_configZonas+1,f
  1404  0CDC  2CD9               	goto	u4147
  1405  0CDD  0BA2               	decfsz	??_configZonas+2,f
  1406  0CDE  2CD9               	goto	u4147
  1407  0CDF                     l3643:
  1408                           
  1409                           ;main.c: 147:         if (RB0 == 0){
  1410  0CDF  1283               	bcf	3,5	;RP0=0, select bank0
  1411  0CE0  1303               	bcf	3,6	;RP1=0, select bank0
  1412  0CE1  1806               	btfsc	6,0	;volatile
  1413  0CE2  2CE4               	goto	u3871
  1414  0CE3  2CE5               	goto	u3870
  1415  0CE4                     u3871:
  1416  0CE4  2CFF               	goto	l3649
  1417  0CE5                     u3870:
  1418  0CE5                     l3645:
  1419                           
  1420                           ;main.c: 149:             _delay((unsigned long)((2)*(20000000/4000.0)));
  1421  0CE5  300D               	movlw	13
  1422  0CE6  1283               	bcf	3,5	;RP0=0, select bank0
  1423  0CE7  1303               	bcf	3,6	;RP1=0, select bank0
  1424  0CE8  00A1               	movwf	??_configZonas+1
  1425  0CE9  30FB               	movlw	251
  1426  0CEA  00A0               	movwf	??_configZonas
  1427  0CEB                     u4157:
  1428  0CEB  0BA0               	decfsz	??_configZonas,f
  1429  0CEC  2CEB               	goto	u4157
  1430  0CED  0BA1               	decfsz	??_configZonas+1,f
  1431  0CEE  2CEB               	goto	u4157
  1432  0CEF                     l3647:
  1433                           
  1434                           ;main.c: 150:             setaZona(msgZonaDisparadas, msgConfigDispara, pos);
  1435  0CEF  30B9               	movlw	(low (_msgConfigDispara| 0))& (0+255)
  1436  0CF0  1283               	bcf	3,5	;RP0=0, select bank0
  1437  0CF1  1303               	bcf	3,6	;RP1=0, select bank0
  1438  0CF2  00A0               	movwf	??_configZonas
  1439  0CF3  0820               	movf	??_configZonas,w
  1440  0CF4  00F0               	movwf	setaZona@msgConfigDispara
  1441  0CF5  3031               	movlw	49
  1442  0CF6  00F1               	movwf	setaZona@pos
  1443  0CF7  3000               	movlw	0
  1444  0CF8  00F2               	movwf	setaZona@pos+1
  1445  0CF9  30AA               	movlw	(low (_msgZonaDisparadas| 0))& (0+255)
  1446  0CFA  120A  118A  2040  120A  158A  	fcall	_setaZona
  1447  0CFF                     l3649:
  1448                           
  1449                           ;main.c: 152:         if (RB1 == 0){
  1450  0CFF  1283               	bcf	3,5	;RP0=0, select bank0
  1451  0D00  1303               	bcf	3,6	;RP1=0, select bank0
  1452  0D01  1886               	btfsc	6,1	;volatile
  1453  0D02  2D04               	goto	u3881
  1454  0D03  2D05               	goto	u3880
  1455  0D04                     u3881:
  1456  0D04  2D1F               	goto	l3655
  1457  0D05                     u3880:
  1458  0D05                     l3651:
  1459                           
  1460                           ;main.c: 154:             _delay((unsigned long)((2)*(20000000/4000.0)));
  1461  0D05  300D               	movlw	13
  1462  0D06  1283               	bcf	3,5	;RP0=0, select bank0
  1463  0D07  1303               	bcf	3,6	;RP1=0, select bank0
  1464  0D08  00A1               	movwf	??_configZonas+1
  1465  0D09  30FB               	movlw	251
  1466  0D0A  00A0               	movwf	??_configZonas
  1467  0D0B                     u4167:
  1468  0D0B  0BA0               	decfsz	??_configZonas,f
  1469  0D0C  2D0B               	goto	u4167
  1470  0D0D  0BA1               	decfsz	??_configZonas+1,f
  1471  0D0E  2D0B               	goto	u4167
  1472  0D0F                     l3653:
  1473                           
  1474                           ;main.c: 155:             setaZona(msgZonaDisparadas, msgConfigDispara, pos);
  1475  0D0F  30B9               	movlw	(low (_msgConfigDispara| 0))& (0+255)
  1476  0D10  1283               	bcf	3,5	;RP0=0, select bank0
  1477  0D11  1303               	bcf	3,6	;RP1=0, select bank0
  1478  0D12  00A0               	movwf	??_configZonas
  1479  0D13  0820               	movf	??_configZonas,w
  1480  0D14  00F0               	movwf	setaZona@msgConfigDispara
  1481  0D15  3032               	movlw	50
  1482  0D16  00F1               	movwf	setaZona@pos
  1483  0D17  3000               	movlw	0
  1484  0D18  00F2               	movwf	setaZona@pos+1
  1485  0D19  30AA               	movlw	(low (_msgZonaDisparadas| 0))& (0+255)
  1486  0D1A  120A  118A  2040  120A  158A  	fcall	_setaZona
  1487  0D1F                     l3655:
  1488                           
  1489                           ;main.c: 157:         if (RB2 == 0){
  1490  0D1F  1283               	bcf	3,5	;RP0=0, select bank0
  1491  0D20  1303               	bcf	3,6	;RP1=0, select bank0
  1492  0D21  1906               	btfsc	6,2	;volatile
  1493  0D22  2D24               	goto	u3891
  1494  0D23  2D25               	goto	u3890
  1495  0D24                     u3891:
  1496  0D24  2D3F               	goto	l3661
  1497  0D25                     u3890:
  1498  0D25                     l3657:
  1499                           
  1500                           ;main.c: 159:             _delay((unsigned long)((2)*(20000000/4000.0)));
  1501  0D25  300D               	movlw	13
  1502  0D26  1283               	bcf	3,5	;RP0=0, select bank0
  1503  0D27  1303               	bcf	3,6	;RP1=0, select bank0
  1504  0D28  00A1               	movwf	??_configZonas+1
  1505  0D29  30FB               	movlw	251
  1506  0D2A  00A0               	movwf	??_configZonas
  1507  0D2B                     u4177:
  1508  0D2B  0BA0               	decfsz	??_configZonas,f
  1509  0D2C  2D2B               	goto	u4177
  1510  0D2D  0BA1               	decfsz	??_configZonas+1,f
  1511  0D2E  2D2B               	goto	u4177
  1512  0D2F                     l3659:
  1513                           
  1514                           ;main.c: 160:             setaZona(msgZonaDisparadas, msgConfigDispara, pos);
  1515  0D2F  30B9               	movlw	(low (_msgConfigDispara| 0))& (0+255)
  1516  0D30  1283               	bcf	3,5	;RP0=0, select bank0
  1517  0D31  1303               	bcf	3,6	;RP1=0, select bank0
  1518  0D32  00A0               	movwf	??_configZonas
  1519  0D33  0820               	movf	??_configZonas,w
  1520  0D34  00F0               	movwf	setaZona@msgConfigDispara
  1521  0D35  3033               	movlw	51
  1522  0D36  00F1               	movwf	setaZona@pos
  1523  0D37  3000               	movlw	0
  1524  0D38  00F2               	movwf	setaZona@pos+1
  1525  0D39  30AA               	movlw	(low (_msgZonaDisparadas| 0))& (0+255)
  1526  0D3A  120A  118A  2040  120A  158A  	fcall	_setaZona
  1527  0D3F                     l3661:
  1528                           
  1529                           ;main.c: 162:         if (RB3 == 0){
  1530  0D3F  1283               	bcf	3,5	;RP0=0, select bank0
  1531  0D40  1303               	bcf	3,6	;RP1=0, select bank0
  1532  0D41  1986               	btfsc	6,3	;volatile
  1533  0D42  2D44               	goto	u3901
  1534  0D43  2D45               	goto	u3900
  1535  0D44                     u3901:
  1536  0D44  2D5F               	goto	l3667
  1537  0D45                     u3900:
  1538  0D45                     l3663:
  1539                           
  1540                           ;main.c: 164:             _delay((unsigned long)((2)*(20000000/4000.0)));
  1541  0D45  300D               	movlw	13
  1542  0D46  1283               	bcf	3,5	;RP0=0, select bank0
  1543  0D47  1303               	bcf	3,6	;RP1=0, select bank0
  1544  0D48  00A1               	movwf	??_configZonas+1
  1545  0D49  30FB               	movlw	251
  1546  0D4A  00A0               	movwf	??_configZonas
  1547  0D4B                     u4187:
  1548  0D4B  0BA0               	decfsz	??_configZonas,f
  1549  0D4C  2D4B               	goto	u4187
  1550  0D4D  0BA1               	decfsz	??_configZonas+1,f
  1551  0D4E  2D4B               	goto	u4187
  1552  0D4F                     l3665:
  1553                           
  1554                           ;main.c: 165:             setaZona(msgZonaDisparadas, msgConfigDispara, pos);
  1555  0D4F  30B9               	movlw	(low (_msgConfigDispara| 0))& (0+255)
  1556  0D50  1283               	bcf	3,5	;RP0=0, select bank0
  1557  0D51  1303               	bcf	3,6	;RP1=0, select bank0
  1558  0D52  00A0               	movwf	??_configZonas
  1559  0D53  0820               	movf	??_configZonas,w
  1560  0D54  00F0               	movwf	setaZona@msgConfigDispara
  1561  0D55  3034               	movlw	52
  1562  0D56  00F1               	movwf	setaZona@pos
  1563  0D57  3000               	movlw	0
  1564  0D58  00F2               	movwf	setaZona@pos+1
  1565  0D59  30AA               	movlw	(low (_msgZonaDisparadas| 0))& (0+255)
  1566  0D5A  120A  118A  2040  120A  158A  	fcall	_setaZona
  1567  0D5F                     l3667:
  1568                           
  1569                           ;main.c: 145:     while (zonaConfig){
  1570  0D5F  1283               	bcf	3,5	;RP0=0, select bank0
  1571  0D60  1303               	bcf	3,6	;RP1=0, select bank0
  1572  0D61  0859               	movf	_zonaConfig,w
  1573  0D62  045A               	iorwf	_zonaConfig+1,w
  1574  0D63  1D03               	btfss	3,2
  1575  0D64  2D66               	goto	u3911
  1576  0D65  2D67               	goto	u3910
  1577  0D66                     u3911:
  1578  0D66  2CD1               	goto	l3641
  1579  0D67                     u3910:
  1580  0D67                     l213:
  1581  0D67  0008               	return
  1582  0D68                     __end_of_configZonas:
  1583                           
  1584                           	psect	text3
  1585  0040                     __ptext3:	
  1586 ;; *************** function _setaZona *****************
  1587 ;; Defined at:
  1588 ;;		line 107 in file "main.c"
  1589 ;; Parameters:    Size  Location     Type
  1590 ;;  msgZonaDispa    1    wreg     PTR unsigned char 
  1591 ;;		 -> msgZonaDisparadas(15), 
  1592 ;;  msgConfigDis    1    0[COMMON] PTR unsigned char 
  1593 ;;		 -> msgConfigDispara(15), 
  1594 ;;  pos             2    1[COMMON] PTR unsigned char 
  1595 ;;		 -> RAM(512), 
  1596 ;; Auto vars:     Size  Location     Type
  1597 ;;  msgZonaDispa    1   10[COMMON] PTR unsigned char 
  1598 ;;		 -> msgZonaDisparadas(15), 
  1599 ;;  i               2    8[COMMON] int 
  1600 ;;  i               2    6[COMMON] int 
  1601 ;; Return value:  Size  Location     Type
  1602 ;;                  1    wreg      void 
  1603 ;; Registers used:
  1604 ;;		wreg, fsr0l, fsr0h, status,2, status,0
  1605 ;; Tracked objects:
  1606 ;;		On entry : 0/0
  1607 ;;		On exit  : 0/0
  1608 ;;		Unchanged: 0/0
  1609 ;; Data sizes:     COMMON   BANK0   BANK1   BANK3   BANK2
  1610 ;;      Params:         3       0       0       0       0
  1611 ;;      Locals:         5       0       0       0       0
  1612 ;;      Temps:          3       0       0       0       0
  1613 ;;      Totals:        11       0       0       0       0
  1614 ;;Total ram usage:       11 bytes
  1615 ;; Hardware stack levels used: 1
  1616 ;; This function calls:
  1617 ;;		Nothing
  1618 ;; This function is called by:
  1619 ;;		_configZonas
  1620 ;;		_validaUser
  1621 ;; This function uses a non-reentrant model
  1622 ;;
  1623                           
  1624                           
  1625                           ;psect for function _setaZona
  1626  0040                     _setaZona:
  1627                           
  1628                           ;incstack = 0
  1629                           ; Regs used in _setaZona: [wreg-fsr0h+status,2+status,0]
  1630                           ;setaZona@msgZonaDisparadas stored from wreg
  1631  0040  00FA               	movwf	setaZona@msgZonaDisparadas
  1632  0041                     l3051:
  1633                           
  1634                           ;main.c: 108:     if (senhaCoaAtivo){
  1635  0041  1283               	bcf	3,5	;RP0=0, select bank0
  1636  0042  1303               	bcf	3,6	;RP1=0, select bank0
  1637  0043  085B               	movf	_senhaCoaAtivo,w
  1638  0044  045C               	iorwf	_senhaCoaAtivo+1,w
  1639  0045  1903               	btfsc	3,2
  1640  0046  2848               	goto	u3251
  1641  0047  2849               	goto	u3250
  1642  0048                     u3251:
  1643  0048  2893               	goto	l3069
  1644  0049                     u3250:
  1645  0049                     l3053:
  1646                           
  1647                           ;main.c: 109:         for (int i = 0; msgZonaDisparadas[i] != '\0'; i++){
  1648  0049  01F6               	clrf	setaZona@i
  1649  004A  01F7               	clrf	setaZona@i+1
  1650  004B  2887               	goto	l3067
  1651  004C                     l3055:
  1652                           
  1653                           ;main.c: 110:             if(msgZonaDisparadas[i] == '1' && msgConfigDispara[i] == pos){
  1654  004C  0876               	movf	setaZona@i,w
  1655  004D  077A               	addwf	setaZona@msgZonaDisparadas,w
  1656  004E  00F3               	movwf	??_setaZona
  1657  004F  0873               	movf	??_setaZona,w
  1658  0050  0084               	movwf	4
  1659  0051  3031               	movlw	49
  1660  0052  0600               	xorwf	0,w
  1661  0053  1D03               	btfss	3,2
  1662  0054  2856               	goto	u3261
  1663  0055  2857               	goto	u3260
  1664  0056                     u3261:
  1665  0056  2881               	goto	l3065
  1666  0057                     u3260:
  1667  0057                     l3057:
  1668  0057  0876               	movf	setaZona@i,w
  1669  0058  0770               	addwf	setaZona@msgConfigDispara,w
  1670  0059  00F3               	movwf	??_setaZona
  1671  005A  0873               	movf	??_setaZona,w
  1672  005B  0084               	movwf	4
  1673  005C  0800               	movf	0,w
  1674  005D  00F4               	movwf	??_setaZona+1
  1675  005E  01F5               	clrf	??_setaZona+2
  1676  005F  0872               	movf	setaZona@pos+1,w
  1677  0060  0675               	xorwf	??_setaZona+2,w
  1678  0061  1D03               	skipz
  1679  0062  2865               	goto	u3275
  1680  0063  0871               	movf	setaZona@pos,w
  1681  0064  0674               	xorwf	??_setaZona+1,w
  1682  0065                     u3275:
  1683  0065  1D03               	skipz
  1684  0066  2868               	goto	u3271
  1685  0067  2869               	goto	u3270
  1686  0068                     u3271:
  1687  0068  2881               	goto	l3065
  1688  0069                     u3270:
  1689  0069                     l3059:
  1690                           
  1691                           ;main.c: 111:                 msgZonaDisparadas[i] = '0';
  1692  0069  3030               	movlw	48
  1693  006A  00F3               	movwf	??_setaZona
  1694  006B  0876               	movf	setaZona@i,w
  1695  006C  077A               	addwf	setaZona@msgZonaDisparadas,w
  1696  006D  00F4               	movwf	??_setaZona+1
  1697  006E  0874               	movf	??_setaZona+1,w
  1698  006F  0084               	movwf	4
  1699  0070  0873               	movf	??_setaZona,w
  1700  0071  0080               	movwf	0
  1701  0072                     l3061:
  1702                           
  1703                           ;main.c: 112:                 _delay((unsigned long)((2)*(20000000/4000.0)));
  1704  0072  300D               	movlw	13
  1705  0073  00F4               	movwf	??_setaZona+1
  1706  0074  30FB               	movlw	251
  1707  0075  00F3               	movwf	??_setaZona
  1708  0076                     u4197:
  1709  0076  0BF3               	decfsz	??_setaZona,f
  1710  0077  2876               	goto	u4197
  1711  0078  0BF4               	decfsz	??_setaZona+1,f
  1712  0079  2876               	goto	u4197
  1713  007A  287B               	nop2
  1714  007B                     l3063:
  1715                           
  1716                           ;main.c: 113:                 pos++;
  1717  007B  3001               	movlw	1
  1718  007C  07F1               	addwf	setaZona@pos,f
  1719  007D  1803               	skipnc
  1720  007E  0AF2               	incf	setaZona@pos+1,f
  1721  007F  3000               	movlw	0
  1722  0080  07F2               	addwf	setaZona@pos+1,f
  1723  0081                     l3065:
  1724                           
  1725                           ;main.c: 115:         }
  1726  0081  3001               	movlw	1
  1727  0082  07F6               	addwf	setaZona@i,f
  1728  0083  1803               	skipnc
  1729  0084  0AF7               	incf	setaZona@i+1,f
  1730  0085  3000               	movlw	0
  1731  0086  07F7               	addwf	setaZona@i+1,f
  1732  0087                     l3067:
  1733  0087  0876               	movf	setaZona@i,w
  1734  0088  077A               	addwf	setaZona@msgZonaDisparadas,w
  1735  0089  00F3               	movwf	??_setaZona
  1736  008A  0873               	movf	??_setaZona,w
  1737  008B  0084               	movwf	4
  1738  008C  1383               	bcf	3,7	;select IRP bank0
  1739  008D  0800               	movf	0,w
  1740  008E  1D03               	btfss	3,2
  1741  008F  2891               	goto	u3281
  1742  0090  2892               	goto	u3280
  1743  0091                     u3281:
  1744  0091  284C               	goto	l3055
  1745  0092                     u3280:
  1746  0092  28FD               	goto	l200
  1747  0093                     l3069:
  1748                           
  1749                           ;main.c: 118:         for (int i = 0; msgZonaDisparadas[i] != '\0'; i++){
  1750  0093  01F8               	clrf	setaZona@i_160
  1751  0094  01F9               	clrf	setaZona@i_160+1
  1752  0095  28F2               	goto	l194
  1753  0096                     l3071:
  1754                           
  1755                           ;main.c: 119:             if(msgZonaDisparadas[i] == '0' && msgConfigDispara[i] == pos){
  1756  0096  0878               	movf	setaZona@i_160,w
  1757  0097  077A               	addwf	setaZona@msgZonaDisparadas,w
  1758  0098  00F3               	movwf	??_setaZona
  1759  0099  0873               	movf	??_setaZona,w
  1760  009A  0084               	movwf	4
  1761  009B  3030               	movlw	48
  1762  009C  0600               	xorwf	0,w
  1763  009D  1D03               	btfss	3,2
  1764  009E  28A0               	goto	u3291
  1765  009F  28A1               	goto	u3290
  1766  00A0                     u3291:
  1767  00A0  28BD               	goto	l3077
  1768  00A1                     u3290:
  1769  00A1                     l3073:
  1770  00A1  0878               	movf	setaZona@i_160,w
  1771  00A2  0770               	addwf	setaZona@msgConfigDispara,w
  1772  00A3  00F3               	movwf	??_setaZona
  1773  00A4  0873               	movf	??_setaZona,w
  1774  00A5  0084               	movwf	4
  1775  00A6  0800               	movf	0,w
  1776  00A7  00F4               	movwf	??_setaZona+1
  1777  00A8  01F5               	clrf	??_setaZona+2
  1778  00A9  0872               	movf	setaZona@pos+1,w
  1779  00AA  0675               	xorwf	??_setaZona+2,w
  1780  00AB  1D03               	skipz
  1781  00AC  28AF               	goto	u3305
  1782  00AD  0871               	movf	setaZona@pos,w
  1783  00AE  0674               	xorwf	??_setaZona+1,w
  1784  00AF                     u3305:
  1785  00AF  1D03               	skipz
  1786  00B0  28B2               	goto	u3301
  1787  00B1  28B3               	goto	u3300
  1788  00B2                     u3301:
  1789  00B2  28BD               	goto	l3077
  1790  00B3                     u3300:
  1791  00B3                     l3075:
  1792                           
  1793                           ;main.c: 120:                 msgZonaDisparadas[i] = '1';
  1794  00B3  3031               	movlw	49
  1795  00B4  00F3               	movwf	??_setaZona
  1796  00B5  0878               	movf	setaZona@i_160,w
  1797  00B6  077A               	addwf	setaZona@msgZonaDisparadas,w
  1798  00B7  00F4               	movwf	??_setaZona+1
  1799  00B8  0874               	movf	??_setaZona+1,w
  1800  00B9  0084               	movwf	4
  1801  00BA  0873               	movf	??_setaZona,w
  1802  00BB  0080               	movwf	0
  1803                           
  1804                           ;main.c: 121:             }
  1805  00BC  28E3               	goto	l3083
  1806  00BD                     l3077:
  1807  00BD  0878               	movf	setaZona@i_160,w
  1808  00BE  077A               	addwf	setaZona@msgZonaDisparadas,w
  1809  00BF  00F3               	movwf	??_setaZona
  1810  00C0  0873               	movf	??_setaZona,w
  1811  00C1  0084               	movwf	4
  1812  00C2  3031               	movlw	49
  1813  00C3  0600               	xorwf	0,w
  1814  00C4  1D03               	btfss	3,2
  1815  00C5  28C7               	goto	u3311
  1816  00C6  28C8               	goto	u3310
  1817  00C7                     u3311:
  1818  00C7  28E3               	goto	l3083
  1819  00C8                     u3310:
  1820  00C8                     l3079:
  1821  00C8  0878               	movf	setaZona@i_160,w
  1822  00C9  0770               	addwf	setaZona@msgConfigDispara,w
  1823  00CA  00F3               	movwf	??_setaZona
  1824  00CB  0873               	movf	??_setaZona,w
  1825  00CC  0084               	movwf	4
  1826  00CD  0800               	movf	0,w
  1827  00CE  00F4               	movwf	??_setaZona+1
  1828  00CF  01F5               	clrf	??_setaZona+2
  1829  00D0  0872               	movf	setaZona@pos+1,w
  1830  00D1  0675               	xorwf	??_setaZona+2,w
  1831  00D2  1D03               	skipz
  1832  00D3  28D6               	goto	u3325
  1833  00D4  0871               	movf	setaZona@pos,w
  1834  00D5  0674               	xorwf	??_setaZona+1,w
  1835  00D6                     u3325:
  1836  00D6  1D03               	skipz
  1837  00D7  28D9               	goto	u3321
  1838  00D8  28DA               	goto	u3320
  1839  00D9                     u3321:
  1840  00D9  28E3               	goto	l3083
  1841  00DA                     u3320:
  1842  00DA                     l3081:
  1843                           
  1844                           ;main.c: 123:                 msgZonaDisparadas[i] = '0';
  1845  00DA  3030               	movlw	48
  1846  00DB  00F3               	movwf	??_setaZona
  1847  00DC  0878               	movf	setaZona@i_160,w
  1848  00DD  077A               	addwf	setaZona@msgZonaDisparadas,w
  1849  00DE  00F4               	movwf	??_setaZona+1
  1850  00DF  0874               	movf	??_setaZona+1,w
  1851  00E0  0084               	movwf	4
  1852  00E1  0873               	movf	??_setaZona,w
  1853  00E2  0080               	movwf	0
  1854  00E3                     l3083:
  1855                           
  1856                           ;main.c: 125:             _delay((unsigned long)((2)*(20000000/4000.0)));
  1857  00E3  300D               	movlw	13
  1858  00E4  00F4               	movwf	??_setaZona+1
  1859  00E5  30FB               	movlw	251
  1860  00E6  00F3               	movwf	??_setaZona
  1861  00E7                     u4207:
  1862  00E7  0BF3               	decfsz	??_setaZona,f
  1863  00E8  28E7               	goto	u4207
  1864  00E9  0BF4               	decfsz	??_setaZona+1,f
  1865  00EA  28E7               	goto	u4207
  1866  00EB  28EC               	nop2
  1867  00EC                     l3085:
  1868                           
  1869                           ;main.c: 126:         }
  1870  00EC  3001               	movlw	1
  1871  00ED  07F8               	addwf	setaZona@i_160,f
  1872  00EE  1803               	skipnc
  1873  00EF  0AF9               	incf	setaZona@i_160+1,f
  1874  00F0  3000               	movlw	0
  1875  00F1  07F9               	addwf	setaZona@i_160+1,f
  1876  00F2                     l194:
  1877  00F2  0878               	movf	setaZona@i_160,w
  1878  00F3  077A               	addwf	setaZona@msgZonaDisparadas,w
  1879  00F4  00F3               	movwf	??_setaZona
  1880  00F5  0873               	movf	??_setaZona,w
  1881  00F6  0084               	movwf	4
  1882  00F7  1383               	bcf	3,7	;select IRP bank0
  1883  00F8  0800               	movf	0,w
  1884  00F9  1D03               	btfss	3,2
  1885  00FA  28FC               	goto	u3331
  1886  00FB  28FD               	goto	u3330
  1887  00FC                     u3331:
  1888  00FC  2896               	goto	l3071
  1889  00FD                     u3330:
  1890  00FD                     l200:
  1891  00FD  0008               	return
  1892  00FE                     __end_of_setaZona:
  1893                           
  1894                           	psect	text4
  1895  179E                     __ptext4:	
  1896 ;; *************** function _infoZonas *****************
  1897 ;; Defined at:
  1898 ;;		line 132 in file "main.c"
  1899 ;; Parameters:    Size  Location     Type
  1900 ;;		None
  1901 ;; Auto vars:     Size  Location     Type
  1902 ;;		None
  1903 ;; Return value:  Size  Location     Type
  1904 ;;                  1    wreg      void 
  1905 ;; Registers used:
  1906 ;;		wreg, fsr0l, fsr0h, status,2, status,0, btemp+1, pclath, cstack
  1907 ;; Tracked objects:
  1908 ;;		On entry : 0/0
  1909 ;;		On exit  : 0/0
  1910 ;;		Unchanged: 0/0
  1911 ;; Data sizes:     COMMON   BANK0   BANK1   BANK3   BANK2
  1912 ;;      Params:         0       0       0       0       0
  1913 ;;      Locals:         0       0       0       0       0
  1914 ;;      Temps:          3       0       0       0       0
  1915 ;;      Totals:         3       0       0       0       0
  1916 ;;Total ram usage:        3 bytes
  1917 ;; Hardware stack levels used: 1
  1918 ;; Hardware stack levels required when called: 3
  1919 ;; This function calls:
  1920 ;;		_LCD_limpa
  1921 ;;		_LCD_linha1
  1922 ;;		_LCD_linha2
  1923 ;;		_escreveMesagem
  1924 ;; This function is called by:
  1925 ;;		_configZonas
  1926 ;; This function uses a non-reentrant model
  1927 ;;
  1928                           
  1929                           
  1930                           ;psect for function _infoZonas
  1931  179E                     _infoZonas:
  1932  179E                     l3575:	
  1933                           ;incstack = 0
  1934                           ; Regs used in _infoZonas: [wreg-fsr0h+status,2+status,0+btemp+1+pclath+cstack]
  1935                           
  1936                           
  1937                           ;main.c: 133:     LCD_limpa();
  1938  179E  160A  118A  26E1  160A  118A  	fcall	_LCD_limpa
  1939                           
  1940                           ;main.c: 134:     LCD_linha1();
  1941  17A3  160A  118A  26F1  160A  118A  	fcall	_LCD_linha1
  1942  17A8                     l3577:
  1943                           
  1944                           ;main.c: 135:     escreveMesagem(msgConfigDispara);
  1945  17A8  30B9               	movlw	(low (_msgConfigDispara| 0))& (0+255)
  1946  17A9  00F3               	movwf	escreveMesagem@texto
  1947  17AA  3000               	movlw	0
  1948  17AB  00F4               	movwf	escreveMesagem@texto+1
  1949  17AC  120A  118A  2009  160A  118A  	fcall	_escreveMesagem
  1950  17B1                     l3579:
  1951                           
  1952                           ;main.c: 136:     LCD_linha2();
  1953  17B1  160A  118A  26D1  160A  118A  	fcall	_LCD_linha2
  1954                           
  1955                           ;main.c: 137:     escreveMesagem(msgZonaDisparadas);
  1956  17B6  30AA               	movlw	(low (_msgZonaDisparadas| 0))& (0+255)
  1957  17B7  00F3               	movwf	escreveMesagem@texto
  1958  17B8  3000               	movlw	0
  1959  17B9  00F4               	movwf	escreveMesagem@texto+1
  1960  17BA  120A  118A  2009  160A  118A  	fcall	_escreveMesagem
  1961  17BF                     l3581:
  1962                           
  1963                           ;main.c: 138:     _delay((unsigned long)((3000)*(20000000/4000.0)));
  1964  17BF  304D               	movlw	77
  1965  17C0  00FC               	movwf	??_infoZonas+2
  1966  17C1  3019               	movlw	25
  1967  17C2  00FB               	movwf	??_infoZonas+1
  1968  17C3  304F               	movlw	79
  1969  17C4  00FA               	movwf	??_infoZonas
  1970  17C5                     u4217:
  1971  17C5  0BFA               	decfsz	??_infoZonas,f
  1972  17C6  2FC5               	goto	u4217
  1973  17C7  0BFB               	decfsz	??_infoZonas+1,f
  1974  17C8  2FC5               	goto	u4217
  1975  17C9  0BFC               	decfsz	??_infoZonas+2,f
  1976  17CA  2FC5               	goto	u4217
  1977  17CB  2FCC               	nop2
  1978  17CC                     l203:
  1979  17CC  0008               	return
  1980  17CD                     __end_of_infoZonas:
  1981                           
  1982                           	psect	text5
  1983  094D                     __ptext5:	
  1984 ;; *************** function _alteraSenhas *****************
  1985 ;; Defined at:
  1986 ;;		line 253 in file "main.c"
  1987 ;; Parameters:    Size  Location     Type
  1988 ;;  opConfig        2   39[BANK0 ] unsigned int 
  1989 ;; Auto vars:     Size  Location     Type
  1990 ;;		None
  1991 ;; Return value:  Size  Location     Type
  1992 ;;                  1    wreg      void 
  1993 ;; Registers used:
  1994 ;;		wreg, fsr0l, fsr0h, status,2, status,0, btemp+1, pclath, cstack
  1995 ;; Tracked objects:
  1996 ;;		On entry : 0/0
  1997 ;;		On exit  : 0/0
  1998 ;;		Unchanged: 0/0
  1999 ;; Data sizes:     COMMON   BANK0   BANK1   BANK3   BANK2
  2000 ;;      Params:         0       2       0       0       0
  2001 ;;      Locals:         0       0       0       0       0
  2002 ;;      Temps:          0       2       0       0       0
  2003 ;;      Totals:         0       4       0       0       0
  2004 ;;Total ram usage:        4 bytes
  2005 ;; Hardware stack levels used: 1
  2006 ;; Hardware stack levels required when called: 6
  2007 ;; This function calls:
  2008 ;;		_LCD_init
  2009 ;;		_LCD_limpa
  2010 ;;		_Linha2
  2011 ;;		_escreveMesagem
  2012 ;;		_rotinaValidaSenha
  2013 ;; This function is called by:
  2014 ;;		_main
  2015 ;; This function uses a non-reentrant model
  2016 ;;
  2017                           
  2018                           
  2019                           ;psect for function _alteraSenhas
  2020  094D                     _alteraSenhas:
  2021  094D                     l3611:	
  2022                           ;incstack = 0
  2023                           ; Regs used in _alteraSenhas: [wreg-fsr0h+status,2+status,0+btemp+1+pclath+cstack]
  2024                           
  2025                           
  2026                           ;main.c: 254:     LCD_init();
  2027  094D  160A  118A  27CD  120A  158A  	fcall	_LCD_init
  2028                           
  2029                           ;main.c: 255:     LCD_limpa();
  2030  0952  160A  118A  26E1  120A  158A  	fcall	_LCD_limpa
  2031  0957                     l3613:
  2032                           
  2033                           ;main.c: 256:     _delay((unsigned long)((2)*(20000000/4000.0)));
  2034  0957  300D               	movlw	13
  2035  0958  1283               	bcf	3,5	;RP0=0, select bank0
  2036  0959  1303               	bcf	3,6	;RP1=0, select bank0
  2037  095A  00CA               	movwf	??_alteraSenhas+1
  2038  095B  30FB               	movlw	251
  2039  095C  00C9               	movwf	??_alteraSenhas
  2040  095D                     u4227:
  2041  095D  0BC9               	decfsz	??_alteraSenhas,f
  2042  095E  295D               	goto	u4227
  2043  095F  0BCA               	decfsz	??_alteraSenhas+1,f
  2044  0960  295D               	goto	u4227
  2045  0961                     l3615:
  2046                           
  2047                           ;main.c: 257:     escreveMesagem(msgDigiteNovaSenha);
  2048  0961  3050               	movlw	(low (_msgDigiteNovaSenha| (0+256)))& (0+255)
  2049  0962  00F3               	movwf	escreveMesagem@texto
  2050  0963  3001               	movlw	1
  2051  0964  00F4               	movwf	escreveMesagem@texto+1
  2052  0965  120A  118A  2009  120A  158A  	fcall	_escreveMesagem
  2053  096A                     l3617:
  2054                           
  2055                           ;main.c: 258:     Linha2();
  2056  096A  120A  158A  202B  120A  158A  	fcall	_Linha2
  2057  096F                     l3619:
  2058                           
  2059                           ;main.c: 259:     alteraSenha = 1;
  2060  096F  3001               	movlw	1
  2061  0970  1283               	bcf	3,5	;RP0=0, select bank0
  2062  0971  1303               	bcf	3,6	;RP1=0, select bank0
  2063  0972  00D3               	movwf	_alteraSenha
  2064  0973  3000               	movlw	0
  2065  0974  00D4               	movwf	_alteraSenha+1
  2066  0975                     l3621:
  2067                           
  2068                           ;main.c: 260:     if (opConfig == 1){
  2069  0975  0347               	decf	alteraSenhas@opConfig,w
  2070  0976  0448               	iorwf	alteraSenhas@opConfig+1,w
  2071  0977  1D03               	btfss	3,2
  2072  0978  297A               	goto	u3841
  2073  0979  297B               	goto	u3840
  2074  097A                     u3841:
  2075  097A  2982               	goto	l3625
  2076  097B                     u3840:
  2077  097B                     l3623:
  2078                           
  2079                           ;main.c: 261:         rotinaValidaSenha(senhaConfig);
  2080  097B  30DF               	movlw	(low (_senhaConfig| 0))& (0+255)
  2081  097C  120A  158A  2069  120A  158A  	fcall	_rotinaValidaSenha
  2082                           
  2083                           ;main.c: 262:     }
  2084  0981  299D               	goto	l258
  2085  0982                     l3625:
  2086  0982  3002               	movlw	2
  2087  0983  0647               	xorwf	alteraSenhas@opConfig,w
  2088  0984  0448               	iorwf	alteraSenhas@opConfig+1,w
  2089  0985  1D03               	btfss	3,2
  2090  0986  2988               	goto	u3851
  2091  0987  2989               	goto	u3850
  2092  0988                     u3851:
  2093  0988  2990               	goto	l3629
  2094  0989                     u3850:
  2095  0989                     l3627:
  2096                           
  2097                           ;main.c: 264:         rotinaValidaSenha(senhaUser);
  2098  0989  30E9               	movlw	(low (_senhaUser| 0))& (0+255)
  2099  098A  120A  158A  2069  120A  158A  	fcall	_rotinaValidaSenha
  2100                           
  2101                           ;main.c: 265:     }
  2102  098F  299D               	goto	l258
  2103  0990                     l3629:
  2104  0990  3003               	movlw	3
  2105  0991  0647               	xorwf	alteraSenhas@opConfig,w
  2106  0992  0448               	iorwf	alteraSenhas@opConfig+1,w
  2107  0993  1D03               	btfss	3,2
  2108  0994  2996               	goto	u3861
  2109  0995  2997               	goto	u3860
  2110  0996                     u3861:
  2111  0996  299D               	goto	l258
  2112  0997                     u3860:
  2113  0997                     l3631:
  2114                           
  2115                           ;main.c: 267:         rotinaValidaSenha(senhaCoa);
  2116  0997  30E4               	movlw	(low (_senhaCoa| 0))& (0+255)
  2117  0998  120A  158A  2069  120A  158A  	fcall	_rotinaValidaSenha
  2118  099D                     l258:
  2119  099D  0008               	return
  2120  099E                     __end_of_alteraSenhas:
  2121                           
  2122                           	psect	text6
  2123  0869                     __ptext6:	
  2124 ;; *************** function _rotinaValidaSenha *****************
  2125 ;; Defined at:
  2126 ;;		line 240 in file "main.c"
  2127 ;; Parameters:    Size  Location     Type
  2128 ;;  senhaOp         1    wreg     PTR unsigned char 
  2129 ;;		 -> senhaCoa(5), senhaUser(5), senhaConfig(5), 
  2130 ;; Auto vars:     Size  Location     Type
  2131 ;;  senhaOp         1   38[BANK0 ] PTR unsigned char 
  2132 ;;		 -> senhaCoa(5), senhaUser(5), senhaConfig(5), 
  2133 ;; Return value:  Size  Location     Type
  2134 ;;                  1    wreg      void 
  2135 ;; Registers used:
  2136 ;;		wreg, fsr0l, fsr0h, status,2, status,0, btemp+1, pclath, cstack
  2137 ;; Tracked objects:
  2138 ;;		On entry : 0/0
  2139 ;;		On exit  : 0/0
  2140 ;;		Unchanged: 0/0
  2141 ;; Data sizes:     COMMON   BANK0   BANK1   BANK3   BANK2
  2142 ;;      Params:         0       0       0       0       0
  2143 ;;      Locals:         0       1       0       0       0
  2144 ;;      Temps:          0       3       0       0       0
  2145 ;;      Totals:         0       4       0       0       0
  2146 ;;Total ram usage:        4 bytes
  2147 ;; Hardware stack levels used: 1
  2148 ;; Hardware stack levels required when called: 5
  2149 ;; This function calls:
  2150 ;;		_LCD_limpa
  2151 ;;		_LCD_linha2
  2152 ;;		_escreveMesagem
  2153 ;;		_inputSenhaAlter
  2154 ;; This function is called by:
  2155 ;;		_alteraSenhas
  2156 ;; This function uses a non-reentrant model
  2157 ;;
  2158                           
  2159                           
  2160                           ;psect for function _rotinaValidaSenha
  2161  0869                     _rotinaValidaSenha:
  2162                           
  2163                           ;incstack = 0
  2164                           ; Regs used in _rotinaValidaSenha: [wreg-fsr0h+status,2+status,0+btemp+1+pclath+cstack]
  2165                           ;rotinaValidaSenha@senhaOp stored from wreg
  2166  0869  1283               	bcf	3,5	;RP0=0, select bank0
  2167  086A  1303               	bcf	3,6	;RP1=0, select bank0
  2168  086B  00C6               	movwf	rotinaValidaSenha@senhaOp
  2169  086C                     l3583:
  2170                           
  2171                           ;main.c: 241:     inputSenhaAlter(senhaOp);
  2172  086C  0846               	movf	rotinaValidaSenha@senhaOp,w
  2173  086D  120A  158A  21F2  120A  158A  	fcall	_inputSenhaAlter
  2174  0872                     l3585:
  2175                           
  2176                           ;main.c: 242:         LCD_limpa();
  2177  0872  160A  118A  26E1  120A  158A  	fcall	_LCD_limpa
  2178  0877                     l3587:
  2179                           
  2180                           ;main.c: 243:         if (validaSenha){
  2181  0877  1283               	bcf	3,5	;RP0=0, select bank0
  2182  0878  1303               	bcf	3,6	;RP1=0, select bank0
  2183  0879  0857               	movf	_validaSenha,w
  2184  087A  0458               	iorwf	_validaSenha+1,w
  2185  087B  1903               	btfsc	3,2
  2186  087C  287E               	goto	u3821
  2187  087D  287F               	goto	u3820
  2188  087E                     u3821:
  2189  087E  2899               	goto	l3595
  2190  087F                     u3820:
  2191  087F                     l3589:
  2192                           
  2193                           ;main.c: 244:             escreveMesagem(msgSenhaAtualizada);
  2194  087F  3010               	movlw	(low (_msgSenhaAtualizada| (0+256)))& (0+255)
  2195  0880  00F3               	movwf	escreveMesagem@texto
  2196  0881  3001               	movlw	1
  2197  0882  00F4               	movwf	escreveMesagem@texto+1
  2198  0883  120A  118A  2009  120A  158A  	fcall	_escreveMesagem
  2199  0888                     l3591:
  2200                           
  2201                           ;main.c: 245:             LCD_linha2();
  2202  0888  160A  118A  26D1  120A  158A  	fcall	_LCD_linha2
  2203  088D                     l3593:
  2204                           
  2205                           ;main.c: 246:             escreveMesagem(senhaOp);
  2206  088D  1283               	bcf	3,5	;RP0=0, select bank0
  2207  088E  1303               	bcf	3,6	;RP1=0, select bank0
  2208  088F  0846               	movf	rotinaValidaSenha@senhaOp,w
  2209  0890  00F3               	movwf	escreveMesagem@texto
  2210  0891  3000               	movlw	0
  2211  0892  00F4               	movwf	escreveMesagem@texto+1
  2212  0893  120A  118A  2009  120A  158A  	fcall	_escreveMesagem
  2213                           
  2214                           ;main.c: 247:         }
  2215  0898  28A2               	goto	l3597
  2216  0899                     l3595:
  2217                           
  2218                           ;main.c: 249:             escreveMesagem(msgSenhaCancelada);
  2219  0899  3031               	movlw	(low (_msgSenhaCancelada| (0+256)))& (0+255)
  2220  089A  00F3               	movwf	escreveMesagem@texto
  2221  089B  3001               	movlw	1
  2222  089C  00F4               	movwf	escreveMesagem@texto+1
  2223  089D  120A  118A  2009  120A  158A  	fcall	_escreveMesagem
  2224  08A2                     l3597:
  2225                           
  2226                           ;main.c: 251:         _delay((unsigned long)((2000)*(20000000/4000.0)));
  2227  08A2  3033               	movlw	51
  2228  08A3  1283               	bcf	3,5	;RP0=0, select bank0
  2229  08A4  1303               	bcf	3,6	;RP1=0, select bank0
  2230  08A5  00C5               	movwf	??_rotinaValidaSenha+2
  2231  08A6  30BB               	movlw	187
  2232  08A7  00C4               	movwf	??_rotinaValidaSenha+1
  2233  08A8  30DF               	movlw	223
  2234  08A9  00C3               	movwf	??_rotinaValidaSenha
  2235  08AA                     u4237:
  2236  08AA  0BC3               	decfsz	??_rotinaValidaSenha,f
  2237  08AB  28AA               	goto	u4237
  2238  08AC  0BC4               	decfsz	??_rotinaValidaSenha+1,f
  2239  08AD  28AA               	goto	u4237
  2240  08AE  0BC5               	decfsz	??_rotinaValidaSenha+2,f
  2241  08AF  28AA               	goto	u4237
  2242  08B0                     l250:
  2243  08B0  0008               	return
  2244  08B1                     __end_of_rotinaValidaSenha:
  2245                           
  2246                           	psect	text7
  2247  09F2                     __ptext7:	
  2248 ;; *************** function _inputSenhaAlter *****************
  2249 ;; Defined at:
  2250 ;;		line 231 in file "main.c"
  2251 ;; Parameters:    Size  Location     Type
  2252 ;;  senhaDestino    1    wreg     PTR unsigned char 
  2253 ;;		 -> senhaCoa(5), senhaUser(5), senhaConfig(5), 
  2254 ;; Auto vars:     Size  Location     Type
  2255 ;;  senhaDestino    1   32[BANK0 ] PTR unsigned char 
  2256 ;;		 -> senhaCoa(5), senhaUser(5), senhaConfig(5), 
  2257 ;;  i               2   33[BANK0 ] int 
  2258 ;; Return value:  Size  Location     Type
  2259 ;;                  1    wreg      void 
  2260 ;; Registers used:
  2261 ;;		wreg, fsr0l, fsr0h, status,2, status,0, btemp+1, pclath, cstack
  2262 ;; Tracked objects:
  2263 ;;		On entry : 0/0
  2264 ;;		On exit  : 0/0
  2265 ;;		Unchanged: 0/0
  2266 ;; Data sizes:     COMMON   BANK0   BANK1   BANK3   BANK2
  2267 ;;      Params:         0       0       0       0       0
  2268 ;;      Locals:         0       3       0       0       0
  2269 ;;      Temps:          0       2       0       0       0
  2270 ;;      Totals:         0       5       0       0       0
  2271 ;;Total ram usage:        5 bytes
  2272 ;; Hardware stack levels used: 1
  2273 ;; Hardware stack levels required when called: 4
  2274 ;; This function calls:
  2275 ;;		_confereTeclado
  2276 ;;		_teclado
  2277 ;;		_valida_senha
  2278 ;; This function is called by:
  2279 ;;		_rotinaValidaSenha
  2280 ;; This function uses a non-reentrant model
  2281 ;;
  2282                           
  2283                           
  2284                           ;psect for function _inputSenhaAlter
  2285  09F2                     _inputSenhaAlter:
  2286                           
  2287                           ;incstack = 0
  2288                           ; Regs used in _inputSenhaAlter: [wreg-fsr0h+status,2+status,0+btemp+1+pclath+cstack]
  2289                           ;inputSenhaAlter@senhaDestino stored from wreg
  2290  09F2  1283               	bcf	3,5	;RP0=0, select bank0
  2291  09F3  1303               	bcf	3,6	;RP1=0, select bank0
  2292  09F4  00C0               	movwf	inputSenhaAlter@senhaDestino
  2293  09F5                     l3543:
  2294                           
  2295                           ;main.c: 232:     for (int i = 0; i < 4; i++){
  2296  09F5  01C1               	clrf	inputSenhaAlter@i
  2297  09F6  01C2               	clrf	inputSenhaAlter@i+1
  2298  09F7                     l3549:
  2299                           
  2300                           ;main.c: 233:         input = 10;
  2301  09F7  300A               	movlw	10
  2302  09F8  1283               	bcf	3,5	;RP0=0, select bank0
  2303  09F9  1303               	bcf	3,6	;RP1=0, select bank0
  2304  09FA  00E5               	movwf	_input
  2305  09FB  3000               	movlw	0
  2306  09FC  00E6               	movwf	_input+1
  2307                           
  2308                           ;main.c: 234:         while (input == 10){teclado();}
  2309  09FD  2A03               	goto	l3553
  2310  09FE                     l3551:
  2311  09FE  120A  118A  20FE  120A  158A  	fcall	_teclado
  2312  0A03                     l3553:
  2313  0A03  300A               	movlw	10
  2314  0A04  1283               	bcf	3,5	;RP0=0, select bank0
  2315  0A05  1303               	bcf	3,6	;RP1=0, select bank0
  2316  0A06  0665               	xorwf	_input,w
  2317  0A07  0466               	iorwf	_input+1,w
  2318  0A08  1903               	btfsc	3,2
  2319  0A09  2A0B               	goto	u3791
  2320  0A0A  2A0C               	goto	u3790
  2321  0A0B                     u3791:
  2322  0A0B  29FE               	goto	l3551
  2323  0A0C                     u3790:
  2324  0A0C                     l3555:
  2325                           
  2326                           ;main.c: 235:         _delay((unsigned long)((2)*(20000000/4000.0)));
  2327  0A0C  300D               	movlw	13
  2328  0A0D  1283               	bcf	3,5	;RP0=0, select bank0
  2329  0A0E  1303               	bcf	3,6	;RP1=0, select bank0
  2330  0A0F  00BF               	movwf	??_inputSenhaAlter+1
  2331  0A10  30FB               	movlw	251
  2332  0A11  00BE               	movwf	??_inputSenhaAlter
  2333  0A12                     u4247:
  2334  0A12  0BBE               	decfsz	??_inputSenhaAlter,f
  2335  0A13  2A12               	goto	u4247
  2336  0A14  0BBF               	decfsz	??_inputSenhaAlter+1,f
  2337  0A15  2A12               	goto	u4247
  2338  0A16                     l3557:
  2339                           
  2340                           ;main.c: 236:         senhaDestino[i] = confereTeclado(input);
  2341  0A16  1283               	bcf	3,5	;RP0=0, select bank0
  2342  0A17  1303               	bcf	3,6	;RP1=0, select bank0
  2343  0A18  0866               	movf	_input+1,w
  2344  0A19  00F1               	movwf	confereTeclado@numero+1
  2345  0A1A  0865               	movf	_input,w
  2346  0A1B  00F0               	movwf	confereTeclado@numero
  2347  0A1C  120A  158A  22AE  120A  158A  	fcall	_confereTeclado
  2348  0A21  1283               	bcf	3,5	;RP0=0, select bank0
  2349  0A22  1303               	bcf	3,6	;RP1=0, select bank0
  2350  0A23  00BE               	movwf	??_inputSenhaAlter
  2351  0A24  0841               	movf	inputSenhaAlter@i,w
  2352  0A25  0740               	addwf	inputSenhaAlter@senhaDestino,w
  2353  0A26  00BF               	movwf	??_inputSenhaAlter+1
  2354  0A27  083F               	movf	??_inputSenhaAlter+1,w
  2355  0A28  0084               	movwf	4
  2356  0A29  083E               	movf	??_inputSenhaAlter,w
  2357  0A2A  1383               	bcf	3,7	;select IRP bank0
  2358  0A2B  0080               	movwf	0
  2359  0A2C                     l3559:
  2360                           
  2361                           ;main.c: 237:     }
  2362  0A2C  3001               	movlw	1
  2363  0A2D  07C1               	addwf	inputSenhaAlter@i,f
  2364  0A2E  1803               	skipnc
  2365  0A2F  0AC2               	incf	inputSenhaAlter@i+1,f
  2366  0A30  3000               	movlw	0
  2367  0A31  07C2               	addwf	inputSenhaAlter@i+1,f
  2368  0A32                     l3561:
  2369  0A32  0842               	movf	inputSenhaAlter@i+1,w
  2370  0A33  3A80               	xorlw	128
  2371  0A34  00FF               	movwf	btemp+1
  2372  0A35  3080               	movlw	128
  2373  0A36  027F               	subwf	btemp+1,w
  2374  0A37  1D03               	skipz
  2375  0A38  2A3B               	goto	u3805
  2376  0A39  3004               	movlw	4
  2377  0A3A  0241               	subwf	inputSenhaAlter@i,w
  2378  0A3B                     u3805:
  2379  0A3B  1C03               	skipc
  2380  0A3C  2A3E               	goto	u3801
  2381  0A3D  2A3F               	goto	u3800
  2382  0A3E                     u3801:
  2383  0A3E  29F7               	goto	l3549
  2384  0A3F                     u3800:
  2385  0A3F                     l3563:
  2386                           
  2387                           ;main.c: 238:     validaSenha = valida_senha(senhaDestino);
  2388  0A3F  1283               	bcf	3,5	;RP0=0, select bank0
  2389  0A40  1303               	bcf	3,6	;RP1=0, select bank0
  2390  0A41  0840               	movf	inputSenhaAlter@senhaDestino,w
  2391  0A42  120A  158A  239A  120A  158A  	fcall	_valida_senha
  2392  0A47  087B               	movf	?_valida_senha+1,w
  2393  0A48  1283               	bcf	3,5	;RP0=0, select bank0
  2394  0A49  1303               	bcf	3,6	;RP1=0, select bank0
  2395  0A4A  00D8               	movwf	_validaSenha+1
  2396  0A4B  087A               	movf	?_valida_senha,w
  2397  0A4C  00D7               	movwf	_validaSenha
  2398  0A4D                     l245:
  2399  0A4D  0008               	return
  2400  0A4E                     __end_of_inputSenhaAlter:
  2401                           
  2402                           	psect	text8
  2403  0B9A                     __ptext8:	
  2404 ;; *************** function _valida_senha *****************
  2405 ;; Defined at:
  2406 ;;		line 204 in file "main.c"
  2407 ;; Parameters:    Size  Location     Type
  2408 ;;  texto           1    wreg     PTR unsigned char 
  2409 ;;		 -> senhaCoa(5), senhaUser(5), senhaConfig(5), 
  2410 ;; Auto vars:     Size  Location     Type
  2411 ;;  texto           1    3[BANK0 ] PTR unsigned char 
  2412 ;;		 -> senhaCoa(5), senhaUser(5), senhaConfig(5), 
  2413 ;;  aceito          2    4[BANK0 ] unsigned int 
  2414 ;; Return value:  Size  Location     Type
  2415 ;;                  2   10[COMMON] unsigned int 
  2416 ;; Registers used:
  2417 ;;		wreg, fsr0l, fsr0h, status,2, status,0, btemp+1, pclath, cstack
  2418 ;; Tracked objects:
  2419 ;;		On entry : 0/0
  2420 ;;		On exit  : 0/0
  2421 ;;		Unchanged: 0/0
  2422 ;; Data sizes:     COMMON   BANK0   BANK1   BANK3   BANK2
  2423 ;;      Params:         2       0       0       0       0
  2424 ;;      Locals:         0       3       0       0       0
  2425 ;;      Temps:          0       3       0       0       0
  2426 ;;      Totals:         2       6       0       0       0
  2427 ;;Total ram usage:        8 bytes
  2428 ;; Hardware stack levels used: 1
  2429 ;; Hardware stack levels required when called: 3
  2430 ;; This function calls:
  2431 ;;		_LCD_escreve
  2432 ;;		_LCD_limpa
  2433 ;;		_LCD_linha1
  2434 ;;		_LCD_linha2
  2435 ;;		_escreveMesagem
  2436 ;; This function is called by:
  2437 ;;		_inputSenhaAlter
  2438 ;; This function uses a non-reentrant model
  2439 ;;
  2440                           
  2441                           
  2442                           ;psect for function _valida_senha
  2443  0B9A                     _valida_senha:
  2444                           
  2445                           ;incstack = 0
  2446                           ; Regs used in _valida_senha: [wreg-fsr0h+status,2+status,0+btemp+1+pclath+cstack]
  2447                           ;valida_senha@texto stored from wreg
  2448  0B9A  1283               	bcf	3,5	;RP0=0, select bank0
  2449  0B9B  1303               	bcf	3,6	;RP1=0, select bank0
  2450  0B9C  00A3               	movwf	valida_senha@texto
  2451  0B9D                     l3511:
  2452                           
  2453                           ;main.c: 205:     unsigned int aceito = 3;
  2454  0B9D  3003               	movlw	3
  2455  0B9E  00A4               	movwf	valida_senha@aceito
  2456  0B9F  3000               	movlw	0
  2457  0BA0  00A5               	movwf	valida_senha@aceito+1
  2458  0BA1                     l3513:
  2459                           
  2460                           ;main.c: 206:     LCD_limpa();
  2461  0BA1  160A  118A  26E1  120A  158A  	fcall	_LCD_limpa
  2462                           
  2463                           ;main.c: 207:     LCD_linha1();
  2464  0BA6  160A  118A  26F1  120A  158A  	fcall	_LCD_linha1
  2465  0BAB                     l3515:
  2466                           
  2467                           ;main.c: 208:     escreveMesagem(msgValidaSenha);
  2468  0BAB  3021               	movlw	(low (_msgValidaSenha| (0+256)))& (0+255)
  2469  0BAC  00F3               	movwf	escreveMesagem@texto
  2470  0BAD  3001               	movlw	1
  2471  0BAE  00F4               	movwf	escreveMesagem@texto+1
  2472  0BAF  120A  118A  2009  120A  158A  	fcall	_escreveMesagem
  2473  0BB4                     l3517:
  2474                           
  2475                           ;main.c: 209:     LCD_linha2();
  2476  0BB4  160A  118A  26D1  120A  158A  	fcall	_LCD_linha2
  2477                           
  2478                           ;main.c: 210:     escreveMesagem(texto);
  2479  0BB9  1283               	bcf	3,5	;RP0=0, select bank0
  2480  0BBA  1303               	bcf	3,6	;RP1=0, select bank0
  2481  0BBB  0823               	movf	valida_senha@texto,w
  2482  0BBC  00F3               	movwf	escreveMesagem@texto
  2483  0BBD  3000               	movlw	0
  2484  0BBE  00F4               	movwf	escreveMesagem@texto+1
  2485  0BBF  120A  118A  2009  120A  158A  	fcall	_escreveMesagem
  2486  0BC4                     l3519:
  2487                           
  2488                           ;main.c: 211:     LCD_escreve(' ');
  2489  0BC4  3020               	movlw	32
  2490  0BC5  160A  118A  2701  120A  158A  	fcall	_LCD_escreve
  2491  0BCA                     l3521:
  2492                           
  2493                           ;main.c: 212:     escreveMesagem(msgAceitoOuNego);
  2494  0BCA  30C8               	movlw	(low (_msgAceitoOuNego| 0))& (0+255)
  2495  0BCB  00F3               	movwf	escreveMesagem@texto
  2496  0BCC  3000               	movlw	0
  2497  0BCD  00F4               	movwf	escreveMesagem@texto+1
  2498  0BCE  120A  118A  2009  120A  158A  	fcall	_escreveMesagem
  2499  0BD3                     l3523:
  2500                           
  2501                           ;main.c: 213:     PORTB = 0b01111111;
  2502  0BD3  307F               	movlw	127
  2503  0BD4  1283               	bcf	3,5	;RP0=0, select bank0
  2504  0BD5  1303               	bcf	3,6	;RP1=0, select bank0
  2505  0BD6  0086               	movwf	6	;volatile
  2506                           
  2507                           ;main.c: 214:     while (aceito == 3){
  2508  0BD7  2C03               	goto	l3537
  2509  0BD8                     l3525:
  2510                           
  2511                           ;main.c: 215:         _delay((unsigned long)((200)*(20000000/4000.0)));
  2512  0BD8  3006               	movlw	6
  2513  0BD9  1283               	bcf	3,5	;RP0=0, select bank0
  2514  0BDA  1303               	bcf	3,6	;RP1=0, select bank0
  2515  0BDB  00A2               	movwf	??_valida_senha+2
  2516  0BDC  3013               	movlw	19
  2517  0BDD  00A1               	movwf	??_valida_senha+1
  2518  0BDE  30AD               	movlw	173
  2519  0BDF  00A0               	movwf	??_valida_senha
  2520  0BE0                     u4257:
  2521  0BE0  0BA0               	decfsz	??_valida_senha,f
  2522  0BE1  2BE0               	goto	u4257
  2523  0BE2  0BA1               	decfsz	??_valida_senha+1,f
  2524  0BE3  2BE0               	goto	u4257
  2525  0BE4  0BA2               	decfsz	??_valida_senha+2,f
  2526  0BE5  2BE0               	goto	u4257
  2527  0BE6                     l3527:
  2528                           
  2529                           ;main.c: 217:         if (RB2 == 0){
  2530  0BE6  1283               	bcf	3,5	;RP0=0, select bank0
  2531  0BE7  1303               	bcf	3,6	;RP1=0, select bank0
  2532  0BE8  1906               	btfsc	6,2	;volatile
  2533  0BE9  2BEB               	goto	u3761
  2534  0BEA  2BEC               	goto	u3760
  2535  0BEB                     u3761:
  2536  0BEB  2BF5               	goto	l233
  2537  0BEC                     u3760:
  2538  0BEC                     l3529:
  2539                           
  2540                           ;main.c: 218:             aceito = 0;
  2541  0BEC  01A4               	clrf	valida_senha@aceito
  2542  0BED  01A5               	clrf	valida_senha@aceito+1
  2543  0BEE                     l3531:
  2544                           
  2545                           ;main.c: 219:             LCD_escreve('E');
  2546  0BEE  3045               	movlw	69
  2547  0BEF  160A  118A  2701  120A  158A  	fcall	_LCD_escreve
  2548                           
  2549                           ;main.c: 220:         }
  2550  0BF4  2C03               	goto	l3537
  2551  0BF5                     l233:	
  2552                           ;main.c: 221:         else if (RB3 == 0){
  2553                           
  2554  0BF5  1986               	btfsc	6,3	;volatile
  2555  0BF6  2BF8               	goto	u3771
  2556  0BF7  2BF9               	goto	u3770
  2557  0BF8                     u3771:
  2558  0BF8  2C03               	goto	l3537
  2559  0BF9                     u3770:
  2560  0BF9                     l3533:
  2561                           
  2562                           ;main.c: 223:             aceito = 1;
  2563  0BF9  3001               	movlw	1
  2564  0BFA  00A4               	movwf	valida_senha@aceito
  2565  0BFB  3000               	movlw	0
  2566  0BFC  00A5               	movwf	valida_senha@aceito+1
  2567  0BFD                     l3535:
  2568                           
  2569                           ;main.c: 224:             LCD_escreve('F');
  2570  0BFD  3046               	movlw	70
  2571  0BFE  160A  118A  2701  120A  158A  	fcall	_LCD_escreve
  2572  0C03                     l3537:
  2573                           
  2574                           ;main.c: 214:     while (aceito == 3){
  2575  0C03  3003               	movlw	3
  2576  0C04  1283               	bcf	3,5	;RP0=0, select bank0
  2577  0C05  1303               	bcf	3,6	;RP1=0, select bank0
  2578  0C06  0624               	xorwf	valida_senha@aceito,w
  2579  0C07  0425               	iorwf	valida_senha@aceito+1,w
  2580  0C08  1903               	btfsc	3,2
  2581  0C09  2C0B               	goto	u3781
  2582  0C0A  2C0C               	goto	u3780
  2583  0C0B                     u3781:
  2584  0C0B  2BD8               	goto	l3525
  2585  0C0C                     u3780:
  2586  0C0C                     l3539:
  2587                           
  2588                           ;main.c: 227:     _delay((unsigned long)((2000)*(20000000/4000.0)));
  2589  0C0C  3033               	movlw	51
  2590  0C0D  1283               	bcf	3,5	;RP0=0, select bank0
  2591  0C0E  1303               	bcf	3,6	;RP1=0, select bank0
  2592  0C0F  00A2               	movwf	??_valida_senha+2
  2593  0C10  30BB               	movlw	187
  2594  0C11  00A1               	movwf	??_valida_senha+1
  2595  0C12  30DF               	movlw	223
  2596  0C13  00A0               	movwf	??_valida_senha
  2597  0C14                     u4267:
  2598  0C14  0BA0               	decfsz	??_valida_senha,f
  2599  0C15  2C14               	goto	u4267
  2600  0C16  0BA1               	decfsz	??_valida_senha+1,f
  2601  0C17  2C14               	goto	u4267
  2602  0C18  0BA2               	decfsz	??_valida_senha+2,f
  2603  0C19  2C14               	goto	u4267
  2604                           
  2605                           ;main.c: 228:     return aceito;
  2606  0C1A  1283               	bcf	3,5	;RP0=0, select bank0
  2607  0C1B  1303               	bcf	3,6	;RP1=0, select bank0
  2608  0C1C  0825               	movf	valida_senha@aceito+1,w
  2609  0C1D  00FB               	movwf	?_valida_senha+1
  2610  0C1E  0824               	movf	valida_senha@aceito,w
  2611  0C1F  00FA               	movwf	?_valida_senha
  2612  0C20                     l237:
  2613  0C20  0008               	return
  2614  0C21                     __end_of_valida_senha:
  2615                           
  2616                           	psect	text9
  2617  0009                     __ptext9:	
  2618 ;; *************** function _escreveMesagem *****************
  2619 ;; Defined at:
  2620 ;;		line 645 in file "main.c"
  2621 ;; Parameters:    Size  Location     Type
  2622 ;;  texto           2    3[COMMON] PTR unsigned char 
  2623 ;;		 -> msgReativar(9), msgDesativarZona(15), msgSenhaDisparo(14), msgSenhaCoacao(13), 
  2624 ;;		 -> msgSenhaUsuario(14), msgSenhaConfig(13), msgSenhaCorreta(14), msgSenhaErrada(13), 
  2625 ;;		 -> senhaCoa(5), senhaUser(5), senhaConfig(5), msgDigiteNovaSenha(14), 
  2626 ;;		 -> msgSenhaCancelada(16), msgSenhaAtualizada(17), msgAceitoOuNego(9), msgValidaSenha(16), 
  2627 ;;		 -> msgZonaDisparadas(15), msgConfigDispara(15), 
  2628 ;; Auto vars:     Size  Location     Type
  2629 ;;  i               2    8[COMMON] int 
  2630 ;; Return value:  Size  Location     Type
  2631 ;;                  1    wreg      void 
  2632 ;; Registers used:
  2633 ;;		wreg, fsr0l, fsr0h, status,2, status,0, btemp+1, pclath, cstack
  2634 ;; Tracked objects:
  2635 ;;		On entry : 0/0
  2636 ;;		On exit  : 0/0
  2637 ;;		Unchanged: 0/0
  2638 ;; Data sizes:     COMMON   BANK0   BANK1   BANK3   BANK2
  2639 ;;      Params:         2       0       0       0       0
  2640 ;;      Locals:         2       0       0       0       0
  2641 ;;      Temps:          3       0       0       0       0
  2642 ;;      Totals:         7       0       0       0       0
  2643 ;;Total ram usage:        7 bytes
  2644 ;; Hardware stack levels used: 1
  2645 ;; Hardware stack levels required when called: 2
  2646 ;; This function calls:
  2647 ;;		_LCD_escreve
  2648 ;; This function is called by:
  2649 ;;		_infoZonas
  2650 ;;		_valida_senha
  2651 ;;		_rotinaValidaSenha
  2652 ;;		_alteraSenhas
  2653 ;;		_validaUser
  2654 ;;		_listaZonas
  2655 ;; This function uses a non-reentrant model
  2656 ;;
  2657                           
  2658                           
  2659                           ;psect for function _escreveMesagem
  2660  0009                     _escreveMesagem:
  2661  0009                     l3503:	
  2662                           ;incstack = 0
  2663                           ; Regs used in _escreveMesagem: [wreg-fsr0h+status,2+status,0+btemp+1+pclath+cstack]
  2664                           
  2665                           
  2666                           ;main.c: 646:     for (int i = 0; texto[i] != '\0'; i++){
  2667  0009  01F8               	clrf	escreveMesagem@i
  2668  000A  01F9               	clrf	escreveMesagem@i+1
  2669  000B  2829               	goto	l3509
  2670  000C                     l3505:
  2671                           
  2672                           ;main.c: 647:         LCD_escreve(texto[i]);
  2673  000C  0878               	movf	escreveMesagem@i,w
  2674  000D  0773               	addwf	escreveMesagem@texto,w
  2675  000E  00F6               	movwf	??_escreveMesagem+1
  2676  000F  0874               	movf	escreveMesagem@texto+1,w
  2677  0010  00F5               	movwf	??_escreveMesagem
  2678  0011  1803               	skipnc
  2679  0012  0AF5               	incf	??_escreveMesagem,f
  2680  0013  1FF8               	btfss	escreveMesagem@i,7
  2681  0014  2816               	goto	u3730
  2682  0015  03F5               	decf	??_escreveMesagem,f
  2683  0016                     u3730:
  2684  0016  0875               	movf	??_escreveMesagem,w
  2685  0017  00F7               	movwf	??_escreveMesagem+2
  2686  0018  0876               	movf	??_escreveMesagem+1,w
  2687  0019  0084               	movwf	4
  2688  001A  1783               	bsf	3,7
  2689  001B  1C77               	btfss	??_escreveMesagem+2,0
  2690  001C  1383               	bcf	3,7
  2691  001D  0800               	movf	0,w
  2692  001E  160A  118A  2701  120A  118A  	fcall	_LCD_escreve
  2693  0023                     l3507:
  2694                           
  2695                           ;main.c: 648:     }
  2696  0023  3001               	movlw	1
  2697  0024  07F8               	addwf	escreveMesagem@i,f
  2698  0025  1803               	skipnc
  2699  0026  0AF9               	incf	escreveMesagem@i+1,f
  2700  0027  3000               	movlw	0
  2701  0028  07F9               	addwf	escreveMesagem@i+1,f
  2702  0029                     l3509:
  2703  0029  0878               	movf	escreveMesagem@i,w
  2704  002A  0773               	addwf	escreveMesagem@texto,w
  2705  002B  00F6               	movwf	??_escreveMesagem+1
  2706  002C  0874               	movf	escreveMesagem@texto+1,w
  2707  002D  00F5               	movwf	??_escreveMesagem
  2708  002E  1803               	skipnc
  2709  002F  0AF5               	incf	??_escreveMesagem,f
  2710  0030  1FF8               	btfss	escreveMesagem@i,7
  2711  0031  2833               	goto	u3740
  2712  0032  03F5               	decf	??_escreveMesagem,f
  2713  0033                     u3740:
  2714  0033  0875               	movf	??_escreveMesagem,w
  2715  0034  00F7               	movwf	??_escreveMesagem+2
  2716  0035  0876               	movf	??_escreveMesagem+1,w
  2717  0036  0084               	movwf	4
  2718  0037  1783               	bsf	3,7
  2719  0038  1C77               	btfss	??_escreveMesagem+2,0
  2720  0039  1383               	bcf	3,7
  2721  003A  0800               	movf	0,w
  2722  003B  1D03               	btfss	3,2
  2723  003C  283E               	goto	u3751
  2724  003D  283F               	goto	u3750
  2725  003E                     u3751:
  2726  003E  280C               	goto	l3505
  2727  003F                     u3750:
  2728  003F                     l362:
  2729  003F  0008               	return
  2730  0040                     __end_of_escreveMesagem:
  2731                           
  2732                           	psect	text10
  2733  16F1                     __ptext10:	
  2734 ;; *************** function _LCD_linha1 *****************
  2735 ;; Defined at:
  2736 ;;		line 65 in file "./lcd.h"
  2737 ;; Parameters:    Size  Location     Type
  2738 ;;		None
  2739 ;; Auto vars:     Size  Location     Type
  2740 ;;		None
  2741 ;; Return value:  Size  Location     Type
  2742 ;;                  1    wreg      void 
  2743 ;; Registers used:
  2744 ;;		wreg, status,2, status,0, btemp+1, pclath, cstack
  2745 ;; Tracked objects:
  2746 ;;		On entry : 0/0
  2747 ;;		On exit  : 0/0
  2748 ;;		Unchanged: 0/0
  2749 ;; Data sizes:     COMMON   BANK0   BANK1   BANK3   BANK2
  2750 ;;      Params:         0       0       0       0       0
  2751 ;;      Locals:         0       0       0       0       0
  2752 ;;      Temps:          0       0       0       0       0
  2753 ;;      Totals:         0       0       0       0       0
  2754 ;;Total ram usage:        0 bytes
  2755 ;; Hardware stack levels used: 1
  2756 ;; Hardware stack levels required when called: 1
  2757 ;; This function calls:
  2758 ;;		_delay
  2759 ;; This function is called by:
  2760 ;;		_infoZonas
  2761 ;;		_valida_senha
  2762 ;;		_telaInicial
  2763 ;;		_validaUser
  2764 ;;		_listaZonas
  2765 ;; This function uses a non-reentrant model
  2766 ;;
  2767                           
  2768                           
  2769                           ;psect for function _LCD_linha1
  2770  16F1                     _LCD_linha1:
  2771  16F1                     l2647:	
  2772                           ;incstack = 0
  2773                           ; Regs used in _LCD_linha1: [wreg+status,2+status,0+btemp+1+pclath+cstack]
  2774                           
  2775                           
  2776                           ;./lcd.h: 66:     PORTD = 0x02;
  2777  16F1  3002               	movlw	2
  2778  16F2  1283               	bcf	3,5	;RP0=0, select bank0
  2779  16F3  1303               	bcf	3,6	;RP1=0, select bank0
  2780  16F4  0088               	movwf	8	;volatile
  2781  16F5                     l2649:
  2782                           
  2783                           ;./lcd.h: 67:     RA5 = 0;
  2784  16F5  1285               	bcf	5,5	;volatile
  2785  16F6                     l2651:
  2786                           
  2787                           ;./lcd.h: 68:     RA4 = 0;
  2788  16F6  1205               	bcf	5,4	;volatile
  2789  16F7                     l2653:
  2790                           
  2791                           ;./lcd.h: 69:     RA3=0;
  2792  16F7  1185               	bcf	5,3	;volatile
  2793  16F8                     l2655:
  2794                           
  2795                           ;./lcd.h: 70:     delay();
  2796  16F8  160A  118A  2725  160A  118A  	fcall	_delay
  2797  16FD                     l2657:
  2798                           
  2799                           ;./lcd.h: 71:  RA3 = 1;
  2800  16FD  1283               	bcf	3,5	;RP0=0, select bank0
  2801  16FE  1303               	bcf	3,6	;RP1=0, select bank0
  2802  16FF  1585               	bsf	5,3	;volatile
  2803  1700                     l79:
  2804  1700  0008               	return
  2805  1701                     __end_of_LCD_linha1:
  2806                           
  2807                           	psect	text11
  2808  16E1                     __ptext11:	
  2809 ;; *************** function _LCD_limpa *****************
  2810 ;; Defined at:
  2811 ;;		line 56 in file "./lcd.h"
  2812 ;; Parameters:    Size  Location     Type
  2813 ;;		None
  2814 ;; Auto vars:     Size  Location     Type
  2815 ;;		None
  2816 ;; Return value:  Size  Location     Type
  2817 ;;                  1    wreg      void 
  2818 ;; Registers used:
  2819 ;;		wreg, status,2, status,0, btemp+1, pclath, cstack
  2820 ;; Tracked objects:
  2821 ;;		On entry : 0/0
  2822 ;;		On exit  : 0/0
  2823 ;;		Unchanged: 0/0
  2824 ;; Data sizes:     COMMON   BANK0   BANK1   BANK3   BANK2
  2825 ;;      Params:         0       0       0       0       0
  2826 ;;      Locals:         0       0       0       0       0
  2827 ;;      Temps:          0       0       0       0       0
  2828 ;;      Totals:         0       0       0       0       0
  2829 ;;Total ram usage:        0 bytes
  2830 ;; Hardware stack levels used: 1
  2831 ;; Hardware stack levels required when called: 1
  2832 ;; This function calls:
  2833 ;;		_delay
  2834 ;; This function is called by:
  2835 ;;		_infoZonas
  2836 ;;		_valida_senha
  2837 ;;		_rotinaValidaSenha
  2838 ;;		_alteraSenhas
  2839 ;;		_validaUser
  2840 ;;		_listaZonas
  2841 ;; This function uses a non-reentrant model
  2842 ;;
  2843                           
  2844                           
  2845                           ;psect for function _LCD_limpa
  2846  16E1                     _LCD_limpa:
  2847  16E1                     l2635:	
  2848                           ;incstack = 0
  2849                           ; Regs used in _LCD_limpa: [wreg+status,2+status,0+btemp+1+pclath+cstack]
  2850                           
  2851                           
  2852                           ;./lcd.h: 57:     PORTD = 0x01;
  2853  16E1  3001               	movlw	1
  2854  16E2  1283               	bcf	3,5	;RP0=0, select bank0
  2855  16E3  1303               	bcf	3,6	;RP1=0, select bank0
  2856  16E4  0088               	movwf	8	;volatile
  2857  16E5                     l2637:
  2858                           
  2859                           ;./lcd.h: 58:     RA5 = 0;
  2860  16E5  1285               	bcf	5,5	;volatile
  2861  16E6                     l2639:
  2862                           
  2863                           ;./lcd.h: 59:     RA4 = 0;
  2864  16E6  1205               	bcf	5,4	;volatile
  2865  16E7                     l2641:
  2866                           
  2867                           ;./lcd.h: 60:     RA3=0;
  2868  16E7  1185               	bcf	5,3	;volatile
  2869  16E8                     l2643:
  2870                           
  2871                           ;./lcd.h: 61:     delay();
  2872  16E8  160A  118A  2725  160A  118A  	fcall	_delay
  2873  16ED                     l2645:
  2874                           
  2875                           ;./lcd.h: 62:  RA3 = 1;
  2876  16ED  1283               	bcf	3,5	;RP0=0, select bank0
  2877  16EE  1303               	bcf	3,6	;RP1=0, select bank0
  2878  16EF  1585               	bsf	5,3	;volatile
  2879  16F0                     l76:
  2880  16F0  0008               	return
  2881  16F1                     __end_of_LCD_limpa:
  2882                           
  2883                           	psect	text12
  2884  00FE                     __ptext12:	
  2885 ;; *************** function _teclado *****************
  2886 ;; Defined at:
  2887 ;;		line 280 in file "main.c"
  2888 ;; Parameters:    Size  Location     Type
  2889 ;;		None
  2890 ;; Auto vars:     Size  Location     Type
  2891 ;;		None
  2892 ;; Return value:  Size  Location     Type
  2893 ;;                  1    wreg      void 
  2894 ;; Registers used:
  2895 ;;		wreg, status,2, status,0, btemp+1, pclath, cstack
  2896 ;; Tracked objects:
  2897 ;;		On entry : 0/0
  2898 ;;		On exit  : 0/0
  2899 ;;		Unchanged: 0/0
  2900 ;; Data sizes:     COMMON   BANK0   BANK1   BANK3   BANK2
  2901 ;;      Params:         0       0       0       0       0
  2902 ;;      Locals:         0       0       0       0       0
  2903 ;;      Temps:          0       3       0       0       0
  2904 ;;      Totals:         0       3       0       0       0
  2905 ;;Total ram usage:        3 bytes
  2906 ;; Hardware stack levels used: 1
  2907 ;; Hardware stack levels required when called: 3
  2908 ;; This function calls:
  2909 ;;		_LCD_escreve
  2910 ;;		_liga_buzzer
  2911 ;; This function is called by:
  2912 ;;		_inputSenhaAlter
  2913 ;;		_validaUser
  2914 ;; This function uses a non-reentrant model
  2915 ;;
  2916                           
  2917                           
  2918                           ;psect for function _teclado
  2919  00FE                     _teclado:
  2920  00FE                     l2759:	
  2921                           ;incstack = 0
  2922                           ; Regs used in _teclado: [wreg+status,2+status,0+btemp+1+pclath+cstack]
  2923                           
  2924                           
  2925                           ;main.c: 281:     PORTE = 0x01;
  2926  00FE  3001               	movlw	1
  2927  00FF  1283               	bcf	3,5	;RP0=0, select bank0
  2928  0100  1303               	bcf	3,6	;RP1=0, select bank0
  2929  0101  0089               	movwf	9	;volatile
  2930                           
  2931                           ;main.c: 285:     PORTB = 0b11101111;
  2932  0102  30EF               	movlw	239
  2933  0103  0086               	movwf	6	;volatile
  2934  0104                     l2761:
  2935                           
  2936                           ;main.c: 289:     if (RB0 == 0){
  2937  0104  1806               	btfsc	6,0	;volatile
  2938  0105  2907               	goto	u2851
  2939  0106  2908               	goto	u2850
  2940  0107                     u2851:
  2941  0107  293D               	goto	l2777
  2942  0108                     u2850:
  2943  0108                     l2763:
  2944                           
  2945                           ;main.c: 290:         _delay((unsigned long)((200)*(20000000/4000.0)));
  2946  0108  3006               	movlw	6
  2947  0109  1283               	bcf	3,5	;RP0=0, select bank0
  2948  010A  1303               	bcf	3,6	;RP1=0, select bank0
  2949  010B  00BD               	movwf	??_teclado+2
  2950  010C  3013               	movlw	19
  2951  010D  00BC               	movwf	??_teclado+1
  2952  010E  30AD               	movlw	173
  2953  010F  00BB               	movwf	??_teclado
  2954  0110                     u4277:
  2955  0110  0BBB               	decfsz	??_teclado,f
  2956  0111  2910               	goto	u4277
  2957  0112  0BBC               	decfsz	??_teclado+1,f
  2958  0113  2910               	goto	u4277
  2959  0114  0BBD               	decfsz	??_teclado+2,f
  2960  0115  2910               	goto	u4277
  2961  0116                     l2765:
  2962                           
  2963                           ;main.c: 291:         liga_buzzer(0.1);
  2964  0116  303D               	movlw	61
  2965  0117  1283               	bcf	3,5	;RP0=0, select bank0
  2966  0118  1303               	bcf	3,6	;RP1=0, select bank0
  2967  0119  00B8               	movwf	liga_buzzer@tempoSegundos+3
  2968  011A  30CC               	movlw	204
  2969  011B  00B7               	movwf	liga_buzzer@tempoSegundos+2
  2970  011C  30CC               	movlw	204
  2971  011D  00B6               	movwf	liga_buzzer@tempoSegundos+1
  2972  011E  30CD               	movlw	205
  2973  011F  00B5               	movwf	liga_buzzer@tempoSegundos
  2974  0120  120A  158A  231E  120A  118A  	fcall	_liga_buzzer
  2975  0125                     l2767:
  2976                           
  2977                           ;main.c: 292:         LCD_escreve('0');
  2978  0125  3030               	movlw	48
  2979  0126  160A  118A  2701  120A  118A  	fcall	_LCD_escreve
  2980  012B                     l2769:
  2981                           
  2982                           ;main.c: 293:         if(userFalse){
  2983  012B  1283               	bcf	3,5	;RP0=0, select bank0
  2984  012C  1303               	bcf	3,6	;RP1=0, select bank0
  2985  012D  0861               	movf	_userFalse,w
  2986  012E  0462               	iorwf	_userFalse+1,w
  2987  012F  1903               	btfsc	3,2
  2988  0130  2932               	goto	u2861
  2989  0131  2933               	goto	u2860
  2990  0132                     u2861:
  2991  0132  2935               	goto	l2773
  2992  0133                     u2860:
  2993  0133                     l2771:
  2994                           
  2995                           ;main.c: 294:             input = 0;
  2996  0133  01E5               	clrf	_input
  2997  0134  01E6               	clrf	_input+1
  2998  0135                     l2773:
  2999                           
  3000                           ;main.c: 296:         if (alteraSenha){
  3001  0135  0853               	movf	_alteraSenha,w
  3002  0136  0454               	iorwf	_alteraSenha+1,w
  3003  0137  1903               	btfsc	3,2
  3004  0138  293A               	goto	u2871
  3005  0139  293B               	goto	u2870
  3006  013A                     u2871:
  3007  013A  293D               	goto	l2777
  3008  013B                     u2870:
  3009  013B                     l2775:
  3010                           
  3011                           ;main.c: 297:             input = 0;
  3012  013B  01E5               	clrf	_input
  3013  013C  01E6               	clrf	_input+1
  3014  013D                     l2777:
  3015                           
  3016                           ;main.c: 303:     if (RB1 == 0){
  3017  013D  1886               	btfsc	6,1	;volatile
  3018  013E  2940               	goto	u2881
  3019  013F  2941               	goto	u2880
  3020  0140                     u2881:
  3021  0140  297A               	goto	l2793
  3022  0141                     u2880:
  3023  0141                     l2779:
  3024                           
  3025                           ;main.c: 304:         _delay((unsigned long)((200)*(20000000/4000.0)));
  3026  0141  3006               	movlw	6
  3027  0142  1283               	bcf	3,5	;RP0=0, select bank0
  3028  0143  1303               	bcf	3,6	;RP1=0, select bank0
  3029  0144  00BD               	movwf	??_teclado+2
  3030  0145  3013               	movlw	19
  3031  0146  00BC               	movwf	??_teclado+1
  3032  0147  30AD               	movlw	173
  3033  0148  00BB               	movwf	??_teclado
  3034  0149                     u4287:
  3035  0149  0BBB               	decfsz	??_teclado,f
  3036  014A  2949               	goto	u4287
  3037  014B  0BBC               	decfsz	??_teclado+1,f
  3038  014C  2949               	goto	u4287
  3039  014D  0BBD               	decfsz	??_teclado+2,f
  3040  014E  2949               	goto	u4287
  3041  014F                     l2781:
  3042                           
  3043                           ;main.c: 305:         liga_buzzer(0.1);
  3044  014F  303D               	movlw	61
  3045  0150  1283               	bcf	3,5	;RP0=0, select bank0
  3046  0151  1303               	bcf	3,6	;RP1=0, select bank0
  3047  0152  00B8               	movwf	liga_buzzer@tempoSegundos+3
  3048  0153  30CC               	movlw	204
  3049  0154  00B7               	movwf	liga_buzzer@tempoSegundos+2
  3050  0155  30CC               	movlw	204
  3051  0156  00B6               	movwf	liga_buzzer@tempoSegundos+1
  3052  0157  30CD               	movlw	205
  3053  0158  00B5               	movwf	liga_buzzer@tempoSegundos
  3054  0159  120A  158A  231E  120A  118A  	fcall	_liga_buzzer
  3055  015E                     l2783:
  3056                           
  3057                           ;main.c: 306:         LCD_escreve('1');
  3058  015E  3031               	movlw	49
  3059  015F  160A  118A  2701  120A  118A  	fcall	_LCD_escreve
  3060  0164                     l2785:
  3061                           
  3062                           ;main.c: 307:         if(userFalse){
  3063  0164  1283               	bcf	3,5	;RP0=0, select bank0
  3064  0165  1303               	bcf	3,6	;RP1=0, select bank0
  3065  0166  0861               	movf	_userFalse,w
  3066  0167  0462               	iorwf	_userFalse+1,w
  3067  0168  1903               	btfsc	3,2
  3068  0169  296B               	goto	u2891
  3069  016A  296C               	goto	u2890
  3070  016B                     u2891:
  3071  016B  2970               	goto	l2789
  3072  016C                     u2890:
  3073  016C                     l2787:
  3074                           
  3075                           ;main.c: 308:             input = 1;
  3076  016C  3001               	movlw	1
  3077  016D  00E5               	movwf	_input
  3078  016E  3000               	movlw	0
  3079  016F  00E6               	movwf	_input+1
  3080  0170                     l2789:
  3081                           
  3082                           ;main.c: 310:         if (alteraSenha){
  3083  0170  0853               	movf	_alteraSenha,w
  3084  0171  0454               	iorwf	_alteraSenha+1,w
  3085  0172  1903               	btfsc	3,2
  3086  0173  2975               	goto	u2901
  3087  0174  2976               	goto	u2900
  3088  0175                     u2901:
  3089  0175  297A               	goto	l2793
  3090  0176                     u2900:
  3091  0176                     l2791:
  3092                           
  3093                           ;main.c: 311:             input = 1;
  3094  0176  3001               	movlw	1
  3095  0177  00E5               	movwf	_input
  3096  0178  3000               	movlw	0
  3097  0179  00E6               	movwf	_input+1
  3098  017A                     l2793:
  3099                           
  3100                           ;main.c: 317:     if (RB2 == 0){
  3101  017A  1906               	btfsc	6,2	;volatile
  3102  017B  297D               	goto	u2911
  3103  017C  297E               	goto	u2910
  3104  017D                     u2911:
  3105  017D  29B7               	goto	l2809
  3106  017E                     u2910:
  3107  017E                     l2795:
  3108                           
  3109                           ;main.c: 318:         _delay((unsigned long)((200)*(20000000/4000.0)));
  3110  017E  3006               	movlw	6
  3111  017F  1283               	bcf	3,5	;RP0=0, select bank0
  3112  0180  1303               	bcf	3,6	;RP1=0, select bank0
  3113  0181  00BD               	movwf	??_teclado+2
  3114  0182  3013               	movlw	19
  3115  0183  00BC               	movwf	??_teclado+1
  3116  0184  30AD               	movlw	173
  3117  0185  00BB               	movwf	??_teclado
  3118  0186                     u4297:
  3119  0186  0BBB               	decfsz	??_teclado,f
  3120  0187  2986               	goto	u4297
  3121  0188  0BBC               	decfsz	??_teclado+1,f
  3122  0189  2986               	goto	u4297
  3123  018A  0BBD               	decfsz	??_teclado+2,f
  3124  018B  2986               	goto	u4297
  3125  018C                     l2797:
  3126                           
  3127                           ;main.c: 319:         liga_buzzer(0.1);
  3128  018C  303D               	movlw	61
  3129  018D  1283               	bcf	3,5	;RP0=0, select bank0
  3130  018E  1303               	bcf	3,6	;RP1=0, select bank0
  3131  018F  00B8               	movwf	liga_buzzer@tempoSegundos+3
  3132  0190  30CC               	movlw	204
  3133  0191  00B7               	movwf	liga_buzzer@tempoSegundos+2
  3134  0192  30CC               	movlw	204
  3135  0193  00B6               	movwf	liga_buzzer@tempoSegundos+1
  3136  0194  30CD               	movlw	205
  3137  0195  00B5               	movwf	liga_buzzer@tempoSegundos
  3138  0196  120A  158A  231E  120A  118A  	fcall	_liga_buzzer
  3139  019B                     l2799:
  3140                           
  3141                           ;main.c: 320:         LCD_escreve('2');
  3142  019B  3032               	movlw	50
  3143  019C  160A  118A  2701  120A  118A  	fcall	_LCD_escreve
  3144  01A1                     l2801:
  3145                           
  3146                           ;main.c: 321:         if(userFalse){
  3147  01A1  1283               	bcf	3,5	;RP0=0, select bank0
  3148  01A2  1303               	bcf	3,6	;RP1=0, select bank0
  3149  01A3  0861               	movf	_userFalse,w
  3150  01A4  0462               	iorwf	_userFalse+1,w
  3151  01A5  1903               	btfsc	3,2
  3152  01A6  29A8               	goto	u2921
  3153  01A7  29A9               	goto	u2920
  3154  01A8                     u2921:
  3155  01A8  29AD               	goto	l2805
  3156  01A9                     u2920:
  3157  01A9                     l2803:
  3158                           
  3159                           ;main.c: 322:             input = 2;
  3160  01A9  3002               	movlw	2
  3161  01AA  00E5               	movwf	_input
  3162  01AB  3000               	movlw	0
  3163  01AC  00E6               	movwf	_input+1
  3164  01AD                     l2805:
  3165                           
  3166                           ;main.c: 324:         if (alteraSenha){
  3167  01AD  0853               	movf	_alteraSenha,w
  3168  01AE  0454               	iorwf	_alteraSenha+1,w
  3169  01AF  1903               	btfsc	3,2
  3170  01B0  29B2               	goto	u2931
  3171  01B1  29B3               	goto	u2930
  3172  01B2                     u2931:
  3173  01B2  29B7               	goto	l2809
  3174  01B3                     u2930:
  3175  01B3                     l2807:
  3176                           
  3177                           ;main.c: 325:             input = 2;
  3178  01B3  3002               	movlw	2
  3179  01B4  00E5               	movwf	_input
  3180  01B5  3000               	movlw	0
  3181  01B6  00E6               	movwf	_input+1
  3182  01B7                     l2809:
  3183                           
  3184                           ;main.c: 331:     if (RB3 == 0){
  3185  01B7  1986               	btfsc	6,3	;volatile
  3186  01B8  29BA               	goto	u2941
  3187  01B9  29BB               	goto	u2940
  3188  01BA                     u2941:
  3189  01BA  29F4               	goto	l276
  3190  01BB                     u2940:
  3191  01BB                     l2811:
  3192                           
  3193                           ;main.c: 332:         _delay((unsigned long)((200)*(20000000/4000.0)));
  3194  01BB  3006               	movlw	6
  3195  01BC  1283               	bcf	3,5	;RP0=0, select bank0
  3196  01BD  1303               	bcf	3,6	;RP1=0, select bank0
  3197  01BE  00BD               	movwf	??_teclado+2
  3198  01BF  3013               	movlw	19
  3199  01C0  00BC               	movwf	??_teclado+1
  3200  01C1  30AD               	movlw	173
  3201  01C2  00BB               	movwf	??_teclado
  3202  01C3                     u4307:
  3203  01C3  0BBB               	decfsz	??_teclado,f
  3204  01C4  29C3               	goto	u4307
  3205  01C5  0BBC               	decfsz	??_teclado+1,f
  3206  01C6  29C3               	goto	u4307
  3207  01C7  0BBD               	decfsz	??_teclado+2,f
  3208  01C8  29C3               	goto	u4307
  3209  01C9                     l2813:
  3210                           
  3211                           ;main.c: 333:         liga_buzzer(0.1);
  3212  01C9  303D               	movlw	61
  3213  01CA  1283               	bcf	3,5	;RP0=0, select bank0
  3214  01CB  1303               	bcf	3,6	;RP1=0, select bank0
  3215  01CC  00B8               	movwf	liga_buzzer@tempoSegundos+3
  3216  01CD  30CC               	movlw	204
  3217  01CE  00B7               	movwf	liga_buzzer@tempoSegundos+2
  3218  01CF  30CC               	movlw	204
  3219  01D0  00B6               	movwf	liga_buzzer@tempoSegundos+1
  3220  01D1  30CD               	movlw	205
  3221  01D2  00B5               	movwf	liga_buzzer@tempoSegundos
  3222  01D3  120A  158A  231E  120A  118A  	fcall	_liga_buzzer
  3223  01D8                     l2815:
  3224                           
  3225                           ;main.c: 334:         LCD_escreve('3');
  3226  01D8  3033               	movlw	51
  3227  01D9  160A  118A  2701  120A  118A  	fcall	_LCD_escreve
  3228  01DE                     l2817:
  3229                           
  3230                           ;main.c: 335:         if(userFalse){
  3231  01DE  1283               	bcf	3,5	;RP0=0, select bank0
  3232  01DF  1303               	bcf	3,6	;RP1=0, select bank0
  3233  01E0  0861               	movf	_userFalse,w
  3234  01E1  0462               	iorwf	_userFalse+1,w
  3235  01E2  1903               	btfsc	3,2
  3236  01E3  29E5               	goto	u2951
  3237  01E4  29E6               	goto	u2950
  3238  01E5                     u2951:
  3239  01E5  29EA               	goto	l2821
  3240  01E6                     u2950:
  3241  01E6                     l2819:
  3242                           
  3243                           ;main.c: 336:             input = 3;
  3244  01E6  3003               	movlw	3
  3245  01E7  00E5               	movwf	_input
  3246  01E8  3000               	movlw	0
  3247  01E9  00E6               	movwf	_input+1
  3248  01EA                     l2821:
  3249                           
  3250                           ;main.c: 338:         if (alteraSenha){
  3251  01EA  0853               	movf	_alteraSenha,w
  3252  01EB  0454               	iorwf	_alteraSenha+1,w
  3253  01EC  1903               	btfsc	3,2
  3254  01ED  29EF               	goto	u2961
  3255  01EE  29F0               	goto	u2960
  3256  01EF                     u2961:
  3257  01EF  29F4               	goto	l276
  3258  01F0                     u2960:
  3259  01F0                     l2823:
  3260                           
  3261                           ;main.c: 339:             input = 3;
  3262  01F0  3003               	movlw	3
  3263  01F1  00E5               	movwf	_input
  3264  01F2  3000               	movlw	0
  3265  01F3  00E6               	movwf	_input+1
  3266  01F4                     l276:	
  3267                           ;main.c: 341:     }
  3268                           
  3269                           
  3270                           ;main.c: 345:     PORTB = 0b11011111;
  3271  01F4  30DF               	movlw	223
  3272  01F5  0086               	movwf	6	;volatile
  3273  01F6                     l2825:
  3274                           
  3275                           ;main.c: 349:     if (RB0 == 0){
  3276  01F6  1806               	btfsc	6,0	;volatile
  3277  01F7  29F9               	goto	u2971
  3278  01F8  29FA               	goto	u2970
  3279  01F9                     u2971:
  3280  01F9  2A33               	goto	l2841
  3281  01FA                     u2970:
  3282  01FA                     l2827:
  3283                           
  3284                           ;main.c: 350:         _delay((unsigned long)((200)*(20000000/4000.0)));
  3285  01FA  3006               	movlw	6
  3286  01FB  1283               	bcf	3,5	;RP0=0, select bank0
  3287  01FC  1303               	bcf	3,6	;RP1=0, select bank0
  3288  01FD  00BD               	movwf	??_teclado+2
  3289  01FE  3013               	movlw	19
  3290  01FF  00BC               	movwf	??_teclado+1
  3291  0200  30AD               	movlw	173
  3292  0201  00BB               	movwf	??_teclado
  3293  0202                     u4317:
  3294  0202  0BBB               	decfsz	??_teclado,f
  3295  0203  2A02               	goto	u4317
  3296  0204  0BBC               	decfsz	??_teclado+1,f
  3297  0205  2A02               	goto	u4317
  3298  0206  0BBD               	decfsz	??_teclado+2,f
  3299  0207  2A02               	goto	u4317
  3300  0208                     l2829:
  3301                           
  3302                           ;main.c: 351:         liga_buzzer(0.1);
  3303  0208  303D               	movlw	61
  3304  0209  1283               	bcf	3,5	;RP0=0, select bank0
  3305  020A  1303               	bcf	3,6	;RP1=0, select bank0
  3306  020B  00B8               	movwf	liga_buzzer@tempoSegundos+3
  3307  020C  30CC               	movlw	204
  3308  020D  00B7               	movwf	liga_buzzer@tempoSegundos+2
  3309  020E  30CC               	movlw	204
  3310  020F  00B6               	movwf	liga_buzzer@tempoSegundos+1
  3311  0210  30CD               	movlw	205
  3312  0211  00B5               	movwf	liga_buzzer@tempoSegundos
  3313  0212  120A  158A  231E  120A  118A  	fcall	_liga_buzzer
  3314  0217                     l2831:
  3315                           
  3316                           ;main.c: 352:         LCD_escreve('4');
  3317  0217  3034               	movlw	52
  3318  0218  160A  118A  2701  120A  118A  	fcall	_LCD_escreve
  3319  021D                     l2833:
  3320                           
  3321                           ;main.c: 353:         if(userFalse){
  3322  021D  1283               	bcf	3,5	;RP0=0, select bank0
  3323  021E  1303               	bcf	3,6	;RP1=0, select bank0
  3324  021F  0861               	movf	_userFalse,w
  3325  0220  0462               	iorwf	_userFalse+1,w
  3326  0221  1903               	btfsc	3,2
  3327  0222  2A24               	goto	u2981
  3328  0223  2A25               	goto	u2980
  3329  0224                     u2981:
  3330  0224  2A29               	goto	l2837
  3331  0225                     u2980:
  3332  0225                     l2835:
  3333                           
  3334                           ;main.c: 354:             input = 4;
  3335  0225  3004               	movlw	4
  3336  0226  00E5               	movwf	_input
  3337  0227  3000               	movlw	0
  3338  0228  00E6               	movwf	_input+1
  3339  0229                     l2837:
  3340                           
  3341                           ;main.c: 356:         if (alteraSenha){
  3342  0229  0853               	movf	_alteraSenha,w
  3343  022A  0454               	iorwf	_alteraSenha+1,w
  3344  022B  1903               	btfsc	3,2
  3345  022C  2A2E               	goto	u2991
  3346  022D  2A2F               	goto	u2990
  3347  022E                     u2991:
  3348  022E  2A33               	goto	l2841
  3349  022F                     u2990:
  3350  022F                     l2839:
  3351                           
  3352                           ;main.c: 357:             input = 4;
  3353  022F  3004               	movlw	4
  3354  0230  00E5               	movwf	_input
  3355  0231  3000               	movlw	0
  3356  0232  00E6               	movwf	_input+1
  3357  0233                     l2841:
  3358                           
  3359                           ;main.c: 363:     if (RB1 == 0){
  3360  0233  1886               	btfsc	6,1	;volatile
  3361  0234  2A36               	goto	u3001
  3362  0235  2A37               	goto	u3000
  3363  0236                     u3001:
  3364  0236  2A70               	goto	l2857
  3365  0237                     u3000:
  3366  0237                     l2843:
  3367                           
  3368                           ;main.c: 364:         _delay((unsigned long)((200)*(20000000/4000.0)));
  3369  0237  3006               	movlw	6
  3370  0238  1283               	bcf	3,5	;RP0=0, select bank0
  3371  0239  1303               	bcf	3,6	;RP1=0, select bank0
  3372  023A  00BD               	movwf	??_teclado+2
  3373  023B  3013               	movlw	19
  3374  023C  00BC               	movwf	??_teclado+1
  3375  023D  30AD               	movlw	173
  3376  023E  00BB               	movwf	??_teclado
  3377  023F                     u4327:
  3378  023F  0BBB               	decfsz	??_teclado,f
  3379  0240  2A3F               	goto	u4327
  3380  0241  0BBC               	decfsz	??_teclado+1,f
  3381  0242  2A3F               	goto	u4327
  3382  0243  0BBD               	decfsz	??_teclado+2,f
  3383  0244  2A3F               	goto	u4327
  3384  0245                     l2845:
  3385                           
  3386                           ;main.c: 365:         liga_buzzer(0.1);
  3387  0245  303D               	movlw	61
  3388  0246  1283               	bcf	3,5	;RP0=0, select bank0
  3389  0247  1303               	bcf	3,6	;RP1=0, select bank0
  3390  0248  00B8               	movwf	liga_buzzer@tempoSegundos+3
  3391  0249  30CC               	movlw	204
  3392  024A  00B7               	movwf	liga_buzzer@tempoSegundos+2
  3393  024B  30CC               	movlw	204
  3394  024C  00B6               	movwf	liga_buzzer@tempoSegundos+1
  3395  024D  30CD               	movlw	205
  3396  024E  00B5               	movwf	liga_buzzer@tempoSegundos
  3397  024F  120A  158A  231E  120A  118A  	fcall	_liga_buzzer
  3398  0254                     l2847:
  3399                           
  3400                           ;main.c: 366:         LCD_escreve('5');
  3401  0254  3035               	movlw	53
  3402  0255  160A  118A  2701  120A  118A  	fcall	_LCD_escreve
  3403  025A                     l2849:
  3404                           
  3405                           ;main.c: 367:         if(userFalse){
  3406  025A  1283               	bcf	3,5	;RP0=0, select bank0
  3407  025B  1303               	bcf	3,6	;RP1=0, select bank0
  3408  025C  0861               	movf	_userFalse,w
  3409  025D  0462               	iorwf	_userFalse+1,w
  3410  025E  1903               	btfsc	3,2
  3411  025F  2A61               	goto	u3011
  3412  0260  2A62               	goto	u3010
  3413  0261                     u3011:
  3414  0261  2A66               	goto	l2853
  3415  0262                     u3010:
  3416  0262                     l2851:
  3417                           
  3418                           ;main.c: 368:             input = 5;
  3419  0262  3005               	movlw	5
  3420  0263  00E5               	movwf	_input
  3421  0264  3000               	movlw	0
  3422  0265  00E6               	movwf	_input+1
  3423  0266                     l2853:
  3424                           
  3425                           ;main.c: 370:         if (alteraSenha){
  3426  0266  0853               	movf	_alteraSenha,w
  3427  0267  0454               	iorwf	_alteraSenha+1,w
  3428  0268  1903               	btfsc	3,2
  3429  0269  2A6B               	goto	u3021
  3430  026A  2A6C               	goto	u3020
  3431  026B                     u3021:
  3432  026B  2A70               	goto	l2857
  3433  026C                     u3020:
  3434  026C                     l2855:
  3435                           
  3436                           ;main.c: 371:             input = 5;
  3437  026C  3005               	movlw	5
  3438  026D  00E5               	movwf	_input
  3439  026E  3000               	movlw	0
  3440  026F  00E6               	movwf	_input+1
  3441  0270                     l2857:
  3442                           
  3443                           ;main.c: 377:     if (RB2 == 0){
  3444  0270  1906               	btfsc	6,2	;volatile
  3445  0271  2A73               	goto	u3031
  3446  0272  2A74               	goto	u3030
  3447  0273                     u3031:
  3448  0273  2AAD               	goto	l2873
  3449  0274                     u3030:
  3450  0274                     l2859:
  3451                           
  3452                           ;main.c: 378:         _delay((unsigned long)((200)*(20000000/4000.0)));
  3453  0274  3006               	movlw	6
  3454  0275  1283               	bcf	3,5	;RP0=0, select bank0
  3455  0276  1303               	bcf	3,6	;RP1=0, select bank0
  3456  0277  00BD               	movwf	??_teclado+2
  3457  0278  3013               	movlw	19
  3458  0279  00BC               	movwf	??_teclado+1
  3459  027A  30AD               	movlw	173
  3460  027B  00BB               	movwf	??_teclado
  3461  027C                     u4337:
  3462  027C  0BBB               	decfsz	??_teclado,f
  3463  027D  2A7C               	goto	u4337
  3464  027E  0BBC               	decfsz	??_teclado+1,f
  3465  027F  2A7C               	goto	u4337
  3466  0280  0BBD               	decfsz	??_teclado+2,f
  3467  0281  2A7C               	goto	u4337
  3468  0282                     l2861:
  3469                           
  3470                           ;main.c: 379:         liga_buzzer(0.1);
  3471  0282  303D               	movlw	61
  3472  0283  1283               	bcf	3,5	;RP0=0, select bank0
  3473  0284  1303               	bcf	3,6	;RP1=0, select bank0
  3474  0285  00B8               	movwf	liga_buzzer@tempoSegundos+3
  3475  0286  30CC               	movlw	204
  3476  0287  00B7               	movwf	liga_buzzer@tempoSegundos+2
  3477  0288  30CC               	movlw	204
  3478  0289  00B6               	movwf	liga_buzzer@tempoSegundos+1
  3479  028A  30CD               	movlw	205
  3480  028B  00B5               	movwf	liga_buzzer@tempoSegundos
  3481  028C  120A  158A  231E  120A  118A  	fcall	_liga_buzzer
  3482  0291                     l2863:
  3483                           
  3484                           ;main.c: 380:         LCD_escreve('6');
  3485  0291  3036               	movlw	54
  3486  0292  160A  118A  2701  120A  118A  	fcall	_LCD_escreve
  3487  0297                     l2865:
  3488                           
  3489                           ;main.c: 381:         if(userFalse){
  3490  0297  1283               	bcf	3,5	;RP0=0, select bank0
  3491  0298  1303               	bcf	3,6	;RP1=0, select bank0
  3492  0299  0861               	movf	_userFalse,w
  3493  029A  0462               	iorwf	_userFalse+1,w
  3494  029B  1903               	btfsc	3,2
  3495  029C  2A9E               	goto	u3041
  3496  029D  2A9F               	goto	u3040
  3497  029E                     u3041:
  3498  029E  2AA3               	goto	l2869
  3499  029F                     u3040:
  3500  029F                     l2867:
  3501                           
  3502                           ;main.c: 382:             input = 6;
  3503  029F  3006               	movlw	6
  3504  02A0  00E5               	movwf	_input
  3505  02A1  3000               	movlw	0
  3506  02A2  00E6               	movwf	_input+1
  3507  02A3                     l2869:
  3508                           
  3509                           ;main.c: 384:         if (alteraSenha){
  3510  02A3  0853               	movf	_alteraSenha,w
  3511  02A4  0454               	iorwf	_alteraSenha+1,w
  3512  02A5  1903               	btfsc	3,2
  3513  02A6  2AA8               	goto	u3051
  3514  02A7  2AA9               	goto	u3050
  3515  02A8                     u3051:
  3516  02A8  2AAD               	goto	l2873
  3517  02A9                     u3050:
  3518  02A9                     l2871:
  3519                           
  3520                           ;main.c: 385:             input = 6;
  3521  02A9  3006               	movlw	6
  3522  02AA  00E5               	movwf	_input
  3523  02AB  3000               	movlw	0
  3524  02AC  00E6               	movwf	_input+1
  3525  02AD                     l2873:
  3526                           
  3527                           ;main.c: 391:     if (RB3 == 0){
  3528  02AD  1986               	btfsc	6,3	;volatile
  3529  02AE  2AB0               	goto	u3061
  3530  02AF  2AB1               	goto	u3060
  3531  02B0                     u3061:
  3532  02B0  2AEA               	goto	l288
  3533  02B1                     u3060:
  3534  02B1                     l2875:
  3535                           
  3536                           ;main.c: 392:         _delay((unsigned long)((200)*(20000000/4000.0)));
  3537  02B1  3006               	movlw	6
  3538  02B2  1283               	bcf	3,5	;RP0=0, select bank0
  3539  02B3  1303               	bcf	3,6	;RP1=0, select bank0
  3540  02B4  00BD               	movwf	??_teclado+2
  3541  02B5  3013               	movlw	19
  3542  02B6  00BC               	movwf	??_teclado+1
  3543  02B7  30AD               	movlw	173
  3544  02B8  00BB               	movwf	??_teclado
  3545  02B9                     u4347:
  3546  02B9  0BBB               	decfsz	??_teclado,f
  3547  02BA  2AB9               	goto	u4347
  3548  02BB  0BBC               	decfsz	??_teclado+1,f
  3549  02BC  2AB9               	goto	u4347
  3550  02BD  0BBD               	decfsz	??_teclado+2,f
  3551  02BE  2AB9               	goto	u4347
  3552  02BF                     l2877:
  3553                           
  3554                           ;main.c: 393:         liga_buzzer(0.1);
  3555  02BF  303D               	movlw	61
  3556  02C0  1283               	bcf	3,5	;RP0=0, select bank0
  3557  02C1  1303               	bcf	3,6	;RP1=0, select bank0
  3558  02C2  00B8               	movwf	liga_buzzer@tempoSegundos+3
  3559  02C3  30CC               	movlw	204
  3560  02C4  00B7               	movwf	liga_buzzer@tempoSegundos+2
  3561  02C5  30CC               	movlw	204
  3562  02C6  00B6               	movwf	liga_buzzer@tempoSegundos+1
  3563  02C7  30CD               	movlw	205
  3564  02C8  00B5               	movwf	liga_buzzer@tempoSegundos
  3565  02C9  120A  158A  231E  120A  118A  	fcall	_liga_buzzer
  3566  02CE                     l2879:
  3567                           
  3568                           ;main.c: 394:         LCD_escreve('7');
  3569  02CE  3037               	movlw	55
  3570  02CF  160A  118A  2701  120A  118A  	fcall	_LCD_escreve
  3571  02D4                     l2881:
  3572                           
  3573                           ;main.c: 395:         if(userFalse){
  3574  02D4  1283               	bcf	3,5	;RP0=0, select bank0
  3575  02D5  1303               	bcf	3,6	;RP1=0, select bank0
  3576  02D6  0861               	movf	_userFalse,w
  3577  02D7  0462               	iorwf	_userFalse+1,w
  3578  02D8  1903               	btfsc	3,2
  3579  02D9  2ADB               	goto	u3071
  3580  02DA  2ADC               	goto	u3070
  3581  02DB                     u3071:
  3582  02DB  2AE0               	goto	l2885
  3583  02DC                     u3070:
  3584  02DC                     l2883:
  3585                           
  3586                           ;main.c: 396:             input = 7;
  3587  02DC  3007               	movlw	7
  3588  02DD  00E5               	movwf	_input
  3589  02DE  3000               	movlw	0
  3590  02DF  00E6               	movwf	_input+1
  3591  02E0                     l2885:
  3592                           
  3593                           ;main.c: 398:         if (alteraSenha){
  3594  02E0  0853               	movf	_alteraSenha,w
  3595  02E1  0454               	iorwf	_alteraSenha+1,w
  3596  02E2  1903               	btfsc	3,2
  3597  02E3  2AE5               	goto	u3081
  3598  02E4  2AE6               	goto	u3080
  3599  02E5                     u3081:
  3600  02E5  2AEA               	goto	l288
  3601  02E6                     u3080:
  3602  02E6                     l2887:
  3603                           
  3604                           ;main.c: 399:             input = 7;
  3605  02E6  3007               	movlw	7
  3606  02E7  00E5               	movwf	_input
  3607  02E8  3000               	movlw	0
  3608  02E9  00E6               	movwf	_input+1
  3609  02EA                     l288:	
  3610                           ;main.c: 401:     }
  3611                           
  3612                           
  3613                           ;main.c: 405:     PORTB = 0b10111111;
  3614  02EA  30BF               	movlw	191
  3615  02EB  0086               	movwf	6	;volatile
  3616  02EC                     l2889:
  3617                           
  3618                           ;main.c: 409:     if (RB0 == 0){
  3619  02EC  1806               	btfsc	6,0	;volatile
  3620  02ED  2AEF               	goto	u3091
  3621  02EE  2AF0               	goto	u3090
  3622  02EF                     u3091:
  3623  02EF  2B29               	goto	l2905
  3624  02F0                     u3090:
  3625  02F0                     l2891:
  3626                           
  3627                           ;main.c: 410:         _delay((unsigned long)((200)*(20000000/4000.0)));
  3628  02F0  3006               	movlw	6
  3629  02F1  1283               	bcf	3,5	;RP0=0, select bank0
  3630  02F2  1303               	bcf	3,6	;RP1=0, select bank0
  3631  02F3  00BD               	movwf	??_teclado+2
  3632  02F4  3013               	movlw	19
  3633  02F5  00BC               	movwf	??_teclado+1
  3634  02F6  30AD               	movlw	173
  3635  02F7  00BB               	movwf	??_teclado
  3636  02F8                     u4357:
  3637  02F8  0BBB               	decfsz	??_teclado,f
  3638  02F9  2AF8               	goto	u4357
  3639  02FA  0BBC               	decfsz	??_teclado+1,f
  3640  02FB  2AF8               	goto	u4357
  3641  02FC  0BBD               	decfsz	??_teclado+2,f
  3642  02FD  2AF8               	goto	u4357
  3643  02FE                     l2893:
  3644                           
  3645                           ;main.c: 411:         liga_buzzer(0.1);
  3646  02FE  303D               	movlw	61
  3647  02FF  1283               	bcf	3,5	;RP0=0, select bank0
  3648  0300  1303               	bcf	3,6	;RP1=0, select bank0
  3649  0301  00B8               	movwf	liga_buzzer@tempoSegundos+3
  3650  0302  30CC               	movlw	204
  3651  0303  00B7               	movwf	liga_buzzer@tempoSegundos+2
  3652  0304  30CC               	movlw	204
  3653  0305  00B6               	movwf	liga_buzzer@tempoSegundos+1
  3654  0306  30CD               	movlw	205
  3655  0307  00B5               	movwf	liga_buzzer@tempoSegundos
  3656  0308  120A  158A  231E  120A  118A  	fcall	_liga_buzzer
  3657  030D                     l2895:
  3658                           
  3659                           ;main.c: 412:         LCD_escreve('8');
  3660  030D  3038               	movlw	56
  3661  030E  160A  118A  2701  120A  118A  	fcall	_LCD_escreve
  3662  0313                     l2897:
  3663                           
  3664                           ;main.c: 413:         if(userFalse){
  3665  0313  1283               	bcf	3,5	;RP0=0, select bank0
  3666  0314  1303               	bcf	3,6	;RP1=0, select bank0
  3667  0315  0861               	movf	_userFalse,w
  3668  0316  0462               	iorwf	_userFalse+1,w
  3669  0317  1903               	btfsc	3,2
  3670  0318  2B1A               	goto	u3101
  3671  0319  2B1B               	goto	u3100
  3672  031A                     u3101:
  3673  031A  2B1F               	goto	l2901
  3674  031B                     u3100:
  3675  031B                     l2899:
  3676                           
  3677                           ;main.c: 414:             input = 8;
  3678  031B  3008               	movlw	8
  3679  031C  00E5               	movwf	_input
  3680  031D  3000               	movlw	0
  3681  031E  00E6               	movwf	_input+1
  3682  031F                     l2901:
  3683                           
  3684                           ;main.c: 416:         if (alteraSenha){
  3685  031F  0853               	movf	_alteraSenha,w
  3686  0320  0454               	iorwf	_alteraSenha+1,w
  3687  0321  1903               	btfsc	3,2
  3688  0322  2B24               	goto	u3111
  3689  0323  2B25               	goto	u3110
  3690  0324                     u3111:
  3691  0324  2B29               	goto	l2905
  3692  0325                     u3110:
  3693  0325                     l2903:
  3694                           
  3695                           ;main.c: 417:             input = 8;
  3696  0325  3008               	movlw	8
  3697  0326  00E5               	movwf	_input
  3698  0327  3000               	movlw	0
  3699  0328  00E6               	movwf	_input+1
  3700  0329                     l2905:
  3701                           
  3702                           ;main.c: 423:     if (RB1 == 0){
  3703  0329  1886               	btfsc	6,1	;volatile
  3704  032A  2B2C               	goto	u3121
  3705  032B  2B2D               	goto	u3120
  3706  032C                     u3121:
  3707  032C  2B66               	goto	l2921
  3708  032D                     u3120:
  3709  032D                     l2907:
  3710                           
  3711                           ;main.c: 424:         _delay((unsigned long)((200)*(20000000/4000.0)));
  3712  032D  3006               	movlw	6
  3713  032E  1283               	bcf	3,5	;RP0=0, select bank0
  3714  032F  1303               	bcf	3,6	;RP1=0, select bank0
  3715  0330  00BD               	movwf	??_teclado+2
  3716  0331  3013               	movlw	19
  3717  0332  00BC               	movwf	??_teclado+1
  3718  0333  30AD               	movlw	173
  3719  0334  00BB               	movwf	??_teclado
  3720  0335                     u4367:
  3721  0335  0BBB               	decfsz	??_teclado,f
  3722  0336  2B35               	goto	u4367
  3723  0337  0BBC               	decfsz	??_teclado+1,f
  3724  0338  2B35               	goto	u4367
  3725  0339  0BBD               	decfsz	??_teclado+2,f
  3726  033A  2B35               	goto	u4367
  3727  033B                     l2909:
  3728                           
  3729                           ;main.c: 425:         liga_buzzer(0.1);
  3730  033B  303D               	movlw	61
  3731  033C  1283               	bcf	3,5	;RP0=0, select bank0
  3732  033D  1303               	bcf	3,6	;RP1=0, select bank0
  3733  033E  00B8               	movwf	liga_buzzer@tempoSegundos+3
  3734  033F  30CC               	movlw	204
  3735  0340  00B7               	movwf	liga_buzzer@tempoSegundos+2
  3736  0341  30CC               	movlw	204
  3737  0342  00B6               	movwf	liga_buzzer@tempoSegundos+1
  3738  0343  30CD               	movlw	205
  3739  0344  00B5               	movwf	liga_buzzer@tempoSegundos
  3740  0345  120A  158A  231E  120A  118A  	fcall	_liga_buzzer
  3741  034A                     l2911:
  3742                           
  3743                           ;main.c: 426:         LCD_escreve('9');
  3744  034A  3039               	movlw	57
  3745  034B  160A  118A  2701  120A  118A  	fcall	_LCD_escreve
  3746  0350                     l2913:
  3747                           
  3748                           ;main.c: 427:         if(userFalse){
  3749  0350  1283               	bcf	3,5	;RP0=0, select bank0
  3750  0351  1303               	bcf	3,6	;RP1=0, select bank0
  3751  0352  0861               	movf	_userFalse,w
  3752  0353  0462               	iorwf	_userFalse+1,w
  3753  0354  1903               	btfsc	3,2
  3754  0355  2B57               	goto	u3131
  3755  0356  2B58               	goto	u3130
  3756  0357                     u3131:
  3757  0357  2B5C               	goto	l2917
  3758  0358                     u3130:
  3759  0358                     l2915:
  3760                           
  3761                           ;main.c: 428:             input = 9;
  3762  0358  3009               	movlw	9
  3763  0359  00E5               	movwf	_input
  3764  035A  3000               	movlw	0
  3765  035B  00E6               	movwf	_input+1
  3766  035C                     l2917:
  3767                           
  3768                           ;main.c: 430:         if (alteraSenha){
  3769  035C  0853               	movf	_alteraSenha,w
  3770  035D  0454               	iorwf	_alteraSenha+1,w
  3771  035E  1903               	btfsc	3,2
  3772  035F  2B61               	goto	u3141
  3773  0360  2B62               	goto	u3140
  3774  0361                     u3141:
  3775  0361  2B66               	goto	l2921
  3776  0362                     u3140:
  3777  0362                     l2919:
  3778                           
  3779                           ;main.c: 431:             input = 9;
  3780  0362  3009               	movlw	9
  3781  0363  00E5               	movwf	_input
  3782  0364  3000               	movlw	0
  3783  0365  00E6               	movwf	_input+1
  3784  0366                     l2921:
  3785                           
  3786                           ;main.c: 437:     if (RB2 == 0){
  3787  0366  1906               	btfsc	6,2	;volatile
  3788  0367  2B69               	goto	u3151
  3789  0368  2B6A               	goto	u3150
  3790  0369                     u3151:
  3791  0369  2B8D               	goto	l2929
  3792  036A                     u3150:
  3793  036A                     l2923:
  3794                           
  3795                           ;main.c: 438:         _delay((unsigned long)((200)*(20000000/4000.0)));
  3796  036A  3006               	movlw	6
  3797  036B  1283               	bcf	3,5	;RP0=0, select bank0
  3798  036C  1303               	bcf	3,6	;RP1=0, select bank0
  3799  036D  00BD               	movwf	??_teclado+2
  3800  036E  3013               	movlw	19
  3801  036F  00BC               	movwf	??_teclado+1
  3802  0370  30AD               	movlw	173
  3803  0371  00BB               	movwf	??_teclado
  3804  0372                     u4377:
  3805  0372  0BBB               	decfsz	??_teclado,f
  3806  0373  2B72               	goto	u4377
  3807  0374  0BBC               	decfsz	??_teclado+1,f
  3808  0375  2B72               	goto	u4377
  3809  0376  0BBD               	decfsz	??_teclado+2,f
  3810  0377  2B72               	goto	u4377
  3811  0378                     l2925:
  3812                           
  3813                           ;main.c: 439:         liga_buzzer(0.1);
  3814  0378  303D               	movlw	61
  3815  0379  1283               	bcf	3,5	;RP0=0, select bank0
  3816  037A  1303               	bcf	3,6	;RP1=0, select bank0
  3817  037B  00B8               	movwf	liga_buzzer@tempoSegundos+3
  3818  037C  30CC               	movlw	204
  3819  037D  00B7               	movwf	liga_buzzer@tempoSegundos+2
  3820  037E  30CC               	movlw	204
  3821  037F  00B6               	movwf	liga_buzzer@tempoSegundos+1
  3822  0380  30CD               	movlw	205
  3823  0381  00B5               	movwf	liga_buzzer@tempoSegundos
  3824  0382  120A  158A  231E  120A  118A  	fcall	_liga_buzzer
  3825  0387                     l2927:
  3826                           
  3827                           ;main.c: 440:         LCD_escreve('A');
  3828  0387  3041               	movlw	65
  3829  0388  160A  118A  2701  120A  118A  	fcall	_LCD_escreve
  3830  038D                     l2929:
  3831                           
  3832                           ;main.c: 445:     if (RB3 == 0){
  3833  038D  1283               	bcf	3,5	;RP0=0, select bank0
  3834  038E  1303               	bcf	3,6	;RP1=0, select bank0
  3835  038F  1986               	btfsc	6,3	;volatile
  3836  0390  2B92               	goto	u3161
  3837  0391  2B93               	goto	u3160
  3838  0392                     u3161:
  3839  0392  2BB6               	goto	l298
  3840  0393                     u3160:
  3841  0393                     l2931:
  3842                           
  3843                           ;main.c: 446:         _delay((unsigned long)((200)*(20000000/4000.0)));
  3844  0393  3006               	movlw	6
  3845  0394  1283               	bcf	3,5	;RP0=0, select bank0
  3846  0395  1303               	bcf	3,6	;RP1=0, select bank0
  3847  0396  00BD               	movwf	??_teclado+2
  3848  0397  3013               	movlw	19
  3849  0398  00BC               	movwf	??_teclado+1
  3850  0399  30AD               	movlw	173
  3851  039A  00BB               	movwf	??_teclado
  3852  039B                     u4387:
  3853  039B  0BBB               	decfsz	??_teclado,f
  3854  039C  2B9B               	goto	u4387
  3855  039D  0BBC               	decfsz	??_teclado+1,f
  3856  039E  2B9B               	goto	u4387
  3857  039F  0BBD               	decfsz	??_teclado+2,f
  3858  03A0  2B9B               	goto	u4387
  3859  03A1                     l2933:
  3860                           
  3861                           ;main.c: 447:         liga_buzzer(0.1);
  3862  03A1  303D               	movlw	61
  3863  03A2  1283               	bcf	3,5	;RP0=0, select bank0
  3864  03A3  1303               	bcf	3,6	;RP1=0, select bank0
  3865  03A4  00B8               	movwf	liga_buzzer@tempoSegundos+3
  3866  03A5  30CC               	movlw	204
  3867  03A6  00B7               	movwf	liga_buzzer@tempoSegundos+2
  3868  03A7  30CC               	movlw	204
  3869  03A8  00B6               	movwf	liga_buzzer@tempoSegundos+1
  3870  03A9  30CD               	movlw	205
  3871  03AA  00B5               	movwf	liga_buzzer@tempoSegundos
  3872  03AB  120A  158A  231E  120A  118A  	fcall	_liga_buzzer
  3873  03B0                     l2935:
  3874                           
  3875                           ;main.c: 448:         LCD_escreve('B');
  3876  03B0  3042               	movlw	66
  3877  03B1  160A  118A  2701  120A  118A  	fcall	_LCD_escreve
  3878  03B6                     l298:	
  3879                           ;main.c: 449:     }
  3880                           
  3881                           
  3882                           ;main.c: 453:     PORTB = 0b01111111;
  3883  03B6  307F               	movlw	127
  3884  03B7  1283               	bcf	3,5	;RP0=0, select bank0
  3885  03B8  1303               	bcf	3,6	;RP1=0, select bank0
  3886  03B9  0086               	movwf	6	;volatile
  3887  03BA                     l2937:
  3888                           
  3889                           ;main.c: 457:     if (RB0 == 0){
  3890  03BA  1806               	btfsc	6,0	;volatile
  3891  03BB  2BBD               	goto	u3171
  3892  03BC  2BBE               	goto	u3170
  3893  03BD                     u3171:
  3894  03BD  2BE1               	goto	l2945
  3895  03BE                     u3170:
  3896  03BE                     l2939:
  3897                           
  3898                           ;main.c: 458:         _delay((unsigned long)((200)*(20000000/4000.0)));
  3899  03BE  3006               	movlw	6
  3900  03BF  1283               	bcf	3,5	;RP0=0, select bank0
  3901  03C0  1303               	bcf	3,6	;RP1=0, select bank0
  3902  03C1  00BD               	movwf	??_teclado+2
  3903  03C2  3013               	movlw	19
  3904  03C3  00BC               	movwf	??_teclado+1
  3905  03C4  30AD               	movlw	173
  3906  03C5  00BB               	movwf	??_teclado
  3907  03C6                     u4397:
  3908  03C6  0BBB               	decfsz	??_teclado,f
  3909  03C7  2BC6               	goto	u4397
  3910  03C8  0BBC               	decfsz	??_teclado+1,f
  3911  03C9  2BC6               	goto	u4397
  3912  03CA  0BBD               	decfsz	??_teclado+2,f
  3913  03CB  2BC6               	goto	u4397
  3914  03CC                     l2941:
  3915                           
  3916                           ;main.c: 459:         liga_buzzer(0.1);
  3917  03CC  303D               	movlw	61
  3918  03CD  1283               	bcf	3,5	;RP0=0, select bank0
  3919  03CE  1303               	bcf	3,6	;RP1=0, select bank0
  3920  03CF  00B8               	movwf	liga_buzzer@tempoSegundos+3
  3921  03D0  30CC               	movlw	204
  3922  03D1  00B7               	movwf	liga_buzzer@tempoSegundos+2
  3923  03D2  30CC               	movlw	204
  3924  03D3  00B6               	movwf	liga_buzzer@tempoSegundos+1
  3925  03D4  30CD               	movlw	205
  3926  03D5  00B5               	movwf	liga_buzzer@tempoSegundos
  3927  03D6  120A  158A  231E  120A  118A  	fcall	_liga_buzzer
  3928  03DB                     l2943:
  3929                           
  3930                           ;main.c: 460:         LCD_escreve('C');
  3931  03DB  3043               	movlw	67
  3932  03DC  160A  118A  2701  120A  118A  	fcall	_LCD_escreve
  3933  03E1                     l2945:
  3934                           
  3935                           ;main.c: 465:     if (RB1 == 0){
  3936  03E1  1283               	bcf	3,5	;RP0=0, select bank0
  3937  03E2  1303               	bcf	3,6	;RP1=0, select bank0
  3938  03E3  1886               	btfsc	6,1	;volatile
  3939  03E4  2BE6               	goto	u3181
  3940  03E5  2BE7               	goto	u3180
  3941  03E6                     u3181:
  3942  03E6  2C0A               	goto	l2953
  3943  03E7                     u3180:
  3944  03E7                     l2947:
  3945                           
  3946                           ;main.c: 466:         _delay((unsigned long)((200)*(20000000/4000.0)));
  3947  03E7  3006               	movlw	6
  3948  03E8  1283               	bcf	3,5	;RP0=0, select bank0
  3949  03E9  1303               	bcf	3,6	;RP1=0, select bank0
  3950  03EA  00BD               	movwf	??_teclado+2
  3951  03EB  3013               	movlw	19
  3952  03EC  00BC               	movwf	??_teclado+1
  3953  03ED  30AD               	movlw	173
  3954  03EE  00BB               	movwf	??_teclado
  3955  03EF                     u4407:
  3956  03EF  0BBB               	decfsz	??_teclado,f
  3957  03F0  2BEF               	goto	u4407
  3958  03F1  0BBC               	decfsz	??_teclado+1,f
  3959  03F2  2BEF               	goto	u4407
  3960  03F3  0BBD               	decfsz	??_teclado+2,f
  3961  03F4  2BEF               	goto	u4407
  3962  03F5                     l2949:
  3963                           
  3964                           ;main.c: 467:         liga_buzzer(0.1);
  3965  03F5  303D               	movlw	61
  3966  03F6  1283               	bcf	3,5	;RP0=0, select bank0
  3967  03F7  1303               	bcf	3,6	;RP1=0, select bank0
  3968  03F8  00B8               	movwf	liga_buzzer@tempoSegundos+3
  3969  03F9  30CC               	movlw	204
  3970  03FA  00B7               	movwf	liga_buzzer@tempoSegundos+2
  3971  03FB  30CC               	movlw	204
  3972  03FC  00B6               	movwf	liga_buzzer@tempoSegundos+1
  3973  03FD  30CD               	movlw	205
  3974  03FE  00B5               	movwf	liga_buzzer@tempoSegundos
  3975  03FF  120A  158A  231E  120A  118A  	fcall	_liga_buzzer
  3976  0404                     l2951:
  3977                           
  3978                           ;main.c: 468:         LCD_escreve('D');
  3979  0404  3044               	movlw	68
  3980  0405  160A  118A  2701  120A  118A  	fcall	_LCD_escreve
  3981  040A                     l2953:
  3982                           
  3983                           ;main.c: 473:     if (RB2 == 0){
  3984  040A  1283               	bcf	3,5	;RP0=0, select bank0
  3985  040B  1303               	bcf	3,6	;RP1=0, select bank0
  3986  040C  1906               	btfsc	6,2	;volatile
  3987  040D  2C0F               	goto	u3191
  3988  040E  2C10               	goto	u3190
  3989  040F                     u3191:
  3990  040F  2C33               	goto	l2961
  3991  0410                     u3190:
  3992  0410                     l2955:
  3993                           
  3994                           ;main.c: 474:         _delay((unsigned long)((200)*(20000000/4000.0)));
  3995  0410  3006               	movlw	6
  3996  0411  1283               	bcf	3,5	;RP0=0, select bank0
  3997  0412  1303               	bcf	3,6	;RP1=0, select bank0
  3998  0413  00BD               	movwf	??_teclado+2
  3999  0414  3013               	movlw	19
  4000  0415  00BC               	movwf	??_teclado+1
  4001  0416  30AD               	movlw	173
  4002  0417  00BB               	movwf	??_teclado
  4003  0418                     u4417:
  4004  0418  0BBB               	decfsz	??_teclado,f
  4005  0419  2C18               	goto	u4417
  4006  041A  0BBC               	decfsz	??_teclado+1,f
  4007  041B  2C18               	goto	u4417
  4008  041C  0BBD               	decfsz	??_teclado+2,f
  4009  041D  2C18               	goto	u4417
  4010  041E                     l2957:
  4011                           
  4012                           ;main.c: 475:         liga_buzzer(0.1);
  4013  041E  303D               	movlw	61
  4014  041F  1283               	bcf	3,5	;RP0=0, select bank0
  4015  0420  1303               	bcf	3,6	;RP1=0, select bank0
  4016  0421  00B8               	movwf	liga_buzzer@tempoSegundos+3
  4017  0422  30CC               	movlw	204
  4018  0423  00B7               	movwf	liga_buzzer@tempoSegundos+2
  4019  0424  30CC               	movlw	204
  4020  0425  00B6               	movwf	liga_buzzer@tempoSegundos+1
  4021  0426  30CD               	movlw	205
  4022  0427  00B5               	movwf	liga_buzzer@tempoSegundos
  4023  0428  120A  158A  231E  120A  118A  	fcall	_liga_buzzer
  4024  042D                     l2959:
  4025                           
  4026                           ;main.c: 476:         LCD_escreve('E');
  4027  042D  3045               	movlw	69
  4028  042E  160A  118A  2701  120A  118A  	fcall	_LCD_escreve
  4029  0433                     l2961:
  4030                           
  4031                           ;main.c: 481:     if (RB3 == 0){
  4032  0433  1283               	bcf	3,5	;RP0=0, select bank0
  4033  0434  1303               	bcf	3,6	;RP1=0, select bank0
  4034  0435  1986               	btfsc	6,3	;volatile
  4035  0436  2C38               	goto	u3201
  4036  0437  2C39               	goto	u3200
  4037  0438                     u3201:
  4038  0438  2C5C               	goto	l303
  4039  0439                     u3200:
  4040  0439                     l2963:
  4041                           
  4042                           ;main.c: 482:         _delay((unsigned long)((200)*(20000000/4000.0)));
  4043  0439  3006               	movlw	6
  4044  043A  1283               	bcf	3,5	;RP0=0, select bank0
  4045  043B  1303               	bcf	3,6	;RP1=0, select bank0
  4046  043C  00BD               	movwf	??_teclado+2
  4047  043D  3013               	movlw	19
  4048  043E  00BC               	movwf	??_teclado+1
  4049  043F  30AD               	movlw	173
  4050  0440  00BB               	movwf	??_teclado
  4051  0441                     u4427:
  4052  0441  0BBB               	decfsz	??_teclado,f
  4053  0442  2C41               	goto	u4427
  4054  0443  0BBC               	decfsz	??_teclado+1,f
  4055  0444  2C41               	goto	u4427
  4056  0445  0BBD               	decfsz	??_teclado+2,f
  4057  0446  2C41               	goto	u4427
  4058  0447                     l2965:
  4059                           
  4060                           ;main.c: 483:         liga_buzzer(0.1);
  4061  0447  303D               	movlw	61
  4062  0448  1283               	bcf	3,5	;RP0=0, select bank0
  4063  0449  1303               	bcf	3,6	;RP1=0, select bank0
  4064  044A  00B8               	movwf	liga_buzzer@tempoSegundos+3
  4065  044B  30CC               	movlw	204
  4066  044C  00B7               	movwf	liga_buzzer@tempoSegundos+2
  4067  044D  30CC               	movlw	204
  4068  044E  00B6               	movwf	liga_buzzer@tempoSegundos+1
  4069  044F  30CD               	movlw	205
  4070  0450  00B5               	movwf	liga_buzzer@tempoSegundos
  4071  0451  120A  158A  231E  120A  118A  	fcall	_liga_buzzer
  4072  0456                     l2967:
  4073                           
  4074                           ;main.c: 484:         LCD_escreve('F');
  4075  0456  3046               	movlw	70
  4076  0457  160A  118A  2701  120A  118A  	fcall	_LCD_escreve
  4077  045C                     l303:
  4078  045C  0008               	return
  4079  045D                     __end_of_teclado:
  4080                           
  4081                           	psect	text13
  4082  0B1E                     __ptext13:	
  4083 ;; *************** function _liga_buzzer *****************
  4084 ;; Defined at:
  4085 ;;		line 270 in file "main.c"
  4086 ;; Parameters:    Size  Location     Type
  4087 ;;  tempoSegundo    4   21[BANK0 ] float 
  4088 ;; Auto vars:     Size  Location     Type
  4089 ;;		None
  4090 ;; Return value:  Size  Location     Type
  4091 ;;                  1    wreg      void 
  4092 ;; Registers used:
  4093 ;;		wreg, status,2, status,0, btemp+1, pclath, cstack
  4094 ;; Tracked objects:
  4095 ;;		On entry : 0/0
  4096 ;;		On exit  : 0/0
  4097 ;;		Unchanged: 0/0
  4098 ;; Data sizes:     COMMON   BANK0   BANK1   BANK3   BANK2
  4099 ;;      Params:         0       4       0       0       0
  4100 ;;      Locals:         0       0       0       0       0
  4101 ;;      Temps:          0       2       0       0       0
  4102 ;;      Totals:         0       6       0       0       0
  4103 ;;Total ram usage:        6 bytes
  4104 ;; Hardware stack levels used: 1
  4105 ;; Hardware stack levels required when called: 2
  4106 ;; This function calls:
  4107 ;;		___flge
  4108 ;;		___flmul
  4109 ;;		___flsub
  4110 ;; This function is called by:
  4111 ;;		_teclado
  4112 ;;		_listaZonas
  4113 ;; This function uses a non-reentrant model
  4114 ;;
  4115                           
  4116                           
  4117                           ;psect for function _liga_buzzer
  4118  0B1E                     _liga_buzzer:
  4119  0B1E                     l2679:	
  4120                           ;incstack = 0
  4121                           ; Regs used in _liga_buzzer: [wreg+status,2+status,0+btemp+1+pclath+cstack]
  4122                           
  4123                           
  4124                           ;main.c: 271:     tempoSegundos = tempoSegundos * 1000;
  4125  0B1E  3044               	movlw	68
  4126  0B1F  1283               	bcf	3,5	;RP0=0, select bank0
  4127  0B20  1303               	bcf	3,6	;RP1=0, select bank0
  4128  0B21  00A3               	movwf	___flmul@b+3
  4129  0B22  307A               	movlw	122
  4130  0B23  00A2               	movwf	___flmul@b+2
  4131  0B24  3000               	movlw	0
  4132  0B25  00A1               	movwf	___flmul@b+1
  4133  0B26  3000               	movlw	0
  4134  0B27  00A0               	movwf	___flmul@b
  4135  0B28  0838               	movf	liga_buzzer@tempoSegundos+3,w
  4136  0B29  00A7               	movwf	___flmul@a+3
  4137  0B2A  0837               	movf	liga_buzzer@tempoSegundos+2,w
  4138  0B2B  00A6               	movwf	___flmul@a+2
  4139  0B2C  0836               	movf	liga_buzzer@tempoSegundos+1,w
  4140  0B2D  00A5               	movwf	___flmul@a+1
  4141  0B2E  0835               	movf	liga_buzzer@tempoSegundos,w
  4142  0B2F  00A4               	movwf	___flmul@a
  4143  0B30  120A  118A  245D  120A  158A  	fcall	___flmul
  4144  0B35  1283               	bcf	3,5	;RP0=0, select bank0
  4145  0B36  1303               	bcf	3,6	;RP1=0, select bank0
  4146  0B37  0823               	movf	?___flmul+3,w
  4147  0B38  00B8               	movwf	liga_buzzer@tempoSegundos+3
  4148  0B39  0822               	movf	?___flmul+2,w
  4149  0B3A  00B7               	movwf	liga_buzzer@tempoSegundos+2
  4150  0B3B  0821               	movf	?___flmul+1,w
  4151  0B3C  00B6               	movwf	liga_buzzer@tempoSegundos+1
  4152  0B3D  0820               	movf	?___flmul,w
  4153  0B3E  00B5               	movwf	liga_buzzer@tempoSegundos
  4154  0B3F                     l2681:
  4155                           
  4156                           ;main.c: 272:     _delay((unsigned long)((10)*(20000000/4000.0)));
  4157  0B3F  3041               	movlw	65
  4158  0B40  1283               	bcf	3,5	;RP0=0, select bank0
  4159  0B41  1303               	bcf	3,6	;RP1=0, select bank0
  4160  0B42  00BA               	movwf	??_liga_buzzer+1
  4161  0B43  30ED               	movlw	237
  4162  0B44  00B9               	movwf	??_liga_buzzer
  4163  0B45                     u4437:
  4164  0B45  0BB9               	decfsz	??_liga_buzzer,f
  4165  0B46  2B45               	goto	u4437
  4166  0B47  0BBA               	decfsz	??_liga_buzzer+1,f
  4167  0B48  2B45               	goto	u4437
  4168  0B49  2B4A               	nop2
  4169                           
  4170                           ;main.c: 273:     while(tempoSegundos > 0){
  4171  0B4A  2B7A               	goto	l2689
  4172  0B4B                     l2683:
  4173                           
  4174                           ;main.c: 274:        PORTE = 0;
  4175  0B4B  1283               	bcf	3,5	;RP0=0, select bank0
  4176  0B4C  1303               	bcf	3,6	;RP1=0, select bank0
  4177  0B4D  0189               	clrf	9	;volatile
  4178  0B4E                     l2685:
  4179                           
  4180                           ;main.c: 275:         _delay((unsigned long)((1)*(20000000/4000.0)));
  4181  0B4E  3007               	movlw	7
  4182  0B4F  1283               	bcf	3,5	;RP0=0, select bank0
  4183  0B50  1303               	bcf	3,6	;RP1=0, select bank0
  4184  0B51  00BA               	movwf	??_liga_buzzer+1
  4185  0B52  307C               	movlw	124
  4186  0B53  00B9               	movwf	??_liga_buzzer
  4187  0B54                     u4447:
  4188  0B54  0BB9               	decfsz	??_liga_buzzer,f
  4189  0B55  2B54               	goto	u4447
  4190  0B56  0BBA               	decfsz	??_liga_buzzer+1,f
  4191  0B57  2B54               	goto	u4447
  4192  0B58  0000               	nop
  4193  0B59                     l2687:
  4194                           
  4195                           ;main.c: 276:         tempoSegundos--;
  4196  0B59  303F               	movlw	63
  4197  0B5A  1283               	bcf	3,5	;RP0=0, select bank0
  4198  0B5B  1303               	bcf	3,6	;RP1=0, select bank0
  4199  0B5C  00AB               	movwf	___flsub@a+3
  4200  0B5D  3080               	movlw	128
  4201  0B5E  00AA               	movwf	___flsub@a+2
  4202  0B5F  3000               	movlw	0
  4203  0B60  00A9               	movwf	___flsub@a+1
  4204  0B61  3000               	movlw	0
  4205  0B62  00A8               	movwf	___flsub@a
  4206  0B63  0838               	movf	liga_buzzer@tempoSegundos+3,w
  4207  0B64  00AF               	movwf	___flsub@b+3
  4208  0B65  0837               	movf	liga_buzzer@tempoSegundos+2,w
  4209  0B66  00AE               	movwf	___flsub@b+2
  4210  0B67  0836               	movf	liga_buzzer@tempoSegundos+1,w
  4211  0B68  00AD               	movwf	___flsub@b+1
  4212  0B69  0835               	movf	liga_buzzer@tempoSegundos,w
  4213  0B6A  00AC               	movwf	___flsub@b
  4214  0B6B  160A  118A  277A  120A  158A  	fcall	___flsub
  4215  0B70  1283               	bcf	3,5	;RP0=0, select bank0
  4216  0B71  1303               	bcf	3,6	;RP1=0, select bank0
  4217  0B72  082B               	movf	?___flsub+3,w
  4218  0B73  00B8               	movwf	liga_buzzer@tempoSegundos+3
  4219  0B74  082A               	movf	?___flsub+2,w
  4220  0B75  00B7               	movwf	liga_buzzer@tempoSegundos+2
  4221  0B76  0829               	movf	?___flsub+1,w
  4222  0B77  00B6               	movwf	liga_buzzer@tempoSegundos+1
  4223  0B78  0828               	movf	?___flsub,w
  4224  0B79  00B5               	movwf	liga_buzzer@tempoSegundos
  4225  0B7A                     l2689:
  4226                           
  4227                           ;main.c: 273:     while(tempoSegundos > 0){
  4228  0B7A  3000               	movlw	0
  4229  0B7B  00F3               	movwf	___flge@ff1+3
  4230  0B7C  3000               	movlw	0
  4231  0B7D  00F2               	movwf	___flge@ff1+2
  4232  0B7E  3000               	movlw	0
  4233  0B7F  00F1               	movwf	___flge@ff1+1
  4234  0B80  3000               	movlw	0
  4235  0B81  00F0               	movwf	___flge@ff1
  4236  0B82  1283               	bcf	3,5	;RP0=0, select bank0
  4237  0B83  1303               	bcf	3,6	;RP1=0, select bank0
  4238  0B84  0838               	movf	liga_buzzer@tempoSegundos+3,w
  4239  0B85  00F7               	movwf	___flge@ff2+3
  4240  0B86  0837               	movf	liga_buzzer@tempoSegundos+2,w
  4241  0B87  00F6               	movwf	___flge@ff2+2
  4242  0B88  0836               	movf	liga_buzzer@tempoSegundos+1,w
  4243  0B89  00F5               	movwf	___flge@ff2+1
  4244  0B8A  0835               	movf	liga_buzzer@tempoSegundos,w
  4245  0B8B  00F4               	movwf	___flge@ff2
  4246  0B8C  120A  158A  2421  120A  158A  	fcall	___flge
  4247  0B91  1C03               	btfss	3,0
  4248  0B92  2B94               	goto	u2811
  4249  0B93  2B95               	goto	u2810
  4250  0B94                     u2811:
  4251  0B94  2B4B               	goto	l2683
  4252  0B95                     u2810:
  4253  0B95                     l2691:
  4254                           
  4255                           ;main.c: 278:     PORTE = 0x0F;
  4256  0B95  300F               	movlw	15
  4257  0B96  1283               	bcf	3,5	;RP0=0, select bank0
  4258  0B97  1303               	bcf	3,6	;RP1=0, select bank0
  4259  0B98  0089               	movwf	9	;volatile
  4260  0B99                     l264:
  4261  0B99  0008               	return
  4262  0B9A                     __end_of_liga_buzzer:
  4263                           
  4264                           	psect	text14
  4265  177A                     __ptext14:	
  4266 ;; *************** function ___flsub *****************
  4267 ;; Defined at:
  4268 ;;		line 242 in file "C:\Program Files\Microchip\xc8\v2.32\pic\sources\c90\common\sprcadd.c"
  4269 ;; Parameters:    Size  Location     Type
  4270 ;;  a               4    8[BANK0 ] void 
  4271 ;;  b               4   12[BANK0 ] void 
  4272 ;; Auto vars:     Size  Location     Type
  4273 ;;		None
  4274 ;; Return value:  Size  Location     Type
  4275 ;;                  4    8[BANK0 ] void 
  4276 ;; Registers used:
  4277 ;;		wreg, status,2, status,0, btemp+1, pclath, cstack
  4278 ;; Tracked objects:
  4279 ;;		On entry : 0/0
  4280 ;;		On exit  : 0/0
  4281 ;;		Unchanged: 0/0
  4282 ;; Data sizes:     COMMON   BANK0   BANK1   BANK3   BANK2
  4283 ;;      Params:         0       8       0       0       0
  4284 ;;      Locals:         0       0       0       0       0
  4285 ;;      Temps:          0       0       0       0       0
  4286 ;;      Totals:         0       8       0       0       0
  4287 ;;Total ram usage:        8 bytes
  4288 ;; Hardware stack levels used: 1
  4289 ;; Hardware stack levels required when called: 1
  4290 ;; This function calls:
  4291 ;;		___fladd
  4292 ;; This function is called by:
  4293 ;;		_liga_buzzer
  4294 ;; This function uses a non-reentrant model
  4295 ;;
  4296                           
  4297                           
  4298                           ;psect for function ___flsub
  4299  177A                     ___flsub:
  4300  177A                     l2489:	
  4301                           ;incstack = 0
  4302                           ; Regs used in ___flsub: [wreg+status,2+status,0+btemp+1+pclath+cstack]
  4303                           
  4304  177A  3080               	movlw	128
  4305  177B  1283               	bcf	3,5	;RP0=0, select bank0
  4306  177C  1303               	bcf	3,6	;RP1=0, select bank0
  4307  177D  06AB               	xorwf	___flsub@a+3,f
  4308  177E                     l2491:
  4309  177E  082F               	movf	___flsub@b+3,w
  4310  177F  00F3               	movwf	___fladd@b+3
  4311  1780  082E               	movf	___flsub@b+2,w
  4312  1781  00F2               	movwf	___fladd@b+2
  4313  1782  082D               	movf	___flsub@b+1,w
  4314  1783  00F1               	movwf	___fladd@b+1
  4315  1784  082C               	movf	___flsub@b,w
  4316  1785  00F0               	movwf	___fladd@b
  4317  1786  082B               	movf	___flsub@a+3,w
  4318  1787  00F7               	movwf	___fladd@a+3
  4319  1788  082A               	movf	___flsub@a+2,w
  4320  1789  00F6               	movwf	___fladd@a+2
  4321  178A  0829               	movf	___flsub@a+1,w
  4322  178B  00F5               	movwf	___fladd@a+1
  4323  178C  0828               	movf	___flsub@a,w
  4324  178D  00F4               	movwf	___fladd@a
  4325  178E  120A  158A  2568  160A  118A  	fcall	___fladd
  4326  1793  0873               	movf	?___fladd+3,w
  4327  1794  1283               	bcf	3,5	;RP0=0, select bank0
  4328  1795  1303               	bcf	3,6	;RP1=0, select bank0
  4329  1796  00AB               	movwf	?___flsub+3
  4330  1797  0872               	movf	?___fladd+2,w
  4331  1798  00AA               	movwf	?___flsub+2
  4332  1799  0871               	movf	?___fladd+1,w
  4333  179A  00A9               	movwf	?___flsub+1
  4334  179B  0870               	movf	?___fladd,w
  4335  179C  00A8               	movwf	?___flsub
  4336  179D                     l796:
  4337  179D  0008               	return
  4338  179E                     __end_of___flsub:
  4339                           
  4340                           	psect	text15
  4341  0D68                     __ptext15:	
  4342 ;; *************** function ___fladd *****************
  4343 ;; Defined at:
  4344 ;;		line 10 in file "C:\Program Files\Microchip\xc8\v2.32\pic\sources\c90\common\sprcadd.c"
  4345 ;; Parameters:    Size  Location     Type
  4346 ;;  b               4    0[COMMON] void 
  4347 ;;  a               4    4[COMMON] void 
  4348 ;; Auto vars:     Size  Location     Type
  4349 ;;  grs             1   11[COMMON] unsigned char 
  4350 ;;  bexp            1   10[COMMON] unsigned char 
  4351 ;;  aexp            1    9[COMMON] unsigned char 
  4352 ;;  signs           1    8[COMMON] unsigned char 
  4353 ;; Return value:  Size  Location     Type
  4354 ;;                  4    0[COMMON] unsigned char 
  4355 ;; Registers used:
  4356 ;;		wreg, status,2, status,0, btemp+1
  4357 ;; Tracked objects:
  4358 ;;		On entry : 0/0
  4359 ;;		On exit  : 0/0
  4360 ;;		Unchanged: 0/0
  4361 ;; Data sizes:     COMMON   BANK0   BANK1   BANK3   BANK2
  4362 ;;      Params:         8       0       0       0       0
  4363 ;;      Locals:         4       0       0       0       0
  4364 ;;      Temps:          0       8       0       0       0
  4365 ;;      Totals:        12       8       0       0       0
  4366 ;;Total ram usage:       20 bytes
  4367 ;; Hardware stack levels used: 1
  4368 ;; This function calls:
  4369 ;;		Nothing
  4370 ;; This function is called by:
  4371 ;;		___flsub
  4372 ;; This function uses a non-reentrant model
  4373 ;;
  4374                           
  4375                           
  4376                           ;psect for function ___fladd
  4377  0D68                     ___fladd:
  4378  0D68                     l2249:	
  4379                           ;incstack = 0
  4380                           ; Regs used in ___fladd: [wreg+status,2+status,0+btemp+1]
  4381                           
  4382  0D68  0873               	movf	___fladd@b+3,w
  4383  0D69  3980               	andlw	128
  4384  0D6A  1283               	bcf	3,5	;RP0=0, select bank0
  4385  0D6B  1303               	bcf	3,6	;RP1=0, select bank0
  4386  0D6C  00A0               	movwf	??___fladd
  4387  0D6D  0820               	movf	??___fladd,w
  4388  0D6E  00F8               	movwf	___fladd@signs
  4389  0D6F                     l2251:
  4390  0D6F  0873               	movf	___fladd@b+3,w
  4391  0D70  00A0               	movwf	??___fladd
  4392  0D71  0720               	addwf	??___fladd,w
  4393  0D72  00A1               	movwf	??___fladd+1
  4394  0D73  0821               	movf	??___fladd+1,w
  4395  0D74  00FA               	movwf	___fladd@bexp
  4396  0D75                     l2253:
  4397  0D75  1FF2               	btfss	___fladd@b+2,7
  4398  0D76  2D78               	goto	u1851
  4399  0D77  2D79               	goto	u1850
  4400  0D78                     u1851:
  4401  0D78  2D7A               	goto	l2257
  4402  0D79                     u1850:
  4403  0D79                     l2255:
  4404  0D79  147A               	bsf	___fladd@bexp,0
  4405  0D7A                     l2257:
  4406  0D7A  087A               	movf	___fladd@bexp,w
  4407  0D7B  1903               	btfsc	3,2
  4408  0D7C  2D7E               	goto	u1861
  4409  0D7D  2D7F               	goto	u1860
  4410  0D7E                     u1861:
  4411  0D7E  2D8F               	goto	l2267
  4412  0D7F                     u1860:
  4413  0D7F                     l2259:
  4414  0D7F  0A7A               	incf	___fladd@bexp,w
  4415  0D80  1D03               	btfss	3,2
  4416  0D81  2D83               	goto	u1871
  4417  0D82  2D84               	goto	u1870
  4418  0D83                     u1871:
  4419  0D83  2D8C               	goto	l2263
  4420  0D84                     u1870:
  4421  0D84                     l2261:
  4422  0D84  3000               	movlw	0
  4423  0D85  00F3               	movwf	___fladd@b+3
  4424  0D86  3000               	movlw	0
  4425  0D87  00F2               	movwf	___fladd@b+2
  4426  0D88  3000               	movlw	0
  4427  0D89  00F1               	movwf	___fladd@b+1
  4428  0D8A  3000               	movlw	0
  4429  0D8B  00F0               	movwf	___fladd@b
  4430  0D8C                     l2263:
  4431  0D8C  17F2               	bsf	___fladd@b+2,7
  4432  0D8D                     l2265:
  4433  0D8D  01F3               	clrf	___fladd@b+3
  4434  0D8E  2D97               	goto	l2269
  4435  0D8F                     l2267:
  4436  0D8F  3000               	movlw	0
  4437  0D90  00F3               	movwf	___fladd@b+3
  4438  0D91  3000               	movlw	0
  4439  0D92  00F2               	movwf	___fladd@b+2
  4440  0D93  3000               	movlw	0
  4441  0D94  00F1               	movwf	___fladd@b+1
  4442  0D95  3000               	movlw	0
  4443  0D96  00F0               	movwf	___fladd@b
  4444  0D97                     l2269:
  4445  0D97  0877               	movf	___fladd@a+3,w
  4446  0D98  3980               	andlw	128
  4447  0D99  00A0               	movwf	??___fladd
  4448  0D9A  0820               	movf	??___fladd,w
  4449  0D9B  00F9               	movwf	___fladd@aexp
  4450  0D9C                     l2271:
  4451  0D9C  0879               	movf	___fladd@aexp,w
  4452  0D9D  0678               	xorwf	___fladd@signs,w
  4453  0D9E  1903               	skipnz
  4454  0D9F  2DA1               	goto	u1881
  4455  0DA0  2DA2               	goto	u1880
  4456  0DA1                     u1881:
  4457  0DA1  2DA3               	goto	l2275
  4458  0DA2                     u1880:
  4459  0DA2                     l2273:
  4460  0DA2  1778               	bsf	___fladd@signs,6
  4461  0DA3                     l2275:
  4462  0DA3  0877               	movf	___fladd@a+3,w
  4463  0DA4  00A0               	movwf	??___fladd
  4464  0DA5  0720               	addwf	??___fladd,w
  4465  0DA6  00A1               	movwf	??___fladd+1
  4466  0DA7  0821               	movf	??___fladd+1,w
  4467  0DA8  00F9               	movwf	___fladd@aexp
  4468  0DA9                     l2277:
  4469  0DA9  1FF6               	btfss	___fladd@a+2,7
  4470  0DAA  2DAC               	goto	u1891
  4471  0DAB  2DAD               	goto	u1890
  4472  0DAC                     u1891:
  4473  0DAC  2DAE               	goto	l2281
  4474  0DAD                     u1890:
  4475  0DAD                     l2279:
  4476  0DAD  1479               	bsf	___fladd@aexp,0
  4477  0DAE                     l2281:
  4478  0DAE  0879               	movf	___fladd@aexp,w
  4479  0DAF  1903               	btfsc	3,2
  4480  0DB0  2DB2               	goto	u1901
  4481  0DB1  2DB3               	goto	u1900
  4482  0DB2                     u1901:
  4483  0DB2  2DC3               	goto	l2291
  4484  0DB3                     u1900:
  4485  0DB3                     l2283:
  4486  0DB3  0A79               	incf	___fladd@aexp,w
  4487  0DB4  1D03               	btfss	3,2
  4488  0DB5  2DB7               	goto	u1911
  4489  0DB6  2DB8               	goto	u1910
  4490  0DB7                     u1911:
  4491  0DB7  2DC0               	goto	l2287
  4492  0DB8                     u1910:
  4493  0DB8                     l2285:
  4494  0DB8  3000               	movlw	0
  4495  0DB9  00F7               	movwf	___fladd@a+3
  4496  0DBA  3000               	movlw	0
  4497  0DBB  00F6               	movwf	___fladd@a+2
  4498  0DBC  3000               	movlw	0
  4499  0DBD  00F5               	movwf	___fladd@a+1
  4500  0DBE  3000               	movlw	0
  4501  0DBF  00F4               	movwf	___fladd@a
  4502  0DC0                     l2287:
  4503  0DC0  17F6               	bsf	___fladd@a+2,7
  4504  0DC1                     l2289:
  4505  0DC1  01F7               	clrf	___fladd@a+3
  4506  0DC2  2DCB               	goto	l750
  4507  0DC3                     l2291:
  4508  0DC3  3000               	movlw	0
  4509  0DC4  00F7               	movwf	___fladd@a+3
  4510  0DC5  3000               	movlw	0
  4511  0DC6  00F6               	movwf	___fladd@a+2
  4512  0DC7  3000               	movlw	0
  4513  0DC8  00F5               	movwf	___fladd@a+1
  4514  0DC9  3000               	movlw	0
  4515  0DCA  00F4               	movwf	___fladd@a
  4516  0DCB                     l750:
  4517  0DCB  087A               	movf	___fladd@bexp,w
  4518  0DCC  0279               	subwf	___fladd@aexp,w
  4519  0DCD  1803               	skipnc
  4520  0DCE  2DD0               	goto	u1921
  4521  0DCF  2DD1               	goto	u1920
  4522  0DD0                     u1921:
  4523  0DD0  2E15               	goto	l2327
  4524  0DD1                     u1920:
  4525  0DD1                     l2293:
  4526  0DD1  1F78               	btfss	___fladd@signs,6
  4527  0DD2  2DD4               	goto	u1931
  4528  0DD3  2DD5               	goto	u1930
  4529  0DD4                     u1931:
  4530  0DD4  2DD9               	goto	l2297
  4531  0DD5                     u1930:
  4532  0DD5                     l2295:
  4533  0DD5  3080               	movlw	128
  4534  0DD6  00A0               	movwf	??___fladd
  4535  0DD7  0820               	movf	??___fladd,w
  4536  0DD8  06F8               	xorwf	___fladd@signs,f
  4537  0DD9                     l2297:
  4538  0DD9  087A               	movf	___fladd@bexp,w
  4539  0DDA  00A0               	movwf	??___fladd
  4540  0DDB  0820               	movf	??___fladd,w
  4541  0DDC  00FB               	movwf	___fladd@grs
  4542  0DDD                     l2299:
  4543  0DDD  0879               	movf	___fladd@aexp,w
  4544  0DDE  00A0               	movwf	??___fladd
  4545  0DDF  0820               	movf	??___fladd,w
  4546  0DE0  00FA               	movwf	___fladd@bexp
  4547  0DE1                     l2301:
  4548  0DE1  087B               	movf	___fladd@grs,w
  4549  0DE2  00A0               	movwf	??___fladd
  4550  0DE3  0820               	movf	??___fladd,w
  4551  0DE4  00F9               	movwf	___fladd@aexp
  4552  0DE5                     l2303:
  4553  0DE5  0870               	movf	___fladd@b,w
  4554  0DE6  00A0               	movwf	??___fladd
  4555  0DE7  0820               	movf	??___fladd,w
  4556  0DE8  00FB               	movwf	___fladd@grs
  4557  0DE9                     l2305:
  4558  0DE9  0874               	movf	___fladd@a,w
  4559  0DEA  00A0               	movwf	??___fladd
  4560  0DEB  0820               	movf	??___fladd,w
  4561  0DEC  00F0               	movwf	___fladd@b
  4562  0DED                     l2307:
  4563  0DED  087B               	movf	___fladd@grs,w
  4564  0DEE  00A0               	movwf	??___fladd
  4565  0DEF  0820               	movf	??___fladd,w
  4566  0DF0  00F4               	movwf	___fladd@a
  4567  0DF1                     l2309:
  4568  0DF1  0871               	movf	___fladd@b+1,w
  4569  0DF2  00A0               	movwf	??___fladd
  4570  0DF3  0820               	movf	??___fladd,w
  4571  0DF4  00FB               	movwf	___fladd@grs
  4572  0DF5                     l2311:
  4573  0DF5  0875               	movf	___fladd@a+1,w
  4574  0DF6  00A0               	movwf	??___fladd
  4575  0DF7  0820               	movf	??___fladd,w
  4576  0DF8  00F1               	movwf	___fladd@b+1
  4577  0DF9                     l2313:
  4578  0DF9  087B               	movf	___fladd@grs,w
  4579  0DFA  00A0               	movwf	??___fladd
  4580  0DFB  0820               	movf	??___fladd,w
  4581  0DFC  00F5               	movwf	___fladd@a+1
  4582  0DFD                     l2315:
  4583  0DFD  0872               	movf	___fladd@b+2,w
  4584  0DFE  00A0               	movwf	??___fladd
  4585  0DFF  0820               	movf	??___fladd,w
  4586  0E00  00FB               	movwf	___fladd@grs
  4587  0E01                     l2317:
  4588  0E01  0876               	movf	___fladd@a+2,w
  4589  0E02  00A0               	movwf	??___fladd
  4590  0E03  0820               	movf	??___fladd,w
  4591  0E04  00F2               	movwf	___fladd@b+2
  4592  0E05                     l2319:
  4593  0E05  087B               	movf	___fladd@grs,w
  4594  0E06  00A0               	movwf	??___fladd
  4595  0E07  0820               	movf	??___fladd,w
  4596  0E08  00F6               	movwf	___fladd@a+2
  4597  0E09                     l2321:
  4598  0E09  0873               	movf	___fladd@b+3,w
  4599  0E0A  00A0               	movwf	??___fladd
  4600  0E0B  0820               	movf	??___fladd,w
  4601  0E0C  00FB               	movwf	___fladd@grs
  4602  0E0D                     l2323:
  4603  0E0D  0877               	movf	___fladd@a+3,w
  4604  0E0E  00A0               	movwf	??___fladd
  4605  0E0F  0820               	movf	??___fladd,w
  4606  0E10  00F3               	movwf	___fladd@b+3
  4607  0E11                     l2325:
  4608  0E11  087B               	movf	___fladd@grs,w
  4609  0E12  00A0               	movwf	??___fladd
  4610  0E13  0820               	movf	??___fladd,w
  4611  0E14  00F7               	movwf	___fladd@a+3
  4612  0E15                     l2327:
  4613  0E15  01FB               	clrf	___fladd@grs
  4614  0E16                     l2329:
  4615  0E16  0879               	movf	___fladd@aexp,w
  4616  0E17  00A0               	movwf	??___fladd
  4617  0E18  01A1               	clrf	??___fladd+1
  4618  0E19  0821               	movf	??___fladd+1,w
  4619  0E1A  00A3               	movwf	??___fladd+3
  4620  0E1B  087A               	movf	___fladd@bexp,w
  4621  0E1C  0220               	subwf	??___fladd,w
  4622  0E1D  00A2               	movwf	??___fladd+2
  4623  0E1E  1C03               	skipc
  4624  0E1F  03A3               	decf	??___fladd+3,f
  4625  0E20  0823               	movf	??___fladd+3,w
  4626  0E21  3A80               	xorlw	128
  4627  0E22  00FF               	movwf	btemp+1
  4628  0E23  3080               	movlw	128
  4629  0E24  027F               	subwf	btemp+1,w
  4630  0E25  1D03               	skipz
  4631  0E26  2E29               	goto	u1945
  4632  0E27  301A               	movlw	26
  4633  0E28  0222               	subwf	??___fladd+2,w
  4634  0E29                     u1945:
  4635  0E29  1C03               	skipc
  4636  0E2A  2E2C               	goto	u1941
  4637  0E2B  2E2D               	goto	u1940
  4638  0E2C                     u1941:
  4639  0E2C  2E6E               	goto	l2345
  4640  0E2D                     u1940:
  4641  0E2D                     l2331:
  4642  0E2D  0873               	movf	___fladd@b+3,w
  4643  0E2E  0472               	iorwf	___fladd@b+2,w
  4644  0E2F  0471               	iorwf	___fladd@b+1,w
  4645  0E30  0470               	iorwf	___fladd@b,w
  4646  0E31  1D03               	skipz
  4647  0E32  2E34               	goto	u1951
  4648  0E33  2E36               	goto	u1950
  4649  0E34                     u1951:
  4650  0E34  3001               	movlw	1
  4651  0E35  2E37               	goto	u1960
  4652  0E36                     u1950:
  4653  0E36  3000               	movlw	0
  4654  0E37                     u1960:
  4655  0E37  1283               	bcf	3,5	;RP0=0, select bank0
  4656  0E38  1303               	bcf	3,6	;RP1=0, select bank0
  4657  0E39  00A0               	movwf	??___fladd
  4658  0E3A  0820               	movf	??___fladd,w
  4659  0E3B  00FB               	movwf	___fladd@grs
  4660  0E3C  3000               	movlw	0
  4661  0E3D  00F3               	movwf	___fladd@b+3
  4662  0E3E  3000               	movlw	0
  4663  0E3F  00F2               	movwf	___fladd@b+2
  4664  0E40  3000               	movlw	0
  4665  0E41  00F1               	movwf	___fladd@b+1
  4666  0E42  3000               	movlw	0
  4667  0E43  00F0               	movwf	___fladd@b
  4668  0E44  0879               	movf	___fladd@aexp,w
  4669  0E45  00A0               	movwf	??___fladd
  4670  0E46  0820               	movf	??___fladd,w
  4671  0E47  00FA               	movwf	___fladd@bexp
  4672  0E48  2E74               	goto	l754
  4673  0E49                     l756:
  4674  0E49  1C7B               	btfss	___fladd@grs,0
  4675  0E4A  2E4C               	goto	u1971
  4676  0E4B  2E4D               	goto	u1970
  4677  0E4C                     u1971:
  4678  0E4C  2E58               	goto	l2335
  4679  0E4D                     u1970:
  4680  0E4D                     l2333:
  4681  0E4D  087B               	movf	___fladd@grs,w
  4682  0E4E  1283               	bcf	3,5	;RP0=0, select bank0
  4683  0E4F  1303               	bcf	3,6	;RP1=0, select bank0
  4684  0E50  00A0               	movwf	??___fladd
  4685  0E51  1003               	clrc
  4686  0E52  0C20               	rrf	??___fladd,w
  4687  0E53  3801               	iorlw	1
  4688  0E54  00A1               	movwf	??___fladd+1
  4689  0E55  0821               	movf	??___fladd+1,w
  4690  0E56  00FB               	movwf	___fladd@grs
  4691  0E57  2E5A               	goto	l2337
  4692  0E58                     l2335:
  4693  0E58  1003               	clrc
  4694  0E59  0CFB               	rrf	___fladd@grs,f
  4695  0E5A                     l2337:
  4696  0E5A  1C70               	btfss	___fladd@b,0
  4697  0E5B  2E5D               	goto	u1981
  4698  0E5C  2E5E               	goto	u1980
  4699  0E5D                     u1981:
  4700  0E5D  2E5F               	goto	l2341
  4701  0E5E                     u1980:
  4702  0E5E                     l2339:
  4703  0E5E  17FB               	bsf	___fladd@grs,7
  4704  0E5F                     l2341:
  4705  0E5F  3001               	movlw	1
  4706  0E60  1283               	bcf	3,5	;RP0=0, select bank0
  4707  0E61  1303               	bcf	3,6	;RP1=0, select bank0
  4708  0E62  00A0               	movwf	??___fladd
  4709  0E63                     u1995:
  4710  0E63  0D73               	rlf	___fladd@b+3,w
  4711  0E64  0CF3               	rrf	___fladd@b+3,f
  4712  0E65  0CF2               	rrf	___fladd@b+2,f
  4713  0E66  0CF1               	rrf	___fladd@b+1,f
  4714  0E67  0CF0               	rrf	___fladd@b,f
  4715  0E68  0BA0               	decfsz	??___fladd& (0+127),f
  4716  0E69  2E63               	goto	u1995
  4717  0E6A                     l2343:
  4718  0E6A  3001               	movlw	1
  4719  0E6B  00A0               	movwf	??___fladd
  4720  0E6C  0820               	movf	??___fladd,w
  4721  0E6D  07FA               	addwf	___fladd@bexp,f
  4722  0E6E                     l2345:
  4723  0E6E  0879               	movf	___fladd@aexp,w
  4724  0E6F  027A               	subwf	___fladd@bexp,w
  4725  0E70  1C03               	skipc
  4726  0E71  2E73               	goto	u2001
  4727  0E72  2E74               	goto	u2000
  4728  0E73                     u2001:
  4729  0E73  2E49               	goto	l756
  4730  0E74                     u2000:
  4731  0E74                     l754:
  4732  0E74  1B78               	btfsc	___fladd@signs,6
  4733  0E75  2E77               	goto	u2011
  4734  0E76  2E78               	goto	u2010
  4735  0E77                     u2011:
  4736  0E77  2EC7               	goto	l2371
  4737  0E78                     u2010:
  4738  0E78                     l2347:
  4739  0E78  087A               	movf	___fladd@bexp,w
  4740  0E79  1D03               	btfss	3,2
  4741  0E7A  2E7C               	goto	u2021
  4742  0E7B  2E7D               	goto	u2020
  4743  0E7C                     u2021:
  4744  0E7C  2E86               	goto	l2353
  4745  0E7D                     u2020:
  4746  0E7D                     l2349:
  4747  0E7D  3000               	movlw	0
  4748  0E7E  00F3               	movwf	?___fladd+3
  4749  0E7F  3000               	movlw	0
  4750  0E80  00F2               	movwf	?___fladd+2
  4751  0E81  3000               	movlw	0
  4752  0E82  00F1               	movwf	?___fladd+1
  4753  0E83  3000               	movlw	0
  4754  0E84  00F0               	movwf	?___fladd
  4755  0E85  2FFF               	goto	l763
  4756  0E86                     l2353:
  4757  0E86  0874               	movf	___fladd@a,w
  4758  0E87  07F0               	addwf	___fladd@b,f
  4759  0E88  0875               	movf	___fladd@a+1,w
  4760  0E89  1103               	clrz
  4761  0E8A  1803               	skipnc
  4762  0E8B  3E01               	addlw	1
  4763  0E8C  1903               	skipnz
  4764  0E8D  2E8F               	goto	u2031
  4765  0E8E  07F1               	addwf	___fladd@b+1,f
  4766  0E8F                     u2031:
  4767  0E8F  0876               	movf	___fladd@a+2,w
  4768  0E90  1103               	clrz
  4769  0E91  1803               	skipnc
  4770  0E92  3E01               	addlw	1
  4771  0E93  1903               	skipnz
  4772  0E94  2E96               	goto	u2032
  4773  0E95  07F2               	addwf	___fladd@b+2,f
  4774  0E96                     u2032:
  4775  0E96  0877               	movf	___fladd@a+3,w
  4776  0E97  1103               	clrz
  4777  0E98  1803               	skipnc
  4778  0E99  3E01               	addlw	1
  4779  0E9A  1903               	skipnz
  4780  0E9B  2E9D               	goto	u2033
  4781  0E9C  07F3               	addwf	___fladd@b+3,f
  4782  0E9D                     u2033:
  4783  0E9D                     l2355:
  4784  0E9D  1C73               	btfss	___fladd@b+3,0
  4785  0E9E  2EA0               	goto	u2041
  4786  0E9F  2EA1               	goto	u2040
  4787  0EA0                     u2041:
  4788  0EA0  2F7F               	goto	l2405
  4789  0EA1                     u2040:
  4790  0EA1                     l2357:
  4791  0EA1  1C7B               	btfss	___fladd@grs,0
  4792  0EA2  2EA4               	goto	u2051
  4793  0EA3  2EA5               	goto	u2050
  4794  0EA4                     u2051:
  4795  0EA4  2EB0               	goto	l2361
  4796  0EA5                     u2050:
  4797  0EA5                     l2359:
  4798  0EA5  087B               	movf	___fladd@grs,w
  4799  0EA6  1283               	bcf	3,5	;RP0=0, select bank0
  4800  0EA7  1303               	bcf	3,6	;RP1=0, select bank0
  4801  0EA8  00A0               	movwf	??___fladd
  4802  0EA9  1003               	clrc
  4803  0EAA  0C20               	rrf	??___fladd,w
  4804  0EAB  3801               	iorlw	1
  4805  0EAC  00A1               	movwf	??___fladd+1
  4806  0EAD  0821               	movf	??___fladd+1,w
  4807  0EAE  00FB               	movwf	___fladd@grs
  4808  0EAF  2EB2               	goto	l2363
  4809  0EB0                     l2361:
  4810  0EB0  1003               	clrc
  4811  0EB1  0CFB               	rrf	___fladd@grs,f
  4812  0EB2                     l2363:
  4813  0EB2  1C70               	btfss	___fladd@b,0
  4814  0EB3  2EB5               	goto	u2061
  4815  0EB4  2EB6               	goto	u2060
  4816  0EB5                     u2061:
  4817  0EB5  2EB7               	goto	l2367
  4818  0EB6                     u2060:
  4819  0EB6                     l2365:
  4820  0EB6  17FB               	bsf	___fladd@grs,7
  4821  0EB7                     l2367:
  4822  0EB7  3001               	movlw	1
  4823  0EB8  1283               	bcf	3,5	;RP0=0, select bank0
  4824  0EB9  1303               	bcf	3,6	;RP1=0, select bank0
  4825  0EBA  00A0               	movwf	??___fladd
  4826  0EBB                     u2075:
  4827  0EBB  0D73               	rlf	___fladd@b+3,w
  4828  0EBC  0CF3               	rrf	___fladd@b+3,f
  4829  0EBD  0CF2               	rrf	___fladd@b+2,f
  4830  0EBE  0CF1               	rrf	___fladd@b+1,f
  4831  0EBF  0CF0               	rrf	___fladd@b,f
  4832  0EC0  0BA0               	decfsz	??___fladd& (0+127),f
  4833  0EC1  2EBB               	goto	u2075
  4834  0EC2                     l2369:
  4835  0EC2  3001               	movlw	1
  4836  0EC3  00A0               	movwf	??___fladd
  4837  0EC4  0820               	movf	??___fladd,w
  4838  0EC5  07FA               	addwf	___fladd@bexp,f
  4839  0EC6  2F7F               	goto	l2405
  4840  0EC7                     l2371:
  4841  0EC7  0873               	movf	___fladd@b+3,w
  4842  0EC8  3A80               	xorlw	128
  4843  0EC9  00FF               	movwf	btemp+1
  4844  0ECA  0877               	movf	___fladd@a+3,w
  4845  0ECB  3A80               	xorlw	128
  4846  0ECC  027F               	subwf	btemp+1,w
  4847  0ECD  1D03               	skipz
  4848  0ECE  2ED9               	goto	u2083
  4849  0ECF  0876               	movf	___fladd@a+2,w
  4850  0ED0  0272               	subwf	___fladd@b+2,w
  4851  0ED1  1D03               	skipz
  4852  0ED2  2ED9               	goto	u2083
  4853  0ED3  0875               	movf	___fladd@a+1,w
  4854  0ED4  0271               	subwf	___fladd@b+1,w
  4855  0ED5  1D03               	skipz
  4856  0ED6  2ED9               	goto	u2083
  4857  0ED7  0874               	movf	___fladd@a,w
  4858  0ED8  0270               	subwf	___fladd@b,w
  4859  0ED9                     u2083:
  4860  0ED9  1803               	skipnc
  4861  0EDA  2EDC               	goto	u2081
  4862  0EDB  2EDD               	goto	u2080
  4863  0EDC                     u2081:
  4864  0EDC  2F37               	goto	l2381
  4865  0EDD                     u2080:
  4866  0EDD                     l2373:
  4867  0EDD  30FF               	movlw	255
  4868  0EDE  1283               	bcf	3,5	;RP0=0, select bank0
  4869  0EDF  1303               	bcf	3,6	;RP1=0, select bank0
  4870  0EE0  00A0               	movwf	??___fladd
  4871  0EE1  30FF               	movlw	255
  4872  0EE2  00A1               	movwf	??___fladd+1
  4873  0EE3  30FF               	movlw	255
  4874  0EE4  00A2               	movwf	??___fladd+2
  4875  0EE5  30FF               	movlw	255
  4876  0EE6  00A3               	movwf	??___fladd+3
  4877  0EE7  0874               	movf	___fladd@a,w
  4878  0EE8  00A4               	movwf	??___fladd+4
  4879  0EE9  0875               	movf	___fladd@a+1,w
  4880  0EEA  00A5               	movwf	??___fladd+5
  4881  0EEB  0876               	movf	___fladd@a+2,w
  4882  0EEC  00A6               	movwf	??___fladd+6
  4883  0EED  0877               	movf	___fladd@a+3,w
  4884  0EEE  00A7               	movwf	??___fladd+7
  4885  0EEF  0870               	movf	___fladd@b,w
  4886  0EF0  02A4               	subwf	??___fladd+4,f
  4887  0EF1  0871               	movf	___fladd@b+1,w
  4888  0EF2  1C03               	skipc
  4889  0EF3  0F71               	incfsz	___fladd@b+1,w
  4890  0EF4  2EF6               	goto	u2091
  4891  0EF5  2EF7               	goto	u2092
  4892  0EF6                     u2091:
  4893  0EF6  02A5               	subwf	??___fladd+5,f
  4894  0EF7                     u2092:
  4895  0EF7  0872               	movf	___fladd@b+2,w
  4896  0EF8  1C03               	skipc
  4897  0EF9  0F72               	incfsz	___fladd@b+2,w
  4898  0EFA  2EFC               	goto	u2093
  4899  0EFB  2EFD               	goto	u2094
  4900  0EFC                     u2093:
  4901  0EFC  02A6               	subwf	??___fladd+6,f
  4902  0EFD                     u2094:
  4903  0EFD  0873               	movf	___fladd@b+3,w
  4904  0EFE  1C03               	skipc
  4905  0EFF  0F73               	incfsz	___fladd@b+3,w
  4906  0F00  2F02               	goto	u2095
  4907  0F01  2F03               	goto	u2096
  4908  0F02                     u2095:
  4909  0F02  02A7               	subwf	??___fladd+7,f
  4910  0F03                     u2096:
  4911  0F03  0824               	movf	??___fladd+4,w
  4912  0F04  07A0               	addwf	??___fladd,f
  4913  0F05  0825               	movf	??___fladd+5,w
  4914  0F06  1803               	skipnc
  4915  0F07  0F25               	incfsz	??___fladd+5,w
  4916  0F08  2F0A               	goto	u2100
  4917  0F09  2F0B               	goto	u2101
  4918  0F0A                     u2100:
  4919  0F0A  07A1               	addwf	??___fladd+1,f
  4920  0F0B                     u2101:
  4921  0F0B  0826               	movf	??___fladd+6,w
  4922  0F0C  1803               	skipnc
  4923  0F0D  0F26               	incfsz	??___fladd+6,w
  4924  0F0E  2F10               	goto	u2102
  4925  0F0F  2F11               	goto	u2103
  4926  0F10                     u2102:
  4927  0F10  07A2               	addwf	??___fladd+2,f
  4928  0F11                     u2103:
  4929  0F11  0827               	movf	??___fladd+7,w
  4930  0F12  1803               	skipnc
  4931  0F13  0A27               	incf	??___fladd+7,w
  4932  0F14  07A3               	addwf	??___fladd+3,f
  4933  0F15  0823               	movf	??___fladd+3,w
  4934  0F16  00F3               	movwf	___fladd@b+3
  4935  0F17  0822               	movf	??___fladd+2,w
  4936  0F18  00F2               	movwf	___fladd@b+2
  4937  0F19  0821               	movf	??___fladd+1,w
  4938  0F1A  00F1               	movwf	___fladd@b+1
  4939  0F1B  0820               	movf	??___fladd,w
  4940  0F1C  00F0               	movwf	___fladd@b
  4941  0F1D                     l2375:
  4942  0F1D  3080               	movlw	128
  4943  0F1E  00A0               	movwf	??___fladd
  4944  0F1F  0820               	movf	??___fladd,w
  4945  0F20  06F8               	xorwf	___fladd@signs,f
  4946  0F21  09FB               	comf	___fladd@grs,f
  4947  0F22  0AFB               	incf	___fladd@grs,f
  4948  0F23                     l2377:
  4949  0F23  087B               	movf	___fladd@grs,w
  4950  0F24  1D03               	btfss	3,2
  4951  0F25  2F27               	goto	u2111
  4952  0F26  2F28               	goto	u2110
  4953  0F27                     u2111:
  4954  0F27  2F45               	goto	l771
  4955  0F28                     u2110:
  4956  0F28                     l2379:
  4957  0F28  3001               	movlw	1
  4958  0F29  07F0               	addwf	___fladd@b,f
  4959  0F2A  3000               	movlw	0
  4960  0F2B  1803               	skipnc
  4961  0F2C  3001               	movlw	1
  4962  0F2D  07F1               	addwf	___fladd@b+1,f
  4963  0F2E  3000               	movlw	0
  4964  0F2F  1803               	skipnc
  4965  0F30  3001               	movlw	1
  4966  0F31  07F2               	addwf	___fladd@b+2,f
  4967  0F32  3000               	movlw	0
  4968  0F33  1803               	skipnc
  4969  0F34  3001               	movlw	1
  4970  0F35  07F3               	addwf	___fladd@b+3,f
  4971  0F36  2F45               	goto	l771
  4972  0F37                     l2381:
  4973  0F37  0874               	movf	___fladd@a,w
  4974  0F38  02F0               	subwf	___fladd@b,f
  4975  0F39  0875               	movf	___fladd@a+1,w
  4976  0F3A  1C03               	skipc
  4977  0F3B  0F75               	incfsz	___fladd@a+1,w
  4978  0F3C  02F1               	subwf	___fladd@b+1,f
  4979  0F3D  0876               	movf	___fladd@a+2,w
  4980  0F3E  1C03               	skipc
  4981  0F3F  0F76               	incfsz	___fladd@a+2,w
  4982  0F40  02F2               	subwf	___fladd@b+2,f
  4983  0F41  0877               	movf	___fladd@a+3,w
  4984  0F42  1C03               	skipc
  4985  0F43  0F77               	incfsz	___fladd@a+3,w
  4986  0F44  02F3               	subwf	___fladd@b+3,f
  4987  0F45                     l771:
  4988  0F45  0873               	movf	___fladd@b+3,w
  4989  0F46  0472               	iorwf	___fladd@b+2,w
  4990  0F47  0471               	iorwf	___fladd@b+1,w
  4991  0F48  0470               	iorwf	___fladd@b,w
  4992  0F49  1D03               	skipz
  4993  0F4A  2F4C               	goto	u2121
  4994  0F4B  2F4D               	goto	u2120
  4995  0F4C                     u2121:
  4996  0F4C  2F7B               	goto	l2403
  4997  0F4D                     u2120:
  4998  0F4D                     l2383:
  4999  0F4D  087B               	movf	___fladd@grs,w
  5000  0F4E  1D03               	btfss	3,2
  5001  0F4F  2F51               	goto	u2131
  5002  0F50  2F52               	goto	u2130
  5003  0F51                     u2131:
  5004  0F51  2F7B               	goto	l2403
  5005  0F52                     u2130:
  5006  0F52                     l2385:
  5007  0F52  3000               	movlw	0
  5008  0F53  00F3               	movwf	?___fladd+3
  5009  0F54  3000               	movlw	0
  5010  0F55  00F2               	movwf	?___fladd+2
  5011  0F56  3000               	movlw	0
  5012  0F57  00F1               	movwf	?___fladd+1
  5013  0F58  3000               	movlw	0
  5014  0F59  00F0               	movwf	?___fladd
  5015  0F5A  2FFF               	goto	l763
  5016  0F5B                     l2389:
  5017  0F5B  3001               	movlw	1
  5018  0F5C  1283               	bcf	3,5	;RP0=0, select bank0
  5019  0F5D  1303               	bcf	3,6	;RP1=0, select bank0
  5020  0F5E  00A0               	movwf	??___fladd
  5021  0F5F                     u2145:
  5022  0F5F  1003               	clrc
  5023  0F60  0DF0               	rlf	___fladd@b,f
  5024  0F61  0DF1               	rlf	___fladd@b+1,f
  5025  0F62  0DF2               	rlf	___fladd@b+2,f
  5026  0F63  0DF3               	rlf	___fladd@b+3,f
  5027  0F64  0BA0               	decfsz	??___fladd,f
  5028  0F65  2F5F               	goto	u2145
  5029  0F66                     l2391:
  5030  0F66  1FFB               	btfss	___fladd@grs,7
  5031  0F67  2F69               	goto	u2151
  5032  0F68  2F6A               	goto	u2150
  5033  0F69                     u2151:
  5034  0F69  2F6B               	goto	l775
  5035  0F6A                     u2150:
  5036  0F6A                     l2393:
  5037  0F6A  1470               	bsf	___fladd@b,0
  5038  0F6B                     l775:
  5039  0F6B  1C7B               	btfss	___fladd@grs,0
  5040  0F6C  2F6E               	goto	u2161
  5041  0F6D  2F6F               	goto	u2160
  5042  0F6E                     u2161:
  5043  0F6E  2F72               	goto	l2397
  5044  0F6F                     u2160:
  5045  0F6F                     l2395:
  5046  0F6F  1403               	setc
  5047  0F70  0DFB               	rlf	___fladd@grs,f
  5048  0F71  2F74               	goto	l2399
  5049  0F72                     l2397:
  5050  0F72  1003               	clrc
  5051  0F73  0DFB               	rlf	___fladd@grs,f
  5052  0F74                     l2399:
  5053  0F74  087A               	movf	___fladd@bexp,w
  5054  0F75  1903               	btfsc	3,2
  5055  0F76  2F78               	goto	u2171
  5056  0F77  2F79               	goto	u2170
  5057  0F78                     u2171:
  5058  0F78  2F7B               	goto	l2403
  5059  0F79                     u2170:
  5060  0F79                     l2401:
  5061  0F79  3001               	movlw	1
  5062  0F7A  02FA               	subwf	___fladd@bexp,f
  5063  0F7B                     l2403:
  5064  0F7B  1FF2               	btfss	___fladd@b+2,7
  5065  0F7C  2F7E               	goto	u2181
  5066  0F7D  2F7F               	goto	u2180
  5067  0F7E                     u2181:
  5068  0F7E  2F5B               	goto	l2389
  5069  0F7F                     u2180:
  5070  0F7F                     l2405:
  5071  0F7F  01F9               	clrf	___fladd@aexp
  5072  0F80                     l2407:
  5073  0F80  1FFB               	btfss	___fladd@grs,7
  5074  0F81  2F83               	goto	u2191
  5075  0F82  2F84               	goto	u2190
  5076  0F83                     u2191:
  5077  0F83  2F92               	goto	l2415
  5078  0F84                     u2190:
  5079  0F84                     l2409:
  5080  0F84  087B               	movf	___fladd@grs,w
  5081  0F85  397F               	andlw	127
  5082  0F86  1903               	btfsc	3,2
  5083  0F87  2F89               	goto	u2201
  5084  0F88  2F8A               	goto	u2200
  5085  0F89                     u2201:
  5086  0F89  2F8D               	goto	l781
  5087  0F8A                     u2200:
  5088  0F8A                     l2411:
  5089  0F8A  01F9               	clrf	___fladd@aexp
  5090  0F8B  0AF9               	incf	___fladd@aexp,f
  5091  0F8C  2F92               	goto	l2415
  5092  0F8D                     l781:
  5093  0F8D  1C70               	btfss	___fladd@b,0
  5094  0F8E  2F90               	goto	u2211
  5095  0F8F  2F91               	goto	u2210
  5096  0F90                     u2211:
  5097  0F90  2F92               	goto	l2415
  5098  0F91                     u2210:
  5099  0F91  2F8A               	goto	l2411
  5100  0F92                     l2415:
  5101  0F92  0879               	movf	___fladd@aexp,w
  5102  0F93  1903               	btfsc	3,2
  5103  0F94  2F96               	goto	u2221
  5104  0F95  2F97               	goto	u2220
  5105  0F96                     u2221:
  5106  0F96  2FCD               	goto	l784
  5107  0F97                     u2220:
  5108  0F97                     l2417:
  5109  0F97  3001               	movlw	1
  5110  0F98  07F0               	addwf	___fladd@b,f
  5111  0F99  3000               	movlw	0
  5112  0F9A  1803               	skipnc
  5113  0F9B  3001               	movlw	1
  5114  0F9C  07F1               	addwf	___fladd@b+1,f
  5115  0F9D  3000               	movlw	0
  5116  0F9E  1803               	skipnc
  5117  0F9F  3001               	movlw	1
  5118  0FA0  07F2               	addwf	___fladd@b+2,f
  5119  0FA1  3000               	movlw	0
  5120  0FA2  1803               	skipnc
  5121  0FA3  3001               	movlw	1
  5122  0FA4  07F3               	addwf	___fladd@b+3,f
  5123  0FA5                     l2419:
  5124  0FA5  1C73               	btfss	___fladd@b+3,0
  5125  0FA6  2FA8               	goto	u2231
  5126  0FA7  2FA9               	goto	u2230
  5127  0FA8                     u2231:
  5128  0FA8  2FCD               	goto	l784
  5129  0FA9                     u2230:
  5130  0FA9                     l2421:
  5131  0FA9  0870               	movf	___fladd@b,w
  5132  0FAA  1283               	bcf	3,5	;RP0=0, select bank0
  5133  0FAB  1303               	bcf	3,6	;RP1=0, select bank0
  5134  0FAC  00A0               	movwf	??___fladd
  5135  0FAD  0871               	movf	___fladd@b+1,w
  5136  0FAE  00A1               	movwf	??___fladd+1
  5137  0FAF  0872               	movf	___fladd@b+2,w
  5138  0FB0  00A2               	movwf	??___fladd+2
  5139  0FB1  0873               	movf	___fladd@b+3,w
  5140  0FB2  00A3               	movwf	??___fladd+3
  5141  0FB3  3001               	movlw	1
  5142  0FB4  00A4               	movwf	??___fladd+4
  5143  0FB5                     u2245:
  5144  0FB5  0D23               	rlf	??___fladd+3,w
  5145  0FB6  0CA3               	rrf	??___fladd+3,f
  5146  0FB7  0CA2               	rrf	??___fladd+2,f
  5147  0FB8  0CA1               	rrf	??___fladd+1,f
  5148  0FB9  0CA0               	rrf	??___fladd,f
  5149  0FBA                     u2240:
  5150  0FBA  0BA4               	decfsz	??___fladd+4,f
  5151  0FBB  2FB5               	goto	u2245
  5152  0FBC  0823               	movf	??___fladd+3,w
  5153  0FBD  00F3               	movwf	___fladd@b+3
  5154  0FBE  0822               	movf	??___fladd+2,w
  5155  0FBF  00F2               	movwf	___fladd@b+2
  5156  0FC0  0821               	movf	??___fladd+1,w
  5157  0FC1  00F1               	movwf	___fladd@b+1
  5158  0FC2  0820               	movf	??___fladd,w
  5159  0FC3  00F0               	movwf	___fladd@b
  5160  0FC4  0A7A               	incf	___fladd@bexp,w
  5161  0FC5  1903               	btfsc	3,2
  5162  0FC6  2FC8               	goto	u2251
  5163  0FC7  2FC9               	goto	u2250
  5164  0FC8                     u2251:
  5165  0FC8  2FCD               	goto	l784
  5166  0FC9                     u2250:
  5167  0FC9                     l2423:
  5168  0FC9  3001               	movlw	1
  5169  0FCA  00A0               	movwf	??___fladd
  5170  0FCB  0820               	movf	??___fladd,w
  5171  0FCC  07FA               	addwf	___fladd@bexp,f
  5172  0FCD                     l784:
  5173  0FCD  0A7A               	incf	___fladd@bexp,w
  5174  0FCE  1903               	btfsc	3,2
  5175  0FCF  2FD1               	goto	u2261
  5176  0FD0  2FD2               	goto	u2260
  5177  0FD1                     u2261:
  5178  0FD1  2FD7               	goto	l2427
  5179  0FD2                     u2260:
  5180  0FD2                     l2425:
  5181  0FD2  087A               	movf	___fladd@bexp,w
  5182  0FD3  1D03               	btfss	3,2
  5183  0FD4  2FD6               	goto	u2271
  5184  0FD5  2FD7               	goto	u2270
  5185  0FD6                     u2271:
  5186  0FD6  2FE5               	goto	l2433
  5187  0FD7                     u2270:
  5188  0FD7                     l2427:
  5189  0FD7  3000               	movlw	0
  5190  0FD8  00F3               	movwf	___fladd@b+3
  5191  0FD9  3000               	movlw	0
  5192  0FDA  00F2               	movwf	___fladd@b+2
  5193  0FDB  3000               	movlw	0
  5194  0FDC  00F1               	movwf	___fladd@b+1
  5195  0FDD  3000               	movlw	0
  5196  0FDE  00F0               	movwf	___fladd@b
  5197  0FDF                     l2429:
  5198  0FDF  087A               	movf	___fladd@bexp,w
  5199  0FE0  1D03               	btfss	3,2
  5200  0FE1  2FE3               	goto	u2281
  5201  0FE2  2FE4               	goto	u2280
  5202  0FE3                     u2281:
  5203  0FE3  2FE5               	goto	l2433
  5204  0FE4                     u2280:
  5205  0FE4                     l2431:
  5206  0FE4  01F8               	clrf	___fladd@signs
  5207  0FE5                     l2433:
  5208  0FE5  1C7A               	btfss	___fladd@bexp,0
  5209  0FE6  2FE8               	goto	u2291
  5210  0FE7  2FE9               	goto	u2290
  5211  0FE8                     u2291:
  5212  0FE8  2FEB               	goto	l2437
  5213  0FE9                     u2290:
  5214  0FE9                     l2435:
  5215  0FE9  17F2               	bsf	___fladd@b+2,7
  5216  0FEA  2FF1               	goto	l792
  5217  0FEB                     l2437:
  5218  0FEB  307F               	movlw	127
  5219  0FEC  1283               	bcf	3,5	;RP0=0, select bank0
  5220  0FED  1303               	bcf	3,6	;RP1=0, select bank0
  5221  0FEE  00A0               	movwf	??___fladd
  5222  0FEF  0820               	movf	??___fladd,w
  5223  0FF0  05F2               	andwf	___fladd@b+2,f
  5224  0FF1                     l792:
  5225  0FF1  087A               	movf	___fladd@bexp,w
  5226  0FF2  1283               	bcf	3,5	;RP0=0, select bank0
  5227  0FF3  1303               	bcf	3,6	;RP1=0, select bank0
  5228  0FF4  00A0               	movwf	??___fladd
  5229  0FF5  1003               	clrc
  5230  0FF6  0C20               	rrf	??___fladd,w
  5231  0FF7  00A1               	movwf	??___fladd+1
  5232  0FF8  0821               	movf	??___fladd+1,w
  5233  0FF9  00F3               	movwf	___fladd@b+3
  5234  0FFA                     l2439:
  5235  0FFA  1FF8               	btfss	___fladd@signs,7
  5236  0FFB  2FFD               	goto	u2301
  5237  0FFC  2FFE               	goto	u2300
  5238  0FFD                     u2301:
  5239  0FFD  2FFF               	goto	l793
  5240  0FFE                     u2300:
  5241  0FFE                     l2441:
  5242  0FFE  17F3               	bsf	___fladd@b+3,7
  5243  0FFF                     l793:
  5244  0FFF                     l763:
  5245  0FFF  0008               	return
  5246  1000                     __end_of___fladd:
  5247                           
  5248                           	psect	text16
  5249  045D                     __ptext16:	
  5250 ;; *************** function ___flmul *****************
  5251 ;; Defined at:
  5252 ;;		line 8 in file "C:\Program Files\Microchip\xc8\v2.32\pic\sources\c90\common\sprcmul.c"
  5253 ;; Parameters:    Size  Location     Type
  5254 ;;  b               4    0[BANK0 ] unsigned char 
  5255 ;;  a               4    4[BANK0 ] unsigned char 
  5256 ;; Auto vars:     Size  Location     Type
  5257 ;;  prod            4   15[BANK0 ] struct .
  5258 ;;  grs             4    9[BANK0 ] unsigned long 
  5259 ;;  temp            2   19[BANK0 ] struct .
  5260 ;;  bexp            1   14[BANK0 ] unsigned char 
  5261 ;;  aexp            1   13[BANK0 ] unsigned char 
  5262 ;;  sign            1    8[BANK0 ] unsigned char 
  5263 ;; Return value:  Size  Location     Type
  5264 ;;                  4    0[BANK0 ] unsigned char 
  5265 ;; Registers used:
  5266 ;;		wreg, status,2, status,0, btemp+1, pclath, cstack
  5267 ;; Tracked objects:
  5268 ;;		On entry : 0/0
  5269 ;;		On exit  : 0/0
  5270 ;;		Unchanged: 0/0
  5271 ;; Data sizes:     COMMON   BANK0   BANK1   BANK3   BANK2
  5272 ;;      Params:         0       8       0       0       0
  5273 ;;      Locals:         0      13       0       0       0
  5274 ;;      Temps:          5       0       0       0       0
  5275 ;;      Totals:         5      21       0       0       0
  5276 ;;Total ram usage:       26 bytes
  5277 ;; Hardware stack levels used: 1
  5278 ;; Hardware stack levels required when called: 1
  5279 ;; This function calls:
  5280 ;;		__Umul8_16
  5281 ;; This function is called by:
  5282 ;;		_liga_buzzer
  5283 ;; This function uses a non-reentrant model
  5284 ;;
  5285                           
  5286                           
  5287                           ;psect for function ___flmul
  5288  045D                     ___flmul:
  5289  045D                     l2495:	
  5290                           ;incstack = 0
  5291                           ; Regs used in ___flmul: [wreg+status,2+status,0+btemp+1+pclath+cstack]
  5292                           
  5293  045D  1283               	bcf	3,5	;RP0=0, select bank0
  5294  045E  1303               	bcf	3,6	;RP1=0, select bank0
  5295  045F  0823               	movf	___flmul@b+3,w
  5296  0460  3980               	andlw	128
  5297  0461  00F9               	movwf	??___flmul
  5298  0462  0879               	movf	??___flmul,w
  5299  0463  00A8               	movwf	___flmul@sign
  5300  0464                     l2497:
  5301  0464  0823               	movf	___flmul@b+3,w
  5302  0465  00F9               	movwf	??___flmul
  5303  0466  0779               	addwf	??___flmul,w
  5304  0467  00FA               	movwf	??___flmul+1
  5305  0468  087A               	movf	??___flmul+1,w
  5306  0469  00AE               	movwf	___flmul@bexp
  5307  046A                     l2499:
  5308  046A  1FA2               	btfss	___flmul@b+2,7
  5309  046B  2C6D               	goto	u2411
  5310  046C  2C6E               	goto	u2410
  5311  046D                     u2411:
  5312  046D  2C6F               	goto	l2503
  5313  046E                     u2410:
  5314  046E                     l2501:
  5315  046E  142E               	bsf	___flmul@bexp,0
  5316  046F                     l2503:
  5317  046F  082E               	movf	___flmul@bexp,w
  5318  0470  1903               	btfsc	3,2
  5319  0471  2C73               	goto	u2421
  5320  0472  2C74               	goto	u2420
  5321  0473                     u2421:
  5322  0473  2C83               	goto	l2511
  5323  0474                     u2420:
  5324  0474                     l2505:
  5325  0474  0A2E               	incf	___flmul@bexp,w
  5326  0475  1D03               	btfss	3,2
  5327  0476  2C78               	goto	u2431
  5328  0477  2C79               	goto	u2430
  5329  0478                     u2431:
  5330  0478  2C81               	goto	l2509
  5331  0479                     u2430:
  5332  0479                     l2507:
  5333  0479  3000               	movlw	0
  5334  047A  00A3               	movwf	___flmul@b+3
  5335  047B  3000               	movlw	0
  5336  047C  00A2               	movwf	___flmul@b+2
  5337  047D  3000               	movlw	0
  5338  047E  00A1               	movwf	___flmul@b+1
  5339  047F  3000               	movlw	0
  5340  0480  00A0               	movwf	___flmul@b
  5341  0481                     l2509:
  5342  0481  17A2               	bsf	___flmul@b+2,7
  5343  0482  2C8B               	goto	l2513
  5344  0483                     l2511:
  5345  0483  3000               	movlw	0
  5346  0484  00A3               	movwf	___flmul@b+3
  5347  0485  3000               	movlw	0
  5348  0486  00A2               	movwf	___flmul@b+2
  5349  0487  3000               	movlw	0
  5350  0488  00A1               	movwf	___flmul@b+1
  5351  0489  3000               	movlw	0
  5352  048A  00A0               	movwf	___flmul@b
  5353  048B                     l2513:
  5354  048B  0827               	movf	___flmul@a+3,w
  5355  048C  3980               	andlw	128
  5356  048D  00F9               	movwf	??___flmul
  5357  048E  0879               	movf	??___flmul,w
  5358  048F  06A8               	xorwf	___flmul@sign,f
  5359  0490                     l2515:
  5360  0490  0827               	movf	___flmul@a+3,w
  5361  0491  00F9               	movwf	??___flmul
  5362  0492  0779               	addwf	??___flmul,w
  5363  0493  00FA               	movwf	??___flmul+1
  5364  0494  087A               	movf	??___flmul+1,w
  5365  0495  00AD               	movwf	___flmul@aexp
  5366  0496                     l2517:
  5367  0496  1FA6               	btfss	___flmul@a+2,7
  5368  0497  2C99               	goto	u2441
  5369  0498  2C9A               	goto	u2440
  5370  0499                     u2441:
  5371  0499  2C9B               	goto	l2521
  5372  049A                     u2440:
  5373  049A                     l2519:
  5374  049A  142D               	bsf	___flmul@aexp,0
  5375  049B                     l2521:
  5376  049B  082D               	movf	___flmul@aexp,w
  5377  049C  1903               	btfsc	3,2
  5378  049D  2C9F               	goto	u2451
  5379  049E  2CA0               	goto	u2450
  5380  049F                     u2451:
  5381  049F  2CAF               	goto	l2529
  5382  04A0                     u2450:
  5383  04A0                     l2523:
  5384  04A0  0A2D               	incf	___flmul@aexp,w
  5385  04A1  1D03               	btfss	3,2
  5386  04A2  2CA4               	goto	u2461
  5387  04A3  2CA5               	goto	u2460
  5388  04A4                     u2461:
  5389  04A4  2CAD               	goto	l2527
  5390  04A5                     u2460:
  5391  04A5                     l2525:
  5392  04A5  3000               	movlw	0
  5393  04A6  00A7               	movwf	___flmul@a+3
  5394  04A7  3000               	movlw	0
  5395  04A8  00A6               	movwf	___flmul@a+2
  5396  04A9  3000               	movlw	0
  5397  04AA  00A5               	movwf	___flmul@a+1
  5398  04AB  3000               	movlw	0
  5399  04AC  00A4               	movwf	___flmul@a
  5400  04AD                     l2527:
  5401  04AD  17A6               	bsf	___flmul@a+2,7
  5402  04AE  2CB7               	goto	l2531
  5403  04AF                     l2529:
  5404  04AF  3000               	movlw	0
  5405  04B0  00A7               	movwf	___flmul@a+3
  5406  04B1  3000               	movlw	0
  5407  04B2  00A6               	movwf	___flmul@a+2
  5408  04B3  3000               	movlw	0
  5409  04B4  00A5               	movwf	___flmul@a+1
  5410  04B5  3000               	movlw	0
  5411  04B6  00A4               	movwf	___flmul@a
  5412  04B7                     l2531:
  5413  04B7  082D               	movf	___flmul@aexp,w
  5414  04B8  1903               	btfsc	3,2
  5415  04B9  2CBB               	goto	u2471
  5416  04BA  2CBC               	goto	u2470
  5417  04BB                     u2471:
  5418  04BB  2CC1               	goto	l2535
  5419  04BC                     u2470:
  5420  04BC                     l2533:
  5421  04BC  082E               	movf	___flmul@bexp,w
  5422  04BD  1D03               	btfss	3,2
  5423  04BE  2CC0               	goto	u2481
  5424  04BF  2CC1               	goto	u2480
  5425  04C0                     u2481:
  5426  04C0  2CCA               	goto	l2539
  5427  04C1                     u2480:
  5428  04C1                     l2535:
  5429  04C1  3000               	movlw	0
  5430  04C2  00A3               	movwf	?___flmul+3
  5431  04C3  3000               	movlw	0
  5432  04C4  00A2               	movwf	?___flmul+2
  5433  04C5  3000               	movlw	0
  5434  04C6  00A1               	movwf	?___flmul+1
  5435  04C7  3000               	movlw	0
  5436  04C8  00A0               	movwf	?___flmul
  5437  04C9  2FBD               	goto	l846
  5438  04CA                     l2539:
  5439  04CA  0820               	movf	___flmul@b,w
  5440  04CB  00F9               	movwf	??___flmul
  5441  04CC  0879               	movf	??___flmul,w
  5442  04CD  00F0               	movwf	__Umul8_16@multiplicand
  5443  04CE  0826               	movf	___flmul@a+2,w
  5444  04CF  120A  158A  2004  120A  118A  	fcall	__Umul8_16
  5445  04D4  0871               	movf	?__Umul8_16+1,w
  5446  04D5  1283               	bcf	3,5	;RP0=0, select bank0
  5447  04D6  1303               	bcf	3,6	;RP1=0, select bank0
  5448  04D7  00B4               	movwf	___flmul@temp+1
  5449  04D8  0870               	movf	?__Umul8_16,w
  5450  04D9  00B3               	movwf	___flmul@temp
  5451  04DA                     l2541:
  5452  04DA  0833               	movf	___flmul@temp,w
  5453  04DB  00F9               	movwf	??___flmul
  5454  04DC  01FA               	clrf	??___flmul+1
  5455  04DD  01FB               	clrf	??___flmul+2
  5456  04DE  01FC               	clrf	??___flmul+3
  5457  04DF  087C               	movf	??___flmul+3,w
  5458  04E0  00AC               	movwf	___flmul@grs+3
  5459  04E1  087B               	movf	??___flmul+2,w
  5460  04E2  00AB               	movwf	___flmul@grs+2
  5461  04E3  087A               	movf	??___flmul+1,w
  5462  04E4  00AA               	movwf	___flmul@grs+1
  5463  04E5  0879               	movf	??___flmul,w
  5464  04E6  00A9               	movwf	___flmul@grs
  5465  04E7                     l2543:
  5466  04E7  0834               	movf	___flmul@temp+1,w
  5467  04E8  00F9               	movwf	??___flmul
  5468  04E9  01FA               	clrf	??___flmul+1
  5469  04EA  01FB               	clrf	??___flmul+2
  5470  04EB  01FC               	clrf	??___flmul+3
  5471  04EC  087C               	movf	??___flmul+3,w
  5472  04ED  00B2               	movwf	___flmul@prod+3
  5473  04EE  087B               	movf	??___flmul+2,w
  5474  04EF  00B1               	movwf	___flmul@prod+2
  5475  04F0  087A               	movf	??___flmul+1,w
  5476  04F1  00B0               	movwf	___flmul@prod+1
  5477  04F2  0879               	movf	??___flmul,w
  5478  04F3  00AF               	movwf	___flmul@prod
  5479  04F4  0821               	movf	___flmul@b+1,w
  5480  04F5  00F9               	movwf	??___flmul
  5481  04F6  0879               	movf	??___flmul,w
  5482  04F7  00F0               	movwf	__Umul8_16@multiplicand
  5483  04F8  0825               	movf	___flmul@a+1,w
  5484  04F9  120A  158A  2004  120A  118A  	fcall	__Umul8_16
  5485  04FE  0871               	movf	?__Umul8_16+1,w
  5486  04FF  1283               	bcf	3,5	;RP0=0, select bank0
  5487  0500  1303               	bcf	3,6	;RP1=0, select bank0
  5488  0501  00B4               	movwf	___flmul@temp+1
  5489  0502  0870               	movf	?__Umul8_16,w
  5490  0503  00B3               	movwf	___flmul@temp
  5491  0504                     l2545:
  5492  0504  0833               	movf	___flmul@temp,w
  5493  0505  00F9               	movwf	??___flmul
  5494  0506  01FA               	clrf	??___flmul+1
  5495  0507  01FB               	clrf	??___flmul+2
  5496  0508  01FC               	clrf	??___flmul+3
  5497  0509  0879               	movf	??___flmul,w
  5498  050A  07A9               	addwf	___flmul@grs,f
  5499  050B  087A               	movf	??___flmul+1,w
  5500  050C  1103               	clrz
  5501  050D  1803               	skipnc
  5502  050E  3E01               	addlw	1
  5503  050F  1903               	skipnz
  5504  0510  2D12               	goto	u2491
  5505  0511  07AA               	addwf	___flmul@grs+1,f
  5506  0512                     u2491:
  5507  0512  087B               	movf	??___flmul+2,w
  5508  0513  1103               	clrz
  5509  0514  1803               	skipnc
  5510  0515  3E01               	addlw	1
  5511  0516  1903               	skipnz
  5512  0517  2D19               	goto	u2492
  5513  0518  07AB               	addwf	___flmul@grs+2,f
  5514  0519                     u2492:
  5515  0519  087C               	movf	??___flmul+3,w
  5516  051A  1103               	clrz
  5517  051B  1803               	skipnc
  5518  051C  3E01               	addlw	1
  5519  051D  1903               	skipnz
  5520  051E  2D20               	goto	u2493
  5521  051F  07AC               	addwf	___flmul@grs+3,f
  5522  0520                     u2493:
  5523  0520                     l2547:
  5524  0520  0834               	movf	___flmul@temp+1,w
  5525  0521  00F9               	movwf	??___flmul
  5526  0522  01FA               	clrf	??___flmul+1
  5527  0523  01FB               	clrf	??___flmul+2
  5528  0524  01FC               	clrf	??___flmul+3
  5529  0525  0879               	movf	??___flmul,w
  5530  0526  07AF               	addwf	___flmul@prod,f
  5531  0527  087A               	movf	??___flmul+1,w
  5532  0528  1103               	clrz
  5533  0529  1803               	skipnc
  5534  052A  3E01               	addlw	1
  5535  052B  1903               	skipnz
  5536  052C  2D2E               	goto	u2501
  5537  052D  07B0               	addwf	___flmul@prod+1,f
  5538  052E                     u2501:
  5539  052E  087B               	movf	??___flmul+2,w
  5540  052F  1103               	clrz
  5541  0530  1803               	skipnc
  5542  0531  3E01               	addlw	1
  5543  0532  1903               	skipnz
  5544  0533  2D35               	goto	u2502
  5545  0534  07B1               	addwf	___flmul@prod+2,f
  5546  0535                     u2502:
  5547  0535  087C               	movf	??___flmul+3,w
  5548  0536  1103               	clrz
  5549  0537  1803               	skipnc
  5550  0538  3E01               	addlw	1
  5551  0539  1903               	skipnz
  5552  053A  2D3C               	goto	u2503
  5553  053B  07B2               	addwf	___flmul@prod+3,f
  5554  053C                     u2503:
  5555  053C  0822               	movf	___flmul@b+2,w
  5556  053D  00F9               	movwf	??___flmul
  5557  053E  0879               	movf	??___flmul,w
  5558  053F  00F0               	movwf	__Umul8_16@multiplicand
  5559  0540  0824               	movf	___flmul@a,w
  5560  0541  120A  158A  2004  120A  118A  	fcall	__Umul8_16
  5561  0546  0871               	movf	?__Umul8_16+1,w
  5562  0547  1283               	bcf	3,5	;RP0=0, select bank0
  5563  0548  1303               	bcf	3,6	;RP1=0, select bank0
  5564  0549  00B4               	movwf	___flmul@temp+1
  5565  054A  0870               	movf	?__Umul8_16,w
  5566  054B  00B3               	movwf	___flmul@temp
  5567  054C                     l2549:
  5568  054C  0833               	movf	___flmul@temp,w
  5569  054D  00F9               	movwf	??___flmul
  5570  054E  01FA               	clrf	??___flmul+1
  5571  054F  01FB               	clrf	??___flmul+2
  5572  0550  01FC               	clrf	??___flmul+3
  5573  0551  0879               	movf	??___flmul,w
  5574  0552  07A9               	addwf	___flmul@grs,f
  5575  0553  087A               	movf	??___flmul+1,w
  5576  0554  1103               	clrz
  5577  0555  1803               	skipnc
  5578  0556  3E01               	addlw	1
  5579  0557  1903               	skipnz
  5580  0558  2D5A               	goto	u2511
  5581  0559  07AA               	addwf	___flmul@grs+1,f
  5582  055A                     u2511:
  5583  055A  087B               	movf	??___flmul+2,w
  5584  055B  1103               	clrz
  5585  055C  1803               	skipnc
  5586  055D  3E01               	addlw	1
  5587  055E  1903               	skipnz
  5588  055F  2D61               	goto	u2512
  5589  0560  07AB               	addwf	___flmul@grs+2,f
  5590  0561                     u2512:
  5591  0561  087C               	movf	??___flmul+3,w
  5592  0562  1103               	clrz
  5593  0563  1803               	skipnc
  5594  0564  3E01               	addlw	1
  5595  0565  1903               	skipnz
  5596  0566  2D68               	goto	u2513
  5597  0567  07AC               	addwf	___flmul@grs+3,f
  5598  0568                     u2513:
  5599  0568                     l2551:
  5600  0568  0834               	movf	___flmul@temp+1,w
  5601  0569  00F9               	movwf	??___flmul
  5602  056A  01FA               	clrf	??___flmul+1
  5603  056B  01FB               	clrf	??___flmul+2
  5604  056C  01FC               	clrf	??___flmul+3
  5605  056D  0879               	movf	??___flmul,w
  5606  056E  07AF               	addwf	___flmul@prod,f
  5607  056F  087A               	movf	??___flmul+1,w
  5608  0570  1103               	clrz
  5609  0571  1803               	skipnc
  5610  0572  3E01               	addlw	1
  5611  0573  1903               	skipnz
  5612  0574  2D76               	goto	u2521
  5613  0575  07B0               	addwf	___flmul@prod+1,f
  5614  0576                     u2521:
  5615  0576  087B               	movf	??___flmul+2,w
  5616  0577  1103               	clrz
  5617  0578  1803               	skipnc
  5618  0579  3E01               	addlw	1
  5619  057A  1903               	skipnz
  5620  057B  2D7D               	goto	u2522
  5621  057C  07B1               	addwf	___flmul@prod+2,f
  5622  057D                     u2522:
  5623  057D  087C               	movf	??___flmul+3,w
  5624  057E  1103               	clrz
  5625  057F  1803               	skipnc
  5626  0580  3E01               	addlw	1
  5627  0581  1903               	skipnz
  5628  0582  2D84               	goto	u2523
  5629  0583  07B2               	addwf	___flmul@prod+3,f
  5630  0584                     u2523:
  5631  0584                     l2553:
  5632  0584  3008               	movlw	8
  5633  0585  00F9               	movwf	??___flmul
  5634  0586                     u2535:
  5635  0586  1003               	clrc
  5636  0587  0DA9               	rlf	___flmul@grs,f
  5637  0588  0DAA               	rlf	___flmul@grs+1,f
  5638  0589  0DAB               	rlf	___flmul@grs+2,f
  5639  058A  0DAC               	rlf	___flmul@grs+3,f
  5640  058B  0BF9               	decfsz	??___flmul,f
  5641  058C  2D86               	goto	u2535
  5642  058D                     l2555:
  5643  058D  0821               	movf	___flmul@b+1,w
  5644  058E  00F9               	movwf	??___flmul
  5645  058F  0879               	movf	??___flmul,w
  5646  0590  00F0               	movwf	__Umul8_16@multiplicand
  5647  0591  0824               	movf	___flmul@a,w
  5648  0592  120A  158A  2004  120A  118A  	fcall	__Umul8_16
  5649  0597  0871               	movf	?__Umul8_16+1,w
  5650  0598  1283               	bcf	3,5	;RP0=0, select bank0
  5651  0599  1303               	bcf	3,6	;RP1=0, select bank0
  5652  059A  00B4               	movwf	___flmul@temp+1
  5653  059B  0870               	movf	?__Umul8_16,w
  5654  059C  00B3               	movwf	___flmul@temp
  5655  059D                     l2557:
  5656  059D  0833               	movf	___flmul@temp,w
  5657  059E  00F9               	movwf	??___flmul
  5658  059F  0834               	movf	___flmul@temp+1,w
  5659  05A0  00FA               	movwf	??___flmul+1
  5660  05A1  01FB               	clrf	??___flmul+2
  5661  05A2  01FC               	clrf	??___flmul+3
  5662  05A3  0879               	movf	??___flmul,w
  5663  05A4  07A9               	addwf	___flmul@grs,f
  5664  05A5  087A               	movf	??___flmul+1,w
  5665  05A6  1103               	clrz
  5666  05A7  1803               	skipnc
  5667  05A8  3E01               	addlw	1
  5668  05A9  1903               	skipnz
  5669  05AA  2DAC               	goto	u2541
  5670  05AB  07AA               	addwf	___flmul@grs+1,f
  5671  05AC                     u2541:
  5672  05AC  087B               	movf	??___flmul+2,w
  5673  05AD  1103               	clrz
  5674  05AE  1803               	skipnc
  5675  05AF  3E01               	addlw	1
  5676  05B0  1903               	skipnz
  5677  05B1  2DB3               	goto	u2542
  5678  05B2  07AB               	addwf	___flmul@grs+2,f
  5679  05B3                     u2542:
  5680  05B3  087C               	movf	??___flmul+3,w
  5681  05B4  1103               	clrz
  5682  05B5  1803               	skipnc
  5683  05B6  3E01               	addlw	1
  5684  05B7  1903               	skipnz
  5685  05B8  2DBA               	goto	u2543
  5686  05B9  07AC               	addwf	___flmul@grs+3,f
  5687  05BA                     u2543:
  5688  05BA                     l2559:
  5689  05BA  0820               	movf	___flmul@b,w
  5690  05BB  00F9               	movwf	??___flmul
  5691  05BC  0879               	movf	??___flmul,w
  5692  05BD  00F0               	movwf	__Umul8_16@multiplicand
  5693  05BE  0825               	movf	___flmul@a+1,w
  5694  05BF  120A  158A  2004  120A  118A  	fcall	__Umul8_16
  5695  05C4  0871               	movf	?__Umul8_16+1,w
  5696  05C5  1283               	bcf	3,5	;RP0=0, select bank0
  5697  05C6  1303               	bcf	3,6	;RP1=0, select bank0
  5698  05C7  00B4               	movwf	___flmul@temp+1
  5699  05C8  0870               	movf	?__Umul8_16,w
  5700  05C9  00B3               	movwf	___flmul@temp
  5701  05CA                     l2561:
  5702  05CA  0833               	movf	___flmul@temp,w
  5703  05CB  00F9               	movwf	??___flmul
  5704  05CC  0834               	movf	___flmul@temp+1,w
  5705  05CD  00FA               	movwf	??___flmul+1
  5706  05CE  01FB               	clrf	??___flmul+2
  5707  05CF  01FC               	clrf	??___flmul+3
  5708  05D0  0879               	movf	??___flmul,w
  5709  05D1  07A9               	addwf	___flmul@grs,f
  5710  05D2  087A               	movf	??___flmul+1,w
  5711  05D3  1103               	clrz
  5712  05D4  1803               	skipnc
  5713  05D5  3E01               	addlw	1
  5714  05D6  1903               	skipnz
  5715  05D7  2DD9               	goto	u2551
  5716  05D8  07AA               	addwf	___flmul@grs+1,f
  5717  05D9                     u2551:
  5718  05D9  087B               	movf	??___flmul+2,w
  5719  05DA  1103               	clrz
  5720  05DB  1803               	skipnc
  5721  05DC  3E01               	addlw	1
  5722  05DD  1903               	skipnz
  5723  05DE  2DE0               	goto	u2552
  5724  05DF  07AB               	addwf	___flmul@grs+2,f
  5725  05E0                     u2552:
  5726  05E0  087C               	movf	??___flmul+3,w
  5727  05E1  1103               	clrz
  5728  05E2  1803               	skipnc
  5729  05E3  3E01               	addlw	1
  5730  05E4  1903               	skipnz
  5731  05E5  2DE7               	goto	u2553
  5732  05E6  07AC               	addwf	___flmul@grs+3,f
  5733  05E7                     u2553:
  5734  05E7                     l2563:
  5735  05E7  3008               	movlw	8
  5736  05E8  00F9               	movwf	??___flmul
  5737  05E9                     u2565:
  5738  05E9  1003               	clrc
  5739  05EA  0DA9               	rlf	___flmul@grs,f
  5740  05EB  0DAA               	rlf	___flmul@grs+1,f
  5741  05EC  0DAB               	rlf	___flmul@grs+2,f
  5742  05ED  0DAC               	rlf	___flmul@grs+3,f
  5743  05EE  0BF9               	decfsz	??___flmul,f
  5744  05EF  2DE9               	goto	u2565
  5745  05F0  0820               	movf	___flmul@b,w
  5746  05F1  00F9               	movwf	??___flmul
  5747  05F2  0879               	movf	??___flmul,w
  5748  05F3  00F0               	movwf	__Umul8_16@multiplicand
  5749  05F4  0824               	movf	___flmul@a,w
  5750  05F5  120A  158A  2004  120A  118A  	fcall	__Umul8_16
  5751  05FA  0871               	movf	?__Umul8_16+1,w
  5752  05FB  1283               	bcf	3,5	;RP0=0, select bank0
  5753  05FC  1303               	bcf	3,6	;RP1=0, select bank0
  5754  05FD  00B4               	movwf	___flmul@temp+1
  5755  05FE  0870               	movf	?__Umul8_16,w
  5756  05FF  00B3               	movwf	___flmul@temp
  5757  0600                     l2565:
  5758  0600  0833               	movf	___flmul@temp,w
  5759  0601  00F9               	movwf	??___flmul
  5760  0602  0834               	movf	___flmul@temp+1,w
  5761  0603  00FA               	movwf	??___flmul+1
  5762  0604  01FB               	clrf	??___flmul+2
  5763  0605  01FC               	clrf	??___flmul+3
  5764  0606  0879               	movf	??___flmul,w
  5765  0607  07A9               	addwf	___flmul@grs,f
  5766  0608  087A               	movf	??___flmul+1,w
  5767  0609  1103               	clrz
  5768  060A  1803               	skipnc
  5769  060B  3E01               	addlw	1
  5770  060C  1903               	skipnz
  5771  060D  2E0F               	goto	u2571
  5772  060E  07AA               	addwf	___flmul@grs+1,f
  5773  060F                     u2571:
  5774  060F  087B               	movf	??___flmul+2,w
  5775  0610  1103               	clrz
  5776  0611  1803               	skipnc
  5777  0612  3E01               	addlw	1
  5778  0613  1903               	skipnz
  5779  0614  2E16               	goto	u2572
  5780  0615  07AB               	addwf	___flmul@grs+2,f
  5781  0616                     u2572:
  5782  0616  087C               	movf	??___flmul+3,w
  5783  0617  1103               	clrz
  5784  0618  1803               	skipnc
  5785  0619  3E01               	addlw	1
  5786  061A  1903               	skipnz
  5787  061B  2E1D               	goto	u2573
  5788  061C  07AC               	addwf	___flmul@grs+3,f
  5789  061D                     u2573:
  5790  061D                     l2567:
  5791  061D  0821               	movf	___flmul@b+1,w
  5792  061E  00F9               	movwf	??___flmul
  5793  061F  0879               	movf	??___flmul,w
  5794  0620  00F0               	movwf	__Umul8_16@multiplicand
  5795  0621  0826               	movf	___flmul@a+2,w
  5796  0622  120A  158A  2004  120A  118A  	fcall	__Umul8_16
  5797  0627  0871               	movf	?__Umul8_16+1,w
  5798  0628  1283               	bcf	3,5	;RP0=0, select bank0
  5799  0629  1303               	bcf	3,6	;RP1=0, select bank0
  5800  062A  00B4               	movwf	___flmul@temp+1
  5801  062B  0870               	movf	?__Umul8_16,w
  5802  062C  00B3               	movwf	___flmul@temp
  5803  062D  0833               	movf	___flmul@temp,w
  5804  062E  00F9               	movwf	??___flmul
  5805  062F  0834               	movf	___flmul@temp+1,w
  5806  0630  00FA               	movwf	??___flmul+1
  5807  0631  01FB               	clrf	??___flmul+2
  5808  0632  01FC               	clrf	??___flmul+3
  5809  0633  0879               	movf	??___flmul,w
  5810  0634  07AF               	addwf	___flmul@prod,f
  5811  0635  087A               	movf	??___flmul+1,w
  5812  0636  1103               	clrz
  5813  0637  1803               	skipnc
  5814  0638  3E01               	addlw	1
  5815  0639  1903               	skipnz
  5816  063A  2E3C               	goto	u2581
  5817  063B  07B0               	addwf	___flmul@prod+1,f
  5818  063C                     u2581:
  5819  063C  087B               	movf	??___flmul+2,w
  5820  063D  1103               	clrz
  5821  063E  1803               	skipnc
  5822  063F  3E01               	addlw	1
  5823  0640  1903               	skipnz
  5824  0641  2E43               	goto	u2582
  5825  0642  07B1               	addwf	___flmul@prod+2,f
  5826  0643                     u2582:
  5827  0643  087C               	movf	??___flmul+3,w
  5828  0644  1103               	clrz
  5829  0645  1803               	skipnc
  5830  0646  3E01               	addlw	1
  5831  0647  1903               	skipnz
  5832  0648  2E4A               	goto	u2583
  5833  0649  07B2               	addwf	___flmul@prod+3,f
  5834  064A                     u2583:
  5835  064A                     l2569:
  5836  064A  0822               	movf	___flmul@b+2,w
  5837  064B  00F9               	movwf	??___flmul
  5838  064C  0879               	movf	??___flmul,w
  5839  064D  00F0               	movwf	__Umul8_16@multiplicand
  5840  064E  0825               	movf	___flmul@a+1,w
  5841  064F  120A  158A  2004  120A  118A  	fcall	__Umul8_16
  5842  0654  0871               	movf	?__Umul8_16+1,w
  5843  0655  1283               	bcf	3,5	;RP0=0, select bank0
  5844  0656  1303               	bcf	3,6	;RP1=0, select bank0
  5845  0657  00B4               	movwf	___flmul@temp+1
  5846  0658  0870               	movf	?__Umul8_16,w
  5847  0659  00B3               	movwf	___flmul@temp
  5848  065A                     l2571:
  5849  065A  0833               	movf	___flmul@temp,w
  5850  065B  00F9               	movwf	??___flmul
  5851  065C  0834               	movf	___flmul@temp+1,w
  5852  065D  00FA               	movwf	??___flmul+1
  5853  065E  01FB               	clrf	??___flmul+2
  5854  065F  01FC               	clrf	??___flmul+3
  5855  0660  0879               	movf	??___flmul,w
  5856  0661  07AF               	addwf	___flmul@prod,f
  5857  0662  087A               	movf	??___flmul+1,w
  5858  0663  1103               	clrz
  5859  0664  1803               	skipnc
  5860  0665  3E01               	addlw	1
  5861  0666  1903               	skipnz
  5862  0667  2E69               	goto	u2591
  5863  0668  07B0               	addwf	___flmul@prod+1,f
  5864  0669                     u2591:
  5865  0669  087B               	movf	??___flmul+2,w
  5866  066A  1103               	clrz
  5867  066B  1803               	skipnc
  5868  066C  3E01               	addlw	1
  5869  066D  1903               	skipnz
  5870  066E  2E70               	goto	u2592
  5871  066F  07B1               	addwf	___flmul@prod+2,f
  5872  0670                     u2592:
  5873  0670  087C               	movf	??___flmul+3,w
  5874  0671  1103               	clrz
  5875  0672  1803               	skipnc
  5876  0673  3E01               	addlw	1
  5877  0674  1903               	skipnz
  5878  0675  2E77               	goto	u2593
  5879  0676  07B2               	addwf	___flmul@prod+3,f
  5880  0677                     u2593:
  5881  0677  0822               	movf	___flmul@b+2,w
  5882  0678  00F9               	movwf	??___flmul
  5883  0679  0879               	movf	??___flmul,w
  5884  067A  00F0               	movwf	__Umul8_16@multiplicand
  5885  067B  0826               	movf	___flmul@a+2,w
  5886  067C  120A  158A  2004  120A  118A  	fcall	__Umul8_16
  5887  0681  0871               	movf	?__Umul8_16+1,w
  5888  0682  1283               	bcf	3,5	;RP0=0, select bank0
  5889  0683  1303               	bcf	3,6	;RP1=0, select bank0
  5890  0684  00B4               	movwf	___flmul@temp+1
  5891  0685  0870               	movf	?__Umul8_16,w
  5892  0686  00B3               	movwf	___flmul@temp
  5893  0687                     l2573:
  5894  0687  0833               	movf	___flmul@temp,w
  5895  0688  00F9               	movwf	??___flmul
  5896  0689  0834               	movf	___flmul@temp+1,w
  5897  068A  00FA               	movwf	??___flmul+1
  5898  068B  01FB               	clrf	??___flmul+2
  5899  068C  01FC               	clrf	??___flmul+3
  5900  068D  3008               	movlw	8
  5901  068E                     u2605:
  5902  068E  1003               	clrc
  5903  068F  0DF9               	rlf	??___flmul,f
  5904  0690  0DFA               	rlf	??___flmul+1,f
  5905  0691  0DFB               	rlf	??___flmul+2,f
  5906  0692  0DFC               	rlf	??___flmul+3,f
  5907  0693                     u2600:
  5908  0693  3EFF               	addlw	-1
  5909  0694  1D03               	skipz
  5910  0695  2E8E               	goto	u2605
  5911  0696  0879               	movf	??___flmul,w
  5912  0697  07AF               	addwf	___flmul@prod,f
  5913  0698  087A               	movf	??___flmul+1,w
  5914  0699  1103               	clrz
  5915  069A  1803               	skipnc
  5916  069B  3E01               	addlw	1
  5917  069C  1903               	skipnz
  5918  069D  2E9F               	goto	u2611
  5919  069E  07B0               	addwf	___flmul@prod+1,f
  5920  069F                     u2611:
  5921  069F  087B               	movf	??___flmul+2,w
  5922  06A0  1103               	clrz
  5923  06A1  1803               	skipnc
  5924  06A2  3E01               	addlw	1
  5925  06A3  1903               	skipnz
  5926  06A4  2EA6               	goto	u2612
  5927  06A5  07B1               	addwf	___flmul@prod+2,f
  5928  06A6                     u2612:
  5929  06A6  087C               	movf	??___flmul+3,w
  5930  06A7  1103               	clrz
  5931  06A8  1803               	skipnc
  5932  06A9  3E01               	addlw	1
  5933  06AA  1903               	skipnz
  5934  06AB  2EAD               	goto	u2613
  5935  06AC  07B2               	addwf	___flmul@prod+3,f
  5936  06AD                     u2613:
  5937  06AD                     l2575:
  5938  06AD  0829               	movf	___flmul@grs,w
  5939  06AE  00F9               	movwf	??___flmul
  5940  06AF  082A               	movf	___flmul@grs+1,w
  5941  06B0  00FA               	movwf	??___flmul+1
  5942  06B1  082B               	movf	___flmul@grs+2,w
  5943  06B2  00FB               	movwf	??___flmul+2
  5944  06B3  082C               	movf	___flmul@grs+3,w
  5945  06B4  00FC               	movwf	??___flmul+3
  5946  06B5  3018               	movlw	24
  5947  06B6                     u2625:
  5948  06B6  1003               	clrc
  5949  06B7  0CFC               	rrf	??___flmul+3,f
  5950  06B8  0CFB               	rrf	??___flmul+2,f
  5951  06B9  0CFA               	rrf	??___flmul+1,f
  5952  06BA  0CF9               	rrf	??___flmul,f
  5953  06BB                     u2620:
  5954  06BB  3EFF               	addlw	-1
  5955  06BC  1D03               	skipz
  5956  06BD  2EB6               	goto	u2625
  5957  06BE  0879               	movf	??___flmul,w
  5958  06BF  07AF               	addwf	___flmul@prod,f
  5959  06C0  087A               	movf	??___flmul+1,w
  5960  06C1  1103               	clrz
  5961  06C2  1803               	skipnc
  5962  06C3  3E01               	addlw	1
  5963  06C4  1903               	skipnz
  5964  06C5  2EC7               	goto	u2631
  5965  06C6  07B0               	addwf	___flmul@prod+1,f
  5966  06C7                     u2631:
  5967  06C7  087B               	movf	??___flmul+2,w
  5968  06C8  1103               	clrz
  5969  06C9  1803               	skipnc
  5970  06CA  3E01               	addlw	1
  5971  06CB  1903               	skipnz
  5972  06CC  2ECE               	goto	u2632
  5973  06CD  07B1               	addwf	___flmul@prod+2,f
  5974  06CE                     u2632:
  5975  06CE  087C               	movf	??___flmul+3,w
  5976  06CF  1103               	clrz
  5977  06D0  1803               	skipnc
  5978  06D1  3E01               	addlw	1
  5979  06D2  1903               	skipnz
  5980  06D3  2ED5               	goto	u2633
  5981  06D4  07B2               	addwf	___flmul@prod+3,f
  5982  06D5                     u2633:
  5983  06D5                     l2577:
  5984  06D5  3008               	movlw	8
  5985  06D6  00F9               	movwf	??___flmul
  5986  06D7                     u2645:
  5987  06D7  1003               	clrc
  5988  06D8  0DA9               	rlf	___flmul@grs,f
  5989  06D9  0DAA               	rlf	___flmul@grs+1,f
  5990  06DA  0DAB               	rlf	___flmul@grs+2,f
  5991  06DB  0DAC               	rlf	___flmul@grs+3,f
  5992  06DC  0BF9               	decfsz	??___flmul,f
  5993  06DD  2ED7               	goto	u2645
  5994  06DE                     l2579:
  5995  06DE  082E               	movf	___flmul@bexp,w
  5996  06DF  072D               	addwf	___flmul@aexp,w
  5997  06E0  00F9               	movwf	??___flmul
  5998  06E1  01FA               	clrf	??___flmul+1
  5999  06E2  0DFA               	rlf	??___flmul+1,f
  6000  06E3  0879               	movf	??___flmul,w
  6001  06E4  3E82               	addlw	130
  6002  06E5  00B3               	movwf	___flmul@temp
  6003  06E6  087A               	movf	??___flmul+1,w
  6004  06E7  1803               	skipnc
  6005  06E8  3E01               	addlw	1
  6006  06E9  3EFF               	addlw	255
  6007  06EA  00B4               	movwf	___flmul@temp+1
  6008  06EB  2F09               	goto	l2591
  6009  06EC                     l2581:
  6010  06EC  3001               	movlw	1
  6011  06ED  00F9               	movwf	??___flmul
  6012  06EE                     u2655:
  6013  06EE  1003               	clrc
  6014  06EF  0DAF               	rlf	___flmul@prod,f
  6015  06F0  0DB0               	rlf	___flmul@prod+1,f
  6016  06F1  0DB1               	rlf	___flmul@prod+2,f
  6017  06F2  0DB2               	rlf	___flmul@prod+3,f
  6018  06F3  0BF9               	decfsz	??___flmul,f
  6019  06F4  2EEE               	goto	u2655
  6020  06F5                     l2583:
  6021  06F5  1FAC               	btfss	___flmul@grs+3,7
  6022  06F6  2EF8               	goto	u2661
  6023  06F7  2EF9               	goto	u2660
  6024  06F8                     u2661:
  6025  06F8  2EFA               	goto	l2587
  6026  06F9                     u2660:
  6027  06F9                     l2585:
  6028  06F9  142F               	bsf	___flmul@prod,0
  6029  06FA                     l2587:
  6030  06FA  3001               	movlw	1
  6031  06FB  00F9               	movwf	??___flmul
  6032  06FC                     u2675:
  6033  06FC  1003               	clrc
  6034  06FD  0DA9               	rlf	___flmul@grs,f
  6035  06FE  0DAA               	rlf	___flmul@grs+1,f
  6036  06FF  0DAB               	rlf	___flmul@grs+2,f
  6037  0700  0DAC               	rlf	___flmul@grs+3,f
  6038  0701  0BF9               	decfsz	??___flmul,f
  6039  0702  2EFC               	goto	u2675
  6040  0703                     l2589:
  6041  0703  30FF               	movlw	255
  6042  0704  07B3               	addwf	___flmul@temp,f
  6043  0705  1803               	skipnc
  6044  0706  0AB4               	incf	___flmul@temp+1,f
  6045  0707  30FF               	movlw	255
  6046  0708  07B4               	addwf	___flmul@temp+1,f
  6047  0709                     l2591:
  6048  0709  1FB1               	btfss	___flmul@prod+2,7
  6049  070A  2F0C               	goto	u2681
  6050  070B  2F0D               	goto	u2680
  6051  070C                     u2681:
  6052  070C  2EEC               	goto	l2581
  6053  070D                     u2680:
  6054  070D                     l2593:
  6055  070D  01AD               	clrf	___flmul@aexp
  6056  070E                     l2595:
  6057  070E  1FAC               	btfss	___flmul@grs+3,7
  6058  070F  2F11               	goto	u2691
  6059  0710  2F12               	goto	u2690
  6060  0711                     u2691:
  6061  0711  2F2E               	goto	l2603
  6062  0712                     u2690:
  6063  0712                     l2597:
  6064  0712  30FF               	movlw	255
  6065  0713  0529               	andwf	___flmul@grs,w
  6066  0714  00F9               	movwf	??___flmul
  6067  0715  30FF               	movlw	255
  6068  0716  052A               	andwf	___flmul@grs+1,w
  6069  0717  00FA               	movwf	??___flmul+1
  6070  0718  30FF               	movlw	255
  6071  0719  052B               	andwf	___flmul@grs+2,w
  6072  071A  00FB               	movwf	??___flmul+2
  6073  071B  307F               	movlw	127
  6074  071C  052C               	andwf	___flmul@grs+3,w
  6075  071D  00FC               	movwf	??___flmul+3
  6076  071E  087C               	movf	??___flmul+3,w
  6077  071F  047B               	iorwf	??___flmul+2,w
  6078  0720  047A               	iorwf	??___flmul+1,w
  6079  0721  0479               	iorwf	??___flmul,w
  6080  0722  1903               	skipnz
  6081  0723  2F25               	goto	u2701
  6082  0724  2F26               	goto	u2700
  6083  0725                     u2701:
  6084  0725  2F29               	goto	l852
  6085  0726                     u2700:
  6086  0726                     l2599:
  6087  0726  01AD               	clrf	___flmul@aexp
  6088  0727  0AAD               	incf	___flmul@aexp,f
  6089  0728  2F2E               	goto	l2603
  6090  0729                     l852:
  6091  0729  1C2F               	btfss	___flmul@prod,0
  6092  072A  2F2C               	goto	u2711
  6093  072B  2F2D               	goto	u2710
  6094  072C                     u2711:
  6095  072C  2F2E               	goto	l2603
  6096  072D                     u2710:
  6097  072D  2F26               	goto	l2599
  6098  072E                     l2603:
  6099  072E  082D               	movf	___flmul@aexp,w
  6100  072F  1903               	btfsc	3,2
  6101  0730  2F32               	goto	u2721
  6102  0731  2F33               	goto	u2720
  6103  0732                     u2721:
  6104  0732  2F64               	goto	l2613
  6105  0733                     u2720:
  6106  0733                     l2605:
  6107  0733  3001               	movlw	1
  6108  0734  07AF               	addwf	___flmul@prod,f
  6109  0735  3000               	movlw	0
  6110  0736  1803               	skipnc
  6111  0737  3001               	movlw	1
  6112  0738  07B0               	addwf	___flmul@prod+1,f
  6113  0739  3000               	movlw	0
  6114  073A  1803               	skipnc
  6115  073B  3001               	movlw	1
  6116  073C  07B1               	addwf	___flmul@prod+2,f
  6117  073D  3000               	movlw	0
  6118  073E  1803               	skipnc
  6119  073F  3001               	movlw	1
  6120  0740  07B2               	addwf	___flmul@prod+3,f
  6121  0741                     l2607:
  6122  0741  1C32               	btfss	___flmul@prod+3,0
  6123  0742  2F44               	goto	u2731
  6124  0743  2F45               	goto	u2730
  6125  0744                     u2731:
  6126  0744  2F64               	goto	l2613
  6127  0745                     u2730:
  6128  0745                     l2609:
  6129  0745  082F               	movf	___flmul@prod,w
  6130  0746  00F9               	movwf	??___flmul
  6131  0747  0830               	movf	___flmul@prod+1,w
  6132  0748  00FA               	movwf	??___flmul+1
  6133  0749  0831               	movf	___flmul@prod+2,w
  6134  074A  00FB               	movwf	??___flmul+2
  6135  074B  0832               	movf	___flmul@prod+3,w
  6136  074C  00FC               	movwf	??___flmul+3
  6137  074D  3001               	movlw	1
  6138  074E  00FD               	movwf	??___flmul+4
  6139  074F                     u2745:
  6140  074F  0D7C               	rlf	??___flmul+3,w
  6141  0750  0CFC               	rrf	??___flmul+3,f
  6142  0751  0CFB               	rrf	??___flmul+2,f
  6143  0752  0CFA               	rrf	??___flmul+1,f
  6144  0753  0CF9               	rrf	??___flmul,f
  6145  0754                     u2740:
  6146  0754  0BFD               	decfsz	??___flmul+4,f
  6147  0755  2F4F               	goto	u2745
  6148  0756  087C               	movf	??___flmul+3,w
  6149  0757  00B2               	movwf	___flmul@prod+3
  6150  0758  087B               	movf	??___flmul+2,w
  6151  0759  00B1               	movwf	___flmul@prod+2
  6152  075A  087A               	movf	??___flmul+1,w
  6153  075B  00B0               	movwf	___flmul@prod+1
  6154  075C  0879               	movf	??___flmul,w
  6155  075D  00AF               	movwf	___flmul@prod
  6156  075E                     l2611:
  6157  075E  3001               	movlw	1
  6158  075F  07B3               	addwf	___flmul@temp,f
  6159  0760  1803               	skipnc
  6160  0761  0AB4               	incf	___flmul@temp+1,f
  6161  0762  3000               	movlw	0
  6162  0763  07B4               	addwf	___flmul@temp+1,f
  6163  0764                     l2613:
  6164  0764  0834               	movf	___flmul@temp+1,w
  6165  0765  3A80               	xorlw	128
  6166  0766  00FF               	movwf	btemp+1
  6167  0767  3080               	movlw	128
  6168  0768  027F               	subwf	btemp+1,w
  6169  0769  1D03               	skipz
  6170  076A  2F6D               	goto	u2755
  6171  076B  30FF               	movlw	255
  6172  076C  0233               	subwf	___flmul@temp,w
  6173  076D                     u2755:
  6174  076D  1C03               	skipc
  6175  076E  2F70               	goto	u2751
  6176  076F  2F71               	goto	u2750
  6177  0770                     u2751:
  6178  0770  2F7C               	goto	l2617
  6179  0771                     u2750:
  6180  0771                     l2615:
  6181  0771  307F               	movlw	127
  6182  0772  1283               	bcf	3,5	;RP0=0, select bank0
  6183  0773  1303               	bcf	3,6	;RP1=0, select bank0
  6184  0774  00B2               	movwf	___flmul@prod+3
  6185  0775  3080               	movlw	128
  6186  0776  00B1               	movwf	___flmul@prod+2
  6187  0777  3000               	movlw	0
  6188  0778  00B0               	movwf	___flmul@prod+1
  6189  0779  3000               	movlw	0
  6190  077A  00AF               	movwf	___flmul@prod
  6191  077B  2FB1               	goto	l858
  6192  077C                     l2617:
  6193  077C  1283               	bcf	3,5	;RP0=0, select bank0
  6194  077D  1303               	bcf	3,6	;RP1=0, select bank0
  6195  077E  0834               	movf	___flmul@temp+1,w
  6196  077F  3A80               	xorlw	128
  6197  0780  00FF               	movwf	btemp+1
  6198  0781  3080               	movlw	128
  6199  0782  027F               	subwf	btemp+1,w
  6200  0783  1D03               	skipz
  6201  0784  2F87               	goto	u2765
  6202  0785  3001               	movlw	1
  6203  0786  0233               	subwf	___flmul@temp,w
  6204  0787                     u2765:
  6205  0787  1803               	skipnc
  6206  0788  2F8A               	goto	u2761
  6207  0789  2F8B               	goto	u2760
  6208  078A                     u2761:
  6209  078A  2F97               	goto	l2623
  6210  078B                     u2760:
  6211  078B                     l2619:
  6212  078B  3000               	movlw	0
  6213  078C  1283               	bcf	3,5	;RP0=0, select bank0
  6214  078D  1303               	bcf	3,6	;RP1=0, select bank0
  6215  078E  00B2               	movwf	___flmul@prod+3
  6216  078F  3000               	movlw	0
  6217  0790  00B1               	movwf	___flmul@prod+2
  6218  0791  3000               	movlw	0
  6219  0792  00B0               	movwf	___flmul@prod+1
  6220  0793  3000               	movlw	0
  6221  0794  00AF               	movwf	___flmul@prod
  6222  0795                     l2621:
  6223  0795  01A8               	clrf	___flmul@sign
  6224  0796  2FB1               	goto	l858
  6225  0797                     l2623:
  6226  0797  1283               	bcf	3,5	;RP0=0, select bank0
  6227  0798  1303               	bcf	3,6	;RP1=0, select bank0
  6228  0799  0833               	movf	___flmul@temp,w
  6229  079A  00F9               	movwf	??___flmul
  6230  079B  0879               	movf	??___flmul,w
  6231  079C  00AE               	movwf	___flmul@bexp
  6232  079D  30FF               	movlw	255
  6233  079E  05AF               	andwf	___flmul@prod,f
  6234  079F  30FF               	movlw	255
  6235  07A0  05B0               	andwf	___flmul@prod+1,f
  6236  07A1  307F               	movlw	127
  6237  07A2  05B1               	andwf	___flmul@prod+2,f
  6238  07A3  3000               	movlw	0
  6239  07A4  05B2               	andwf	___flmul@prod+3,f
  6240  07A5                     l2625:
  6241  07A5  1C2E               	btfss	___flmul@bexp,0
  6242  07A6  2FA8               	goto	u2771
  6243  07A7  2FA9               	goto	u2770
  6244  07A8                     u2771:
  6245  07A8  2FAA               	goto	l2629
  6246  07A9                     u2770:
  6247  07A9                     l2627:
  6248  07A9  17B1               	bsf	___flmul@prod+2,7
  6249  07AA                     l2629:
  6250  07AA  082E               	movf	___flmul@bexp,w
  6251  07AB  00F9               	movwf	??___flmul
  6252  07AC  1003               	clrc
  6253  07AD  0C79               	rrf	??___flmul,w
  6254  07AE  00FA               	movwf	??___flmul+1
  6255  07AF  087A               	movf	??___flmul+1,w
  6256  07B0  00B2               	movwf	___flmul@prod+3
  6257  07B1                     l858:
  6258  07B1  0828               	movf	___flmul@sign,w
  6259  07B2  00F9               	movwf	??___flmul
  6260  07B3  0879               	movf	??___flmul,w
  6261  07B4  04B2               	iorwf	___flmul@prod+3,f
  6262  07B5                     l2631:
  6263  07B5  0832               	movf	___flmul@prod+3,w
  6264  07B6  00A3               	movwf	?___flmul+3
  6265  07B7  0831               	movf	___flmul@prod+2,w
  6266  07B8  00A2               	movwf	?___flmul+2
  6267  07B9  0830               	movf	___flmul@prod+1,w
  6268  07BA  00A1               	movwf	?___flmul+1
  6269  07BB  082F               	movf	___flmul@prod,w
  6270  07BC  00A0               	movwf	?___flmul
  6271  07BD                     l846:
  6272  07BD  0008               	return
  6273  07BE                     __end_of___flmul:
  6274                           
  6275                           	psect	text17
  6276  0804                     __ptext17:	
  6277 ;; *************** function __Umul8_16 *****************
  6278 ;; Defined at:
  6279 ;;		line 4 in file "C:\Program Files\Microchip\xc8\v2.32\pic\sources\c90\common\Umul8_16.c"
  6280 ;; Parameters:    Size  Location     Type
  6281 ;;  multiplier      1    wreg     unsigned char 
  6282 ;;  multiplicand    1    0[COMMON] unsigned char 
  6283 ;; Auto vars:     Size  Location     Type
  6284 ;;  multiplier      1    8[COMMON] unsigned char 
  6285 ;;  word_mpld       2    6[COMMON] unsigned int 
  6286 ;;  product         2    4[COMMON] unsigned int 
  6287 ;; Return value:  Size  Location     Type
  6288 ;;                  2    0[COMMON] unsigned int 
  6289 ;; Registers used:
  6290 ;;		wreg, status,2, status,0
  6291 ;; Tracked objects:
  6292 ;;		On entry : 0/0
  6293 ;;		On exit  : 0/0
  6294 ;;		Unchanged: 0/0
  6295 ;; Data sizes:     COMMON   BANK0   BANK1   BANK3   BANK2
  6296 ;;      Params:         2       0       0       0       0
  6297 ;;      Locals:         5       0       0       0       0
  6298 ;;      Temps:          2       0       0       0       0
  6299 ;;      Totals:         9       0       0       0       0
  6300 ;;Total ram usage:        9 bytes
  6301 ;; Hardware stack levels used: 1
  6302 ;; This function calls:
  6303 ;;		Nothing
  6304 ;; This function is called by:
  6305 ;;		___flmul
  6306 ;; This function uses a non-reentrant model
  6307 ;;
  6308                           
  6309                           
  6310                           ;psect for function __Umul8_16
  6311  0804                     __Umul8_16:
  6312                           
  6313                           ;incstack = 0
  6314                           ; Regs used in __Umul8_16: [wreg+status,2+status,0]
  6315                           ;__Umul8_16@multiplier stored from wreg
  6316  0804  00F8               	movwf	__Umul8_16@multiplier
  6317  0805                     l2443:
  6318  0805  01F4               	clrf	__Umul8_16@product
  6319  0806  01F5               	clrf	__Umul8_16@product+1
  6320  0807                     l2445:
  6321  0807  0870               	movf	__Umul8_16@multiplicand,w
  6322  0808  00F2               	movwf	??__Umul8_16
  6323  0809  01F3               	clrf	??__Umul8_16+1
  6324  080A  0872               	movf	??__Umul8_16,w
  6325  080B  00F6               	movwf	__Umul8_16@word_mpld
  6326  080C  0873               	movf	??__Umul8_16+1,w
  6327  080D  00F7               	movwf	__Umul8_16@word_mpld+1
  6328  080E                     l2447:
  6329  080E  1C78               	btfss	__Umul8_16@multiplier,0
  6330  080F  2811               	goto	u2311
  6331  0810  2812               	goto	u2310
  6332  0811                     u2311:
  6333  0811  2818               	goto	l865
  6334  0812                     u2310:
  6335  0812                     l2449:
  6336  0812  0876               	movf	__Umul8_16@word_mpld,w
  6337  0813  07F4               	addwf	__Umul8_16@product,f
  6338  0814  1803               	skipnc
  6339  0815  0AF5               	incf	__Umul8_16@product+1,f
  6340  0816  0877               	movf	__Umul8_16@word_mpld+1,w
  6341  0817  07F5               	addwf	__Umul8_16@product+1,f
  6342  0818                     l865:
  6343  0818  3001               	movlw	1
  6344  0819                     u2325:
  6345  0819  1003               	clrc
  6346  081A  0DF6               	rlf	__Umul8_16@word_mpld,f
  6347  081B  0DF7               	rlf	__Umul8_16@word_mpld+1,f
  6348  081C  3EFF               	addlw	-1
  6349  081D  1D03               	skipz
  6350  081E  2819               	goto	u2325
  6351  081F  1003               	clrc
  6352  0820  0CF8               	rrf	__Umul8_16@multiplier,f
  6353  0821                     l2451:
  6354  0821  0878               	movf	__Umul8_16@multiplier,w
  6355  0822  1D03               	btfss	3,2
  6356  0823  2825               	goto	u2331
  6357  0824  2826               	goto	u2330
  6358  0825                     u2331:
  6359  0825  280E               	goto	l2447
  6360  0826                     u2330:
  6361  0826                     l2453:
  6362  0826  0875               	movf	__Umul8_16@product+1,w
  6363  0827  00F1               	movwf	?__Umul8_16+1
  6364  0828  0874               	movf	__Umul8_16@product,w
  6365  0829  00F0               	movwf	?__Umul8_16
  6366  082A                     l867:
  6367  082A  0008               	return
  6368  082B                     __end_of__Umul8_16:
  6369                           
  6370                           	psect	text18
  6371  0C21                     __ptext18:	
  6372 ;; *************** function ___flge *****************
  6373 ;; Defined at:
  6374 ;;		line 4 in file "C:\Program Files\Microchip\xc8\v2.32\pic\sources\c90\common\flge.c"
  6375 ;; Parameters:    Size  Location     Type
  6376 ;;  ff1             4    0[COMMON] unsigned int 
  6377 ;;  ff2             4    4[COMMON] unsigned int 
  6378 ;; Auto vars:     Size  Location     Type
  6379 ;;		None
  6380 ;; Return value:  Size  Location     Type
  6381 ;;		None               void
  6382 ;; Registers used:
  6383 ;;		wreg, status,2, status,0
  6384 ;; Tracked objects:
  6385 ;;		On entry : 0/0
  6386 ;;		On exit  : 0/0
  6387 ;;		Unchanged: 0/0
  6388 ;; Data sizes:     COMMON   BANK0   BANK1   BANK3   BANK2
  6389 ;;      Params:         8       0       0       0       0
  6390 ;;      Locals:         0       0       0       0       0
  6391 ;;      Temps:          4       0       0       0       0
  6392 ;;      Totals:        12       0       0       0       0
  6393 ;;Total ram usage:       12 bytes
  6394 ;; Hardware stack levels used: 1
  6395 ;; This function calls:
  6396 ;;		Nothing
  6397 ;; This function is called by:
  6398 ;;		_liga_buzzer
  6399 ;; This function uses a non-reentrant model
  6400 ;;
  6401                           
  6402                           
  6403                           ;psect for function ___flge
  6404  0C21                     ___flge:
  6405  0C21                     l2469:	
  6406                           ;incstack = 0
  6407                           ; Regs used in ___flge: [wreg+status,2+status,0]
  6408                           
  6409  0C21  3000               	movlw	0
  6410  0C22  0570               	andwf	___flge@ff1,w
  6411  0C23  00F8               	movwf	??___flge
  6412  0C24  3000               	movlw	0
  6413  0C25  0571               	andwf	___flge@ff1+1,w
  6414  0C26  00F9               	movwf	??___flge+1
  6415  0C27  3080               	movlw	128
  6416  0C28  0572               	andwf	___flge@ff1+2,w
  6417  0C29  00FA               	movwf	??___flge+2
  6418  0C2A  307F               	movlw	127
  6419  0C2B  0573               	andwf	___flge@ff1+3,w
  6420  0C2C  00FB               	movwf	??___flge+3
  6421  0C2D  087B               	movf	??___flge+3,w
  6422  0C2E  047A               	iorwf	??___flge+2,w
  6423  0C2F  0479               	iorwf	??___flge+1,w
  6424  0C30  0478               	iorwf	??___flge,w
  6425  0C31  1D03               	skipz
  6426  0C32  2C34               	goto	u2341
  6427  0C33  2C35               	goto	u2340
  6428  0C34                     u2341:
  6429  0C34  2C3D               	goto	l631
  6430  0C35                     u2340:
  6431  0C35                     l2471:
  6432  0C35  3000               	movlw	0
  6433  0C36  00F3               	movwf	___flge@ff1+3
  6434  0C37  3000               	movlw	0
  6435  0C38  00F2               	movwf	___flge@ff1+2
  6436  0C39  3000               	movlw	0
  6437  0C3A  00F1               	movwf	___flge@ff1+1
  6438  0C3B  3000               	movlw	0
  6439  0C3C  00F0               	movwf	___flge@ff1
  6440  0C3D                     l631:
  6441  0C3D  3000               	movlw	0
  6442  0C3E  0574               	andwf	___flge@ff2,w
  6443  0C3F  00F8               	movwf	??___flge
  6444  0C40  3000               	movlw	0
  6445  0C41  0575               	andwf	___flge@ff2+1,w
  6446  0C42  00F9               	movwf	??___flge+1
  6447  0C43  3080               	movlw	128
  6448  0C44  0576               	andwf	___flge@ff2+2,w
  6449  0C45  00FA               	movwf	??___flge+2
  6450  0C46  307F               	movlw	127
  6451  0C47  0577               	andwf	___flge@ff2+3,w
  6452  0C48  00FB               	movwf	??___flge+3
  6453  0C49  087B               	movf	??___flge+3,w
  6454  0C4A  047A               	iorwf	??___flge+2,w
  6455  0C4B  0479               	iorwf	??___flge+1,w
  6456  0C4C  0478               	iorwf	??___flge,w
  6457  0C4D  1D03               	skipz
  6458  0C4E  2C50               	goto	u2351
  6459  0C4F  2C51               	goto	u2350
  6460  0C50                     u2351:
  6461  0C50  2C59               	goto	l2475
  6462  0C51                     u2350:
  6463  0C51                     l2473:
  6464  0C51  3000               	movlw	0
  6465  0C52  00F7               	movwf	___flge@ff2+3
  6466  0C53  3000               	movlw	0
  6467  0C54  00F6               	movwf	___flge@ff2+2
  6468  0C55  3000               	movlw	0
  6469  0C56  00F5               	movwf	___flge@ff2+1
  6470  0C57  3000               	movlw	0
  6471  0C58  00F4               	movwf	___flge@ff2
  6472  0C59                     l2475:
  6473  0C59  1FF3               	btfss	___flge@ff1+3,7
  6474  0C5A  2C5C               	goto	u2361
  6475  0C5B  2C5D               	goto	u2360
  6476  0C5C                     u2361:
  6477  0C5C  2C81               	goto	l2479
  6478  0C5D                     u2360:
  6479  0C5D                     l2477:
  6480  0C5D  3000               	movlw	0
  6481  0C5E  00F8               	movwf	??___flge
  6482  0C5F  3000               	movlw	0
  6483  0C60  00F9               	movwf	??___flge+1
  6484  0C61  3000               	movlw	0
  6485  0C62  00FA               	movwf	??___flge+2
  6486  0C63  3080               	movlw	128
  6487  0C64  00FB               	movwf	??___flge+3
  6488  0C65  0870               	movf	___flge@ff1,w
  6489  0C66  02F8               	subwf	??___flge,f
  6490  0C67  0871               	movf	___flge@ff1+1,w
  6491  0C68  1C03               	skipc
  6492  0C69  0F71               	incfsz	___flge@ff1+1,w
  6493  0C6A  2C6C               	goto	u2371
  6494  0C6B  2C6D               	goto	u2372
  6495  0C6C                     u2371:
  6496  0C6C  02F9               	subwf	??___flge+1,f
  6497  0C6D                     u2372:
  6498  0C6D  0872               	movf	___flge@ff1+2,w
  6499  0C6E  1C03               	skipc
  6500  0C6F  0F72               	incfsz	___flge@ff1+2,w
  6501  0C70  2C72               	goto	u2373
  6502  0C71  2C73               	goto	u2374
  6503  0C72                     u2373:
  6504  0C72  02FA               	subwf	??___flge+2,f
  6505  0C73                     u2374:
  6506  0C73  0873               	movf	___flge@ff1+3,w
  6507  0C74  1C03               	skipc
  6508  0C75  0F73               	incfsz	___flge@ff1+3,w
  6509  0C76  2C78               	goto	u2375
  6510  0C77  2C79               	goto	u2376
  6511  0C78                     u2375:
  6512  0C78  02FB               	subwf	??___flge+3,f
  6513  0C79                     u2376:
  6514  0C79  087B               	movf	??___flge+3,w
  6515  0C7A  00F3               	movwf	___flge@ff1+3
  6516  0C7B  087A               	movf	??___flge+2,w
  6517  0C7C  00F2               	movwf	___flge@ff1+2
  6518  0C7D  0879               	movf	??___flge+1,w
  6519  0C7E  00F1               	movwf	___flge@ff1+1
  6520  0C7F  0878               	movf	??___flge,w
  6521  0C80  00F0               	movwf	___flge@ff1
  6522  0C81                     l2479:
  6523  0C81  1FF7               	btfss	___flge@ff2+3,7
  6524  0C82  2C84               	goto	u2381
  6525  0C83  2C85               	goto	u2380
  6526  0C84                     u2381:
  6527  0C84  2CA9               	goto	l634
  6528  0C85                     u2380:
  6529  0C85                     l2481:
  6530  0C85  3000               	movlw	0
  6531  0C86  00F8               	movwf	??___flge
  6532  0C87  3000               	movlw	0
  6533  0C88  00F9               	movwf	??___flge+1
  6534  0C89  3000               	movlw	0
  6535  0C8A  00FA               	movwf	??___flge+2
  6536  0C8B  3080               	movlw	128
  6537  0C8C  00FB               	movwf	??___flge+3
  6538  0C8D  0874               	movf	___flge@ff2,w
  6539  0C8E  02F8               	subwf	??___flge,f
  6540  0C8F  0875               	movf	___flge@ff2+1,w
  6541  0C90  1C03               	skipc
  6542  0C91  0F75               	incfsz	___flge@ff2+1,w
  6543  0C92  2C94               	goto	u2391
  6544  0C93  2C95               	goto	u2392
  6545  0C94                     u2391:
  6546  0C94  02F9               	subwf	??___flge+1,f
  6547  0C95                     u2392:
  6548  0C95  0876               	movf	___flge@ff2+2,w
  6549  0C96  1C03               	skipc
  6550  0C97  0F76               	incfsz	___flge@ff2+2,w
  6551  0C98  2C9A               	goto	u2393
  6552  0C99  2C9B               	goto	u2394
  6553  0C9A                     u2393:
  6554  0C9A  02FA               	subwf	??___flge+2,f
  6555  0C9B                     u2394:
  6556  0C9B  0877               	movf	___flge@ff2+3,w
  6557  0C9C  1C03               	skipc
  6558  0C9D  0F77               	incfsz	___flge@ff2+3,w
  6559  0C9E  2CA0               	goto	u2395
  6560  0C9F  2CA1               	goto	u2396
  6561  0CA0                     u2395:
  6562  0CA0  02FB               	subwf	??___flge+3,f
  6563  0CA1                     u2396:
  6564  0CA1  087B               	movf	??___flge+3,w
  6565  0CA2  00F7               	movwf	___flge@ff2+3
  6566  0CA3  087A               	movf	??___flge+2,w
  6567  0CA4  00F6               	movwf	___flge@ff2+2
  6568  0CA5  0879               	movf	??___flge+1,w
  6569  0CA6  00F5               	movwf	___flge@ff2+1
  6570  0CA7  0878               	movf	??___flge,w
  6571  0CA8  00F4               	movwf	___flge@ff2
  6572  0CA9                     l634:
  6573  0CA9  3080               	movlw	128
  6574  0CAA  06F3               	xorwf	___flge@ff1+3,f
  6575  0CAB  3080               	movlw	128
  6576  0CAC  06F7               	xorwf	___flge@ff2+3,f
  6577  0CAD  0877               	movf	___flge@ff2+3,w
  6578  0CAE  0273               	subwf	___flge@ff1+3,w
  6579  0CAF  1D03               	skipz
  6580  0CB0  2CBB               	goto	u2405
  6581  0CB1  0876               	movf	___flge@ff2+2,w
  6582  0CB2  0272               	subwf	___flge@ff1+2,w
  6583  0CB3  1D03               	skipz
  6584  0CB4  2CBB               	goto	u2405
  6585  0CB5  0875               	movf	___flge@ff2+1,w
  6586  0CB6  0271               	subwf	___flge@ff1+1,w
  6587  0CB7  1D03               	skipz
  6588  0CB8  2CBB               	goto	u2405
  6589  0CB9  0874               	movf	___flge@ff2,w
  6590  0CBA  0270               	subwf	___flge@ff1,w
  6591  0CBB                     u2405:
  6592  0CBB  1803               	skipnc
  6593  0CBC  2CBE               	goto	u2401
  6594  0CBD  2CBF               	goto	u2400
  6595  0CBE                     u2401:
  6596  0CBE  2CC1               	goto	l2485
  6597  0CBF                     u2400:
  6598  0CBF                     l2483:
  6599  0CBF  1003               	clrc
  6600  0CC0  2CC2               	goto	l635
  6601  0CC1                     l2485:
  6602  0CC1  1403               	setc
  6603  0CC2                     l635:
  6604  0CC2  0008               	return
  6605  0CC3                     __end_of___flge:
  6606                           
  6607                           	psect	text19
  6608  0AAE                     __ptext19:	
  6609 ;; *************** function _confereTeclado *****************
  6610 ;; Defined at:
  6611 ;;		line 169 in file "main.c"
  6612 ;; Parameters:    Size  Location     Type
  6613 ;;  numero          2    0[COMMON] unsigned int 
  6614 ;; Auto vars:     Size  Location     Type
  6615 ;;		None
  6616 ;; Return value:  Size  Location     Type
  6617 ;;                  1    wreg      unsigned char 
  6618 ;; Registers used:
  6619 ;;		wreg, fsr0l, fsr0h, status,2, status,0
  6620 ;; Tracked objects:
  6621 ;;		On entry : 0/0
  6622 ;;		On exit  : 0/0
  6623 ;;		Unchanged: 0/0
  6624 ;; Data sizes:     COMMON   BANK0   BANK1   BANK3   BANK2
  6625 ;;      Params:         2       0       0       0       0
  6626 ;;      Locals:         0       0       0       0       0
  6627 ;;      Temps:          0       0       0       0       0
  6628 ;;      Totals:         2       0       0       0       0
  6629 ;;Total ram usage:        2 bytes
  6630 ;; Hardware stack levels used: 1
  6631 ;; This function calls:
  6632 ;;		Nothing
  6633 ;; This function is called by:
  6634 ;;		_inputSenhaAlter
  6635 ;;		_validaUser
  6636 ;; This function uses a non-reentrant model
  6637 ;;
  6638                           
  6639                           
  6640                           ;psect for function _confereTeclado
  6641  0AAE                     _confereTeclado:
  6642  0AAE                     l2693:	
  6643                           ;incstack = 0
  6644                           ; Regs used in _confereTeclado: [wreg-fsr0h+status,2+status,0]
  6645                           
  6646                           
  6647                           ;main.c: 170:    switch (numero){
  6648  0AAE  2AF5               	goto	l2717
  6649  0AAF                     l2695:
  6650                           
  6651                           ;main.c: 172:             aux = '1';
  6652  0AAF  3031               	movlw	49
  6653  0AB0  1283               	bcf	3,5	;RP0=0, select bank0
  6654  0AB1  1303               	bcf	3,6	;RP1=0, select bank0
  6655  0AB2  00D5               	movwf	_aux
  6656  0AB3  3000               	movlw	0
  6657  0AB4  00D6               	movwf	_aux+1
  6658                           
  6659                           ;main.c: 173:         break;
  6660  0AB5  2B1A               	goto	l2719
  6661  0AB6                     l2697:
  6662                           
  6663                           ;main.c: 175:             aux = '2';
  6664  0AB6  3032               	movlw	50
  6665  0AB7  1283               	bcf	3,5	;RP0=0, select bank0
  6666  0AB8  1303               	bcf	3,6	;RP1=0, select bank0
  6667  0AB9  00D5               	movwf	_aux
  6668  0ABA  3000               	movlw	0
  6669  0ABB  00D6               	movwf	_aux+1
  6670                           
  6671                           ;main.c: 176:         break;
  6672  0ABC  2B1A               	goto	l2719
  6673  0ABD                     l2699:
  6674                           
  6675                           ;main.c: 178:             aux = '3';
  6676  0ABD  3033               	movlw	51
  6677  0ABE  1283               	bcf	3,5	;RP0=0, select bank0
  6678  0ABF  1303               	bcf	3,6	;RP1=0, select bank0
  6679  0AC0  00D5               	movwf	_aux
  6680  0AC1  3000               	movlw	0
  6681  0AC2  00D6               	movwf	_aux+1
  6682                           
  6683                           ;main.c: 179:         break;
  6684  0AC3  2B1A               	goto	l2719
  6685  0AC4                     l2701:
  6686                           
  6687                           ;main.c: 181:             aux = '4';
  6688  0AC4  3034               	movlw	52
  6689  0AC5  1283               	bcf	3,5	;RP0=0, select bank0
  6690  0AC6  1303               	bcf	3,6	;RP1=0, select bank0
  6691  0AC7  00D5               	movwf	_aux
  6692  0AC8  3000               	movlw	0
  6693  0AC9  00D6               	movwf	_aux+1
  6694                           
  6695                           ;main.c: 182:         break;
  6696  0ACA  2B1A               	goto	l2719
  6697  0ACB                     l2703:
  6698                           
  6699                           ;main.c: 184:             aux = '5';
  6700  0ACB  3035               	movlw	53
  6701  0ACC  1283               	bcf	3,5	;RP0=0, select bank0
  6702  0ACD  1303               	bcf	3,6	;RP1=0, select bank0
  6703  0ACE  00D5               	movwf	_aux
  6704  0ACF  3000               	movlw	0
  6705  0AD0  00D6               	movwf	_aux+1
  6706                           
  6707                           ;main.c: 185:         break;
  6708  0AD1  2B1A               	goto	l2719
  6709  0AD2                     l2705:
  6710                           
  6711                           ;main.c: 187:             aux = '6';
  6712  0AD2  3036               	movlw	54
  6713  0AD3  1283               	bcf	3,5	;RP0=0, select bank0
  6714  0AD4  1303               	bcf	3,6	;RP1=0, select bank0
  6715  0AD5  00D5               	movwf	_aux
  6716  0AD6  3000               	movlw	0
  6717  0AD7  00D6               	movwf	_aux+1
  6718                           
  6719                           ;main.c: 188:         break;
  6720  0AD8  2B1A               	goto	l2719
  6721  0AD9                     l2707:
  6722                           
  6723                           ;main.c: 190:             aux = '7';
  6724  0AD9  3037               	movlw	55
  6725  0ADA  1283               	bcf	3,5	;RP0=0, select bank0
  6726  0ADB  1303               	bcf	3,6	;RP1=0, select bank0
  6727  0ADC  00D5               	movwf	_aux
  6728  0ADD  3000               	movlw	0
  6729  0ADE  00D6               	movwf	_aux+1
  6730                           
  6731                           ;main.c: 191:         break;
  6732  0ADF  2B1A               	goto	l2719
  6733  0AE0                     l2709:
  6734                           
  6735                           ;main.c: 193:             aux = '8';
  6736  0AE0  3038               	movlw	56
  6737  0AE1  1283               	bcf	3,5	;RP0=0, select bank0
  6738  0AE2  1303               	bcf	3,6	;RP1=0, select bank0
  6739  0AE3  00D5               	movwf	_aux
  6740  0AE4  3000               	movlw	0
  6741  0AE5  00D6               	movwf	_aux+1
  6742                           
  6743                           ;main.c: 194:         break;
  6744  0AE6  2B1A               	goto	l2719
  6745  0AE7                     l2711:
  6746                           
  6747                           ;main.c: 196:             aux = '9';
  6748  0AE7  3039               	movlw	57
  6749  0AE8  1283               	bcf	3,5	;RP0=0, select bank0
  6750  0AE9  1303               	bcf	3,6	;RP1=0, select bank0
  6751  0AEA  00D5               	movwf	_aux
  6752  0AEB  3000               	movlw	0
  6753  0AEC  00D6               	movwf	_aux+1
  6754                           
  6755                           ;main.c: 197:         break;
  6756  0AED  2B1A               	goto	l2719
  6757  0AEE                     l2713:
  6758                           
  6759                           ;main.c: 199:             aux = '0';
  6760  0AEE  3030               	movlw	48
  6761  0AEF  1283               	bcf	3,5	;RP0=0, select bank0
  6762  0AF0  1303               	bcf	3,6	;RP1=0, select bank0
  6763  0AF1  00D5               	movwf	_aux
  6764  0AF2  3000               	movlw	0
  6765  0AF3  00D6               	movwf	_aux+1
  6766                           
  6767                           ;main.c: 200:         break;
  6768  0AF4  2B1A               	goto	l2719
  6769  0AF5                     l2717:
  6770                           
  6771                           ; Switch on 2 bytes has been partitioned into a top level switch of size 1, and 1 sub-sw
      +                          itches
  6772                           ; Switch size 1, requested type "simple"
  6773                           ; Number of cases is 1, Range of values is 0 to 0
  6774                           ; switch strategies available:
  6775                           ; Name         Instructions Cycles
  6776                           ; simple_byte            4     3 (average)
  6777                           ; direct_byte           11     8 (fixed)
  6778                           ; jumptable            260     6 (fixed)
  6779                           ;	Chosen strategy is simple_byte
  6780  0AF5  0871               	movf	confereTeclado@numero+1,w
  6781  0AF6  3A00               	xorlw	0	; case 0
  6782  0AF7  1903               	skipnz
  6783  0AF8  2AFA               	goto	l3955
  6784  0AF9  2B1A               	goto	l2719
  6785  0AFA                     l3955:
  6786                           
  6787                           ; Switch size 1, requested type "simple"
  6788                           ; Number of cases is 10, Range of values is 0 to 9
  6789                           ; switch strategies available:
  6790                           ; Name         Instructions Cycles
  6791                           ; simple_byte           31    16 (average)
  6792                           ; direct_byte           38     8 (fixed)
  6793                           ; jumptable            260     6 (fixed)
  6794                           ;	Chosen strategy is simple_byte
  6795  0AFA  0870               	movf	confereTeclado@numero,w
  6796  0AFB  3A00               	xorlw	0	; case 0
  6797  0AFC  1903               	skipnz
  6798  0AFD  2AEE               	goto	l2713
  6799  0AFE  3A01               	xorlw	1	; case 1
  6800  0AFF  1903               	skipnz
  6801  0B00  2AAF               	goto	l2695
  6802  0B01  3A03               	xorlw	3	; case 2
  6803  0B02  1903               	skipnz
  6804  0B03  2AB6               	goto	l2697
  6805  0B04  3A01               	xorlw	1	; case 3
  6806  0B05  1903               	skipnz
  6807  0B06  2ABD               	goto	l2699
  6808  0B07  3A07               	xorlw	7	; case 4
  6809  0B08  1903               	skipnz
  6810  0B09  2AC4               	goto	l2701
  6811  0B0A  3A01               	xorlw	1	; case 5
  6812  0B0B  1903               	skipnz
  6813  0B0C  2ACB               	goto	l2703
  6814  0B0D  3A03               	xorlw	3	; case 6
  6815  0B0E  1903               	skipnz
  6816  0B0F  2AD2               	goto	l2705
  6817  0B10  3A01               	xorlw	1	; case 7
  6818  0B11  1903               	skipnz
  6819  0B12  2AD9               	goto	l2707
  6820  0B13  3A0F               	xorlw	15	; case 8
  6821  0B14  1903               	skipnz
  6822  0B15  2AE0               	goto	l2709
  6823  0B16  3A01               	xorlw	1	; case 9
  6824  0B17  1903               	skipnz
  6825  0B18  2AE7               	goto	l2711
  6826  0B19  2B1A               	goto	l2719
  6827  0B1A                     l2719:
  6828                           
  6829                           ;main.c: 202:    return aux;
  6830  0B1A  1283               	bcf	3,5	;RP0=0, select bank0
  6831  0B1B  1303               	bcf	3,6	;RP1=0, select bank0
  6832  0B1C  0855               	movf	_aux,w
  6833  0B1D                     l228:
  6834  0B1D  0008               	return
  6835  0B1E                     __end_of_confereTeclado:
  6836                           
  6837                           	psect	text20
  6838  082B                     __ptext20:	
  6839 ;; *************** function _Linha2 *****************
  6840 ;; Defined at:
  6841 ;;		line 495 in file "main.c"
  6842 ;; Parameters:    Size  Location     Type
  6843 ;;		None
  6844 ;; Auto vars:     Size  Location     Type
  6845 ;;  i               2    7[COMMON] int 
  6846 ;; Return value:  Size  Location     Type
  6847 ;;                  1    wreg      void 
  6848 ;; Registers used:
  6849 ;;		wreg, fsr0l, fsr0h, status,2, status,0, btemp+1, pclath, cstack
  6850 ;; Tracked objects:
  6851 ;;		On entry : 0/0
  6852 ;;		On exit  : 0/0
  6853 ;;		Unchanged: 0/0
  6854 ;; Data sizes:     COMMON   BANK0   BANK1   BANK3   BANK2
  6855 ;;      Params:         0       0       0       0       0
  6856 ;;      Locals:         2       0       0       0       0
  6857 ;;      Temps:          2       0       0       0       0
  6858 ;;      Totals:         4       0       0       0       0
  6859 ;;Total ram usage:        4 bytes
  6860 ;; Hardware stack levels used: 1
  6861 ;; Hardware stack levels required when called: 3
  6862 ;; This function calls:
  6863 ;;		_LCD_escreve
  6864 ;;		_LCD_linha2
  6865 ;;		_espacoLivre
  6866 ;;		_strlen
  6867 ;; This function is called by:
  6868 ;;		_alteraSenhas
  6869 ;;		_validaUser
  6870 ;; This function uses a non-reentrant model
  6871 ;;
  6872                           
  6873                           
  6874                           ;psect for function _Linha2
  6875  082B                     _Linha2:
  6876  082B                     l3599:	
  6877                           ;incstack = 0
  6878                           ; Regs used in _Linha2: [wreg-fsr0h+status,2+status,0+btemp+1+pclath+cstack]
  6879                           
  6880                           
  6881                           ;main.c: 496:     LCD_linha2();
  6882  082B  160A  118A  26D1  120A  158A  	fcall	_LCD_linha2
  6883                           
  6884                           ;main.c: 497:     espacoLivre();
  6885  0830  160A  118A  2759  120A  158A  	fcall	_espacoLivre
  6886  0835                     l3601:
  6887                           
  6888                           ;main.c: 498:     for (int i = 0; i <= strlen(msgMascara)-1; i++){
  6889  0835  01F7               	clrf	Linha2@i
  6890  0836  01F8               	clrf	Linha2@i+1
  6891  0837  2848               	goto	l3607
  6892  0838                     l3603:
  6893                           
  6894                           ;main.c: 499:         LCD_escreve(msgMascara[i]);
  6895  0838  0877               	movf	Linha2@i,w
  6896  0839  3EDA               	addlw	(low (_msgMascara| 0))& (0+255)
  6897  083A  0084               	movwf	4
  6898  083B  1383               	bcf	3,7	;select IRP bank1
  6899  083C  0800               	movf	0,w
  6900  083D  160A  118A  2701  120A  158A  	fcall	_LCD_escreve
  6901  0842                     l3605:
  6902                           
  6903                           ;main.c: 500:     }
  6904  0842  3001               	movlw	1
  6905  0843  07F7               	addwf	Linha2@i,f
  6906  0844  1803               	skipnc
  6907  0845  0AF8               	incf	Linha2@i+1,f
  6908  0846  3000               	movlw	0
  6909  0847  07F8               	addwf	Linha2@i+1,f
  6910  0848                     l3607:
  6911  0848  30DA               	movlw	(low (_msgMascara| 0))& (0+255)
  6912  0849  00F0               	movwf	strlen@s
  6913  084A  3000               	movlw	0
  6914  084B  00F1               	movwf	strlen@s+1
  6915  084C  160A  118A  273B  120A  158A  	fcall	_strlen
  6916  0851  0870               	movf	?_strlen,w
  6917  0852  3EFF               	addlw	255
  6918  0853  00F5               	movwf	??_Linha2
  6919  0854  0871               	movf	?_strlen+1,w
  6920  0855  1803               	skipnc
  6921  0856  3E01               	addlw	1
  6922  0857  3EFF               	addlw	255
  6923  0858  00F6               	movwf	??_Linha2+1
  6924  0859  0878               	movf	Linha2@i+1,w
  6925  085A  0276               	subwf	??_Linha2+1,w
  6926  085B  1D03               	skipz
  6927  085C  285F               	goto	u3835
  6928  085D  0877               	movf	Linha2@i,w
  6929  085E  0275               	subwf	??_Linha2,w
  6930  085F                     u3835:
  6931  085F  1803               	skipnc
  6932  0860  2862               	goto	u3831
  6933  0861  2863               	goto	u3830
  6934  0862                     u3831:
  6935  0862  2838               	goto	l3603
  6936  0863                     u3830:
  6937  0863                     l3609:
  6938                           
  6939                           ;main.c: 501:     espacoLivre();
  6940  0863  160A  118A  2759  120A  158A  	fcall	_espacoLivre
  6941  0868                     l315:
  6942  0868  0008               	return
  6943  0869                     __end_of_Linha2:
  6944                           
  6945                           	psect	text21
  6946  173B                     __ptext21:	
  6947 ;; *************** function _strlen *****************
  6948 ;; Defined at:
  6949 ;;		line 4 in file "C:\Program Files\Microchip\xc8\v2.32\pic\sources\c90\common\strlen.c"
  6950 ;; Parameters:    Size  Location     Type
  6951 ;;  s               2    0[COMMON] PTR const unsigned char 
  6952 ;;		 -> msgMascara(5), msgDigiteSenha(15), 
  6953 ;; Auto vars:     Size  Location     Type
  6954 ;;  cp              2    2[COMMON] PTR const unsigned char 
  6955 ;;		 -> msgMascara(5), msgDigiteSenha(15), 
  6956 ;; Return value:  Size  Location     Type
  6957 ;;                  2    0[COMMON] unsigned int 
  6958 ;; Registers used:
  6959 ;;		wreg, fsr0l, fsr0h, status,2, status,0
  6960 ;; Tracked objects:
  6961 ;;		On entry : 0/0
  6962 ;;		On exit  : 0/0
  6963 ;;		Unchanged: 0/0
  6964 ;; Data sizes:     COMMON   BANK0   BANK1   BANK3   BANK2
  6965 ;;      Params:         2       0       0       0       0
  6966 ;;      Locals:         2       0       0       0       0
  6967 ;;      Temps:          0       0       0       0       0
  6968 ;;      Totals:         4       0       0       0       0
  6969 ;;Total ram usage:        4 bytes
  6970 ;; Hardware stack levels used: 1
  6971 ;; This function calls:
  6972 ;;		Nothing
  6973 ;; This function is called by:
  6974 ;;		_Linha2
  6975 ;;		_telaInicial
  6976 ;; This function uses a non-reentrant model
  6977 ;;
  6978                           
  6979                           
  6980                           ;psect for function _strlen
  6981  173B                     _strlen:
  6982  173B                     l3565:	
  6983                           ;incstack = 0
  6984                           ; Regs used in _strlen: [wreg-fsr0h+status,2+status,0]
  6985                           
  6986  173B  0870               	movf	strlen@s,w
  6987  173C  00F2               	movwf	strlen@cp
  6988  173D  0871               	movf	strlen@s+1,w
  6989  173E  00F3               	movwf	strlen@cp+1
  6990  173F  2F46               	goto	l3569
  6991  1740                     l3567:
  6992  1740  3001               	movlw	1
  6993  1741  07F2               	addwf	strlen@cp,f
  6994  1742  1803               	skipnc
  6995  1743  0AF3               	incf	strlen@cp+1,f
  6996  1744  3000               	movlw	0
  6997  1745  07F3               	addwf	strlen@cp+1,f
  6998  1746                     l3569:
  6999  1746  0872               	movf	strlen@cp,w
  7000  1747  0084               	movwf	4
  7001  1748  1783               	bsf	3,7
  7002  1749  1C73               	btfss	strlen@cp+1,0
  7003  174A  1383               	bcf	3,7
  7004  174B  0800               	movf	0,w
  7005  174C  1D03               	btfss	3,2
  7006  174D  2F4F               	goto	u3811
  7007  174E  2F50               	goto	u3810
  7008  174F                     u3811:
  7009  174F  2F40               	goto	l3567
  7010  1750                     u3810:
  7011  1750                     l3571:
  7012  1750  0870               	movf	strlen@s,w
  7013  1751  0272               	subwf	strlen@cp,w
  7014  1752  00F0               	movwf	?_strlen
  7015  1753  0871               	movf	strlen@s+1,w
  7016  1754  1C03               	skipc
  7017  1755  0A71               	incf	strlen@s+1,w
  7018  1756  0273               	subwf	strlen@cp+1,w
  7019  1757  00F1               	movwf	?_strlen+1
  7020  1758                     l919:
  7021  1758  0008               	return
  7022  1759                     __end_of_strlen:
  7023                           
  7024                           	psect	text22
  7025  1759                     __ptext22:	
  7026 ;; *************** function _espacoLivre *****************
  7027 ;; Defined at:
  7028 ;;		line 503 in file "main.c"
  7029 ;; Parameters:    Size  Location     Type
  7030 ;;		None
  7031 ;; Auto vars:     Size  Location     Type
  7032 ;;  i               2    3[COMMON] int 
  7033 ;; Return value:  Size  Location     Type
  7034 ;;                  1    wreg      void 
  7035 ;; Registers used:
  7036 ;;		wreg, status,2, status,0, btemp+1, pclath, cstack
  7037 ;; Tracked objects:
  7038 ;;		On entry : 0/0
  7039 ;;		On exit  : 0/0
  7040 ;;		Unchanged: 0/0
  7041 ;; Data sizes:     COMMON   BANK0   BANK1   BANK3   BANK2
  7042 ;;      Params:         0       0       0       0       0
  7043 ;;      Locals:         2       0       0       0       0
  7044 ;;      Temps:          0       0       0       0       0
  7045 ;;      Totals:         2       0       0       0       0
  7046 ;;Total ram usage:        2 bytes
  7047 ;; Hardware stack levels used: 1
  7048 ;; Hardware stack levels required when called: 2
  7049 ;; This function calls:
  7050 ;;		_LCD_escreve
  7051 ;;		_LCD_linha2
  7052 ;; This function is called by:
  7053 ;;		_Linha2
  7054 ;; This function uses a non-reentrant model
  7055 ;;
  7056                           
  7057                           
  7058                           ;psect for function _espacoLivre
  7059  1759                     _espacoLivre:
  7060  1759                     l3015:	
  7061                           ;incstack = 0
  7062                           ; Regs used in _espacoLivre: [wreg+status,2+status,0+btemp+1+pclath+cstack]
  7063                           
  7064                           
  7065                           ;main.c: 504:     LCD_linha2();
  7066  1759  160A  118A  26D1  160A  118A  	fcall	_LCD_linha2
  7067  175E                     l3017:
  7068                           
  7069                           ;main.c: 505:     for (int i = 0; i < 6; i++){
  7070  175E  01F3               	clrf	espacoLivre@i
  7071  175F  01F4               	clrf	espacoLivre@i+1
  7072  1760                     l3023:
  7073                           
  7074                           ;main.c: 506:         LCD_escreve(' ');
  7075  1760  3020               	movlw	32
  7076  1761  160A  118A  2701  160A  118A  	fcall	_LCD_escreve
  7077  1766                     l3025:
  7078                           
  7079                           ;main.c: 507:     }
  7080  1766  3001               	movlw	1
  7081  1767  07F3               	addwf	espacoLivre@i,f
  7082  1768  1803               	skipnc
  7083  1769  0AF4               	incf	espacoLivre@i+1,f
  7084  176A  3000               	movlw	0
  7085  176B  07F4               	addwf	espacoLivre@i+1,f
  7086  176C                     l3027:
  7087  176C  0874               	movf	espacoLivre@i+1,w
  7088  176D  3A80               	xorlw	128
  7089  176E  00FF               	movwf	btemp+1
  7090  176F  3080               	movlw	128
  7091  1770  027F               	subwf	btemp+1,w
  7092  1771  1D03               	skipz
  7093  1772  2F75               	goto	u3245
  7094  1773  3006               	movlw	6
  7095  1774  0273               	subwf	espacoLivre@i,w
  7096  1775                     u3245:
  7097  1775  1C03               	skipc
  7098  1776  2F78               	goto	u3241
  7099  1777  2F79               	goto	u3240
  7100  1778                     u3241:
  7101  1778  2F60               	goto	l3023
  7102  1779                     u3240:
  7103  1779                     l320:
  7104  1779  0008               	return
  7105  177A                     __end_of_espacoLivre:
  7106                           
  7107                           	psect	text23
  7108  16D1                     __ptext23:	
  7109 ;; *************** function _LCD_linha2 *****************
  7110 ;; Defined at:
  7111 ;;		line 73 in file "./lcd.h"
  7112 ;; Parameters:    Size  Location     Type
  7113 ;;		None
  7114 ;; Auto vars:     Size  Location     Type
  7115 ;;		None
  7116 ;; Return value:  Size  Location     Type
  7117 ;;                  1    wreg      void 
  7118 ;; Registers used:
  7119 ;;		wreg, status,2, status,0, btemp+1, pclath, cstack
  7120 ;; Tracked objects:
  7121 ;;		On entry : 0/0
  7122 ;;		On exit  : 0/0
  7123 ;;		Unchanged: 0/0
  7124 ;; Data sizes:     COMMON   BANK0   BANK1   BANK3   BANK2
  7125 ;;      Params:         0       0       0       0       0
  7126 ;;      Locals:         0       0       0       0       0
  7127 ;;      Temps:          0       0       0       0       0
  7128 ;;      Totals:         0       0       0       0       0
  7129 ;;Total ram usage:        0 bytes
  7130 ;; Hardware stack levels used: 1
  7131 ;; Hardware stack levels required when called: 1
  7132 ;; This function calls:
  7133 ;;		_delay
  7134 ;; This function is called by:
  7135 ;;		_infoZonas
  7136 ;;		_valida_senha
  7137 ;;		_rotinaValidaSenha
  7138 ;;		_Linha2
  7139 ;;		_espacoLivre
  7140 ;;		_listaZonas
  7141 ;; This function uses a non-reentrant model
  7142 ;;
  7143                           
  7144                           
  7145                           ;psect for function _LCD_linha2
  7146  16D1                     _LCD_linha2:
  7147  16D1                     l2659:	
  7148                           ;incstack = 0
  7149                           ; Regs used in _LCD_linha2: [wreg+status,2+status,0+btemp+1+pclath+cstack]
  7150                           
  7151                           
  7152                           ;./lcd.h: 74:     PORTD = 0xC0;
  7153  16D1  30C0               	movlw	192
  7154  16D2  1283               	bcf	3,5	;RP0=0, select bank0
  7155  16D3  1303               	bcf	3,6	;RP1=0, select bank0
  7156  16D4  0088               	movwf	8	;volatile
  7157  16D5                     l2661:
  7158                           
  7159                           ;./lcd.h: 75:     RA5 = 0;
  7160  16D5  1285               	bcf	5,5	;volatile
  7161  16D6                     l2663:
  7162                           
  7163                           ;./lcd.h: 76:     RA4 = 0;
  7164  16D6  1205               	bcf	5,4	;volatile
  7165  16D7                     l2665:
  7166                           
  7167                           ;./lcd.h: 77:     RA3=0;
  7168  16D7  1185               	bcf	5,3	;volatile
  7169  16D8                     l2667:
  7170                           
  7171                           ;./lcd.h: 78:     delay();
  7172  16D8  160A  118A  2725  160A  118A  	fcall	_delay
  7173  16DD                     l2669:
  7174                           
  7175                           ;./lcd.h: 79:  RA3 = 1;
  7176  16DD  1283               	bcf	3,5	;RP0=0, select bank0
  7177  16DE  1303               	bcf	3,6	;RP1=0, select bank0
  7178  16DF  1585               	bsf	5,3	;volatile
  7179  16E0                     l82:
  7180  16E0  0008               	return
  7181  16E1                     __end_of_LCD_linha2:
  7182                           
  7183                           	psect	text24
  7184  1701                     __ptext24:	
  7185 ;; *************** function _LCD_escreve *****************
  7186 ;; Defined at:
  7187 ;;		line 46 in file "./lcd.h"
  7188 ;; Parameters:    Size  Location     Type
  7189 ;;  x               1    wreg     unsigned char 
  7190 ;; Auto vars:     Size  Location     Type
  7191 ;;  x               1    2[COMMON] unsigned char 
  7192 ;; Return value:  Size  Location     Type
  7193 ;;                  1    wreg      void 
  7194 ;; Registers used:
  7195 ;;		wreg, status,2, status,0, btemp+1, pclath, cstack
  7196 ;; Tracked objects:
  7197 ;;		On entry : 0/0
  7198 ;;		On exit  : 0/0
  7199 ;;		Unchanged: 0/0
  7200 ;; Data sizes:     COMMON   BANK0   BANK1   BANK3   BANK2
  7201 ;;      Params:         0       0       0       0       0
  7202 ;;      Locals:         1       0       0       0       0
  7203 ;;      Temps:          0       0       0       0       0
  7204 ;;      Totals:         1       0       0       0       0
  7205 ;;Total ram usage:        1 bytes
  7206 ;; Hardware stack levels used: 1
  7207 ;; Hardware stack levels required when called: 1
  7208 ;; This function calls:
  7209 ;;		_delay
  7210 ;; This function is called by:
  7211 ;;		_valida_senha
  7212 ;;		_teclado
  7213 ;;		_Linha2
  7214 ;;		_espacoLivre
  7215 ;;		_escreveMesagem
  7216 ;;		_LCD_escreveFrase
  7217 ;;		_telaInicial
  7218 ;;		_listaZonas
  7219 ;; This function uses a non-reentrant model
  7220 ;;
  7221                           
  7222                           
  7223                           ;psect for function _LCD_escreve
  7224  1701                     _LCD_escreve:
  7225                           
  7226                           ;incstack = 0
  7227                           ; Regs used in _LCD_escreve: [wreg+status,2+status,0+btemp+1+pclath+cstack]
  7228                           ;LCD_escreve@x stored from wreg
  7229  1701  00F2               	movwf	LCD_escreve@x
  7230  1702                     l2457:
  7231                           
  7232                           ;./lcd.h: 46: void LCD_escreve(char x);./lcd.h: 47: {;./lcd.h: 48:  PORTD = x;
  7233  1702  0872               	movf	LCD_escreve@x,w
  7234  1703  1283               	bcf	3,5	;RP0=0, select bank0
  7235  1704  1303               	bcf	3,6	;RP1=0, select bank0
  7236  1705  0088               	movwf	8	;volatile
  7237  1706                     l2459:
  7238                           
  7239                           ;./lcd.h: 49:  RA5 = 1;
  7240  1706  1685               	bsf	5,5	;volatile
  7241  1707                     l2461:
  7242                           
  7243                           ;./lcd.h: 50:  RA4 = 0;
  7244  1707  1205               	bcf	5,4	;volatile
  7245  1708                     l2463:
  7246                           
  7247                           ;./lcd.h: 51:  RA3 = 0;
  7248  1708  1185               	bcf	5,3	;volatile
  7249  1709                     l2465:
  7250                           
  7251                           ;./lcd.h: 52:  delay();
  7252  1709  160A  118A  2725  160A  118A  	fcall	_delay
  7253  170E                     l2467:
  7254                           
  7255                           ;./lcd.h: 53:  RA3 = 1;
  7256  170E  1283               	bcf	3,5	;RP0=0, select bank0
  7257  170F  1303               	bcf	3,6	;RP1=0, select bank0
  7258  1710  1585               	bsf	5,3	;volatile
  7259  1711                     l73:
  7260  1711  0008               	return
  7261  1712                     __end_of_LCD_escreve:
  7262                           
  7263                           	psect	text25
  7264  17CD                     __ptext25:	
  7265 ;; *************** function _LCD_init *****************
  7266 ;; Defined at:
  7267 ;;		line 31 in file "./lcd.h"
  7268 ;; Parameters:    Size  Location     Type
  7269 ;;		None
  7270 ;; Auto vars:     Size  Location     Type
  7271 ;;		None
  7272 ;; Return value:  Size  Location     Type
  7273 ;;                  1    wreg      void 
  7274 ;; Registers used:
  7275 ;;		wreg, status,2, status,0, btemp+1, pclath, cstack
  7276 ;; Tracked objects:
  7277 ;;		On entry : 0/0
  7278 ;;		On exit  : 0/0
  7279 ;;		Unchanged: 0/0
  7280 ;; Data sizes:     COMMON   BANK0   BANK1   BANK3   BANK2
  7281 ;;      Params:         0       0       0       0       0
  7282 ;;      Locals:         0       0       0       0       0
  7283 ;;      Temps:          0       0       0       0       0
  7284 ;;      Totals:         0       0       0       0       0
  7285 ;;Total ram usage:        0 bytes
  7286 ;; Hardware stack levels used: 1
  7287 ;; Hardware stack levels required when called: 2
  7288 ;; This function calls:
  7289 ;;		_LCD_enable
  7290 ;;		_init
  7291 ;; This function is called by:
  7292 ;;		_alteraSenhas
  7293 ;;		_validaUser
  7294 ;;		_listaZonas
  7295 ;; This function uses a non-reentrant model
  7296 ;;
  7297                           
  7298                           
  7299                           ;psect for function _LCD_init
  7300  17CD                     _LCD_init:
  7301  17CD                     l3029:	
  7302                           ;incstack = 0
  7303                           ; Regs used in _LCD_init: [wreg+status,2+status,0+btemp+1+pclath+cstack]
  7304                           
  7305                           
  7306                           ;./lcd.h: 33:     init();
  7307  17CD  160A  118A  269B  160A  118A  	fcall	_init
  7308  17D2                     l3031:
  7309                           
  7310                           ;./lcd.h: 34:  PORTD = 0X1;
  7311  17D2  3001               	movlw	1
  7312  17D3  1283               	bcf	3,5	;RP0=0, select bank0
  7313  17D4  1303               	bcf	3,6	;RP1=0, select bank0
  7314  17D5  0088               	movwf	8	;volatile
  7315  17D6                     l3033:
  7316                           
  7317                           ;./lcd.h: 35:  LCD_enable();
  7318  17D6  160A  118A  26B4  160A  118A  	fcall	_LCD_enable
  7319  17DB                     l3035:
  7320                           
  7321                           ;./lcd.h: 36:  PORTD = 0X38;
  7322  17DB  3038               	movlw	56
  7323  17DC  1283               	bcf	3,5	;RP0=0, select bank0
  7324  17DD  1303               	bcf	3,6	;RP1=0, select bank0
  7325  17DE  0088               	movwf	8	;volatile
  7326  17DF                     l3037:
  7327                           
  7328                           ;./lcd.h: 37:  LCD_enable();
  7329  17DF  160A  118A  26B4  160A  118A  	fcall	_LCD_enable
  7330  17E4                     l3039:
  7331                           
  7332                           ;./lcd.h: 38:  PORTD = 0X0e;
  7333  17E4  300E               	movlw	14
  7334  17E5  1283               	bcf	3,5	;RP0=0, select bank0
  7335  17E6  1303               	bcf	3,6	;RP1=0, select bank0
  7336  17E7  0088               	movwf	8	;volatile
  7337  17E8                     l3041:
  7338                           
  7339                           ;./lcd.h: 39:  LCD_enable();
  7340  17E8  160A  118A  26B4  160A  118A  	fcall	_LCD_enable
  7341  17ED                     l3043:
  7342                           
  7343                           ;./lcd.h: 40:  PORTD = 0X06;
  7344  17ED  3006               	movlw	6
  7345  17EE  1283               	bcf	3,5	;RP0=0, select bank0
  7346  17EF  1303               	bcf	3,6	;RP1=0, select bank0
  7347  17F0  0088               	movwf	8	;volatile
  7348  17F1                     l3045:
  7349                           
  7350                           ;./lcd.h: 41:  LCD_enable();
  7351  17F1  160A  118A  26B4  160A  118A  	fcall	_LCD_enable
  7352  17F6                     l3047:
  7353                           
  7354                           ;./lcd.h: 42:  PORTD = 0X80;
  7355  17F6  3080               	movlw	128
  7356  17F7  1283               	bcf	3,5	;RP0=0, select bank0
  7357  17F8  1303               	bcf	3,6	;RP1=0, select bank0
  7358  17F9  0088               	movwf	8	;volatile
  7359  17FA                     l3049:
  7360                           
  7361                           ;./lcd.h: 43:  LCD_enable();
  7362  17FA  160A  118A  26B4  160A  118A  	fcall	_LCD_enable
  7363  17FF                     l70:
  7364  17FF  0008               	return
  7365  1800                     __end_of_LCD_init:
  7366                           
  7367                           	psect	text26
  7368  169B                     __ptext26:	
  7369 ;; *************** function _init *****************
  7370 ;; Defined at:
  7371 ;;		line 23 in file "./lcd.h"
  7372 ;; Parameters:    Size  Location     Type
  7373 ;;		None
  7374 ;; Auto vars:     Size  Location     Type
  7375 ;;		None
  7376 ;; Return value:  Size  Location     Type
  7377 ;;                  1    wreg      void 
  7378 ;; Registers used:
  7379 ;;		wreg, status,2
  7380 ;; Tracked objects:
  7381 ;;		On entry : 0/0
  7382 ;;		On exit  : 0/0
  7383 ;;		Unchanged: 0/0
  7384 ;; Data sizes:     COMMON   BANK0   BANK1   BANK3   BANK2
  7385 ;;      Params:         0       0       0       0       0
  7386 ;;      Locals:         0       0       0       0       0
  7387 ;;      Temps:          0       0       0       0       0
  7388 ;;      Totals:         0       0       0       0       0
  7389 ;;Total ram usage:        0 bytes
  7390 ;; Hardware stack levels used: 1
  7391 ;; This function calls:
  7392 ;;		Nothing
  7393 ;; This function is called by:
  7394 ;;		_LCD_init
  7395 ;; This function uses a non-reentrant model
  7396 ;;
  7397                           
  7398                           
  7399                           ;psect for function _init
  7400  169B                     _init:
  7401  169B                     l2969:	
  7402                           ;incstack = 0
  7403                           ; Regs used in _init: [wreg+status,2]
  7404                           
  7405                           
  7406                           ;./lcd.h: 25:  ADCON1 = 0X07;
  7407  169B  3007               	movlw	7
  7408  169C  1683               	bsf	3,5	;RP0=1, select bank1
  7409  169D  1303               	bcf	3,6	;RP1=0, select bank1
  7410  169E  009F               	movwf	31	;volatile
  7411  169F                     l2971:
  7412                           
  7413                           ;./lcd.h: 26:      RA1=1;
  7414  169F  1283               	bcf	3,5	;RP0=0, select bank0
  7415  16A0  1303               	bcf	3,6	;RP1=0, select bank0
  7416  16A1  1485               	bsf	5,1	;volatile
  7417  16A2                     l2973:
  7418                           
  7419                           ;./lcd.h: 27:  TRISA = 0X00;
  7420  16A2  1683               	bsf	3,5	;RP0=1, select bank1
  7421  16A3  1303               	bcf	3,6	;RP1=0, select bank1
  7422  16A4  0185               	clrf	5	;volatile
  7423  16A5                     l2975:
  7424                           
  7425                           ;./lcd.h: 28:  TRISD = 0X00;
  7426  16A5  0188               	clrf	8	;volatile
  7427  16A6                     l67:
  7428  16A6  0008               	return
  7429  16A7                     __end_of_init:
  7430                           
  7431                           	psect	text27
  7432  16B4                     __ptext27:	
  7433 ;; *************** function _LCD_enable *****************
  7434 ;; Defined at:
  7435 ;;		line 85 in file "./lcd.h"
  7436 ;; Parameters:    Size  Location     Type
  7437 ;;		None
  7438 ;; Auto vars:     Size  Location     Type
  7439 ;;		None
  7440 ;; Return value:  Size  Location     Type
  7441 ;;                  1    wreg      void 
  7442 ;; Registers used:
  7443 ;;		wreg, status,2, status,0, btemp+1, pclath, cstack
  7444 ;; Tracked objects:
  7445 ;;		On entry : 0/0
  7446 ;;		On exit  : 0/0
  7447 ;;		Unchanged: 0/0
  7448 ;; Data sizes:     COMMON   BANK0   BANK1   BANK3   BANK2
  7449 ;;      Params:         0       0       0       0       0
  7450 ;;      Locals:         0       0       0       0       0
  7451 ;;      Temps:          0       0       0       0       0
  7452 ;;      Totals:         0       0       0       0       0
  7453 ;;Total ram usage:        0 bytes
  7454 ;; Hardware stack levels used: 1
  7455 ;; Hardware stack levels required when called: 1
  7456 ;; This function calls:
  7457 ;;		_delay
  7458 ;; This function is called by:
  7459 ;;		_LCD_init
  7460 ;; This function uses a non-reentrant model
  7461 ;;
  7462                           
  7463                           
  7464                           ;psect for function _LCD_enable
  7465  16B4                     _LCD_enable:
  7466  16B4                     l2977:	
  7467                           ;incstack = 0
  7468                           ; Regs used in _LCD_enable: [wreg+status,2+status,0+btemp+1+pclath+cstack]
  7469                           
  7470                           
  7471                           ;./lcd.h: 87:  RA5 = 0;
  7472  16B4  1283               	bcf	3,5	;RP0=0, select bank0
  7473  16B5  1303               	bcf	3,6	;RP1=0, select bank0
  7474  16B6  1285               	bcf	5,5	;volatile
  7475                           
  7476                           ;./lcd.h: 88:  RA4 = 0;
  7477  16B7  1205               	bcf	5,4	;volatile
  7478                           
  7479                           ;./lcd.h: 89:  RA3 = 0;
  7480  16B8  1185               	bcf	5,3	;volatile
  7481  16B9                     l2979:
  7482                           
  7483                           ;./lcd.h: 90:  delay();
  7484  16B9  160A  118A  2725  160A  118A  	fcall	_delay
  7485  16BE                     l2981:
  7486                           
  7487                           ;./lcd.h: 91:  RA3 = 1;
  7488  16BE  1283               	bcf	3,5	;RP0=0, select bank0
  7489  16BF  1303               	bcf	3,6	;RP1=0, select bank0
  7490  16C0  1585               	bsf	5,3	;volatile
  7491  16C1                     l85:
  7492  16C1  0008               	return
  7493  16C2                     __end_of_LCD_enable:
  7494                           
  7495                           	psect	text28
  7496  1725                     __ptext28:	
  7497 ;; *************** function _delay *****************
  7498 ;; Defined at:
  7499 ;;		line 94 in file "./lcd.h"
  7500 ;; Parameters:    Size  Location     Type
  7501 ;;		None
  7502 ;; Auto vars:     Size  Location     Type
  7503 ;;  i               2    0[COMMON] int 
  7504 ;; Return value:  Size  Location     Type
  7505 ;;                  1    wreg      void 
  7506 ;; Registers used:
  7507 ;;		wreg, status,2, btemp+1
  7508 ;; Tracked objects:
  7509 ;;		On entry : 0/0
  7510 ;;		On exit  : 0/0
  7511 ;;		Unchanged: 0/0
  7512 ;; Data sizes:     COMMON   BANK0   BANK1   BANK3   BANK2
  7513 ;;      Params:         0       0       0       0       0
  7514 ;;      Locals:         2       0       0       0       0
  7515 ;;      Temps:          0       0       0       0       0
  7516 ;;      Totals:         2       0       0       0       0
  7517 ;;Total ram usage:        2 bytes
  7518 ;; Hardware stack levels used: 1
  7519 ;; This function calls:
  7520 ;;		Nothing
  7521 ;; This function is called by:
  7522 ;;		_LCD_escreve
  7523 ;;		_LCD_limpa
  7524 ;;		_LCD_linha1
  7525 ;;		_LCD_linha2
  7526 ;;		_LCD_enable
  7527 ;; This function uses a non-reentrant model
  7528 ;;
  7529                           
  7530                           
  7531                           ;psect for function _delay
  7532  1725                     _delay:
  7533  1725                     l2239:	
  7534                           ;incstack = 0
  7535                           ; Regs used in _delay: [wreg+status,2+btemp+1]
  7536                           
  7537                           
  7538                           ;./lcd.h: 96:  int i;;./lcd.h: 97:  for (i = 0;i < 5000;i++);
  7539  1725  01F0               	clrf	delay@i
  7540  1726  01F1               	clrf	delay@i+1
  7541  1727                     l2245:
  7542  1727  3001               	movlw	1
  7543  1728  07F0               	addwf	delay@i,f
  7544  1729  1803               	skipnc
  7545  172A  0AF1               	incf	delay@i+1,f
  7546  172B  3000               	movlw	0
  7547  172C  07F1               	addwf	delay@i+1,f
  7548  172D                     l2247:
  7549  172D  0871               	movf	delay@i+1,w
  7550  172E  3A80               	xorlw	128
  7551  172F  00FF               	movwf	btemp+1
  7552  1730  3093               	movlw	147
  7553  1731  027F               	subwf	btemp+1,w
  7554  1732  1D03               	skipz
  7555  1733  2F36               	goto	u1845
  7556  1734  3088               	movlw	136
  7557  1735  0270               	subwf	delay@i,w
  7558  1736                     u1845:
  7559  1736  1C03               	skipc
  7560  1737  2F39               	goto	u1841
  7561  1738  2F3A               	goto	u1840
  7562  1739                     u1841:
  7563  1739  2F27               	goto	l2245
  7564  173A                     u1840:
  7565  173A                     l90:
  7566  173A  0008               	return
  7567  173B                     __end_of_delay:
  7568  007E                     btemp	set	126	;btemp
  7569  007E                     wtemp0	set	126

Data Sizes:
    Strings     0
    Constant    0
    Data        267
    BSS         16
    Persistent  0
    Stack       0

Auto Spaces:
    Space          Size  Autos    Used
    COMMON           14     14      14
    BANK0            80     45      76
    BANK1            80      0      78
    BANK3            96      0      96
    BANK2            96      0      78

Pointer List with Targets:

    strlen@s	PTR const unsigned char  size(2) Largest target is 15
		 -> msgMascara(BANK1[5]), msgDigiteSenha(BANK2[15]), 

    strlen@cp	PTR const unsigned char  size(2) Largest target is 15
		 -> msgMascara(BANK1[5]), msgDigiteSenha(BANK2[15]), 

    escreveMesagem@texto	PTR unsigned char  size(2) Largest target is 17
		 -> msgReativar(BANK1[9]), msgDesativarZona(BANK3[15]), msgSenhaDisparo(BANK3[14]), msgSenhaCoacao(BANK3[13]), 
		 -> msgSenhaUsuario(BANK3[14]), msgSenhaConfig(BANK3[13]), msgSenhaCorreta(BANK3[14]), msgSenhaErrada(BANK3[13]), 
		 -> senhaCoa(BANK1[5]), senhaUser(BANK1[5]), senhaConfig(BANK1[5]), msgDigiteNovaSenha(BANK2[14]), 
		 -> msgSenhaCancelada(BANK2[16]), msgSenhaAtualizada(BANK2[17]), msgAceitoOuNego(BANK1[9]), msgValidaSenha(BANK2[16]), 
		 -> msgZonaDisparadas(BANK1[15]), msgConfigDispara(BANK1[15]), 

    rotinaValidaSenha@senhaOp	PTR unsigned char  size(1) Largest target is 5
		 -> senhaCoa(BANK1[5]), senhaUser(BANK1[5]), senhaConfig(BANK1[5]), 

    inputSenhaAlter@senhaDestino	PTR unsigned char  size(1) Largest target is 5
		 -> senhaCoa(BANK1[5]), senhaUser(BANK1[5]), senhaConfig(BANK1[5]), 

    valida_senha@texto	PTR unsigned char  size(1) Largest target is 5
		 -> senhaCoa(BANK1[5]), senhaUser(BANK1[5]), senhaConfig(BANK1[5]), 

    aux	PTR unsigned char  size(2) Largest target is 512
		 -> RAM(DATA[512]), RAM(DATA[512]), RAM(DATA[512]), RAM(DATA[512]), 
		 -> RAM(DATA[512]), RAM(DATA[512]), RAM(DATA[512]), RAM(DATA[512]), 
		 -> RAM(DATA[512]), RAM(DATA[512]), RAM(DATA[512]), RAM(DATA[512]), 
		 -> RAM(DATA[512]), NULL(NULL[0]), 

    setaZona@pos	PTR unsigned char  size(2) Largest target is 512
		 -> RAM(DATA[512]), 

    setaZona@msgConfigDispara	PTR unsigned char  size(1) Largest target is 15
		 -> msgConfigDispara(BANK1[15]), 

    setaZona@msgZonaDisparadas	PTR unsigned char  size(1) Largest target is 15
		 -> msgZonaDisparadas(BANK1[15]), 


Critical Paths under _main in COMMON

    _configZonas->_infoZonas
    _infoZonas->_escreveMesagem
    _valida_senha->_escreveMesagem
    _escreveMesagem->_LCD_escreve
    _LCD_linha1->_delay
    _LCD_limpa->_delay
    _liga_buzzer->___flmul
    ___flsub->___fladd
    ___flmul->__Umul8_16
    _Linha2->_espacoLivre
    _espacoLivre->_LCD_escreve
    _LCD_linha2->_delay
    _LCD_escreve->_delay
    _LCD_enable->_delay

Critical Paths under _main in BANK0

    _main->_alteraSenhas
    _alteraSenhas->_rotinaValidaSenha
    _rotinaValidaSenha->_inputSenhaAlter
    _inputSenhaAlter->_teclado
    _teclado->_liga_buzzer
    _liga_buzzer->___flmul
    ___flsub->___fladd

Critical Paths under _main in BANK1

    None.

Critical Paths under _main in BANK3

    None.

Critical Paths under _main in BANK2

    None.

Call Graph Tables:

 ---------------------------------------------------------------------------------
 (Depth) Function   	        Calls       Base Space   Used Autos Params    Refs
 ---------------------------------------------------------------------------------
 (0) _main                                                 2     2      0   15302
                                             43 BANK0      2     2      0
                       _alteraSenhas
                        _configZonas
                          _inicioADC
 ---------------------------------------------------------------------------------
 (1) _inicioADC                                            0     0      0       0
 ---------------------------------------------------------------------------------
 (1) _configZonas                                          4     4      0    2915
                                              0 BANK0      3     3      0
                          _infoZonas
                           _setaZona
 ---------------------------------------------------------------------------------
 (2) _setaZona                                            11     8      3    1480
                                              0 COMMON    11     8      3
 ---------------------------------------------------------------------------------
 (2) _infoZonas                                            3     3      0    1296
                                             10 COMMON     3     3      0
                          _LCD_limpa
                         _LCD_linha1
                         _LCD_linha2
                     _escreveMesagem
 ---------------------------------------------------------------------------------
 (1) _alteraSenhas                                         4     2      2   12350
                                             39 BANK0      4     2      2
                           _LCD_init
                          _LCD_limpa
                             _Linha2
                     _escreveMesagem
                  _rotinaValidaSenha
 ---------------------------------------------------------------------------------
 (2) _rotinaValidaSenha                                    4     4      0   10185
                                             35 BANK0      4     4      0
                          _LCD_limpa
                         _LCD_linha2
                     _escreveMesagem
                    _inputSenhaAlter
 ---------------------------------------------------------------------------------
 (3) _inputSenhaAlter                                      5     5      0    8765
                                             30 BANK0      5     5      0
                     _confereTeclado
                            _teclado
                       _valida_senha
 ---------------------------------------------------------------------------------
 (4) _valida_senha                                         8     6      2    1502
                                             10 COMMON     2     0      2
                                              0 BANK0      6     6      0
                        _LCD_escreve
                          _LCD_limpa
                         _LCD_linha1
                         _LCD_linha2
                     _escreveMesagem
 ---------------------------------------------------------------------------------
 (3) _escreveMesagem                                       7     5      2    1158
                                              3 COMMON     7     5      2
                        _LCD_escreve
 ---------------------------------------------------------------------------------
 (3) _LCD_linha1                                           0     0      0      46
                              _delay
 ---------------------------------------------------------------------------------
 (3) _LCD_limpa                                            0     0      0      46
                              _delay
 ---------------------------------------------------------------------------------
 (4) _teclado                                              3     3      0    6892
                                             27 BANK0      3     3      0
                        _LCD_escreve
                        _liga_buzzer
 ---------------------------------------------------------------------------------
 (5) _liga_buzzer                                          6     2      4    6824
                                             21 BANK0      6     2      4
                             ___flge
                            ___flmul
                            ___flsub
 ---------------------------------------------------------------------------------
 (6) ___flsub                                              8     0      8    2333
                                              8 BANK0      8     0      8
                            ___fladd
 ---------------------------------------------------------------------------------
 (7) ___fladd                                             20    12      8    2136
                                              0 COMMON    12     4      8
                                              0 BANK0      8     8      0
 ---------------------------------------------------------------------------------
 (6) ___flmul                                             26    18      8    2417
                                              9 COMMON     5     5      0
                                              0 BANK0     21    13      8
                          __Umul8_16
 ---------------------------------------------------------------------------------
 (7) __Umul8_16                                            9     7      2     799
                                              0 COMMON     9     7      2
 ---------------------------------------------------------------------------------
 (6) ___flge                                              12     4      8     334
                                              0 COMMON    12     4      8
 ---------------------------------------------------------------------------------
 (4) _confereTeclado                                       2     0      2     174
                                              0 COMMON     2     0      2
 ---------------------------------------------------------------------------------
 (2) _Linha2                                               4     4      0     552
                                              5 COMMON     4     4      0
                        _LCD_escreve
                         _LCD_linha2
                        _espacoLivre
                             _strlen
 ---------------------------------------------------------------------------------
 (3) _strlen                                               4     2      2     210
                                              0 COMMON     4     2      2
 ---------------------------------------------------------------------------------
 (3) _espacoLivre                                          2     2      0     160
                                              3 COMMON     2     2      0
                        _LCD_escreve
                         _LCD_linha2
 ---------------------------------------------------------------------------------
 (3) _LCD_linha2                                           0     0      0      46
                              _delay
 ---------------------------------------------------------------------------------
 (4) _LCD_escreve                                          1     1      0      68
                                              2 COMMON     1     1      0
                              _delay
 ---------------------------------------------------------------------------------
 (2) _LCD_init                                             0     0      0      46
                         _LCD_enable
                               _init
 ---------------------------------------------------------------------------------
 (3) _init                                                 0     0      0       0
 ---------------------------------------------------------------------------------
 (3) _LCD_enable                                           0     0      0      46
                              _delay
 ---------------------------------------------------------------------------------
 (5) _delay                                                2     2      0      46
                                              0 COMMON     2     2      0
 ---------------------------------------------------------------------------------
 Estimated maximum stack depth 7
 ---------------------------------------------------------------------------------

 Call Graph Graphs:

 _main (ROOT)
   _alteraSenhas
     _LCD_init
       _LCD_enable
         _delay
       _init
     _LCD_limpa
       _delay
     _Linha2
       _LCD_escreve
         _delay
       _LCD_linha2
         _delay
       _espacoLivre
         _LCD_escreve
         _LCD_linha2
       _strlen
     _escreveMesagem
       _LCD_escreve
     _rotinaValidaSenha
       _LCD_limpa
       _LCD_linha2
       _escreveMesagem
       _inputSenhaAlter
         _confereTeclado
         _teclado
           _LCD_escreve
           _liga_buzzer
             ___flge
             ___flmul
               __Umul8_16
             ___flsub
               ___fladd
         _valida_senha
           _LCD_escreve
           _LCD_limpa
           _LCD_linha1
             _delay
           _LCD_linha2
           _escreveMesagem
   _configZonas
     _infoZonas
       _LCD_limpa
       _LCD_linha1
       _LCD_linha2
       _escreveMesagem
     _setaZona
   _inicioADC

 Address spaces:
Name               Size   Autos  Total    Cost      Usage
BANK3               60      0      60       9      100.0%
BITBANK3            60      0       0       8        0.0%
SFR3                 0      0       0       4        0.0%
BITSFR3              0      0       0       4        0.0%
BANK2               60      0      4E      11       81.2%
BITBANK2            60      0       0      10        0.0%
SFR2                 0      0       0       5        0.0%
BITSFR2              0      0       0       5        0.0%
BANK1               50      0      4E       7       97.5%
BITBANK1            50      0       0       6        0.0%
SFR1                 0      0       0       2        0.0%
BITSFR1              0      0       0       2        0.0%
BANK0               50     2D      4C       5       95.0%
BITBANK0            50      0       0       4        0.0%
SFR0                 0      0       0       1        0.0%
BITSFR0              0      0       0       1        0.0%
COMMON               E      E       E       1      100.0%
BITCOMMON            E      0       0       0        0.0%
CODE                 0      0       0       0        0.0%
DATA                 0      0     156      12        0.0%
ABS                  0      0     156       3        0.0%
NULL                 0      0       0       0        0.0%
STACK                0      0       0       2        0.0%
EEDATA             100      0       0       0        0.0%


Microchip Technology PIC Macro Assembler V2.32 build 20210201212658 
Symbol Table                                                                                   Mon Oct 04 05:26:12 2021

         _msgDigiteNovaSenha 0150                            pc 0002           ?_rotinaValidaSenha 0070  
                         l70 17FF                           l73 1711                           l90 173A  
                         l82 16E0                           l67 16A6                           l76 16F0  
                         l85 16C1                           l79 1700                           fsr 0004  
        __Umul8_16@word_mpld 0076              escreveMesagem@i 0078                  ?_LCD_enable 0070  
                        l200 00FD                          l203 17CC                          l213 0D67  
                        l303 045C                          l320 1779                          l233 0BF5  
                        l250 08B0                          l315 0868                          l228 0B1D  
                        l172 09E5                          l237 0C20                          l245 0A4D  
                        l264 0B99                          l362 003F                          l258 099D  
                        l194 00F2                          l276 01F4                          l365 16B3  
                        l631 0C3D                          l288 02EA                          l634 0CA9  
                        l298 03B6                          l635 0CC2                          l750 0DCB  
                        l754 0E74                          l771 0F45                          l763 0FFF  
                        l852 0729                          l756 0E49                          l781 0F8D  
                        l846 07BD                          l919 1758                          l775 0F6B  
                        l792 0FF1                          l784 0FCD                          l865 0818  
                        l793 0FFF                          l858 07B1                          l867 082A  
                        l796 179D                          _RA1 0029                          _RB0 0030  
                        _RA3 002B                          _RB1 0031                          _RA4 002C  
                        _RB2 0032                          _RA5 002D                          _RB3 0033  
                ?_LCD_linha1 0070                  ?_LCD_linha2 0070          ??_rotinaValidaSenha 0043  
                        _aux 0055                          fsr0 0004                          indf 0000  
               ___flmul@aexp 002D                 ___flmul@bexp 002E                 ___flmul@sign 0028  
               ___flmul@temp 0033                 ___flmul@prod 002F      __size_of_escreveMesagem 0037  
                       l2301 0DE1                         l3031 17D2                         l3023 1760  
                       l3015 1759                         l2311 0DF5                         l2303 0DE5  
                       l3041 17E8                         l3033 17D6                         l3025 1766  
                       l3017 175E                         l2401 0F79                         l2321 0E09  
                       l2313 0DF9                         l2305 0DE9                         l3043 17ED  
                       l3035 17DB                         l3027 176C                         l2411 0F8A  
                       l2403 0F7B                         l2331 0E2D                         l2323 0E0D  
                       l2315 0DFD                         l2307 0DED                         l2251 0D6F  
                       l3051 0041                         l3123 16A7                         l2245 1727  
                       l3045 17F1                         l3037 17DF                         l3029 17CD  
                       l2501 046E                         l2421 0FA9                         l2405 0F7F  
                       l2341 0E5F                         l2333 0E4D                         l2325 0E11  
                       l2317 0E01                         l2309 0DF1                         l2261 0D84  
                       l2253 0D75                         l3061 0072                         l3053 0049  
                       l2247 172D                         l2239 1725                         l3047 17F6  
                       l3039 17E4                         l2511 0483                         l2503 046F  
                       l2431 0FE4                         l2423 0FC9                         l2415 0F92  
                       l2407 0F80                         l2343 0E6A                         l2335 0E58  
                       l2319 0E05                         l2327 0E15                         l2271 0D9C  
                       l2263 0D8C                         l2255 0D79                         l3071 0096  
                       l3063 007B                         l3055 004C                         l3049 17FA  
                       l2521 049B                         l2513 048B                         l2505 0474  
                       l2441 0FFE                         l2433 0FE5                         l2425 0FD2  
                       l2417 0F97                         l2409 0F84                         l2361 0EB0  
                       l2353 0E86                         l2337 0E5A                         l2345 0E6E  
                       l2329 0E16                         l2281 0DAE                         l2273 0DA2  
                       l2265 0D8D                         l2257 0D7A                         l2249 0D68  
                       l3081 00DA                         l3073 00A1                         l3057 0057  
                       l3065 0081                         l2451 0821                         l2443 0805  
                       l2611 075E                         l2603 072E                         l2531 04B7  
                       l2523 04A0                         l2515 0490                         l2507 0479  
                       l2435 0FE9                         l2427 0FD7                         l2419 0FA5  
                       l2363 0EB2                         l2355 0E9D                         l2347 0E78  
                       l2371 0EC7                         l2339 0E5E                         l2283 0DB3  
                       l2291 0DC3                         l2275 0DA3                         l2259 0D7F  
                       l2267 0D8F                         l3083 00E3                         l3075 00B3  
                       l3059 0069                         l3067 0087                         l2461 1707  
                       l2701 0AC4                         l2453 0826                         l2445 0807  
                       l2621 0795                         l2605 0733                         l2613 0764  
                       l2541 04DA                         l2533 04BC                         l2525 04A5  
                       l2517 0496                         l2509 0481                         l2437 0FEB  
                       l2429 0FDF                         l2373 0EDD                         l2381 0F37  
                       l2365 0EB6                         l2357 0EA1                         l2349 0E7D  
                       l2293 0DD1                         l2285 0DB8                         l2277 0DA9  
                       l2269 0D97                         l3085 00EC                         l3077 00BD  
                       l3069 0093                         l2463 1708                         l2711 0AE7  
                       l2703 0ACB                         l2471 0C35                         l2447 080E  
                       l2631 07B5                         l2623 0797                         l2615 0771  
                       l2607 0741                         l2551 0568                         l2543 04E7  
                       l2535 04C1                         l2527 04AD                         l2519 049A  
                       l2439 0FFA                         l2391 0F66                         l2383 0F4D  
                       l2375 0F1D                         l2367 0EB7                         l2359 0EA5  
                       l2295 0DD5                         l2287 0DC0                         l2279 0DAD  
                       l3503 0009                         l3511 0B9D                         l3079 00C8  
                       l2465 1709                         l2457 1702                         l3601 0835  
                       l2713 0AEE                         l2705 0AD2                         l2481 0C85  
                       l2473 0C51                         l2449 0812                         l2625 07A5  
                       l2617 077C                         l2609 0745                         l2561 05CA  
                       l2553 0584                         l2545 0504                         l2529 04AF  
                       l2393 0F6A                         l2385 0F52                         l2377 0F23  
                       l2369 0EC2                         l2297 0DD9                         l2289 0DC1  
                       l2801 01A1                         l2641 16E7                         l3505 000C  
                       l3521 0BCA                         l3513 0BA1                         l2467 170E  
                       l2459 1706                         l3603 0838                         l2707 0AD9  
                       l2483 0CBF                         l2475 0C59                         l2627 07A9  
                       l2619 078B                         l2571 065A                         l2563 05E7  
                       l2555 058D                         l2547 0520                         l2539 04CA  
                       l2395 0F6F                         l2379 0F28                         l2299 0DDD  
                       l2491 177E                         l2811 01BB                         l2803 01A9  
                       l2643 16E8                         l2635 16E1                         l2651 16F6  
                       l3507 0023                         l3531 0BEE                         l3523 0BD3  
                       l3515 0BAB                         l3611 094D                         l2661 16D5  
                       l3605 0842                         l2709 0AE0                         l2717 0AF5  
                       l2485 0CC1                         l2477 0C5D                         l2469 0C21  
                       l2629 07AA                         l2581 06EC                         l2573 0687  
                       l2565 0600                         l2557 059D                         l2549 054C  
                       l2397 0F72                         l2389 0F5B                         l2901 031F  
                       l2821 01EA                         l2813 01C9                         l2805 01AD  
                       l2645 16ED                         l2637 16E5                         l2653 16F7  
                       l3509 0029                         l3533 0BF9                         l3525 0BD8  
                       l3517 0BB4                         l3621 0975                         l3613 0957  
                       l3701 09C4                         l2663 16D6                         l3607 0848  
                       l2719 0B1A                         l2479 0C81                         l2583 06F5  
                       l2591 0709                         l2575 06AD                         l2567 061D  
                       l2559 05BA                         l2495 045D                         l2399 0F74  
                       l2911 034A                         l2903 0325                         l2831 0217  
                       l2823 01F0                         l2815 01D8                         l2807 01B3  
                       l2639 16E6                         l2655 16F8                         l2647 16F1  
                       l3535 0BFD                         l3527 0BE6                         l3519 0BC4  
                       l3551 09FE                         l3543 09F5                         l3631 0997  
                       l3623 097B                         l3615 0961                         l3703 09DD  
                       l2665 16D7                         l3609 0863                         l2593 070D  
                       l2585 06F9                         l2577 06D5                         l2569 064A  
                       l2497 0464                         l2489 177A                         l2681 0B3F  
                       l2913 0350                         l2921 0366                         l2905 0329  
                       l2833 021D                         l2841 0233                         l2825 01F6  
                       l2817 01DE                         l2809 01B7                         l2761 0104  
                       l2657 16FD                         l2649 16F5                         l3529 0BEC  
                       l3537 0C03                         l3561 0A32                         l3553 0A03  
                       l3625 0982                         l3617 096A                         l3641 0CD1  
                       l3633 0CC3                         l2667 16D8                         l2659 16D1  
                       l3571 1750                         l2595 070E                         l2587 06FA  
                       l2579 06DE                         l2499 046A                         l2691 0B95  
                       l2683 0B4B                         l2931 0393                         l2923 036A  
                       l2915 0358                         l2907 032D                         l2851 0262  
                       l2843 0237                         l2835 0225                         l2827 01FA  
                       l2819 01E6                         l2771 0133                         l2763 0108  
                       l3539 0C0C                         l3563 0A3F                         l3555 0A0C  
                       l3627 0989                         l3619 096F                         l3651 0D05  
                       l3643 0CDF                         l3635 0CC8                         l2669 16DD  
                       l3565 173B                         l2693 0AAE                         l2597 0712  
                       l2589 0703                         l2685 0B4E                         l2941 03CC  
                       l2933 03A1                         l2925 0378                         l2917 035C  
                       l2909 033B                         l2861 0282                         l2853 0266  
                       l2845 0245                         l2837 0229                         l2829 0208  
                       l2781 014F                         l2773 0135                         l2765 0116  
                       l3557 0A16                         l3549 09F7                         l3629 0990  
                       l3581 17BF                         l3661 0D3F                         l3653 0D0F  
                       l3645 0CE5                         l3637 0CCC                         l3567 1740  
                       l2695 0AAF                         l2599 0726                         l2687 0B59  
                       l2679 0B1E                         l2951 0404                         l2943 03DB  
                       l2935 03B0                         l2927 0387                         l2919 0362  
                       l2871 02A9                         l2863 0291                         l2855 026C  
                       l2847 0254                         l2839 022F                         l2791 0176  
                       l2783 015E                         l2775 013B                         l2767 0125  
                       l2759 00FE                         l3559 0A2C                         l3591 0888  
                       l3583 086C                         l3575 179E                         l3663 0D45  
                       l3655 0D1F                         l3647 0CEF                         l3639 0CCC  
                       l3569 1746                         l2697 0AB6                         l2689 0B7A  
                       l2961 0433                         l2953 040A                         l2945 03E1  
                       l2937 03BA                         l2929 038D                         l2881 02D4  
                       l2865 0297                         l2873 02AD                         l2849 025A  
                       l2857 0270                         l2785 0164                         l2793 017A  
                       l2769 012B                         l2777 013D                         l3593 088D  
                       l3585 0872                         l3577 17A8                         l3665 0D4F  
                       l3657 0D25                         l3649 0CFF                         l3681 099E  
                       l2971 169F                         l2699 0ABD                         l2963 0439  
                       l2955 0410                         l2947 03E7                         l2939 03BE  
                       l2891 02F0                         l2883 02DC                         l2875 02B1  
                       l2867 029F                         l2859 0274                         l2795 017E  
                       l2787 016C                         l2779 0141                         l3595 0899  
                       l3587 0877                         l3579 17B1                         l3659 0D2F  
                       l3667 0D5F                         l3691 09B4                         l3683 09A2  
                       l2981 16BE                         l2973 16A2                         l2965 0447  
                       l2957 041E                         l2949 03F5                         l2893 02FE  
                       l2885 02E0                         l2877 02BF                         l2869 02A3  
                       l2797 018C                         l2789 0170                         l3597 08A2  
                       l3589 087F                         l3685 09A4                         l2975 16A5  
                       l3599 082B                         l2967 0456                         l2959 042D  
                       l2895 030D                         l2887 02E6                         l2879 02CE  
                       l2799 019B                         l3687 09A8                         l2977 16B4  
                       l2969 169B                         l2897 0313                         l2889 02EC  
                       l3953 09C9                         l3697 09BE                         l3689 09AD  
                       l2979 16B9                         l3955 0AFA                         l2899 031B  
                       u2000 0E74                         u2001 0E73                         u2010 0E78  
                       u2011 0E77                         u2100 0F0A                         u2020 0E7D  
                       u2101 0F0B                         u2021 0E7C                         u2110 0F28  
                       u2102 0F10                         u2111 0F27                         u2103 0F11  
                       u2031 0E8F                         u2200 0F8A                         u2120 0F4D  
                       u2040 0EA1                         u2032 0E96                         u3000 0237  
                       u2201 0F89                         u2121 0F4C                         u2041 0EA0  
                       u2033 0E9D                         u3001 0236                         u2210 0F91  
                       u2130 0F52                         u2050 0EA5                         u3010 0262  
                       u2211 0F90                         u2131 0F51                         u2051 0EA4  
                       u3011 0261                         u2300 0FFE                         u2220 0F97  
                       u2060 0EB6                         u3100 031B                         u3020 026C  
                       u2301 0FFD                         u2221 0F96                         u2061 0EB5  
                       u3101 031A                         u3021 026B                         u2310 0812  
                       u2230 0FA9                         u2150 0F6A                         u3110 0325  
                       u3030 0274                         u2311 0811                         u2231 0FA8  
                       u2151 0F69                         u3111 0324                         u3031 0273  
                       u2400 0CBF                         u2240 0FBA                         u2160 0F6F  
                       u2080 0EDD                         u3200 0439                         u3120 032D  
                       u3040 029F                         u2401 0CBE                         u2161 0F6E  
                       u2145 0F5F                         u2081 0EDC                         u3201 0438  
                       u3121 032C                         u3041 029E                         u2330 0826  
                       u2410 046E                         u2250 0FC9                         u2170 0F79  
                       u3130 0358                         u3050 02A9                         u2331 0825  
                       u2411 046D                         u2251 0FC8                         u2171 0F78  
                       u2091 0EF6                         u2083 0ED9                         u2075 0EBB  
                       u3131 0357                         u3051 02A8                         u2340 0C35  
                       u2420 0474                         u2260 0FD2                         u2180 0F7F  
                       u2092 0EF7                         u3140 0362                         u3060 02B1  
                       u3300 00B3                         u2405 0CBB                         u2341 0C34  
                       u2325 0819                         u2501 052E                         u2421 0473  
                       u2261 0FD1                         u2245 0FB5                         u2181 0F7E  
                       u2093 0EFC                         u3141 0361                         u3061 02B0  
                       u3301 00B2                         u2350 0C51                         u2502 0535  
                       u2430 0479                         u2270 0FD7                         u2190 0F84  
                       u2094 0EFD                         u3150 036A                         u3070 02DC  
                       u3310 00C8                         u2351 0C50                         u2511 055A  
                       u2503 053C                         u2431 0478                         u2271 0FD6  
                       u2191 0F83                         u2095 0F02                         u3151 0369  
                       u3071 02DB                         u3311 00C7                         u3240 1779  
                       u2360 0C5D                         u2600 0693                         u2512 0561  
                       u2440 049A                         u2280 0FE4                         u2096 0F03  
                       u3160 0393                         u3080 02E6                         u3320 00DA  
                       u3241 1778                         u2361 0C5C                         u2521 0576  
                       u2513 0568                         u2441 0499                         u2281 0FE3  
                       u3161 0392                         u3081 02E5                         u3321 00D9  
                       u3305 00AF                         u2522 057D                         u2450 04A0  
                       u2290 0FE9                         u3170 03BE                         u3090 02F0  
                       u3330 00FD                         u3250 0049                         u2371 0C6C  
                       u2611 069F                         u2523 0584                         u2451 049F  
                       u2291 0FE8                         u3171 03BD                         u3091 02EF  
                       u3331 00FC                         u3251 0048                         u2380 0C85  
                       u2372 0C6D                         u2700 0726                         u2620 06BB  
                       u2612 06A6                         u2460 04A5                         u1900 0DB3  
                       u3180 03E7                         u3260 0057                         u3245 1775  
                       u2381 0C84                         u2373 0C72                         u2701 0725  
                       u2613 06AD                         u2605 068E                         u2541 05AC  
                       u2461 04A4                         u1901 0DB2                         u3181 03E6  
                       u3325 00D6                         u3261 0056                         u2374 0C73  
                       u2710 072D                         u2542 05B3                         u2470 04BC  
                       u1910 0DB8                         u3190 0410                         u3270 0069  
                       u2391 0C94                         u2375 0C78                         u2711 072C  
                       u2631 06C7                         u2551 05D9                         u2543 05BA  
                       u2535 0586                         u2471 04BB                         u1911 0DB7  
                       u3191 040F                         u4207 00E7                         u3271 0068  
                       u1840 173A                         u2392 0C95                         u2376 0C79  
                       u2720 0733                         u2632 06CE                         u2552 05E0  
                       u2480 04C1                         u1920 0DD1                         u3280 0092  
                       u1841 1739                         u2393 0C9A                         u2721 0732  
                       u2633 06D5                         u2625 06B6                         u2553 05E7  
                       u2481 04C0                         u1921 0DD0                         u4217 17C5  
                       u3281 0091                         u2394 0C9B                         u2730 0745  
                       u1930 0DD5                         u1850 0D79                         u2810 0B95  
                       u3290 00A1                         u2395 0CA0                         u2731 0744  
                       u2571 060F                         u2491 0512                         u1931 0DD4  
                       u1851 0D78                         u2811 0B94                         u4307 01C3  
                       u4227 095D                         u3291 00A0                         u3275 0065  
                       u4147 0CD9                         u2396 0CA1                         u2740 0754  
                       u2660 06F9                         u2572 0616                         u2492 0519  
                       u1940 0E2D                         u1860 0D7F                         u2900 0176  
                       u1845 1736                         u2661 06F8                         u2645 06D7  
                       u2581 063C                         u2573 061D                         u2565 05E9  
                       u2493 0520                         u1941 0E2C                         u1861 0D7E  
                       u4317 0202                         u2901 0175                         u4237 08AA  
                       u4157 0CEB                         u2750 0771                         u2582 0643  
                       u1950 0E36                         u1870 0D84                         u2910 017E  
                       u2751 0770                         u2655 06EE                         u2591 0669  
                       u2583 064A                         u1951 0E34                         u1871 0D83  
                       u4407 03EF                         u4327 023F                         u2911 017D  
                       u4247 0A12                         u4167 0D0B                         u2760 078B  
                       u2680 070D                         u2592 0670                         u1960 0E37  
                       u1880 0DA2                         u2920 01A9                         u3800 0A3F  
                       u2761 078A                         u2745 074F                         u2681 070C  
                       u2593 0677                         u1945 0E29                         u1881 0DA1  
                       u4417 0418                         u4337 027C                         u2921 01A8  
                       u4257 0BE0                         u3801 0A3E                         u4177 0D2B  
                       u3810 1750                         u2770 07A9                         u2690 0712  
                       u1970 0E4D                         u1890 0DAD                         u2930 01B3  
                       u2850 0108                         u3730 0016                         u3811 174F  
                       u2771 07A8                         u2755 076D                         u2691 0711  
                       u2675 06FC                         u1971 0E4C                         u1891 0DAC  
                       u4427 0441                         u4347 02B9                         u2931 01B2  
                       u2851 0107                         u4267 0C14                         u4187 0D4B  
                       u1980 0E5E                         u2940 01BB                         u2860 0133  
                       u3740 0033                         u3820 087F                         u3900 0D45  
                       u2765 0787                         u1981 0E5D                         u4437 0B45  
                       u4357 02F8                         u2941 01BA                         u2861 0132  
                       u4277 0110                         u3805 0A3B                         u3821 087E  
                       u4197 0076                         u3901 0D44                         u3830 0863  
                       u2950 01E6                         u2870 013B                         u3750 003F  
                       u3910 0D67                         u3831 0862                         u4447 0B54  
                       u4367 0335                         u2951 01E5                         u4287 0149  
                       u2871 013A                         u3751 003E                         u3911 0D66  
                       u2960 01F0                         u2880 0141                         u3760 0BEC  
                       u3840 097B                         u4377 0372                         u2961 01EF  
                       u4297 0186                         u2881 0140                         u3761 0BEB  
                       u3841 097A                         u2970 01FA                         u2890 016C  
                       u3770 0BF9                         u3850 0989                         u3930 09EE  
                       u3835 085F                         u1995 0E63                         u4387 039B  
                       u2971 01F9                         u2891 016B                         u3771 0BF8  
                       u3851 0988                         u3931 09ED                         u2980 0225  
                       u3780 0C0C                         u3860 0997                         u4397 03C6  
                       u2981 0224                         u3781 0C0B                         u3861 0996  
                       u2990 022F                         u3790 0A0C                         u3870 0CE5  
                       u2991 022E                         u3791 0A0B                         u3871 0CE4  
                       u3880 0D05                         u3881 0D04                         u3890 0D25  
                       u3891 0D24                 ?_LCD_escreve 0070                         _main 099E  
                       _init 169B                         _menu 005F                 ?_liga_buzzer 0035  
                       btemp 007E                 ?_espacoLivre 0070             _senhaUserConfere 0067  
  __end_of_rotinaValidaSenha 08B1                         start 0000           __size_of_LCD_limpa 0010  
           __end_of_LCD_init 1800              __end_of___fladd 1000                        ?_main 0070  
                      ?_init 0070              __end_of___flmul 07BE              __end_of___flsub 179E  
                      _PORTB 0006                        _PORTD 0008                        _PORTE 0009  
                      _TRISA 0085                        _TRISB 0086                        _TRISD 0088  
                      _TRISE 0089                        _delay 1725                        _input 0065  
                      main@i 004B              __end_of_teclado 045D                        pclath 000A  
                      status 0003                        wtemp0 007E             ?_inputSenhaAlter 0070  
        __size_of_LCD_enable 000E          __size_of_LCD_linha1 0010          __size_of_LCD_linha2 0010  
            __initialization 07BE                 __end_of_main 09F2                 __end_of_init 16A7  
                     ??_main 007E                       ??_init 0070         __end_of_alteraSenhas 099E  
            _msgAceitoOuNego 00C8            __end_of_LCD_limpa 16F1                       ?_delay 0070  
                     _ADCON0 001F                       _ADCON1 009F                       _ADRESH 001E  
                     _ADRESL 009E   __size_of_rotinaValidaSenha 0048                       _Linha2 082B  
                     ___flge 0C21                    ??___fladd 0020         __size_of_configZonas 00A5  
                  ??___flmul 0079                    ??___flsub 007C            _msgSenhaCancelada 0131  
                     _painel 0063                       delay@i 0070                       _strlen 173B  
           __end_of_setaZona 00FE             ??_confereTeclado 0072           __size_of__Umul8_16 0027  
                  ??_teclado 003B               _escreveMesagem 0009                   ___flge@ff1 0070  
                 ___flge@ff2 0074      __end_of__initialization 07FC                    ?_LCD_init 0070  
       __size_of_LCD_escreve 0011                 LCD_escreve@x 0072         __size_of_liga_buzzer 007C  
       __size_of_espacoLivre 0021               __pcstackCOMMON 0070                 __pidataBANK0 16C2  
               __pidataBANK1 08FF                 __pidataBANK2 08B1                 __pidataBANK3 0A4E  
              __end_of_delay 173B                 ??_LCD_enable 0072                 ??_LCD_linha1 0072  
               ??_LCD_linha2 0072       __end_of_escreveMesagem 0040                 espacoLivre@i 0073  
  setaZona@msgZonaDisparadas 007A                      ??_delay 0070     rotinaValidaSenha@senhaOp 0046  
              _msgChamaAjuda 00A0                   __pbssBANK0 004D           __size_of_inicioADC 000D  
         __size_of_infoZonas 002F          escreveMesagem@texto 0073                   ??_LCD_init 0072  
                    ?_Linha2 0070           __end_of_LCD_enable 16C2            __end_of__Umul8_16 082B  
         __end_of_LCD_linha1 1701           __end_of_LCD_linha2 16E1                   __pmaintext 099E  
                    ?___flge 0070        __size_of_alteraSenhas 0051         confereTeclado@numero 0070  
                    ?_strlen 0070              ?_escreveMesagem 0073                      Linha2@i 0077  
              ?_valida_senha 007A     liga_buzzer@tempoSegundos 0035                 _alteraSenhas 094D  
            __size_of_Linha2 003E                    ?_setaZona 0070              __size_of___flge 00A2  
         valida_senha@aceito 0024                      ___fladd 0D68                      ___flmul 045D  
                    ___flsub 177A                  setaZona@pos 0071            __end_of_inicioADC 16B4  
                    __ptext1 16A7                      __ptext2 0CC3                      __ptext3 0040  
                    __ptext4 179E                      __ptext5 094D                      __ptext6 0869  
                    __ptext7 09F2                      __ptext8 0B9A                      __ptext9 0009  
          __end_of_infoZonas 17CD              __size_of_strlen 001E                   _msgMascara 00DA  
                    _teclado 00FE         alteraSenhas@opConfig 0047                      clrloop0 1694  
       end_of_initialization 07FC               ??_valida_senha 0020                    _LCD_limpa 16E1  
                 ??_setaZona 0073     __size_of_inputSenhaAlter 005C                      strlen@s 0070  
                ___fladd@grs 007B           _msgSenhaAtualizada 0110                   ?_LCD_limpa 0070  
                ___flmul@grs 0029                ??_configZonas 0020            __size_of_LCD_init 0033  
             __end_of_Linha2 0869                   _zonaConfig 0059               __end_of___flge 0CC3  
             __end_of_strlen 1759          start_initialization 07BE               _valorSensorAux 004D  
              ??_LCD_escreve 0072                _senhaCoaAtivo 005B                ??_liga_buzzer 0039  
              ??_espacoLivre 0073                     ??_Linha2 0075                     ??___flge 0078  
                 init_fetch0 1712                    __Umul8_16 0804                  __pdataBANK0 005D  
                __pdataBANK1 00A0                  __pdataBANK2 0110                  __pdataBANK3 0190  
           ??_escreveMesagem 0075          __end_of_configZonas 0D68         __end_of_valida_senha 0C21  
                   ??_strlen 0072                    ___fladd@a 0074                    ___fladd@b 0070  
          ??_inputSenhaAlter 003E                    ___flmul@a 0024                    ___flmul@b 0020  
              setaZona@i_160 0078                    ___flsub@a 0028                    ___flsub@b 002C  
                  ___latbits 0002                __pcstackBANK0 0020                  ??_LCD_limpa 0072  
           inputSenhaAlter@i 0041      __size_of_confereTeclado 0070          __end_of_LCD_escreve 1712  
        __end_of_liga_buzzer 0B9A                     ?___fladd 0070          __end_of_espacoLivre 177A  
                   ?___flmul 0020                     ?___flsub 0028            __size_of_setaZona 00BE  
          _msgZonaDisparadas 00AA                   ?__Umul8_16 0070               _msgDigiteSenha 0141  
                  _auxSensor 005D  inputSenhaAlter@senhaDestino 0040                    _inicioADC 16A7  
                   ?_teclado 0070                  _alteraSenha 0053                    _infoZonas 179E  
             __size_of_delay 0016            valida_senha@texto 0023                     _LCD_init 17CD  
                  clear_ram0 1693                    _senhaUser 00E9                  _configZonas 0CC3  
                   _GO_nDONE 00FA                    _userFalse 0061                   ?_inicioADC 0070  
                 ?_infoZonas 0070                  _LCD_escreve 1701                  _liga_buzzer 0B1E  
                _espacoLivre 1759             _msgDesativarZona 0190        __size_of_valida_senha 0087  
                ??__Umul8_16 0072             __size_of___fladd 0298              _msgSenhaDisparo 019F  
           __size_of___flmul 0361             __size_of___flsub 0024              _msgSenhaCorreta 01BB  
            _msgSenhaUsuario 01AD             __size_of_teclado 035F                     __ptext10 16F1  
                   __ptext11 16E1                     __ptext20 082B                     __ptext12 00FE  
                   __ptext21 173B                     __ptext13 0B1E                     __ptext22 1759  
                   __ptext14 177A                     __ptext23 16D1                     __ptext15 0D68  
                   __ptext24 1701                     __ptext16 045D                     __ptext25 17CD  
                   __ptext17 0804                     __ptext26 169B                     __ptext18 0C21  
                   __ptext27 16B4                     __ptext19 0AAE                     __ptext28 1725  
                   _opConfig 0051                 _valida_senha 0B9A               _confereTeclado 0AAE  
                  setaZona@i 0076                __size_of_main 0054                __size_of_init 000C  
                _msgReativar 00D1                     _senhaCoa 00E4                     _setaZona 0040  
            _inputSenhaAlter 09F2                   _LCD_enable 16B4                   _LCD_linha1 16F1  
                 _LCD_linha2 16D1                  ??_inicioADC 0070                  _senhaConfig 00DF  
                ??_infoZonas 007A                     init_ram0 1716               _msgSenhaCoacao 01C9  
             _msgSenhaConfig 01D6               _msgSenhaErrada 01E3       __end_of_confereTeclado 0B1E  
                _validaSenha 0057             _msgConfigDispara 00B9               _msgValidaSenha 0121  
              ?_alteraSenhas 0047     setaZona@msgConfigDispara 0070                  _valorSensor 004F  
     __Umul8_16@multiplicand 0070                     strlen@cp 0072                ___fladd@signs 0078  
            ?_confereTeclado 0070                 ___fladd@aexp 0079                 ___fladd@bexp 007A  
       __Umul8_16@multiplier 0078      __end_of_inputSenhaAlter 0A4E               ??_alteraSenhas 0049  
               ?_configZonas 0070            __Umul8_16@product 0074            _rotinaValidaSenha 0869  
