

Microchip MPLAB XC8 Assembler V2.32 build 20210201212658 
                                                                                               Sat Oct 02 00:14:25 2021

Microchip MPLAB XC8 C Compiler v2.32 (Free license) build 20210201212658 Og1 
     1                           	processor	16F877A
     2                           	pagewidth 120
     3                           	opt	flic
     4                           	psect	idataBANK0,global,class=CODE,delta=2,noexec
     5                           	psect	idataBANK1,global,class=CODE,delta=2,noexec
     6                           	psect	idataBANK2,global,class=CODE,delta=2,noexec
     7                           	psect	idataBANK3,global,class=CODE,delta=2,noexec
     8                           	psect	cinit,global,class=CODE,merge=1,delta=2
     9                           	psect	bssBANK0,global,class=BANK0,space=1,delta=1,noexec
    10                           	psect	dataBANK0,global,class=BANK0,space=1,delta=1,noexec
    11                           	psect	dataBANK1,global,class=BANK1,space=1,delta=1,noexec
    12                           	psect	dataBANK3,global,class=BANK3,space=1,delta=1,noexec
    13                           	psect	dataBANK2,global,class=BANK2,space=1,delta=1,noexec
    14                           	psect	inittext,global,class=CODE,delta=2
    15                           	psect	cstackCOMMON,global,class=COMMON,space=1,delta=1,noexec
    16                           	psect	cstackBANK0,global,class=BANK0,space=1,delta=1,noexec
    17                           	psect	maintext,global,class=CODE,split=1,delta=2
    18                           	psect	text1,local,class=CODE,merge=1,delta=2
    19                           	psect	text2,local,class=CODE,merge=1,delta=2
    20                           	psect	text3,local,class=CODE,merge=1,delta=2
    21                           	psect	text4,local,class=CODE,merge=1,delta=2,group=1
    22                           	psect	text5,local,class=CODE,merge=1,delta=2,group=1
    23                           	psect	text6,local,class=CODE,merge=1,delta=2,group=1
    24                           	psect	text7,local,class=CODE,merge=1,delta=2,group=1
    25                           	psect	text8,local,class=CODE,merge=1,delta=2,group=1
    26                           	psect	text9,local,class=CODE,merge=1,delta=2,group=2
    27                           	psect	text10,local,class=CODE,merge=1,delta=2,group=2
    28                           	psect	text11,local,class=CODE,merge=1,delta=2
    29                           	psect	text12,local,class=CODE,merge=1,delta=2
    30                           	psect	text13,local,class=CODE,merge=1,delta=2
    31                           	psect	text14,local,class=CODE,merge=1,delta=2
    32                           	psect	text15,local,class=CODE,merge=1,delta=2,group=2
    33                           	psect	text16,local,class=CODE,merge=1,delta=2
    34                           	psect	text17,local,class=CODE,merge=1,delta=2
    35                           	psect	text18,local,class=CODE,merge=1,delta=2
    36                           	psect	text19,local,class=CODE,merge=1,delta=2
    37                           	psect	text20,local,class=CODE,merge=1,delta=2
    38                           	psect	text21,local,class=CODE,merge=1,delta=2
    39                           	psect	text22,local,class=CODE,merge=1,delta=2
    40                           	dabs	1,0x7E,2
    41  0000                     
    42                           ; Version 2.20
    43                           ; Generated 12/02/2020 GMT
    44                           ; 
    45                           ; Copyright © 2020, Microchip Technology Inc. and its subsidiaries ("Microchip")
    46                           ; All rights reserved.
    47                           ; 
    48                           ; This software is developed by Microchip Technology Inc. and its subsidiaries ("Microch
      +                          ip").
    49                           ; 
    50                           ; Redistribution and use in source and binary forms, with or without modification, are
    51                           ; permitted provided that the following conditions are met:
    52                           ; 
    53                           ;     1. Redistributions of source code must retain the above copyright notice, this lis
      +                          t of
    54                           ;        conditions and the following disclaimer.
    55                           ; 
    56                           ;     2. Redistributions in binary form must reproduce the above copyright notice, this 
      +                          list
    57                           ;        of conditions and the following disclaimer in the documentation and/or other
    58                           ;        materials provided with the distribution.
    59                           ; 
    60                           ;     3. Microchip's name may not be used to endorse or promote products derived from th
      +                          is
    61                           ;        software without specific prior written permission.
    62                           ; 
    63                           ; THIS SOFTWARE IS PROVIDED BY MICROCHIP "AS IS" AND ANY EXPRESS OR IMPLIED WARRANTIES,
    64                           ; INCLUDING, BUT NOT LIMITED TO, THE IMPLIED WARRANTIES OF MERCHANTABILITY AND FITNESS F
      +                          OR
    65                           ; PURPOSE ARE DISCLAIMED.  IN NO EVENT SHALL MICROCHIP BE LIABLE FOR ANY DIRECT, INDIREC
      +                          T,
    66                           ; INCIDENTAL, SPECIAL, EXEMPLARY, OR CONSEQUENTIAL DAMAGES (INCLUDING BUT NOT LIMITED TO
    67                           ; PROCUREMENT OF SUBSTITUTE GOODS OR SERVICES; LOSS OF USE, DATA OR PROFITS; OR BUSINESS
    68                           ; INTERRUPTION) HOWSOEVER CAUSED AND ON ANY THEORY OF LIABILITY, WHETHER IN CONTRACT, ST
      +                          RICT
    69                           ; LIABILITY, OR TORT (INCLUDING NEGLIGENCE OR OTHERWISE) ARISING IN ANY WAY OUT OF THE U
      +                          SE OF
    70                           ; THIS SOFTWARE, EVEN IF ADVISED OF THE POSSIBILITY OF SUCH DAMAGE.
    71                           ; 
    72                           ; 
    73                           ; Code-generator required, PIC16F877A Definitions
    74                           ; 
    75                           ; SFR Addresses
    76  0000                     	;# 
    77  0001                     	;# 
    78  0002                     	;# 
    79  0003                     	;# 
    80  0004                     	;# 
    81  0005                     	;# 
    82  0006                     	;# 
    83  0007                     	;# 
    84  0008                     	;# 
    85  0009                     	;# 
    86  000A                     	;# 
    87  000B                     	;# 
    88  000C                     	;# 
    89  000D                     	;# 
    90  000E                     	;# 
    91  000E                     	;# 
    92  000F                     	;# 
    93  0010                     	;# 
    94  0011                     	;# 
    95  0012                     	;# 
    96  0013                     	;# 
    97  0014                     	;# 
    98  0015                     	;# 
    99  0015                     	;# 
   100  0016                     	;# 
   101  0017                     	;# 
   102  0018                     	;# 
   103  0019                     	;# 
   104  001A                     	;# 
   105  001B                     	;# 
   106  001B                     	;# 
   107  001C                     	;# 
   108  001D                     	;# 
   109  001E                     	;# 
   110  001F                     	;# 
   111  0081                     	;# 
   112  0085                     	;# 
   113  0086                     	;# 
   114  0087                     	;# 
   115  0088                     	;# 
   116  0089                     	;# 
   117  008C                     	;# 
   118  008D                     	;# 
   119  008E                     	;# 
   120  0091                     	;# 
   121  0092                     	;# 
   122  0093                     	;# 
   123  0094                     	;# 
   124  0098                     	;# 
   125  0099                     	;# 
   126  009C                     	;# 
   127  009D                     	;# 
   128  009E                     	;# 
   129  009F                     	;# 
   130  010C                     	;# 
   131  010D                     	;# 
   132  010E                     	;# 
   133  010F                     	;# 
   134  018C                     	;# 
   135  018D                     	;# 
   136  0000                     	;# 
   137  0001                     	;# 
   138  0002                     	;# 
   139  0003                     	;# 
   140  0004                     	;# 
   141  0005                     	;# 
   142  0006                     	;# 
   143  0007                     	;# 
   144  0008                     	;# 
   145  0009                     	;# 
   146  000A                     	;# 
   147  000B                     	;# 
   148  000C                     	;# 
   149  000D                     	;# 
   150  000E                     	;# 
   151  000E                     	;# 
   152  000F                     	;# 
   153  0010                     	;# 
   154  0011                     	;# 
   155  0012                     	;# 
   156  0013                     	;# 
   157  0014                     	;# 
   158  0015                     	;# 
   159  0015                     	;# 
   160  0016                     	;# 
   161  0017                     	;# 
   162  0018                     	;# 
   163  0019                     	;# 
   164  001A                     	;# 
   165  001B                     	;# 
   166  001B                     	;# 
   167  001C                     	;# 
   168  001D                     	;# 
   169  001E                     	;# 
   170  001F                     	;# 
   171  0081                     	;# 
   172  0085                     	;# 
   173  0086                     	;# 
   174  0087                     	;# 
   175  0088                     	;# 
   176  0089                     	;# 
   177  008C                     	;# 
   178  008D                     	;# 
   179  008E                     	;# 
   180  0091                     	;# 
   181  0092                     	;# 
   182  0093                     	;# 
   183  0094                     	;# 
   184  0098                     	;# 
   185  0099                     	;# 
   186  009C                     	;# 
   187  009D                     	;# 
   188  009E                     	;# 
   189  009F                     	;# 
   190  010C                     	;# 
   191  010D                     	;# 
   192  010E                     	;# 
   193  010F                     	;# 
   194  018C                     	;# 
   195  018D                     	;# 
   196                           
   197                           	psect	idataBANK0
   198  0A87                     __pidataBANK0:
   199                           
   200                           ;initializer for _senhaConfig
   201  0A87  3430               	retlw	48
   202  0A88  3430               	retlw	48
   203  0A89  3430               	retlw	48
   204  0A8A  3430               	retlw	48
   205  0A8B  3400               	retlw	0
   206                           
   207                           ;initializer for _senhaCoa
   208  0A8C  3435               	retlw	53
   209  0A8D  3435               	retlw	53
   210  0A8E  3435               	retlw	53
   211  0A8F  3435               	retlw	53
   212  0A90  3400               	retlw	0
   213                           
   214                           ;initializer for _senhaUser
   215  0A91  3431               	retlw	49
   216  0A92  3432               	retlw	50
   217  0A93  3431               	retlw	49
   218  0A94  3432               	retlw	50
   219  0A95  3400               	retlw	0
   220                           
   221                           ;initializer for _userFalse
   222  0A96  3401               	retlw	1
   223  0A97  3400               	retlw	0
   224                           
   225                           ;initializer for _painel
   226  0A98  3401               	retlw	1
   227  0A99  3400               	retlw	0
   228                           
   229                           ;initializer for _input
   230  0A9A  340A               	retlw	10
   231  0A9B  3400               	retlw	0
   232                           
   233                           ;initializer for _msgMascara
   234  0A9C  345F               	retlw	95
   235  0A9D  345F               	retlw	95
   236  0A9E  345F               	retlw	95
   237  0A9F  345F               	retlw	95
   238  0AA0  3400               	retlw	0
   239                           
   240                           ;initializer for _senhaUserConfere
   241  0AA1  3430               	retlw	48
   242  0AA2  3430               	retlw	48
   243  0AA3  3430               	retlw	48
   244  0AA4  3430               	retlw	48
   245  0AA5  3400               	retlw	0
   246                           
   247                           	psect	idataBANK1
   248  0C4B                     __pidataBANK1:
   249                           
   250                           ;initializer for _msgDigiteSenha
   251  0C4B  3444               	retlw	68
   252  0C4C  3469               	retlw	105
   253  0C4D  3467               	retlw	103
   254  0C4E  3469               	retlw	105
   255  0C4F  3474               	retlw	116
   256  0C50  3465               	retlw	101
   257  0C51  3420               	retlw	32
   258  0C52  3461               	retlw	97
   259  0C53  3420               	retlw	32
   260  0C54  3473               	retlw	115
   261  0C55  3465               	retlw	101
   262  0C56  346E               	retlw	110
   263  0C57  3468               	retlw	104
   264  0C58  3461               	retlw	97
   265  0C59  3400               	retlw	0
   266                           
   267                           ;initializer for _msgSenhaConfigActive
   268  0C5A  343E               	retlw	62
   269  0C5B  3453               	retlw	83
   270  0C5C  3465               	retlw	101
   271  0C5D  346E               	retlw	110
   272  0C5E  3468               	retlw	104
   273  0C5F  3461               	retlw	97
   274  0C60  3420               	retlw	32
   275  0C61  3443               	retlw	67
   276  0C62  346F               	retlw	111
   277  0C63  346E               	retlw	110
   278  0C64  3466               	retlw	102
   279  0C65  3469               	retlw	105
   280  0C66  3467               	retlw	103
   281  0C67  3400               	retlw	0
   282                           
   283                           ;initializer for _msgSenhaCoacao
   284  0C68  3453               	retlw	83
   285  0C69  3465               	retlw	101
   286  0C6A  346E               	retlw	110
   287  0C6B  3468               	retlw	104
   288  0C6C  3461               	retlw	97
   289  0C6D  3420               	retlw	32
   290  0C6E  3443               	retlw	67
   291  0C6F  346F               	retlw	111
   292  0C70  3461               	retlw	97
   293  0C71  3463               	retlw	99
   294  0C72  3461               	retlw	97
   295  0C73  346F               	retlw	111
   296  0C74  3400               	retlw	0
   297                           
   298                           ;initializer for _msgSenhaConfig
   299  0C75  3453               	retlw	83
   300  0C76  3465               	retlw	101
   301  0C77  346E               	retlw	110
   302  0C78  3468               	retlw	104
   303  0C79  3461               	retlw	97
   304  0C7A  3420               	retlw	32
   305  0C7B  3443               	retlw	67
   306  0C7C  346F               	retlw	111
   307  0C7D  346E               	retlw	110
   308  0C7E  3466               	retlw	102
   309  0C7F  3469               	retlw	105
   310  0C80  3467               	retlw	103
   311  0C81  3400               	retlw	0
   312                           
   313                           ;initializer for _msgReativarActive
   314  0C82  343E               	retlw	62
   315  0C83  3452               	retlw	82
   316  0C84  3465               	retlw	101
   317  0C85  3461               	retlw	97
   318  0C86  3474               	retlw	116
   319  0C87  3469               	retlw	105
   320  0C88  3476               	retlw	118
   321  0C89  3461               	retlw	97
   322  0C8A  3472               	retlw	114
   323  0C8B  3400               	retlw	0
   324                           
   325                           ;initializer for _msgReativar
   326  0C8C  3452               	retlw	82
   327  0C8D  3465               	retlw	101
   328  0C8E  3461               	retlw	97
   329  0C8F  3474               	retlw	116
   330  0C90  3469               	retlw	105
   331  0C91  3476               	retlw	118
   332  0C92  3461               	retlw	97
   333  0C93  3472               	retlw	114
   334  0C94  3400               	retlw	0
   335                           
   336                           	psect	idataBANK2
   337  0B12                     __pidataBANK2:
   338                           
   339                           ;initializer for _msgSenhaCorreta
   340  0B12  3453               	retlw	83
   341  0B13  3465               	retlw	101
   342  0B14  346E               	retlw	110
   343  0B15  3468               	retlw	104
   344  0B16  3461               	retlw	97
   345  0B17  3420               	retlw	32
   346  0B18  3463               	retlw	99
   347  0B19  346F               	retlw	111
   348  0B1A  3472               	retlw	114
   349  0B1B  3472               	retlw	114
   350  0B1C  3465               	retlw	101
   351  0B1D  3474               	retlw	116
   352  0B1E  3461               	retlw	97
   353  0B1F  3400               	retlw	0
   354                           
   355                           ;initializer for _msgSenhaErrada
   356  0B20  3453               	retlw	83
   357  0B21  3465               	retlw	101
   358  0B22  346E               	retlw	110
   359  0B23  3468               	retlw	104
   360  0B24  3461               	retlw	97
   361  0B25  3420               	retlw	32
   362  0B26  3465               	retlw	101
   363  0B27  3472               	retlw	114
   364  0B28  3472               	retlw	114
   365  0B29  3461               	retlw	97
   366  0B2A  3464               	retlw	100
   367  0B2B  3461               	retlw	97
   368  0B2C  3400               	retlw	0
   369                           
   370                           ;initializer for _msgDesativarZonaActive
   371  0B2D  343E               	retlw	62
   372  0B2E  3444               	retlw	68
   373  0B2F  3465               	retlw	101
   374  0B30  3473               	retlw	115
   375  0B31  3461               	retlw	97
   376  0B32  3474               	retlw	116
   377  0B33  3469               	retlw	105
   378  0B34  3476               	retlw	118
   379  0B35  3461               	retlw	97
   380  0B36  3472               	retlw	114
   381  0B37  3420               	retlw	32
   382  0B38  345A               	retlw	90
   383  0B39  346F               	retlw	111
   384  0B3A  346E               	retlw	110
   385  0B3B  3461               	retlw	97
   386  0B3C  3400               	retlw	0
   387                           
   388                           	psect	idataBANK3
   389  0C95                     __pidataBANK3:
   390                           
   391                           ;initializer for _msgDesativarZona
   392  0C95  3444               	retlw	68
   393  0C96  3465               	retlw	101
   394  0C97  3473               	retlw	115
   395  0C98  3461               	retlw	97
   396  0C99  3474               	retlw	116
   397  0C9A  3469               	retlw	105
   398  0C9B  3476               	retlw	118
   399  0C9C  3461               	retlw	97
   400  0C9D  3472               	retlw	114
   401  0C9E  3420               	retlw	32
   402  0C9F  345A               	retlw	90
   403  0CA0  346F               	retlw	111
   404  0CA1  346E               	retlw	110
   405  0CA2  3461               	retlw	97
   406  0CA3  3400               	retlw	0
   407                           
   408                           ;initializer for _msgSenhaDisparoActive
   409  0CA4  343E               	retlw	62
   410  0CA5  3453               	retlw	83
   411  0CA6  3465               	retlw	101
   412  0CA7  346E               	retlw	110
   413  0CA8  3468               	retlw	104
   414  0CA9  3461               	retlw	97
   415  0CAA  3420               	retlw	32
   416  0CAB  3444               	retlw	68
   417  0CAC  3469               	retlw	105
   418  0CAD  3473               	retlw	115
   419  0CAE  3470               	retlw	112
   420  0CAF  3461               	retlw	97
   421  0CB0  3472               	retlw	114
   422  0CB1  346F               	retlw	111
   423  0CB2  3400               	retlw	0
   424                           
   425                           ;initializer for _msgSenhaUsuarioActive
   426  0CB3  343E               	retlw	62
   427  0CB4  3453               	retlw	83
   428  0CB5  3465               	retlw	101
   429  0CB6  346E               	retlw	110
   430  0CB7  3468               	retlw	104
   431  0CB8  3461               	retlw	97
   432  0CB9  3420               	retlw	32
   433  0CBA  3455               	retlw	85
   434  0CBB  3473               	retlw	115
   435  0CBC  3475               	retlw	117
   436  0CBD  3461               	retlw	97
   437  0CBE  3472               	retlw	114
   438  0CBF  3469               	retlw	105
   439  0CC0  346F               	retlw	111
   440  0CC1  3400               	retlw	0
   441                           
   442                           ;initializer for _msgSenhaDisparo
   443  0CC2  3453               	retlw	83
   444  0CC3  3465               	retlw	101
   445  0CC4  346E               	retlw	110
   446  0CC5  3468               	retlw	104
   447  0CC6  3461               	retlw	97
   448  0CC7  3420               	retlw	32
   449  0CC8  3444               	retlw	68
   450  0CC9  3469               	retlw	105
   451  0CCA  3473               	retlw	115
   452  0CCB  3470               	retlw	112
   453  0CCC  3461               	retlw	97
   454  0CCD  3472               	retlw	114
   455  0CCE  346F               	retlw	111
   456  0CCF  3400               	retlw	0
   457                           
   458                           ;initializer for _msgSenhaCoacaoActive
   459  0CD0  343E               	retlw	62
   460  0CD1  3453               	retlw	83
   461  0CD2  3465               	retlw	101
   462  0CD3  346E               	retlw	110
   463  0CD4  3468               	retlw	104
   464  0CD5  3461               	retlw	97
   465  0CD6  3420               	retlw	32
   466  0CD7  3443               	retlw	67
   467  0CD8  346F               	retlw	111
   468  0CD9  3461               	retlw	97
   469  0CDA  3463               	retlw	99
   470  0CDB  3461               	retlw	97
   471  0CDC  346F               	retlw	111
   472  0CDD  3400               	retlw	0
   473                           
   474                           ;initializer for _msgSenhaUsuario
   475  0CDE  3453               	retlw	83
   476  0CDF  3465               	retlw	101
   477  0CE0  346E               	retlw	110
   478  0CE1  3468               	retlw	104
   479  0CE2  3461               	retlw	97
   480  0CE3  3420               	retlw	32
   481  0CE4  3455               	retlw	85
   482  0CE5  3473               	retlw	115
   483  0CE6  3475               	retlw	117
   484  0CE7  3461               	retlw	97
   485  0CE8  3472               	retlw	114
   486  0CE9  3469               	retlw	105
   487  0CEA  346F               	retlw	111
   488  0CEB  3400               	retlw	0
   489  0006                     _PORTB	set	6
   490  0009                     _PORTE	set	9
   491  0008                     _PORTD	set	8
   492  0033                     _RB3	set	51
   493  0032                     _RB2	set	50
   494  0031                     _RB1	set	49
   495  0030                     _RB0	set	48
   496  002B                     _RA3	set	43
   497  002C                     _RA4	set	44
   498  002D                     _RA5	set	45
   499  0029                     _RA1	set	41
   500  0086                     _TRISB	set	134
   501  0089                     _TRISE	set	137
   502  0088                     _TRISD	set	136
   503  0085                     _TRISA	set	133
   504  009F                     _ADCON1	set	159
   505                           
   506                           	psect	cinit
   507  07C0                     start_initialization:	
   508                           ; #config settings
   509                           
   510  07C0                     __initialization:
   511                           
   512                           ; Initialize objects allocated to BANK3
   513  07C0  1783               	bsf	3,7	;select IRP bank2
   514  07C1  30E7               	movlw	low (__pdataBANK3+87)
   515  07C2  00FD               	movwf	btemp+-1
   516  07C3  300C               	movlw	high __pidataBANK3
   517  07C4  00FE               	movwf	btemp
   518  07C5  3095               	movlw	low __pidataBANK3
   519  07C6  00FF               	movwf	btemp+1
   520  07C7  3090               	movlw	low __pdataBANK3
   521  07C8  0084               	movwf	4
   522  07C9  120A  158A  222B  120A  118A  	fcall	init_ram0
   523                           
   524                           ; Initialize objects allocated to BANK2
   525  07CE  303B               	movlw	low (__pdataBANK2+43)
   526  07CF  00FD               	movwf	btemp+-1
   527  07D0  300B               	movlw	high __pidataBANK2
   528  07D1  00FE               	movwf	btemp
   529  07D2  3012               	movlw	low __pidataBANK2
   530  07D3  00FF               	movwf	btemp+1
   531  07D4  3010               	movlw	low __pdataBANK2
   532  07D5  0084               	movwf	4
   533  07D6  120A  158A  222B  120A  118A  	fcall	init_ram0
   534                           
   535                           ; Initialize objects allocated to BANK1
   536  07DB  1383               	bcf	3,7	;select IRP bank0
   537  07DC  30EA               	movlw	low (__pdataBANK1+74)
   538  07DD  00FD               	movwf	btemp+-1
   539  07DE  300C               	movlw	high __pidataBANK1
   540  07DF  00FE               	movwf	btemp
   541  07E0  304B               	movlw	low __pidataBANK1
   542  07E1  00FF               	movwf	btemp+1
   543  07E2  30A0               	movlw	low __pdataBANK1
   544  07E3  0084               	movwf	4
   545  07E4  120A  158A  222B  120A  118A  	fcall	init_ram0
   546                           
   547                           ; Initialize objects allocated to BANK0
   548  07E9  3064               	movlw	low (__pdataBANK0+31)
   549  07EA  00FD               	movwf	btemp+-1
   550  07EB  300A               	movlw	high __pidataBANK0
   551  07EC  00FE               	movwf	btemp
   552  07ED  3087               	movlw	low __pidataBANK0
   553  07EE  00FF               	movwf	btemp+1
   554  07EF  3045               	movlw	low __pdataBANK0
   555  07F0  0084               	movwf	4
   556  07F1  120A  158A  222B  120A  118A  	fcall	init_ram0
   557                           
   558                           ; Clear objects allocated to BANK0
   559  07F6  01E4               	clrf	__pbssBANK0& (0+127)
   560  07F7  01E5               	clrf	(__pbssBANK0+1)& (0+127)
   561  07F8  01E6               	clrf	(__pbssBANK0+2)& (0+127)
   562  07F9  01E7               	clrf	(__pbssBANK0+3)& (0+127)
   563  07FA  01E8               	clrf	(__pbssBANK0+4)& (0+127)
   564  07FB  01E9               	clrf	(__pbssBANK0+5)& (0+127)
   565  07FC                     end_of_initialization:	
   566                           ;End of C runtime variable initialization code
   567                           
   568  07FC                     __end_of__initialization:
   569  07FC  0183               	clrf	3
   570  07FD  120A  158A  2B9F   	ljmp	_main	;jump to C main() function
   571                           
   572                           	psect	bssBANK0
   573  0064                     __pbssBANK0:
   574  0064                     _valorSensor:
   575  0064                     	ds	2
   576  0066                     _config:
   577  0066                     	ds	2
   578  0068                     _aux:
   579  0068                     	ds	2
   580                           
   581                           	psect	dataBANK0
   582  0045                     __pdataBANK0:
   583  0045                     _senhaConfig:
   584  0045                     	ds	5
   585  004A                     _senhaCoa:
   586  004A                     	ds	5
   587  004F                     _senhaUser:
   588  004F                     	ds	5
   589  0054                     _userFalse:
   590  0054                     	ds	2
   591  0056                     _painel:
   592  0056                     	ds	2
   593  0058                     _input:
   594  0058                     	ds	2
   595  005A                     _msgMascara:
   596  005A                     	ds	5
   597  005F                     _senhaUserConfere:
   598  005F                     	ds	5
   599                           
   600                           	psect	dataBANK1
   601  00A0                     __pdataBANK1:
   602  00A0                     _msgDigiteSenha:
   603  00A0                     	ds	15
   604  00AF                     _msgSenhaConfigActive:
   605  00AF                     	ds	14
   606  00BD                     _msgSenhaCoacao:
   607  00BD                     	ds	13
   608  00CA                     _msgSenhaConfig:
   609  00CA                     	ds	13
   610  00D7                     _msgReativarActive:
   611  00D7                     	ds	10
   612  00E1                     _msgReativar:
   613  00E1                     	ds	9
   614                           
   615                           	psect	dataBANK3
   616  0190                     __pdataBANK3:
   617  0190                     _msgDesativarZona:
   618  0190                     	ds	15
   619  019F                     _msgSenhaDisparoActive:
   620  019F                     	ds	15
   621  01AE                     _msgSenhaUsuarioActive:
   622  01AE                     	ds	15
   623  01BD                     _msgSenhaDisparo:
   624  01BD                     	ds	14
   625  01CB                     _msgSenhaCoacaoActive:
   626  01CB                     	ds	14
   627  01D9                     _msgSenhaUsuario:
   628  01D9                     	ds	14
   629                           
   630                           	psect	dataBANK2
   631  0110                     __pdataBANK2:
   632  0110                     _msgSenhaCorreta:
   633  0110                     	ds	14
   634  011E                     _msgSenhaErrada:
   635  011E                     	ds	13
   636  012B                     _msgDesativarZonaActive:
   637  012B                     	ds	16
   638                           
   639                           	psect	inittext
   640  0A27                     init_fetch0:	
   641                           ;	Called with low address in FSR and high address in W
   642                           
   643  0A27  087E               	movf	btemp,w
   644  0A28  008A               	movwf	10
   645  0A29  087F               	movf	btemp+1,w
   646  0A2A  0082               	movwf	2
   647  0A2B                     init_ram0:	
   648                           ;Called with:
   649                           ;	high address of idata address in btemp 
   650                           ;	low address of idata address in btemp+1 
   651                           ;	low address of data in FSR
   652                           ;	high address + 1 of data in btemp-1
   653                           
   654  0A2B  120A  158A  2227  120A  158A  	fcall	init_fetch0
   655  0A30  0080               	movwf	0
   656  0A31  0A84               	incf	4,f
   657  0A32  0804               	movf	4,w
   658  0A33  067D               	xorwf	btemp+-1,w
   659  0A34  1903               	btfsc	3,2
   660  0A35  3400               	retlw	0
   661  0A36  0AFF               	incf	btemp+1,f
   662  0A37  1903               	btfsc	3,2
   663  0A38  0AFE               	incf	btemp,f
   664  0A39  2A2B               	goto	init_ram0
   665                           
   666                           	psect	cstackCOMMON
   667  0070                     __pcstackCOMMON:
   668  0070                     ?___flge:
   669  0070                     ?_LCD_enable:	
   670                           ; 1 bit 
   671                           
   672  0070                     ?_delay:	
   673                           ; 1 bytes @ 0x0
   674                           
   675  0070                     ??_delay:	
   676                           ; 1 bytes @ 0x0
   677                           
   678  0070                     ?_telaInicial:	
   679                           ; 1 bytes @ 0x0
   680                           
   681  0070                     ?_Linha2:	
   682                           ; 1 bytes @ 0x0
   683                           
   684  0070                     ?_validaUser:	
   685                           ; 1 bytes @ 0x0
   686                           
   687  0070                     ?_teclado:	
   688                           ; 1 bytes @ 0x0
   689                           
   690  0070                     ?_espacoLivre:	
   691                           ; 1 bytes @ 0x0
   692                           
   693  0070                     ?_strcpy:	
   694                           ; 1 bytes @ 0x0
   695                           
   696  0070                     ?_init:	
   697                           ; 1 bytes @ 0x0
   698                           
   699  0070                     ??_init:	
   700                           ; 1 bytes @ 0x0
   701                           
   702  0070                     ?_LCD_init:	
   703                           ; 1 bytes @ 0x0
   704                           
   705  0070                     ?_LCD_escreve:	
   706                           ; 1 bytes @ 0x0
   707                           
   708  0070                     ?_LCD_limpa:	
   709                           ; 1 bytes @ 0x0
   710                           
   711  0070                     ?_LCD_linha1:	
   712                           ; 1 bytes @ 0x0
   713                           
   714  0070                     ?_LCD_linha2:	
   715                           ; 1 bytes @ 0x0
   716                           
   717  0070                     ?_main:	
   718                           ; 1 bytes @ 0x0
   719                           
   720  0070                     ?_strlen:	
   721                           ; 1 bytes @ 0x0
   722                           
   723  0070                     ?__Umul8_16:	
   724                           ; 2 bytes @ 0x0
   725                           
   726  0070                     ?___fladd:	
   727                           ; 2 bytes @ 0x0
   728                           
   729  0070                     __Umul8_16@multiplicand:	
   730                           ; 4 bytes @ 0x0
   731                           
   732  0070                     strcpy@from:	
   733                           ; 1 bytes @ 0x0
   734                           
   735  0070                     delay@i:	
   736                           ; 1 bytes @ 0x0
   737                           
   738  0070                     ___flge@ff1:	
   739                           ; 2 bytes @ 0x0
   740                           
   741  0070                     ___fladd@b:	
   742                           ; 4 bytes @ 0x0
   743                           
   744                           
   745                           ; 4 bytes @ 0x0
   746  0070                     	ds	1
   747  0071                     ??_strcpy:
   748                           
   749                           ; 1 bytes @ 0x1
   750  0071                     	ds	1
   751  0072                     ??_LCD_enable:
   752  0072                     ??_strlen:	
   753                           ; 1 bytes @ 0x2
   754                           
   755  0072                     ??__Umul8_16:	
   756                           ; 1 bytes @ 0x2
   757                           
   758  0072                     ??_LCD_init:	
   759                           ; 1 bytes @ 0x2
   760                           
   761  0072                     ??_LCD_escreve:	
   762                           ; 1 bytes @ 0x2
   763                           
   764  0072                     ??_LCD_limpa:	
   765                           ; 1 bytes @ 0x2
   766                           
   767  0072                     ??_LCD_linha1:	
   768                           ; 1 bytes @ 0x2
   769                           
   770  0072                     ??_LCD_linha2:	
   771                           ; 1 bytes @ 0x2
   772                           
   773  0072                     LCD_escreve@x:	
   774                           ; 1 bytes @ 0x2
   775                           
   776  0072                     strcpy@cp:	
   777                           ; 1 bytes @ 0x2
   778                           
   779                           
   780                           ; 1 bytes @ 0x2
   781  0072                     	ds	1
   782  0073                     ??_espacoLivre:
   783  0073                     strcpy@to:	
   784                           ; 1 bytes @ 0x3
   785                           
   786  0073                     strlen@cp:	
   787                           ; 1 bytes @ 0x3
   788                           
   789  0073                     espacoLivre@i:	
   790                           ; 1 bytes @ 0x3
   791                           
   792                           
   793                           ; 2 bytes @ 0x3
   794  0073                     	ds	1
   795  0074                     ?_strcat:
   796  0074                     strlen@s:	
   797                           ; 1 bytes @ 0x4
   798                           
   799  0074                     __Umul8_16@product:	
   800                           ; 1 bytes @ 0x4
   801                           
   802  0074                     strcat@from:	
   803                           ; 2 bytes @ 0x4
   804                           
   805  0074                     ___flge@ff2:	
   806                           ; 2 bytes @ 0x4
   807                           
   808  0074                     ___fladd@a:	
   809                           ; 4 bytes @ 0x4
   810                           
   811                           
   812                           ; 4 bytes @ 0x4
   813  0074                     	ds	1
   814  0075                     ??_telaInicial:
   815  0075                     ??_Linha2:	
   816                           ; 1 bytes @ 0x5
   817                           
   818                           
   819                           ; 1 bytes @ 0x5
   820  0075                     	ds	1
   821  0076                     ??_strcat:
   822  0076                     __Umul8_16@word_mpld:	
   823                           ; 1 bytes @ 0x6
   824                           
   825                           
   826                           ; 2 bytes @ 0x6
   827  0076                     	ds	1
   828  0077                     strcat@to:
   829  0077                     telaInicial@i:	
   830                           ; 1 bytes @ 0x7
   831                           
   832  0077                     Linha2@i:	
   833                           ; 2 bytes @ 0x7
   834                           
   835                           
   836                           ; 2 bytes @ 0x7
   837  0077                     	ds	1
   838  0078                     ??___flge:
   839  0078                     ___fladd@signs:	
   840                           ; 1 bytes @ 0x8
   841                           
   842  0078                     __Umul8_16@multiplier:	
   843                           ; 1 bytes @ 0x8
   844                           
   845  0078                     strcat@cp:	
   846                           ; 1 bytes @ 0x8
   847                           
   848                           
   849                           ; 1 bytes @ 0x8
   850  0078                     	ds	1
   851  0079                     ??___flmul:
   852  0079                     ___fladd@aexp:	
   853                           ; 1 bytes @ 0x9
   854                           
   855                           
   856                           ; 1 bytes @ 0x9
   857  0079                     	ds	1
   858  007A                     ___fladd@bexp:
   859                           
   860                           ; 1 bytes @ 0xA
   861  007A                     	ds	1
   862  007B                     ___fladd@grs:
   863                           
   864                           ; 1 bytes @ 0xB
   865  007B                     	ds	1
   866  007C                     ??___flsub:
   867                           
   868                           ; 1 bytes @ 0xC
   869  007C                     	ds	2
   870  007E                     ??_main:
   871                           
   872                           	psect	cstackBANK0
   873  0020                     __pcstackBANK0:	
   874                           ; 1 bytes @ 0xE
   875                           
   876  0020                     ??___fladd:
   877  0020                     ?___flmul:	
   878                           ; 1 bytes @ 0x0
   879                           
   880  0020                     ___flmul@b:	
   881                           ; 4 bytes @ 0x0
   882                           
   883                           
   884                           ; 4 bytes @ 0x0
   885  0020                     	ds	4
   886  0024                     ___flmul@a:
   887                           
   888                           ; 4 bytes @ 0x4
   889  0024                     	ds	4
   890  0028                     ?___flsub:
   891  0028                     ___flmul@sign:	
   892                           ; 4 bytes @ 0x8
   893                           
   894  0028                     ___flsub@a:	
   895                           ; 1 bytes @ 0x8
   896                           
   897                           
   898                           ; 4 bytes @ 0x8
   899  0028                     	ds	1
   900  0029                     ___flmul@grs:
   901                           
   902                           ; 4 bytes @ 0x9
   903  0029                     	ds	3
   904  002C                     ___flsub@b:
   905                           
   906                           ; 4 bytes @ 0xC
   907  002C                     	ds	1
   908  002D                     ___flmul@aexp:
   909                           
   910                           ; 1 bytes @ 0xD
   911  002D                     	ds	1
   912  002E                     ___flmul@bexp:
   913                           
   914                           ; 1 bytes @ 0xE
   915  002E                     	ds	1
   916  002F                     ___flmul@prod:
   917                           
   918                           ; 4 bytes @ 0xF
   919  002F                     	ds	4
   920  0033                     ___flmul@temp:
   921                           
   922                           ; 2 bytes @ 0x13
   923  0033                     	ds	2
   924  0035                     ?_liga_buzzer:
   925  0035                     liga_buzzer@tempoSegundos:	
   926                           ; 1 bytes @ 0x15
   927                           
   928                           
   929                           ; 4 bytes @ 0x15
   930  0035                     	ds	4
   931  0039                     ??_liga_buzzer:
   932                           
   933                           ; 1 bytes @ 0x19
   934  0039                     	ds	2
   935  003B                     ??_teclado:
   936                           
   937                           ; 1 bytes @ 0x1B
   938  003B                     	ds	3
   939  003E                     ??_validaUser:
   940                           
   941                           ; 1 bytes @ 0x1E
   942  003E                     	ds	3
   943  0041                     validaUser@i:
   944                           
   945                           ; 2 bytes @ 0x21
   946  0041                     	ds	2
   947  0043                     validaUser@n:
   948                           
   949                           ; 2 bytes @ 0x23
   950  0043                     	ds	2
   951                           
   952                           	psect	maintext
   953  0B9F                     __pmaintext:	
   954 ;;
   955 ;;Main: autosize = 0, tempsize = 0, incstack = 0, save=0
   956 ;;
   957 ;; *************** function _main *****************
   958 ;; Defined at:
   959 ;;		line 55 in file "main.c"
   960 ;; Parameters:    Size  Location     Type
   961 ;;		None
   962 ;; Auto vars:     Size  Location     Type
   963 ;;		None
   964 ;; Return value:  Size  Location     Type
   965 ;;                  1    wreg      void 
   966 ;; Registers used:
   967 ;;		wreg, fsr0l, fsr0h, status,2, status,0, btemp+1, pclath, cstack
   968 ;; Tracked objects:
   969 ;;		On entry : B00/0
   970 ;;		On exit  : 0/0
   971 ;;		Unchanged: 0/0
   972 ;; Data sizes:     COMMON   BANK0   BANK1   BANK3   BANK2
   973 ;;      Params:         0       0       0       0       0
   974 ;;      Locals:         0       0       0       0       0
   975 ;;      Temps:          0       0       0       0       0
   976 ;;      Totals:         0       0       0       0       0
   977 ;;Total ram usage:        0 bytes
   978 ;; Hardware stack levels required when called: 5
   979 ;; This function calls:
   980 ;;		_LCD_init
   981 ;;		_LCD_limpa
   982 ;;		_Linha2
   983 ;;		_teclado
   984 ;;		_telaInicial
   985 ;;		_validaUser
   986 ;; This function is called by:
   987 ;;		Startup code after reset
   988 ;; This function uses a non-reentrant model
   989 ;;
   990                           
   991                           
   992                           ;psect for function _main
   993  0B9F                     _main:
   994  0B9F                     l2479:	
   995                           ;incstack = 0
   996                           ; Regs used in _main: [wreg-fsr0h+status,2+status,0+btemp+1+pclath+cstack]
   997                           
   998                           
   999                           ;main.c: 56:     TRISE = 0;
  1000  0B9F  1683               	bsf	3,5	;RP0=1, select bank1
  1001  0BA0  1303               	bcf	3,6	;RP1=0, select bank1
  1002  0BA1  0189               	clrf	9	;volatile
  1003                           
  1004                           ;main.c: 57:     TRISD = 0;
  1005  0BA2  0188               	clrf	8	;volatile
  1006  0BA3                     l2481:
  1007                           
  1008                           ;main.c: 58:     TRISB = 0x0F;
  1009  0BA3  300F               	movlw	15
  1010  0BA4  0086               	movwf	6	;volatile
  1011  0BA5                     l2483:
  1012                           
  1013                           ;main.c: 60:     PORTE = 0x01;
  1014  0BA5  3001               	movlw	1
  1015  0BA6  1283               	bcf	3,5	;RP0=0, select bank0
  1016  0BA7  1303               	bcf	3,6	;RP1=0, select bank0
  1017  0BA8  0089               	movwf	9	;volatile
  1018  0BA9                     l2485:
  1019                           
  1020                           ;main.c: 63:     LCD_init();
  1021  0BA9  120A  158A  236C  120A  158A  	fcall	_LCD_init
  1022  0BAE                     l2487:
  1023                           
  1024                           ;main.c: 64:     LCD_limpa();
  1025  0BAE  120A  158A  2217  120A  158A  	fcall	_LCD_limpa
  1026  0BB3  2BC2               	goto	l2493
  1027  0BB4                     l2489:
  1028                           
  1029                           ;main.c: 70:             telaInicial();
  1030  0BB4  120A  158A  240E  120A  158A  	fcall	_telaInicial
  1031                           
  1032                           ;main.c: 71:             Linha2();
  1033  0BB9  120A  158A  23D3  120A  158A  	fcall	_Linha2
  1034  0BBE                     l2491:
  1035                           
  1036                           ;main.c: 72:             painel = 0;
  1037  0BBE  1283               	bcf	3,5	;RP0=0, select bank0
  1038  0BBF  1303               	bcf	3,6	;RP1=0, select bank0
  1039  0BC0  01D6               	clrf	_painel
  1040  0BC1  01D7               	clrf	_painel+1
  1041  0BC2                     l2493:
  1042                           
  1043                           ;main.c: 69:         while (painel){
  1044  0BC2  1283               	bcf	3,5	;RP0=0, select bank0
  1045  0BC3  1303               	bcf	3,6	;RP1=0, select bank0
  1046  0BC4  0856               	movf	_painel,w
  1047  0BC5  0457               	iorwf	_painel+1,w
  1048  0BC6  1D03               	btfss	3,2
  1049  0BC7  2BC9               	goto	u2531
  1050  0BC8  2BCA               	goto	u2530
  1051  0BC9                     u2531:
  1052  0BC9  2BB4               	goto	l2489
  1053  0BCA                     u2530:
  1054  0BCA                     l2495:
  1055                           
  1056                           ;main.c: 77:            validaUser();
  1057  0BCA  120A  118A  20B6  120A  158A  	fcall	_validaUser
  1058  0BCF  2BCA               	goto	l2495
  1059  0BD0  120A  118A  2800   	ljmp	start
  1060  0BD3                     __end_of_main:
  1061                           
  1062                           	psect	text1
  1063  00B6                     __ptext1:	
  1064 ;; *************** function _validaUser *****************
  1065 ;; Defined at:
  1066 ;;		line 375 in file "main.c"
  1067 ;; Parameters:    Size  Location     Type
  1068 ;;		None
  1069 ;; Auto vars:     Size  Location     Type
  1070 ;;  i               2   33[BANK0 ] int 
  1071 ;;  n               2   35[BANK0 ] int 
  1072 ;; Return value:  Size  Location     Type
  1073 ;;                  1    wreg      void 
  1074 ;; Registers used:
  1075 ;;		wreg, fsr0l, fsr0h, status,2, status,0, btemp+1, pclath, cstack
  1076 ;; Tracked objects:
  1077 ;;		On entry : 0/0
  1078 ;;		On exit  : 0/0
  1079 ;;		Unchanged: 0/0
  1080 ;; Data sizes:     COMMON   BANK0   BANK1   BANK3   BANK2
  1081 ;;      Params:         0       0       0       0       0
  1082 ;;      Locals:         0       4       0       0       0
  1083 ;;      Temps:          0       3       0       0       0
  1084 ;;      Totals:         0       7       0       0       0
  1085 ;;Total ram usage:        7 bytes
  1086 ;; Hardware stack levels used: 1
  1087 ;; Hardware stack levels required when called: 4
  1088 ;; This function calls:
  1089 ;;		_LCD_escreve
  1090 ;;		_LCD_limpa
  1091 ;;		_strcat
  1092 ;;		_strcpy
  1093 ;;		_teclado
  1094 ;; This function is called by:
  1095 ;;		_main
  1096 ;; This function uses a non-reentrant model
  1097 ;;
  1098                           
  1099                           
  1100                           ;psect for function _validaUser
  1101  00B6                     _validaUser:
  1102  00B6                     l2411:	
  1103                           ;incstack = 0
  1104                           ; Regs used in _validaUser: [wreg-fsr0h+status,2+status,0+btemp+1+pclath+cstack]
  1105                           
  1106                           
  1107                           ;main.c: 376:     int n = 0;
  1108  00B6  1283               	bcf	3,5	;RP0=0, select bank0
  1109  00B7  1303               	bcf	3,6	;RP1=0, select bank0
  1110  00B8  01C3               	clrf	validaUser@n
  1111  00B9  01C4               	clrf	validaUser@n+1
  1112                           
  1113                           ;main.c: 377:     for(int i =0; senhaUserConfere[i] != '\0'; i++){
  1114  00BA  01C1               	clrf	validaUser@i
  1115  00BB  01C2               	clrf	validaUser@i+1
  1116  00BC  28C7               	goto	l2417
  1117  00BD                     l2413:
  1118                           
  1119                           ;main.c: 378:         senhaUserConfere[i] = '\0';
  1120  00BD  0841               	movf	validaUser@i,w
  1121  00BE  3E5F               	addlw	(low (_senhaUserConfere| 0))& (0+255)
  1122  00BF  0084               	movwf	4
  1123  00C0  0180               	clrf	0
  1124  00C1                     l2415:
  1125                           
  1126                           ;main.c: 379:     }
  1127  00C1  3001               	movlw	1
  1128  00C2  07C1               	addwf	validaUser@i,f
  1129  00C3  1803               	skipnc
  1130  00C4  0AC2               	incf	validaUser@i+1,f
  1131  00C5  3000               	movlw	0
  1132  00C6  07C2               	addwf	validaUser@i+1,f
  1133  00C7                     l2417:
  1134  00C7  0841               	movf	validaUser@i,w
  1135  00C8  3E5F               	addlw	(low (_senhaUserConfere| 0))& (0+255)
  1136  00C9  0084               	movwf	4
  1137  00CA  1383               	bcf	3,7	;select IRP bank0
  1138  00CB  0800               	movf	0,w
  1139  00CC  1D03               	btfss	3,2
  1140  00CD  28CF               	goto	u2491
  1141  00CE  28D0               	goto	u2490
  1142  00CF                     u2491:
  1143  00CF  28BD               	goto	l2413
  1144  00D0                     u2490:
  1145  00D0  298D               	goto	l2465
  1146  00D1                     l2419:
  1147                           
  1148                           ;main.c: 383:             input = 10;
  1149  00D1  300A               	movlw	10
  1150  00D2  1283               	bcf	3,5	;RP0=0, select bank0
  1151  00D3  1303               	bcf	3,6	;RP1=0, select bank0
  1152  00D4  00D8               	movwf	_input
  1153  00D5  3000               	movlw	0
  1154  00D6  00D9               	movwf	_input+1
  1155  00D7                     l2421:
  1156                           
  1157                           ;main.c: 384:             LCD_limpa();
  1158  00D7  120A  158A  2217  120A  118A  	fcall	_LCD_limpa
  1159  00DC                     l2423:
  1160                           
  1161                           ;main.c: 385:             LCD_escreve('N');
  1162  00DC  304E               	movlw	78
  1163  00DD  120A  118A  2003  120A  118A  	fcall	_LCD_escreve
  1164  00E2                     l2425:
  1165                           
  1166                           ;main.c: 386:             LCD_escreve(':');
  1167  00E2  303A               	movlw	58
  1168  00E3  120A  118A  2003  120A  118A  	fcall	_LCD_escreve
  1169  00E8                     l2427:
  1170                           
  1171                           ;main.c: 387:             LCD_escreve(n + 48);
  1172  00E8  1283               	bcf	3,5	;RP0=0, select bank0
  1173  00E9  1303               	bcf	3,6	;RP1=0, select bank0
  1174  00EA  0843               	movf	validaUser@n,w
  1175  00EB  3E30               	addlw	48
  1176  00EC  120A  118A  2003  120A  118A  	fcall	_LCD_escreve
  1177                           
  1178                           ;main.c: 389:             while (input == 10){
  1179  00F1  28F7               	goto	l2431
  1180  00F2                     l2429:
  1181                           
  1182                           ;main.c: 390:                 teclado();
  1183  00F2  120A  118A  219E  120A  118A  	fcall	_teclado
  1184  00F7                     l2431:
  1185                           
  1186                           ;main.c: 389:             while (input == 10){
  1187  00F7  300A               	movlw	10
  1188  00F8  1283               	bcf	3,5	;RP0=0, select bank0
  1189  00F9  1303               	bcf	3,6	;RP1=0, select bank0
  1190  00FA  0658               	xorwf	_input,w
  1191  00FB  0459               	iorwf	_input+1,w
  1192  00FC  1903               	btfsc	3,2
  1193  00FD  28FF               	goto	u2501
  1194  00FE  2900               	goto	u2500
  1195  00FF                     u2501:
  1196  00FF  28F2               	goto	l2429
  1197  0100                     u2500:
  1198  0100  2933               	goto	l2455
  1199  0101                     l2433:
  1200                           
  1201                           ;main.c: 394:                     aux = '1';
  1202  0101  3031               	movlw	49
  1203  0102  00E8               	movwf	_aux
  1204  0103  3000               	movlw	0
  1205  0104  00E9               	movwf	_aux+1
  1206                           
  1207                           ;main.c: 395:                 break;
  1208  0105  2958               	goto	l2457
  1209  0106                     l2435:
  1210                           
  1211                           ;main.c: 397:                     aux = '2';
  1212  0106  3032               	movlw	50
  1213  0107  00E8               	movwf	_aux
  1214  0108  3000               	movlw	0
  1215  0109  00E9               	movwf	_aux+1
  1216                           
  1217                           ;main.c: 398:                 break;
  1218  010A  2958               	goto	l2457
  1219  010B                     l2437:
  1220                           
  1221                           ;main.c: 400:                     aux = '3';
  1222  010B  3033               	movlw	51
  1223  010C  00E8               	movwf	_aux
  1224  010D  3000               	movlw	0
  1225  010E  00E9               	movwf	_aux+1
  1226                           
  1227                           ;main.c: 401:                 break;
  1228  010F  2958               	goto	l2457
  1229  0110                     l2439:
  1230                           
  1231                           ;main.c: 403:                     aux = '4';
  1232  0110  3034               	movlw	52
  1233  0111  00E8               	movwf	_aux
  1234  0112  3000               	movlw	0
  1235  0113  00E9               	movwf	_aux+1
  1236                           
  1237                           ;main.c: 404:                 break;
  1238  0114  2958               	goto	l2457
  1239  0115                     l2441:
  1240                           
  1241                           ;main.c: 406:                     aux = '5';
  1242  0115  3035               	movlw	53
  1243  0116  00E8               	movwf	_aux
  1244  0117  3000               	movlw	0
  1245  0118  00E9               	movwf	_aux+1
  1246                           
  1247                           ;main.c: 407:                 break;
  1248  0119  2958               	goto	l2457
  1249  011A                     l2443:
  1250                           
  1251                           ;main.c: 409:                     aux = '6';
  1252  011A  3036               	movlw	54
  1253  011B  00E8               	movwf	_aux
  1254  011C  3000               	movlw	0
  1255  011D  00E9               	movwf	_aux+1
  1256                           
  1257                           ;main.c: 410:                 break;
  1258  011E  2958               	goto	l2457
  1259  011F                     l2445:
  1260                           
  1261                           ;main.c: 412:                     aux = '7';
  1262  011F  3037               	movlw	55
  1263  0120  00E8               	movwf	_aux
  1264  0121  3000               	movlw	0
  1265  0122  00E9               	movwf	_aux+1
  1266                           
  1267                           ;main.c: 413:                 break;
  1268  0123  2958               	goto	l2457
  1269  0124                     l2447:
  1270                           
  1271                           ;main.c: 415:                     aux = '8';
  1272  0124  3038               	movlw	56
  1273  0125  00E8               	movwf	_aux
  1274  0126  3000               	movlw	0
  1275  0127  00E9               	movwf	_aux+1
  1276                           
  1277                           ;main.c: 416:                 break;
  1278  0128  2958               	goto	l2457
  1279  0129                     l2449:
  1280                           
  1281                           ;main.c: 418:                     aux = '9';
  1282  0129  3039               	movlw	57
  1283  012A  00E8               	movwf	_aux
  1284  012B  3000               	movlw	0
  1285  012C  00E9               	movwf	_aux+1
  1286                           
  1287                           ;main.c: 419:                 break;
  1288  012D  2958               	goto	l2457
  1289  012E                     l2451:
  1290                           
  1291                           ;main.c: 421:                     aux = '0';
  1292  012E  3030               	movlw	48
  1293  012F  00E8               	movwf	_aux
  1294  0130  3000               	movlw	0
  1295  0131  00E9               	movwf	_aux+1
  1296                           
  1297                           ;main.c: 422:                 break;
  1298  0132  2958               	goto	l2457
  1299  0133                     l2455:
  1300                           
  1301                           ; Switch on 2 bytes has been partitioned into a top level switch of size 1, and 1 sub-sw
      +                          itches
  1302                           ; Switch size 1, requested type "simple"
  1303                           ; Number of cases is 1, Range of values is 0 to 0
  1304                           ; switch strategies available:
  1305                           ; Name         Instructions Cycles
  1306                           ; simple_byte            4     3 (average)
  1307                           ; direct_byte           11     8 (fixed)
  1308                           ; jumptable            260     6 (fixed)
  1309                           ;	Chosen strategy is simple_byte
  1310  0133  0859               	movf	_input+1,w
  1311  0134  3A00               	xorlw	0	; case 0
  1312  0135  1903               	skipnz
  1313  0136  2938               	goto	l2655
  1314  0137  2958               	goto	l2457
  1315  0138                     l2655:
  1316                           
  1317                           ; Switch size 1, requested type "simple"
  1318                           ; Number of cases is 10, Range of values is 0 to 9
  1319                           ; switch strategies available:
  1320                           ; Name         Instructions Cycles
  1321                           ; simple_byte           31    16 (average)
  1322                           ; direct_byte           38     8 (fixed)
  1323                           ; jumptable            260     6 (fixed)
  1324                           ;	Chosen strategy is simple_byte
  1325  0138  0858               	movf	_input,w
  1326  0139  3A00               	xorlw	0	; case 0
  1327  013A  1903               	skipnz
  1328  013B  292E               	goto	l2451
  1329  013C  3A01               	xorlw	1	; case 1
  1330  013D  1903               	skipnz
  1331  013E  2901               	goto	l2433
  1332  013F  3A03               	xorlw	3	; case 2
  1333  0140  1903               	skipnz
  1334  0141  2906               	goto	l2435
  1335  0142  3A01               	xorlw	1	; case 3
  1336  0143  1903               	skipnz
  1337  0144  290B               	goto	l2437
  1338  0145  3A07               	xorlw	7	; case 4
  1339  0146  1903               	skipnz
  1340  0147  2910               	goto	l2439
  1341  0148  3A01               	xorlw	1	; case 5
  1342  0149  1903               	skipnz
  1343  014A  2915               	goto	l2441
  1344  014B  3A03               	xorlw	3	; case 6
  1345  014C  1903               	skipnz
  1346  014D  291A               	goto	l2443
  1347  014E  3A01               	xorlw	1	; case 7
  1348  014F  1903               	skipnz
  1349  0150  291F               	goto	l2445
  1350  0151  3A0F               	xorlw	15	; case 8
  1351  0152  1903               	skipnz
  1352  0153  2924               	goto	l2447
  1353  0154  3A01               	xorlw	1	; case 9
  1354  0155  1903               	skipnz
  1355  0156  2929               	goto	l2449
  1356  0157  2958               	goto	l2457
  1357  0158                     l2457:
  1358                           
  1359                           ;main.c: 424:             strcat(strcpy(senhaUserConfere, senhaUserConfere), aux);
  1360  0158  0868               	movf	_aux,w
  1361  0159  00F4               	movwf	strcat@from
  1362  015A  0869               	movf	_aux+1,w
  1363  015B  00F5               	movwf	strcat@from+1
  1364  015C  305F               	movlw	(low (_senhaUserConfere| 0))& (0+255)
  1365  015D  00BE               	movwf	??_validaUser
  1366  015E  083E               	movf	??_validaUser,w
  1367  015F  00F0               	movwf	strcpy@from
  1368  0160  305F               	movlw	(low (_senhaUserConfere| 0))& (0+255)
  1369  0161  120A  158A  2269  120A  118A  	fcall	_strcpy
  1370  0166  120A  158A  233D  120A  118A  	fcall	_strcat
  1371  016B                     l2459:
  1372                           
  1373                           ;main.c: 425:             LCD_escreve(senhaUserConfere[n]);
  1374  016B  1283               	bcf	3,5	;RP0=0, select bank0
  1375  016C  1303               	bcf	3,6	;RP1=0, select bank0
  1376  016D  0843               	movf	validaUser@n,w
  1377  016E  3E5F               	addlw	(low (_senhaUserConfere| 0))& (0+255)
  1378  016F  0084               	movwf	4
  1379  0170  1383               	bcf	3,7	;select IRP bank0
  1380  0171  0800               	movf	0,w
  1381  0172  120A  118A  2003  120A  118A  	fcall	_LCD_escreve
  1382  0177                     l2461:
  1383                           
  1384                           ;main.c: 426:             _delay((unsigned long)((3000)*(20000000/4000.0)));
  1385  0177  304D               	movlw	77
  1386  0178  1283               	bcf	3,5	;RP0=0, select bank0
  1387  0179  1303               	bcf	3,6	;RP1=0, select bank0
  1388  017A  00C0               	movwf	??_validaUser+2
  1389  017B  3019               	movlw	25
  1390  017C  00BF               	movwf	??_validaUser+1
  1391  017D  304F               	movlw	79
  1392  017E  00BE               	movwf	??_validaUser
  1393  017F                     u2727:
  1394  017F  0BBE               	decfsz	??_validaUser,f
  1395  0180  297F               	goto	u2727
  1396  0181  0BBF               	decfsz	??_validaUser+1,f
  1397  0182  297F               	goto	u2727
  1398  0183  0BC0               	decfsz	??_validaUser+2,f
  1399  0184  297F               	goto	u2727
  1400  0185                     l2463:
  1401                           
  1402                           ;main.c: 428:              n++;
  1403  0185  3001               	movlw	1
  1404  0186  1283               	bcf	3,5	;RP0=0, select bank0
  1405  0187  1303               	bcf	3,6	;RP1=0, select bank0
  1406  0188  07C3               	addwf	validaUser@n,f
  1407  0189  1803               	skipnc
  1408  018A  0AC4               	incf	validaUser@n+1,f
  1409  018B  3000               	movlw	0
  1410  018C  07C4               	addwf	validaUser@n+1,f
  1411  018D                     l2465:
  1412                           
  1413                           ;main.c: 382:         while(n < 8){
  1414  018D  1283               	bcf	3,5	;RP0=0, select bank0
  1415  018E  1303               	bcf	3,6	;RP1=0, select bank0
  1416  018F  0844               	movf	validaUser@n+1,w
  1417  0190  3A80               	xorlw	128
  1418  0191  00FF               	movwf	btemp+1
  1419  0192  3080               	movlw	128
  1420  0193  027F               	subwf	btemp+1,w
  1421  0194  1D03               	skipz
  1422  0195  2998               	goto	u2515
  1423  0196  3008               	movlw	8
  1424  0197  0243               	subwf	validaUser@n,w
  1425  0198                     u2515:
  1426  0198  1C03               	skipc
  1427  0199  299B               	goto	u2511
  1428  019A  299C               	goto	u2510
  1429  019B                     u2511:
  1430  019B  28D1               	goto	l2419
  1431  019C                     u2510:
  1432  019C  298D               	goto	l2465
  1433  019D  0008               	return
  1434  019E                     __end_of_validaUser:
  1435                           
  1436                           	psect	text2
  1437  019E                     __ptext2:	
  1438 ;; *************** function _teclado *****************
  1439 ;; Defined at:
  1440 ;;		line 119 in file "main.c"
  1441 ;; Parameters:    Size  Location     Type
  1442 ;;		None
  1443 ;; Auto vars:     Size  Location     Type
  1444 ;;		None
  1445 ;; Return value:  Size  Location     Type
  1446 ;;                  1    wreg      void 
  1447 ;; Registers used:
  1448 ;;		wreg, status,2, status,0, btemp+1, pclath, cstack
  1449 ;; Tracked objects:
  1450 ;;		On entry : 0/0
  1451 ;;		On exit  : 0/0
  1452 ;;		Unchanged: 0/0
  1453 ;; Data sizes:     COMMON   BANK0   BANK1   BANK3   BANK2
  1454 ;;      Params:         0       0       0       0       0
  1455 ;;      Locals:         0       0       0       0       0
  1456 ;;      Temps:          0       3       0       0       0
  1457 ;;      Totals:         0       3       0       0       0
  1458 ;;Total ram usage:        3 bytes
  1459 ;; Hardware stack levels used: 1
  1460 ;; Hardware stack levels required when called: 3
  1461 ;; This function calls:
  1462 ;;		_LCD_escreve
  1463 ;;		_liga_buzzer
  1464 ;; This function is called by:
  1465 ;;		_main
  1466 ;;		_validaUser
  1467 ;; This function uses a non-reentrant model
  1468 ;;
  1469                           
  1470                           
  1471                           ;psect for function _teclado
  1472  019E                     _teclado:
  1473  019E                     l2187:	
  1474                           ;incstack = 0
  1475                           ; Regs used in _teclado: [wreg+status,2+status,0+btemp+1+pclath+cstack]
  1476                           
  1477                           
  1478                           ;main.c: 121:     PORTE = 0x01;
  1479  019E  3001               	movlw	1
  1480  019F  1283               	bcf	3,5	;RP0=0, select bank0
  1481  01A0  1303               	bcf	3,6	;RP1=0, select bank0
  1482  01A1  0089               	movwf	9	;volatile
  1483                           
  1484                           ;main.c: 125:     PORTB = 0b11101111;
  1485  01A2  30EF               	movlw	239
  1486  01A3  0086               	movwf	6	;volatile
  1487  01A4                     l2189:
  1488                           
  1489                           ;main.c: 129:     if (RB0 == 0){
  1490  01A4  1806               	btfsc	6,0	;volatile
  1491  01A5  29A7               	goto	u2261
  1492  01A6  29A8               	goto	u2260
  1493  01A7                     u2261:
  1494  01A7  29CF               	goto	l2199
  1495  01A8                     u2260:
  1496  01A8                     l2191:
  1497                           
  1498                           ;main.c: 130:         _delay((unsigned long)((200)*(20000000/4000.0)));
  1499  01A8  3006               	movlw	6
  1500  01A9  1283               	bcf	3,5	;RP0=0, select bank0
  1501  01AA  1303               	bcf	3,6	;RP1=0, select bank0
  1502  01AB  00BD               	movwf	??_teclado+2
  1503  01AC  3013               	movlw	19
  1504  01AD  00BC               	movwf	??_teclado+1
  1505  01AE  30AD               	movlw	173
  1506  01AF  00BB               	movwf	??_teclado
  1507  01B0                     u2737:
  1508  01B0  0BBB               	decfsz	??_teclado,f
  1509  01B1  29B0               	goto	u2737
  1510  01B2  0BBC               	decfsz	??_teclado+1,f
  1511  01B3  29B0               	goto	u2737
  1512  01B4  0BBD               	decfsz	??_teclado+2,f
  1513  01B5  29B0               	goto	u2737
  1514  01B6                     l2193:
  1515                           
  1516                           ;main.c: 131:         liga_buzzer(0.1);
  1517  01B6  303D               	movlw	61
  1518  01B7  1283               	bcf	3,5	;RP0=0, select bank0
  1519  01B8  1303               	bcf	3,6	;RP1=0, select bank0
  1520  01B9  00B8               	movwf	liga_buzzer@tempoSegundos+3
  1521  01BA  30CC               	movlw	204
  1522  01BB  00B7               	movwf	liga_buzzer@tempoSegundos+2
  1523  01BC  30CC               	movlw	204
  1524  01BD  00B6               	movwf	liga_buzzer@tempoSegundos+1
  1525  01BE  30CD               	movlw	205
  1526  01BF  00B5               	movwf	liga_buzzer@tempoSegundos
  1527  01C0  120A  158A  24EC  120A  118A  	fcall	_liga_buzzer
  1528  01C5                     l2195:
  1529                           
  1530                           ;main.c: 134:         if(userFalse == 1){
  1531  01C5  3030               	movlw	48
  1532  01C6  120A  118A  2003  120A  118A  	fcall	_LCD_escreve
  1533  01CB                     l2197:
  1534                           
  1535                           ;main.c: 135:             input = 0;
  1536  01CB  1283               	bcf	3,5	;RP0=0, select bank0
  1537  01CC  1303               	bcf	3,6	;RP1=0, select bank0
  1538  01CD  01D8               	clrf	_input
  1539  01CE  01D9               	clrf	_input+1
  1540  01CF                     l2199:
  1541                           
  1542                           ;main.c: 142:     if (RB1 == 0){
  1543  01CF  1886               	btfsc	6,1	;volatile
  1544  01D0  29D2               	goto	u2271
  1545  01D1  29D3               	goto	u2270
  1546  01D2                     u2271:
  1547  01D2  29FC               	goto	l2207
  1548  01D3                     u2270:
  1549  01D3                     l2201:
  1550                           
  1551                           ;main.c: 143:         _delay((unsigned long)((200)*(20000000/4000.0)));
  1552  01D3  3006               	movlw	6
  1553  01D4  1283               	bcf	3,5	;RP0=0, select bank0
  1554  01D5  1303               	bcf	3,6	;RP1=0, select bank0
  1555  01D6  00BD               	movwf	??_teclado+2
  1556  01D7  3013               	movlw	19
  1557  01D8  00BC               	movwf	??_teclado+1
  1558  01D9  30AD               	movlw	173
  1559  01DA  00BB               	movwf	??_teclado
  1560  01DB                     u2747:
  1561  01DB  0BBB               	decfsz	??_teclado,f
  1562  01DC  29DB               	goto	u2747
  1563  01DD  0BBC               	decfsz	??_teclado+1,f
  1564  01DE  29DB               	goto	u2747
  1565  01DF  0BBD               	decfsz	??_teclado+2,f
  1566  01E0  29DB               	goto	u2747
  1567  01E1                     l2203:
  1568                           
  1569                           ;main.c: 144:         liga_buzzer(0.1);
  1570  01E1  303D               	movlw	61
  1571  01E2  1283               	bcf	3,5	;RP0=0, select bank0
  1572  01E3  1303               	bcf	3,6	;RP1=0, select bank0
  1573  01E4  00B8               	movwf	liga_buzzer@tempoSegundos+3
  1574  01E5  30CC               	movlw	204
  1575  01E6  00B7               	movwf	liga_buzzer@tempoSegundos+2
  1576  01E7  30CC               	movlw	204
  1577  01E8  00B6               	movwf	liga_buzzer@tempoSegundos+1
  1578  01E9  30CD               	movlw	205
  1579  01EA  00B5               	movwf	liga_buzzer@tempoSegundos
  1580  01EB  120A  158A  24EC  120A  118A  	fcall	_liga_buzzer
  1581  01F0                     l2205:
  1582                           
  1583                           ;main.c: 147:         if(userFalse == 1){
  1584  01F0  3031               	movlw	49
  1585  01F1  120A  118A  2003  120A  118A  	fcall	_LCD_escreve
  1586                           
  1587                           ;main.c: 148:             input = 1;
  1588  01F6  3001               	movlw	1
  1589  01F7  1283               	bcf	3,5	;RP0=0, select bank0
  1590  01F8  1303               	bcf	3,6	;RP1=0, select bank0
  1591  01F9  00D8               	movwf	_input
  1592  01FA  3000               	movlw	0
  1593  01FB  00D9               	movwf	_input+1
  1594  01FC                     l2207:
  1595                           
  1596                           ;main.c: 156:     if (RB2 == 0){
  1597  01FC  1906               	btfsc	6,2	;volatile
  1598  01FD  29FF               	goto	u2281
  1599  01FE  2A00               	goto	u2280
  1600  01FF                     u2281:
  1601  01FF  2A29               	goto	l2215
  1602  0200                     u2280:
  1603  0200                     l2209:
  1604                           
  1605                           ;main.c: 157:         _delay((unsigned long)((200)*(20000000/4000.0)));
  1606  0200  3006               	movlw	6
  1607  0201  1283               	bcf	3,5	;RP0=0, select bank0
  1608  0202  1303               	bcf	3,6	;RP1=0, select bank0
  1609  0203  00BD               	movwf	??_teclado+2
  1610  0204  3013               	movlw	19
  1611  0205  00BC               	movwf	??_teclado+1
  1612  0206  30AD               	movlw	173
  1613  0207  00BB               	movwf	??_teclado
  1614  0208                     u2757:
  1615  0208  0BBB               	decfsz	??_teclado,f
  1616  0209  2A08               	goto	u2757
  1617  020A  0BBC               	decfsz	??_teclado+1,f
  1618  020B  2A08               	goto	u2757
  1619  020C  0BBD               	decfsz	??_teclado+2,f
  1620  020D  2A08               	goto	u2757
  1621  020E                     l2211:
  1622                           
  1623                           ;main.c: 158:         liga_buzzer(0.1);
  1624  020E  303D               	movlw	61
  1625  020F  1283               	bcf	3,5	;RP0=0, select bank0
  1626  0210  1303               	bcf	3,6	;RP1=0, select bank0
  1627  0211  00B8               	movwf	liga_buzzer@tempoSegundos+3
  1628  0212  30CC               	movlw	204
  1629  0213  00B7               	movwf	liga_buzzer@tempoSegundos+2
  1630  0214  30CC               	movlw	204
  1631  0215  00B6               	movwf	liga_buzzer@tempoSegundos+1
  1632  0216  30CD               	movlw	205
  1633  0217  00B5               	movwf	liga_buzzer@tempoSegundos
  1634  0218  120A  158A  24EC  120A  118A  	fcall	_liga_buzzer
  1635  021D                     l2213:
  1636                           
  1637                           ;main.c: 161:         if(userFalse == 1){
  1638  021D  3032               	movlw	50
  1639  021E  120A  118A  2003  120A  118A  	fcall	_LCD_escreve
  1640                           
  1641                           ;main.c: 162:             input = 2;
  1642  0223  3002               	movlw	2
  1643  0224  1283               	bcf	3,5	;RP0=0, select bank0
  1644  0225  1303               	bcf	3,6	;RP1=0, select bank0
  1645  0226  00D8               	movwf	_input
  1646  0227  3000               	movlw	0
  1647  0228  00D9               	movwf	_input+1
  1648  0229                     l2215:
  1649                           
  1650                           ;main.c: 169:     if (RB3 == 0){
  1651  0229  1986               	btfsc	6,3	;volatile
  1652  022A  2A2C               	goto	u2291
  1653  022B  2A2D               	goto	u2290
  1654  022C                     u2291:
  1655  022C  2A56               	goto	l169
  1656  022D                     u2290:
  1657  022D                     l2217:
  1658                           
  1659                           ;main.c: 170:         _delay((unsigned long)((200)*(20000000/4000.0)));
  1660  022D  3006               	movlw	6
  1661  022E  1283               	bcf	3,5	;RP0=0, select bank0
  1662  022F  1303               	bcf	3,6	;RP1=0, select bank0
  1663  0230  00BD               	movwf	??_teclado+2
  1664  0231  3013               	movlw	19
  1665  0232  00BC               	movwf	??_teclado+1
  1666  0233  30AD               	movlw	173
  1667  0234  00BB               	movwf	??_teclado
  1668  0235                     u2767:
  1669  0235  0BBB               	decfsz	??_teclado,f
  1670  0236  2A35               	goto	u2767
  1671  0237  0BBC               	decfsz	??_teclado+1,f
  1672  0238  2A35               	goto	u2767
  1673  0239  0BBD               	decfsz	??_teclado+2,f
  1674  023A  2A35               	goto	u2767
  1675  023B                     l2219:
  1676                           
  1677                           ;main.c: 171:         liga_buzzer(0.1);
  1678  023B  303D               	movlw	61
  1679  023C  1283               	bcf	3,5	;RP0=0, select bank0
  1680  023D  1303               	bcf	3,6	;RP1=0, select bank0
  1681  023E  00B8               	movwf	liga_buzzer@tempoSegundos+3
  1682  023F  30CC               	movlw	204
  1683  0240  00B7               	movwf	liga_buzzer@tempoSegundos+2
  1684  0241  30CC               	movlw	204
  1685  0242  00B6               	movwf	liga_buzzer@tempoSegundos+1
  1686  0243  30CD               	movlw	205
  1687  0244  00B5               	movwf	liga_buzzer@tempoSegundos
  1688  0245  120A  158A  24EC  120A  118A  	fcall	_liga_buzzer
  1689  024A                     l2221:
  1690                           
  1691                           ;main.c: 174:         if(userFalse == 1){
  1692  024A  3033               	movlw	51
  1693  024B  120A  118A  2003  120A  118A  	fcall	_LCD_escreve
  1694                           
  1695                           ;main.c: 175:             input = 3;
  1696  0250  3003               	movlw	3
  1697  0251  1283               	bcf	3,5	;RP0=0, select bank0
  1698  0252  1303               	bcf	3,6	;RP1=0, select bank0
  1699  0253  00D8               	movwf	_input
  1700  0254  3000               	movlw	0
  1701  0255  00D9               	movwf	_input+1
  1702  0256                     l169:	
  1703                           ;main.c: 178:     }
  1704                           
  1705                           
  1706                           ;main.c: 183:     PORTB = 0b11011111;
  1707  0256  30DF               	movlw	223
  1708  0257  0086               	movwf	6	;volatile
  1709  0258                     l2223:
  1710                           
  1711                           ;main.c: 188:     if (RB0 == 0){
  1712  0258  1806               	btfsc	6,0	;volatile
  1713  0259  2A5B               	goto	u2301
  1714  025A  2A5C               	goto	u2300
  1715  025B                     u2301:
  1716  025B  2A85               	goto	l2231
  1717  025C                     u2300:
  1718  025C                     l2225:
  1719                           
  1720                           ;main.c: 189:         _delay((unsigned long)((200)*(20000000/4000.0)));
  1721  025C  3006               	movlw	6
  1722  025D  1283               	bcf	3,5	;RP0=0, select bank0
  1723  025E  1303               	bcf	3,6	;RP1=0, select bank0
  1724  025F  00BD               	movwf	??_teclado+2
  1725  0260  3013               	movlw	19
  1726  0261  00BC               	movwf	??_teclado+1
  1727  0262  30AD               	movlw	173
  1728  0263  00BB               	movwf	??_teclado
  1729  0264                     u2777:
  1730  0264  0BBB               	decfsz	??_teclado,f
  1731  0265  2A64               	goto	u2777
  1732  0266  0BBC               	decfsz	??_teclado+1,f
  1733  0267  2A64               	goto	u2777
  1734  0268  0BBD               	decfsz	??_teclado+2,f
  1735  0269  2A64               	goto	u2777
  1736  026A                     l2227:
  1737                           
  1738                           ;main.c: 190:         liga_buzzer(0.1);
  1739  026A  303D               	movlw	61
  1740  026B  1283               	bcf	3,5	;RP0=0, select bank0
  1741  026C  1303               	bcf	3,6	;RP1=0, select bank0
  1742  026D  00B8               	movwf	liga_buzzer@tempoSegundos+3
  1743  026E  30CC               	movlw	204
  1744  026F  00B7               	movwf	liga_buzzer@tempoSegundos+2
  1745  0270  30CC               	movlw	204
  1746  0271  00B6               	movwf	liga_buzzer@tempoSegundos+1
  1747  0272  30CD               	movlw	205
  1748  0273  00B5               	movwf	liga_buzzer@tempoSegundos
  1749  0274  120A  158A  24EC  120A  118A  	fcall	_liga_buzzer
  1750  0279                     l2229:
  1751                           
  1752                           ;main.c: 193:         if(userFalse == 1){
  1753  0279  3034               	movlw	52
  1754  027A  120A  118A  2003  120A  118A  	fcall	_LCD_escreve
  1755                           
  1756                           ;main.c: 194:             input = 4;
  1757  027F  3004               	movlw	4
  1758  0280  1283               	bcf	3,5	;RP0=0, select bank0
  1759  0281  1303               	bcf	3,6	;RP1=0, select bank0
  1760  0282  00D8               	movwf	_input
  1761  0283  3000               	movlw	0
  1762  0284  00D9               	movwf	_input+1
  1763  0285                     l2231:
  1764                           
  1765                           ;main.c: 201:     if (RB1 == 0){
  1766  0285  1886               	btfsc	6,1	;volatile
  1767  0286  2A88               	goto	u2311
  1768  0287  2A89               	goto	u2310
  1769  0288                     u2311:
  1770  0288  2AB2               	goto	l2239
  1771  0289                     u2310:
  1772  0289                     l2233:
  1773                           
  1774                           ;main.c: 202:         _delay((unsigned long)((200)*(20000000/4000.0)));
  1775  0289  3006               	movlw	6
  1776  028A  1283               	bcf	3,5	;RP0=0, select bank0
  1777  028B  1303               	bcf	3,6	;RP1=0, select bank0
  1778  028C  00BD               	movwf	??_teclado+2
  1779  028D  3013               	movlw	19
  1780  028E  00BC               	movwf	??_teclado+1
  1781  028F  30AD               	movlw	173
  1782  0290  00BB               	movwf	??_teclado
  1783  0291                     u2787:
  1784  0291  0BBB               	decfsz	??_teclado,f
  1785  0292  2A91               	goto	u2787
  1786  0293  0BBC               	decfsz	??_teclado+1,f
  1787  0294  2A91               	goto	u2787
  1788  0295  0BBD               	decfsz	??_teclado+2,f
  1789  0296  2A91               	goto	u2787
  1790  0297                     l2235:
  1791                           
  1792                           ;main.c: 203:         liga_buzzer(0.1);
  1793  0297  303D               	movlw	61
  1794  0298  1283               	bcf	3,5	;RP0=0, select bank0
  1795  0299  1303               	bcf	3,6	;RP1=0, select bank0
  1796  029A  00B8               	movwf	liga_buzzer@tempoSegundos+3
  1797  029B  30CC               	movlw	204
  1798  029C  00B7               	movwf	liga_buzzer@tempoSegundos+2
  1799  029D  30CC               	movlw	204
  1800  029E  00B6               	movwf	liga_buzzer@tempoSegundos+1
  1801  029F  30CD               	movlw	205
  1802  02A0  00B5               	movwf	liga_buzzer@tempoSegundos
  1803  02A1  120A  158A  24EC  120A  118A  	fcall	_liga_buzzer
  1804  02A6                     l2237:
  1805                           
  1806                           ;main.c: 206:         if(userFalse == 1){
  1807  02A6  3035               	movlw	53
  1808  02A7  120A  118A  2003  120A  118A  	fcall	_LCD_escreve
  1809                           
  1810                           ;main.c: 207:             input = 5;
  1811  02AC  3005               	movlw	5
  1812  02AD  1283               	bcf	3,5	;RP0=0, select bank0
  1813  02AE  1303               	bcf	3,6	;RP1=0, select bank0
  1814  02AF  00D8               	movwf	_input
  1815  02B0  3000               	movlw	0
  1816  02B1  00D9               	movwf	_input+1
  1817  02B2                     l2239:
  1818                           
  1819                           ;main.c: 215:     if (RB2 == 0){
  1820  02B2  1906               	btfsc	6,2	;volatile
  1821  02B3  2AB5               	goto	u2321
  1822  02B4  2AB6               	goto	u2320
  1823  02B5                     u2321:
  1824  02B5  2ADF               	goto	l2247
  1825  02B6                     u2320:
  1826  02B6                     l2241:
  1827                           
  1828                           ;main.c: 216:         _delay((unsigned long)((200)*(20000000/4000.0)));
  1829  02B6  3006               	movlw	6
  1830  02B7  1283               	bcf	3,5	;RP0=0, select bank0
  1831  02B8  1303               	bcf	3,6	;RP1=0, select bank0
  1832  02B9  00BD               	movwf	??_teclado+2
  1833  02BA  3013               	movlw	19
  1834  02BB  00BC               	movwf	??_teclado+1
  1835  02BC  30AD               	movlw	173
  1836  02BD  00BB               	movwf	??_teclado
  1837  02BE                     u2797:
  1838  02BE  0BBB               	decfsz	??_teclado,f
  1839  02BF  2ABE               	goto	u2797
  1840  02C0  0BBC               	decfsz	??_teclado+1,f
  1841  02C1  2ABE               	goto	u2797
  1842  02C2  0BBD               	decfsz	??_teclado+2,f
  1843  02C3  2ABE               	goto	u2797
  1844  02C4                     l2243:
  1845                           
  1846                           ;main.c: 217:         liga_buzzer(0.1);
  1847  02C4  303D               	movlw	61
  1848  02C5  1283               	bcf	3,5	;RP0=0, select bank0
  1849  02C6  1303               	bcf	3,6	;RP1=0, select bank0
  1850  02C7  00B8               	movwf	liga_buzzer@tempoSegundos+3
  1851  02C8  30CC               	movlw	204
  1852  02C9  00B7               	movwf	liga_buzzer@tempoSegundos+2
  1853  02CA  30CC               	movlw	204
  1854  02CB  00B6               	movwf	liga_buzzer@tempoSegundos+1
  1855  02CC  30CD               	movlw	205
  1856  02CD  00B5               	movwf	liga_buzzer@tempoSegundos
  1857  02CE  120A  158A  24EC  120A  118A  	fcall	_liga_buzzer
  1858  02D3                     l2245:
  1859                           
  1860                           ;main.c: 220:         if(userFalse == 1){
  1861  02D3  3036               	movlw	54
  1862  02D4  120A  118A  2003  120A  118A  	fcall	_LCD_escreve
  1863                           
  1864                           ;main.c: 221:             input = 6;
  1865  02D9  3006               	movlw	6
  1866  02DA  1283               	bcf	3,5	;RP0=0, select bank0
  1867  02DB  1303               	bcf	3,6	;RP1=0, select bank0
  1868  02DC  00D8               	movwf	_input
  1869  02DD  3000               	movlw	0
  1870  02DE  00D9               	movwf	_input+1
  1871  02DF                     l2247:
  1872                           
  1873                           ;main.c: 228:     if (RB3 == 0){
  1874  02DF  1986               	btfsc	6,3	;volatile
  1875  02E0  2AE2               	goto	u2331
  1876  02E1  2AE3               	goto	u2330
  1877  02E2                     u2331:
  1878  02E2  2B0C               	goto	l177
  1879  02E3                     u2330:
  1880  02E3                     l2249:
  1881                           
  1882                           ;main.c: 229:         _delay((unsigned long)((200)*(20000000/4000.0)));
  1883  02E3  3006               	movlw	6
  1884  02E4  1283               	bcf	3,5	;RP0=0, select bank0
  1885  02E5  1303               	bcf	3,6	;RP1=0, select bank0
  1886  02E6  00BD               	movwf	??_teclado+2
  1887  02E7  3013               	movlw	19
  1888  02E8  00BC               	movwf	??_teclado+1
  1889  02E9  30AD               	movlw	173
  1890  02EA  00BB               	movwf	??_teclado
  1891  02EB                     u2807:
  1892  02EB  0BBB               	decfsz	??_teclado,f
  1893  02EC  2AEB               	goto	u2807
  1894  02ED  0BBC               	decfsz	??_teclado+1,f
  1895  02EE  2AEB               	goto	u2807
  1896  02EF  0BBD               	decfsz	??_teclado+2,f
  1897  02F0  2AEB               	goto	u2807
  1898  02F1                     l2251:
  1899                           
  1900                           ;main.c: 230:         liga_buzzer(0.1);
  1901  02F1  303D               	movlw	61
  1902  02F2  1283               	bcf	3,5	;RP0=0, select bank0
  1903  02F3  1303               	bcf	3,6	;RP1=0, select bank0
  1904  02F4  00B8               	movwf	liga_buzzer@tempoSegundos+3
  1905  02F5  30CC               	movlw	204
  1906  02F6  00B7               	movwf	liga_buzzer@tempoSegundos+2
  1907  02F7  30CC               	movlw	204
  1908  02F8  00B6               	movwf	liga_buzzer@tempoSegundos+1
  1909  02F9  30CD               	movlw	205
  1910  02FA  00B5               	movwf	liga_buzzer@tempoSegundos
  1911  02FB  120A  158A  24EC  120A  118A  	fcall	_liga_buzzer
  1912  0300                     l2253:
  1913                           
  1914                           ;main.c: 233:         if(userFalse == 1){
  1915  0300  3037               	movlw	55
  1916  0301  120A  118A  2003  120A  118A  	fcall	_LCD_escreve
  1917                           
  1918                           ;main.c: 234:             input = 7;
  1919  0306  3007               	movlw	7
  1920  0307  1283               	bcf	3,5	;RP0=0, select bank0
  1921  0308  1303               	bcf	3,6	;RP1=0, select bank0
  1922  0309  00D8               	movwf	_input
  1923  030A  3000               	movlw	0
  1924  030B  00D9               	movwf	_input+1
  1925  030C                     l177:	
  1926                           ;main.c: 237:     }
  1927                           
  1928                           
  1929                           ;main.c: 242:     PORTB = 0b10111111;
  1930  030C  30BF               	movlw	191
  1931  030D  0086               	movwf	6	;volatile
  1932  030E                     l2255:
  1933                           
  1934                           ;main.c: 247:     if (RB0 == 0){
  1935  030E  1806               	btfsc	6,0	;volatile
  1936  030F  2B11               	goto	u2341
  1937  0310  2B12               	goto	u2340
  1938  0311                     u2341:
  1939  0311  2B3B               	goto	l2263
  1940  0312                     u2340:
  1941  0312                     l2257:
  1942                           
  1943                           ;main.c: 248:         _delay((unsigned long)((200)*(20000000/4000.0)));
  1944  0312  3006               	movlw	6
  1945  0313  1283               	bcf	3,5	;RP0=0, select bank0
  1946  0314  1303               	bcf	3,6	;RP1=0, select bank0
  1947  0315  00BD               	movwf	??_teclado+2
  1948  0316  3013               	movlw	19
  1949  0317  00BC               	movwf	??_teclado+1
  1950  0318  30AD               	movlw	173
  1951  0319  00BB               	movwf	??_teclado
  1952  031A                     u2817:
  1953  031A  0BBB               	decfsz	??_teclado,f
  1954  031B  2B1A               	goto	u2817
  1955  031C  0BBC               	decfsz	??_teclado+1,f
  1956  031D  2B1A               	goto	u2817
  1957  031E  0BBD               	decfsz	??_teclado+2,f
  1958  031F  2B1A               	goto	u2817
  1959  0320                     l2259:
  1960                           
  1961                           ;main.c: 249:         liga_buzzer(0.1);
  1962  0320  303D               	movlw	61
  1963  0321  1283               	bcf	3,5	;RP0=0, select bank0
  1964  0322  1303               	bcf	3,6	;RP1=0, select bank0
  1965  0323  00B8               	movwf	liga_buzzer@tempoSegundos+3
  1966  0324  30CC               	movlw	204
  1967  0325  00B7               	movwf	liga_buzzer@tempoSegundos+2
  1968  0326  30CC               	movlw	204
  1969  0327  00B6               	movwf	liga_buzzer@tempoSegundos+1
  1970  0328  30CD               	movlw	205
  1971  0329  00B5               	movwf	liga_buzzer@tempoSegundos
  1972  032A  120A  158A  24EC  120A  118A  	fcall	_liga_buzzer
  1973  032F                     l2261:
  1974                           
  1975                           ;main.c: 252:         if(userFalse == 1){
  1976  032F  3038               	movlw	56
  1977  0330  120A  118A  2003  120A  118A  	fcall	_LCD_escreve
  1978                           
  1979                           ;main.c: 253:             input = 8;
  1980  0335  3008               	movlw	8
  1981  0336  1283               	bcf	3,5	;RP0=0, select bank0
  1982  0337  1303               	bcf	3,6	;RP1=0, select bank0
  1983  0338  00D8               	movwf	_input
  1984  0339  3000               	movlw	0
  1985  033A  00D9               	movwf	_input+1
  1986  033B                     l2263:
  1987                           
  1988                           ;main.c: 261:     if (RB1 == 0){
  1989  033B  1886               	btfsc	6,1	;volatile
  1990  033C  2B3E               	goto	u2351
  1991  033D  2B3F               	goto	u2350
  1992  033E                     u2351:
  1993  033E  2B68               	goto	l2271
  1994  033F                     u2350:
  1995  033F                     l2265:
  1996                           
  1997                           ;main.c: 262:         _delay((unsigned long)((200)*(20000000/4000.0)));
  1998  033F  3006               	movlw	6
  1999  0340  1283               	bcf	3,5	;RP0=0, select bank0
  2000  0341  1303               	bcf	3,6	;RP1=0, select bank0
  2001  0342  00BD               	movwf	??_teclado+2
  2002  0343  3013               	movlw	19
  2003  0344  00BC               	movwf	??_teclado+1
  2004  0345  30AD               	movlw	173
  2005  0346  00BB               	movwf	??_teclado
  2006  0347                     u2827:
  2007  0347  0BBB               	decfsz	??_teclado,f
  2008  0348  2B47               	goto	u2827
  2009  0349  0BBC               	decfsz	??_teclado+1,f
  2010  034A  2B47               	goto	u2827
  2011  034B  0BBD               	decfsz	??_teclado+2,f
  2012  034C  2B47               	goto	u2827
  2013  034D                     l2267:
  2014                           
  2015                           ;main.c: 263:         liga_buzzer(0.1);
  2016  034D  303D               	movlw	61
  2017  034E  1283               	bcf	3,5	;RP0=0, select bank0
  2018  034F  1303               	bcf	3,6	;RP1=0, select bank0
  2019  0350  00B8               	movwf	liga_buzzer@tempoSegundos+3
  2020  0351  30CC               	movlw	204
  2021  0352  00B7               	movwf	liga_buzzer@tempoSegundos+2
  2022  0353  30CC               	movlw	204
  2023  0354  00B6               	movwf	liga_buzzer@tempoSegundos+1
  2024  0355  30CD               	movlw	205
  2025  0356  00B5               	movwf	liga_buzzer@tempoSegundos
  2026  0357  120A  158A  24EC  120A  118A  	fcall	_liga_buzzer
  2027  035C                     l2269:
  2028                           
  2029                           ;main.c: 266:         if(userFalse == 1){
  2030  035C  3039               	movlw	57
  2031  035D  120A  118A  2003  120A  118A  	fcall	_LCD_escreve
  2032                           
  2033                           ;main.c: 267:             input = 9;
  2034  0362  3009               	movlw	9
  2035  0363  1283               	bcf	3,5	;RP0=0, select bank0
  2036  0364  1303               	bcf	3,6	;RP1=0, select bank0
  2037  0365  00D8               	movwf	_input
  2038  0366  3000               	movlw	0
  2039  0367  00D9               	movwf	_input+1
  2040  0368                     l2271:
  2041                           
  2042                           ;main.c: 275:     if (RB2 == 0){
  2043  0368  1906               	btfsc	6,2	;volatile
  2044  0369  2B6B               	goto	u2361
  2045  036A  2B6C               	goto	u2360
  2046  036B                     u2361:
  2047  036B  2B8F               	goto	l2279
  2048  036C                     u2360:
  2049  036C                     l2273:
  2050                           
  2051                           ;main.c: 276:         _delay((unsigned long)((200)*(20000000/4000.0)));
  2052  036C  3006               	movlw	6
  2053  036D  1283               	bcf	3,5	;RP0=0, select bank0
  2054  036E  1303               	bcf	3,6	;RP1=0, select bank0
  2055  036F  00BD               	movwf	??_teclado+2
  2056  0370  3013               	movlw	19
  2057  0371  00BC               	movwf	??_teclado+1
  2058  0372  30AD               	movlw	173
  2059  0373  00BB               	movwf	??_teclado
  2060  0374                     u2837:
  2061  0374  0BBB               	decfsz	??_teclado,f
  2062  0375  2B74               	goto	u2837
  2063  0376  0BBC               	decfsz	??_teclado+1,f
  2064  0377  2B74               	goto	u2837
  2065  0378  0BBD               	decfsz	??_teclado+2,f
  2066  0379  2B74               	goto	u2837
  2067  037A                     l2275:
  2068                           
  2069                           ;main.c: 277:         liga_buzzer(0.1);
  2070  037A  303D               	movlw	61
  2071  037B  1283               	bcf	3,5	;RP0=0, select bank0
  2072  037C  1303               	bcf	3,6	;RP1=0, select bank0
  2073  037D  00B8               	movwf	liga_buzzer@tempoSegundos+3
  2074  037E  30CC               	movlw	204
  2075  037F  00B7               	movwf	liga_buzzer@tempoSegundos+2
  2076  0380  30CC               	movlw	204
  2077  0381  00B6               	movwf	liga_buzzer@tempoSegundos+1
  2078  0382  30CD               	movlw	205
  2079  0383  00B5               	movwf	liga_buzzer@tempoSegundos
  2080  0384  120A  158A  24EC  120A  118A  	fcall	_liga_buzzer
  2081  0389                     l2277:
  2082                           
  2083                           ;main.c: 278:         LCD_escreve('A');
  2084  0389  3041               	movlw	65
  2085  038A  120A  118A  2003  120A  118A  	fcall	_LCD_escreve
  2086  038F                     l2279:
  2087                           
  2088                           ;main.c: 285:     if (RB3 == 0){
  2089  038F  1283               	bcf	3,5	;RP0=0, select bank0
  2090  0390  1303               	bcf	3,6	;RP1=0, select bank0
  2091  0391  1986               	btfsc	6,3	;volatile
  2092  0392  2B94               	goto	u2371
  2093  0393  2B95               	goto	u2370
  2094  0394                     u2371:
  2095  0394  2BB8               	goto	l184
  2096  0395                     u2370:
  2097  0395                     l2281:
  2098                           
  2099                           ;main.c: 286:         _delay((unsigned long)((200)*(20000000/4000.0)));
  2100  0395  3006               	movlw	6
  2101  0396  1283               	bcf	3,5	;RP0=0, select bank0
  2102  0397  1303               	bcf	3,6	;RP1=0, select bank0
  2103  0398  00BD               	movwf	??_teclado+2
  2104  0399  3013               	movlw	19
  2105  039A  00BC               	movwf	??_teclado+1
  2106  039B  30AD               	movlw	173
  2107  039C  00BB               	movwf	??_teclado
  2108  039D                     u2847:
  2109  039D  0BBB               	decfsz	??_teclado,f
  2110  039E  2B9D               	goto	u2847
  2111  039F  0BBC               	decfsz	??_teclado+1,f
  2112  03A0  2B9D               	goto	u2847
  2113  03A1  0BBD               	decfsz	??_teclado+2,f
  2114  03A2  2B9D               	goto	u2847
  2115  03A3                     l2283:
  2116                           
  2117                           ;main.c: 287:         liga_buzzer(0.1);
  2118  03A3  303D               	movlw	61
  2119  03A4  1283               	bcf	3,5	;RP0=0, select bank0
  2120  03A5  1303               	bcf	3,6	;RP1=0, select bank0
  2121  03A6  00B8               	movwf	liga_buzzer@tempoSegundos+3
  2122  03A7  30CC               	movlw	204
  2123  03A8  00B7               	movwf	liga_buzzer@tempoSegundos+2
  2124  03A9  30CC               	movlw	204
  2125  03AA  00B6               	movwf	liga_buzzer@tempoSegundos+1
  2126  03AB  30CD               	movlw	205
  2127  03AC  00B5               	movwf	liga_buzzer@tempoSegundos
  2128  03AD  120A  158A  24EC  120A  118A  	fcall	_liga_buzzer
  2129  03B2                     l2285:
  2130                           
  2131                           ;main.c: 288:         LCD_escreve('B');
  2132  03B2  3042               	movlw	66
  2133  03B3  120A  118A  2003  120A  118A  	fcall	_LCD_escreve
  2134  03B8                     l184:	
  2135                           ;main.c: 290:     }
  2136                           
  2137                           
  2138                           ;main.c: 295:     PORTB = 0b01111111;
  2139  03B8  307F               	movlw	127
  2140  03B9  1283               	bcf	3,5	;RP0=0, select bank0
  2141  03BA  1303               	bcf	3,6	;RP1=0, select bank0
  2142  03BB  0086               	movwf	6	;volatile
  2143  03BC                     l2287:
  2144                           
  2145                           ;main.c: 300:     if (RB0 == 0){
  2146  03BC  1806               	btfsc	6,0	;volatile
  2147  03BD  2BBF               	goto	u2381
  2148  03BE  2BC0               	goto	u2380
  2149  03BF                     u2381:
  2150  03BF  2BE3               	goto	l2295
  2151  03C0                     u2380:
  2152  03C0                     l2289:
  2153                           
  2154                           ;main.c: 301:         _delay((unsigned long)((200)*(20000000/4000.0)));
  2155  03C0  3006               	movlw	6
  2156  03C1  1283               	bcf	3,5	;RP0=0, select bank0
  2157  03C2  1303               	bcf	3,6	;RP1=0, select bank0
  2158  03C3  00BD               	movwf	??_teclado+2
  2159  03C4  3013               	movlw	19
  2160  03C5  00BC               	movwf	??_teclado+1
  2161  03C6  30AD               	movlw	173
  2162  03C7  00BB               	movwf	??_teclado
  2163  03C8                     u2857:
  2164  03C8  0BBB               	decfsz	??_teclado,f
  2165  03C9  2BC8               	goto	u2857
  2166  03CA  0BBC               	decfsz	??_teclado+1,f
  2167  03CB  2BC8               	goto	u2857
  2168  03CC  0BBD               	decfsz	??_teclado+2,f
  2169  03CD  2BC8               	goto	u2857
  2170  03CE                     l2291:
  2171                           
  2172                           ;main.c: 302:         liga_buzzer(0.1);
  2173  03CE  303D               	movlw	61
  2174  03CF  1283               	bcf	3,5	;RP0=0, select bank0
  2175  03D0  1303               	bcf	3,6	;RP1=0, select bank0
  2176  03D1  00B8               	movwf	liga_buzzer@tempoSegundos+3
  2177  03D2  30CC               	movlw	204
  2178  03D3  00B7               	movwf	liga_buzzer@tempoSegundos+2
  2179  03D4  30CC               	movlw	204
  2180  03D5  00B6               	movwf	liga_buzzer@tempoSegundos+1
  2181  03D6  30CD               	movlw	205
  2182  03D7  00B5               	movwf	liga_buzzer@tempoSegundos
  2183  03D8  120A  158A  24EC  120A  118A  	fcall	_liga_buzzer
  2184  03DD                     l2293:
  2185                           
  2186                           ;main.c: 303:         LCD_escreve('C');
  2187  03DD  3043               	movlw	67
  2188  03DE  120A  118A  2003  120A  118A  	fcall	_LCD_escreve
  2189  03E3                     l2295:
  2190                           
  2191                           ;main.c: 310:     if (RB1 == 0){
  2192  03E3  1283               	bcf	3,5	;RP0=0, select bank0
  2193  03E4  1303               	bcf	3,6	;RP1=0, select bank0
  2194  03E5  1886               	btfsc	6,1	;volatile
  2195  03E6  2BE8               	goto	u2391
  2196  03E7  2BE9               	goto	u2390
  2197  03E8                     u2391:
  2198  03E8  2C0C               	goto	l2303
  2199  03E9                     u2390:
  2200  03E9                     l2297:
  2201                           
  2202                           ;main.c: 311:         _delay((unsigned long)((200)*(20000000/4000.0)));
  2203  03E9  3006               	movlw	6
  2204  03EA  1283               	bcf	3,5	;RP0=0, select bank0
  2205  03EB  1303               	bcf	3,6	;RP1=0, select bank0
  2206  03EC  00BD               	movwf	??_teclado+2
  2207  03ED  3013               	movlw	19
  2208  03EE  00BC               	movwf	??_teclado+1
  2209  03EF  30AD               	movlw	173
  2210  03F0  00BB               	movwf	??_teclado
  2211  03F1                     u2867:
  2212  03F1  0BBB               	decfsz	??_teclado,f
  2213  03F2  2BF1               	goto	u2867
  2214  03F3  0BBC               	decfsz	??_teclado+1,f
  2215  03F4  2BF1               	goto	u2867
  2216  03F5  0BBD               	decfsz	??_teclado+2,f
  2217  03F6  2BF1               	goto	u2867
  2218  03F7                     l2299:
  2219                           
  2220                           ;main.c: 312:         liga_buzzer(0.1);
  2221  03F7  303D               	movlw	61
  2222  03F8  1283               	bcf	3,5	;RP0=0, select bank0
  2223  03F9  1303               	bcf	3,6	;RP1=0, select bank0
  2224  03FA  00B8               	movwf	liga_buzzer@tempoSegundos+3
  2225  03FB  30CC               	movlw	204
  2226  03FC  00B7               	movwf	liga_buzzer@tempoSegundos+2
  2227  03FD  30CC               	movlw	204
  2228  03FE  00B6               	movwf	liga_buzzer@tempoSegundos+1
  2229  03FF  30CD               	movlw	205
  2230  0400  00B5               	movwf	liga_buzzer@tempoSegundos
  2231  0401  120A  158A  24EC  120A  118A  	fcall	_liga_buzzer
  2232  0406                     l2301:
  2233                           
  2234                           ;main.c: 313:         LCD_escreve('D');
  2235  0406  3044               	movlw	68
  2236  0407  120A  118A  2003  120A  118A  	fcall	_LCD_escreve
  2237  040C                     l2303:
  2238                           
  2239                           ;main.c: 320:     if (RB2 == 0){
  2240  040C  1283               	bcf	3,5	;RP0=0, select bank0
  2241  040D  1303               	bcf	3,6	;RP1=0, select bank0
  2242  040E  1906               	btfsc	6,2	;volatile
  2243  040F  2C11               	goto	u2401
  2244  0410  2C12               	goto	u2400
  2245  0411                     u2401:
  2246  0411  2C35               	goto	l2311
  2247  0412                     u2400:
  2248  0412                     l2305:
  2249                           
  2250                           ;main.c: 321:         _delay((unsigned long)((200)*(20000000/4000.0)));
  2251  0412  3006               	movlw	6
  2252  0413  1283               	bcf	3,5	;RP0=0, select bank0
  2253  0414  1303               	bcf	3,6	;RP1=0, select bank0
  2254  0415  00BD               	movwf	??_teclado+2
  2255  0416  3013               	movlw	19
  2256  0417  00BC               	movwf	??_teclado+1
  2257  0418  30AD               	movlw	173
  2258  0419  00BB               	movwf	??_teclado
  2259  041A                     u2877:
  2260  041A  0BBB               	decfsz	??_teclado,f
  2261  041B  2C1A               	goto	u2877
  2262  041C  0BBC               	decfsz	??_teclado+1,f
  2263  041D  2C1A               	goto	u2877
  2264  041E  0BBD               	decfsz	??_teclado+2,f
  2265  041F  2C1A               	goto	u2877
  2266  0420                     l2307:
  2267                           
  2268                           ;main.c: 322:         liga_buzzer(0.1);
  2269  0420  303D               	movlw	61
  2270  0421  1283               	bcf	3,5	;RP0=0, select bank0
  2271  0422  1303               	bcf	3,6	;RP1=0, select bank0
  2272  0423  00B8               	movwf	liga_buzzer@tempoSegundos+3
  2273  0424  30CC               	movlw	204
  2274  0425  00B7               	movwf	liga_buzzer@tempoSegundos+2
  2275  0426  30CC               	movlw	204
  2276  0427  00B6               	movwf	liga_buzzer@tempoSegundos+1
  2277  0428  30CD               	movlw	205
  2278  0429  00B5               	movwf	liga_buzzer@tempoSegundos
  2279  042A  120A  158A  24EC  120A  118A  	fcall	_liga_buzzer
  2280  042F                     l2309:
  2281                           
  2282                           ;main.c: 323:         LCD_escreve('E');
  2283  042F  3045               	movlw	69
  2284  0430  120A  118A  2003  120A  118A  	fcall	_LCD_escreve
  2285  0435                     l2311:
  2286                           
  2287                           ;main.c: 330:     if (RB3 == 0){
  2288  0435  1283               	bcf	3,5	;RP0=0, select bank0
  2289  0436  1303               	bcf	3,6	;RP1=0, select bank0
  2290  0437  1986               	btfsc	6,3	;volatile
  2291  0438  2C3A               	goto	u2411
  2292  0439  2C3B               	goto	u2410
  2293  043A                     u2411:
  2294  043A  2C5E               	goto	l189
  2295  043B                     u2410:
  2296  043B                     l2313:
  2297                           
  2298                           ;main.c: 331:         _delay((unsigned long)((200)*(20000000/4000.0)));
  2299  043B  3006               	movlw	6
  2300  043C  1283               	bcf	3,5	;RP0=0, select bank0
  2301  043D  1303               	bcf	3,6	;RP1=0, select bank0
  2302  043E  00BD               	movwf	??_teclado+2
  2303  043F  3013               	movlw	19
  2304  0440  00BC               	movwf	??_teclado+1
  2305  0441  30AD               	movlw	173
  2306  0442  00BB               	movwf	??_teclado
  2307  0443                     u2887:
  2308  0443  0BBB               	decfsz	??_teclado,f
  2309  0444  2C43               	goto	u2887
  2310  0445  0BBC               	decfsz	??_teclado+1,f
  2311  0446  2C43               	goto	u2887
  2312  0447  0BBD               	decfsz	??_teclado+2,f
  2313  0448  2C43               	goto	u2887
  2314  0449                     l2315:
  2315                           
  2316                           ;main.c: 332:         liga_buzzer(0.1);
  2317  0449  303D               	movlw	61
  2318  044A  1283               	bcf	3,5	;RP0=0, select bank0
  2319  044B  1303               	bcf	3,6	;RP1=0, select bank0
  2320  044C  00B8               	movwf	liga_buzzer@tempoSegundos+3
  2321  044D  30CC               	movlw	204
  2322  044E  00B7               	movwf	liga_buzzer@tempoSegundos+2
  2323  044F  30CC               	movlw	204
  2324  0450  00B6               	movwf	liga_buzzer@tempoSegundos+1
  2325  0451  30CD               	movlw	205
  2326  0452  00B5               	movwf	liga_buzzer@tempoSegundos
  2327  0453  120A  158A  24EC  120A  118A  	fcall	_liga_buzzer
  2328  0458                     l2317:
  2329                           
  2330                           ;main.c: 333:         LCD_escreve('F');
  2331  0458  3046               	movlw	70
  2332  0459  120A  118A  2003  120A  118A  	fcall	_LCD_escreve
  2333  045E                     l189:
  2334  045E  0008               	return
  2335  045F                     __end_of_teclado:
  2336                           
  2337                           	psect	text3
  2338  0CEC                     __ptext3:	
  2339 ;; *************** function _liga_buzzer *****************
  2340 ;; Defined at:
  2341 ;;		line 103 in file "main.c"
  2342 ;; Parameters:    Size  Location     Type
  2343 ;;  tempoSegundo    4   21[BANK0 ] float 
  2344 ;; Auto vars:     Size  Location     Type
  2345 ;;		None
  2346 ;; Return value:  Size  Location     Type
  2347 ;;                  1    wreg      void 
  2348 ;; Registers used:
  2349 ;;		wreg, status,2, status,0, btemp+1, pclath, cstack
  2350 ;; Tracked objects:
  2351 ;;		On entry : 0/0
  2352 ;;		On exit  : 0/0
  2353 ;;		Unchanged: 0/0
  2354 ;; Data sizes:     COMMON   BANK0   BANK1   BANK3   BANK2
  2355 ;;      Params:         0       4       0       0       0
  2356 ;;      Locals:         0       0       0       0       0
  2357 ;;      Temps:          0       2       0       0       0
  2358 ;;      Totals:         0       6       0       0       0
  2359 ;;Total ram usage:        6 bytes
  2360 ;; Hardware stack levels used: 1
  2361 ;; Hardware stack levels required when called: 2
  2362 ;; This function calls:
  2363 ;;		___flge
  2364 ;;		___flmul
  2365 ;;		___flsub
  2366 ;; This function is called by:
  2367 ;;		_teclado
  2368 ;; This function uses a non-reentrant model
  2369 ;;
  2370                           
  2371                           
  2372                           ;psect for function _liga_buzzer
  2373  0CEC                     _liga_buzzer:
  2374  0CEC                     l2135:	
  2375                           ;incstack = 0
  2376                           ; Regs used in _liga_buzzer: [wreg+status,2+status,0+btemp+1+pclath+cstack]
  2377                           
  2378                           
  2379                           ;main.c: 104:     tempoSegundos = tempoSegundos * 1000;
  2380  0CEC  3044               	movlw	68
  2381  0CED  1283               	bcf	3,5	;RP0=0, select bank0
  2382  0CEE  1303               	bcf	3,6	;RP1=0, select bank0
  2383  0CEF  00A3               	movwf	___flmul@b+3
  2384  0CF0  307A               	movlw	122
  2385  0CF1  00A2               	movwf	___flmul@b+2
  2386  0CF2  3000               	movlw	0
  2387  0CF3  00A1               	movwf	___flmul@b+1
  2388  0CF4  3000               	movlw	0
  2389  0CF5  00A0               	movwf	___flmul@b
  2390  0CF6  0838               	movf	liga_buzzer@tempoSegundos+3,w
  2391  0CF7  00A7               	movwf	___flmul@a+3
  2392  0CF8  0837               	movf	liga_buzzer@tempoSegundos+2,w
  2393  0CF9  00A6               	movwf	___flmul@a+2
  2394  0CFA  0836               	movf	liga_buzzer@tempoSegundos+1,w
  2395  0CFB  00A5               	movwf	___flmul@a+1
  2396  0CFC  0835               	movf	liga_buzzer@tempoSegundos,w
  2397  0CFD  00A4               	movwf	___flmul@a
  2398  0CFE  120A  118A  245F  120A  158A  	fcall	___flmul
  2399  0D03  1283               	bcf	3,5	;RP0=0, select bank0
  2400  0D04  1303               	bcf	3,6	;RP1=0, select bank0
  2401  0D05  0823               	movf	?___flmul+3,w
  2402  0D06  00B8               	movwf	liga_buzzer@tempoSegundos+3
  2403  0D07  0822               	movf	?___flmul+2,w
  2404  0D08  00B7               	movwf	liga_buzzer@tempoSegundos+2
  2405  0D09  0821               	movf	?___flmul+1,w
  2406  0D0A  00B6               	movwf	liga_buzzer@tempoSegundos+1
  2407  0D0B  0820               	movf	?___flmul,w
  2408  0D0C  00B5               	movwf	liga_buzzer@tempoSegundos
  2409  0D0D                     l2137:
  2410                           
  2411                           ;main.c: 105:     _delay((unsigned long)((10)*(20000000/4000.0)));
  2412  0D0D  3041               	movlw	65
  2413  0D0E  1283               	bcf	3,5	;RP0=0, select bank0
  2414  0D0F  1303               	bcf	3,6	;RP1=0, select bank0
  2415  0D10  00BA               	movwf	??_liga_buzzer+1
  2416  0D11  30ED               	movlw	237
  2417  0D12  00B9               	movwf	??_liga_buzzer
  2418  0D13                     u2897:
  2419  0D13  0BB9               	decfsz	??_liga_buzzer,f
  2420  0D14  2D13               	goto	u2897
  2421  0D15  0BBA               	decfsz	??_liga_buzzer+1,f
  2422  0D16  2D13               	goto	u2897
  2423  0D17  2D18               	nop2
  2424                           
  2425                           ;main.c: 108:     while(tempoSegundos > 0){
  2426  0D18  2D48               	goto	l2145
  2427  0D19                     l2139:
  2428                           
  2429                           ;main.c: 109:        PORTE = 0;
  2430  0D19  1283               	bcf	3,5	;RP0=0, select bank0
  2431  0D1A  1303               	bcf	3,6	;RP1=0, select bank0
  2432  0D1B  0189               	clrf	9	;volatile
  2433  0D1C                     l2141:
  2434                           
  2435                           ;main.c: 110:         _delay((unsigned long)((1)*(20000000/4000.0)));
  2436  0D1C  3007               	movlw	7
  2437  0D1D  1283               	bcf	3,5	;RP0=0, select bank0
  2438  0D1E  1303               	bcf	3,6	;RP1=0, select bank0
  2439  0D1F  00BA               	movwf	??_liga_buzzer+1
  2440  0D20  307C               	movlw	124
  2441  0D21  00B9               	movwf	??_liga_buzzer
  2442  0D22                     u2907:
  2443  0D22  0BB9               	decfsz	??_liga_buzzer,f
  2444  0D23  2D22               	goto	u2907
  2445  0D24  0BBA               	decfsz	??_liga_buzzer+1,f
  2446  0D25  2D22               	goto	u2907
  2447  0D26  0000               	nop
  2448  0D27                     l2143:
  2449                           
  2450                           ;main.c: 111:         tempoSegundos--;
  2451  0D27  303F               	movlw	63
  2452  0D28  1283               	bcf	3,5	;RP0=0, select bank0
  2453  0D29  1303               	bcf	3,6	;RP1=0, select bank0
  2454  0D2A  00AB               	movwf	___flsub@a+3
  2455  0D2B  3080               	movlw	128
  2456  0D2C  00AA               	movwf	___flsub@a+2
  2457  0D2D  3000               	movlw	0
  2458  0D2E  00A9               	movwf	___flsub@a+1
  2459  0D2F  3000               	movlw	0
  2460  0D30  00A8               	movwf	___flsub@a
  2461  0D31  0838               	movf	liga_buzzer@tempoSegundos+3,w
  2462  0D32  00AF               	movwf	___flsub@b+3
  2463  0D33  0837               	movf	liga_buzzer@tempoSegundos+2,w
  2464  0D34  00AE               	movwf	___flsub@b+2
  2465  0D35  0836               	movf	liga_buzzer@tempoSegundos+1,w
  2466  0D36  00AD               	movwf	___flsub@b+1
  2467  0D37  0835               	movf	liga_buzzer@tempoSegundos,w
  2468  0D38  00AC               	movwf	___flsub@b
  2469  0D39  120A  158A  22C7  120A  158A  	fcall	___flsub
  2470  0D3E  1283               	bcf	3,5	;RP0=0, select bank0
  2471  0D3F  1303               	bcf	3,6	;RP1=0, select bank0
  2472  0D40  082B               	movf	?___flsub+3,w
  2473  0D41  00B8               	movwf	liga_buzzer@tempoSegundos+3
  2474  0D42  082A               	movf	?___flsub+2,w
  2475  0D43  00B7               	movwf	liga_buzzer@tempoSegundos+2
  2476  0D44  0829               	movf	?___flsub+1,w
  2477  0D45  00B6               	movwf	liga_buzzer@tempoSegundos+1
  2478  0D46  0828               	movf	?___flsub,w
  2479  0D47  00B5               	movwf	liga_buzzer@tempoSegundos
  2480  0D48                     l2145:
  2481                           
  2482                           ;main.c: 108:     while(tempoSegundos > 0){
  2483  0D48  3000               	movlw	0
  2484  0D49  00F3               	movwf	___flge@ff1+3
  2485  0D4A  3000               	movlw	0
  2486  0D4B  00F2               	movwf	___flge@ff1+2
  2487  0D4C  3000               	movlw	0
  2488  0D4D  00F1               	movwf	___flge@ff1+1
  2489  0D4E  3000               	movlw	0
  2490  0D4F  00F0               	movwf	___flge@ff1
  2491  0D50  1283               	bcf	3,5	;RP0=0, select bank0
  2492  0D51  1303               	bcf	3,6	;RP1=0, select bank0
  2493  0D52  0838               	movf	liga_buzzer@tempoSegundos+3,w
  2494  0D53  00F7               	movwf	___flge@ff2+3
  2495  0D54  0837               	movf	liga_buzzer@tempoSegundos+2,w
  2496  0D55  00F6               	movwf	___flge@ff2+2
  2497  0D56  0836               	movf	liga_buzzer@tempoSegundos+1,w
  2498  0D57  00F5               	movwf	___flge@ff2+1
  2499  0D58  0835               	movf	liga_buzzer@tempoSegundos,w
  2500  0D59  00F4               	movwf	___flge@ff2
  2501  0D5A  120A  118A  2014  120A  158A  	fcall	___flge
  2502  0D5F  1C03               	btfss	3,0
  2503  0D60  2D62               	goto	u2251
  2504  0D61  2D63               	goto	u2250
  2505  0D62                     u2251:
  2506  0D62  2D19               	goto	l2139
  2507  0D63                     u2250:
  2508  0D63                     l2147:
  2509                           
  2510                           ;main.c: 115:     PORTE = 0x0F;
  2511  0D63  300F               	movlw	15
  2512  0D64  1283               	bcf	3,5	;RP0=0, select bank0
  2513  0D65  1303               	bcf	3,6	;RP1=0, select bank0
  2514  0D66  0089               	movwf	9	;volatile
  2515  0D67                     l160:
  2516  0D67  0008               	return
  2517  0D68                     __end_of_liga_buzzer:
  2518                           
  2519                           	psect	text4
  2520  0AC7                     __ptext4:	
  2521 ;; *************** function ___flsub *****************
  2522 ;; Defined at:
  2523 ;;		line 242 in file "C:\Program Files\Microchip\xc8\v2.32\pic\sources\c90\common\sprcadd.c"
  2524 ;; Parameters:    Size  Location     Type
  2525 ;;  a               4    8[BANK0 ] void 
  2526 ;;  b               4   12[BANK0 ] void 
  2527 ;; Auto vars:     Size  Location     Type
  2528 ;;		None
  2529 ;; Return value:  Size  Location     Type
  2530 ;;                  4    8[BANK0 ] void 
  2531 ;; Registers used:
  2532 ;;		wreg, status,2, status,0, btemp+1, pclath, cstack
  2533 ;; Tracked objects:
  2534 ;;		On entry : 0/0
  2535 ;;		On exit  : 0/0
  2536 ;;		Unchanged: 0/0
  2537 ;; Data sizes:     COMMON   BANK0   BANK1   BANK3   BANK2
  2538 ;;      Params:         0       8       0       0       0
  2539 ;;      Locals:         0       0       0       0       0
  2540 ;;      Temps:          0       0       0       0       0
  2541 ;;      Totals:         0       8       0       0       0
  2542 ;;Total ram usage:        8 bytes
  2543 ;; Hardware stack levels used: 1
  2544 ;; Hardware stack levels required when called: 1
  2545 ;; This function calls:
  2546 ;;		___fladd
  2547 ;; This function is called by:
  2548 ;;		_liga_buzzer
  2549 ;; This function uses a non-reentrant model
  2550 ;;
  2551                           
  2552                           
  2553                           ;psect for function ___flsub
  2554  0AC7                     ___flsub:
  2555  0AC7                     l1965:	
  2556                           ;incstack = 0
  2557                           ; Regs used in ___flsub: [wreg+status,2+status,0+btemp+1+pclath+cstack]
  2558                           
  2559  0AC7  3080               	movlw	128
  2560  0AC8  1283               	bcf	3,5	;RP0=0, select bank0
  2561  0AC9  1303               	bcf	3,6	;RP1=0, select bank0
  2562  0ACA  06AB               	xorwf	___flsub@a+3,f
  2563  0ACB                     l1967:
  2564  0ACB  082F               	movf	___flsub@b+3,w
  2565  0ACC  00F3               	movwf	___fladd@b+3
  2566  0ACD  082E               	movf	___flsub@b+2,w
  2567  0ACE  00F2               	movwf	___fladd@b+2
  2568  0ACF  082D               	movf	___flsub@b+1,w
  2569  0AD0  00F1               	movwf	___fladd@b+1
  2570  0AD1  082C               	movf	___flsub@b,w
  2571  0AD2  00F0               	movwf	___fladd@b
  2572  0AD3  082B               	movf	___flsub@a+3,w
  2573  0AD4  00F7               	movwf	___fladd@a+3
  2574  0AD5  082A               	movf	___flsub@a+2,w
  2575  0AD6  00F6               	movwf	___fladd@a+2
  2576  0AD7  0829               	movf	___flsub@a+1,w
  2577  0AD8  00F5               	movwf	___fladd@a+1
  2578  0AD9  0828               	movf	___flsub@a,w
  2579  0ADA  00F4               	movwf	___fladd@a
  2580  0ADB  120A  158A  2568  120A  158A  	fcall	___fladd
  2581  0AE0  0873               	movf	?___fladd+3,w
  2582  0AE1  1283               	bcf	3,5	;RP0=0, select bank0
  2583  0AE2  1303               	bcf	3,6	;RP1=0, select bank0
  2584  0AE3  00AB               	movwf	?___flsub+3
  2585  0AE4  0872               	movf	?___fladd+2,w
  2586  0AE5  00AA               	movwf	?___flsub+2
  2587  0AE6  0871               	movf	?___fladd+1,w
  2588  0AE7  00A9               	movwf	?___flsub+1
  2589  0AE8  0870               	movf	?___fladd,w
  2590  0AE9  00A8               	movwf	?___flsub
  2591  0AEA                     l673:
  2592  0AEA  0008               	return
  2593  0AEB                     __end_of___flsub:
  2594                           
  2595                           	psect	text5
  2596  0D68                     __ptext5:	
  2597 ;; *************** function ___fladd *****************
  2598 ;; Defined at:
  2599 ;;		line 10 in file "C:\Program Files\Microchip\xc8\v2.32\pic\sources\c90\common\sprcadd.c"
  2600 ;; Parameters:    Size  Location     Type
  2601 ;;  b               4    0[COMMON] void 
  2602 ;;  a               4    4[COMMON] void 
  2603 ;; Auto vars:     Size  Location     Type
  2604 ;;  grs             1   11[COMMON] unsigned char 
  2605 ;;  bexp            1   10[COMMON] unsigned char 
  2606 ;;  aexp            1    9[COMMON] unsigned char 
  2607 ;;  signs           1    8[COMMON] unsigned char 
  2608 ;; Return value:  Size  Location     Type
  2609 ;;                  4    0[COMMON] unsigned char 
  2610 ;; Registers used:
  2611 ;;		wreg, status,2, status,0, btemp+1
  2612 ;; Tracked objects:
  2613 ;;		On entry : 0/0
  2614 ;;		On exit  : 0/0
  2615 ;;		Unchanged: 0/0
  2616 ;; Data sizes:     COMMON   BANK0   BANK1   BANK3   BANK2
  2617 ;;      Params:         8       0       0       0       0
  2618 ;;      Locals:         4       0       0       0       0
  2619 ;;      Temps:          0       8       0       0       0
  2620 ;;      Totals:        12       8       0       0       0
  2621 ;;Total ram usage:       20 bytes
  2622 ;; Hardware stack levels used: 1
  2623 ;; This function calls:
  2624 ;;		Nothing
  2625 ;; This function is called by:
  2626 ;;		___flsub
  2627 ;; This function uses a non-reentrant model
  2628 ;;
  2629                           
  2630                           
  2631                           ;psect for function ___fladd
  2632  0D68                     ___fladd:
  2633  0D68                     l1727:	
  2634                           ;incstack = 0
  2635                           ; Regs used in ___fladd: [wreg+status,2+status,0+btemp+1]
  2636                           
  2637  0D68  0873               	movf	___fladd@b+3,w
  2638  0D69  3980               	andlw	128
  2639  0D6A  1283               	bcf	3,5	;RP0=0, select bank0
  2640  0D6B  1303               	bcf	3,6	;RP1=0, select bank0
  2641  0D6C  00A0               	movwf	??___fladd
  2642  0D6D  0820               	movf	??___fladd,w
  2643  0D6E  00F8               	movwf	___fladd@signs
  2644  0D6F                     l1729:
  2645  0D6F  0873               	movf	___fladd@b+3,w
  2646  0D70  00A0               	movwf	??___fladd
  2647  0D71  0720               	addwf	??___fladd,w
  2648  0D72  00A1               	movwf	??___fladd+1
  2649  0D73  0821               	movf	??___fladd+1,w
  2650  0D74  00FA               	movwf	___fladd@bexp
  2651  0D75                     l1731:
  2652  0D75  1FF2               	btfss	___fladd@b+2,7
  2653  0D76  2D78               	goto	u1311
  2654  0D77  2D79               	goto	u1310
  2655  0D78                     u1311:
  2656  0D78  2D7A               	goto	l1735
  2657  0D79                     u1310:
  2658  0D79                     l1733:
  2659  0D79  147A               	bsf	___fladd@bexp,0
  2660  0D7A                     l1735:
  2661  0D7A  087A               	movf	___fladd@bexp,w
  2662  0D7B  1903               	btfsc	3,2
  2663  0D7C  2D7E               	goto	u1321
  2664  0D7D  2D7F               	goto	u1320
  2665  0D7E                     u1321:
  2666  0D7E  2D8F               	goto	l1745
  2667  0D7F                     u1320:
  2668  0D7F                     l1737:
  2669  0D7F  0A7A               	incf	___fladd@bexp,w
  2670  0D80  1D03               	btfss	3,2
  2671  0D81  2D83               	goto	u1331
  2672  0D82  2D84               	goto	u1330
  2673  0D83                     u1331:
  2674  0D83  2D8C               	goto	l1741
  2675  0D84                     u1330:
  2676  0D84                     l1739:
  2677  0D84  3000               	movlw	0
  2678  0D85  00F3               	movwf	___fladd@b+3
  2679  0D86  3000               	movlw	0
  2680  0D87  00F2               	movwf	___fladd@b+2
  2681  0D88  3000               	movlw	0
  2682  0D89  00F1               	movwf	___fladd@b+1
  2683  0D8A  3000               	movlw	0
  2684  0D8B  00F0               	movwf	___fladd@b
  2685  0D8C                     l1741:
  2686  0D8C  17F2               	bsf	___fladd@b+2,7
  2687  0D8D                     l1743:
  2688  0D8D  01F3               	clrf	___fladd@b+3
  2689  0D8E  2D97               	goto	l1747
  2690  0D8F                     l1745:
  2691  0D8F  3000               	movlw	0
  2692  0D90  00F3               	movwf	___fladd@b+3
  2693  0D91  3000               	movlw	0
  2694  0D92  00F2               	movwf	___fladd@b+2
  2695  0D93  3000               	movlw	0
  2696  0D94  00F1               	movwf	___fladd@b+1
  2697  0D95  3000               	movlw	0
  2698  0D96  00F0               	movwf	___fladd@b
  2699  0D97                     l1747:
  2700  0D97  0877               	movf	___fladd@a+3,w
  2701  0D98  3980               	andlw	128
  2702  0D99  00A0               	movwf	??___fladd
  2703  0D9A  0820               	movf	??___fladd,w
  2704  0D9B  00F9               	movwf	___fladd@aexp
  2705  0D9C                     l1749:
  2706  0D9C  0879               	movf	___fladd@aexp,w
  2707  0D9D  0678               	xorwf	___fladd@signs,w
  2708  0D9E  1903               	skipnz
  2709  0D9F  2DA1               	goto	u1341
  2710  0DA0  2DA2               	goto	u1340
  2711  0DA1                     u1341:
  2712  0DA1  2DA3               	goto	l1753
  2713  0DA2                     u1340:
  2714  0DA2                     l1751:
  2715  0DA2  1778               	bsf	___fladd@signs,6
  2716  0DA3                     l1753:
  2717  0DA3  0877               	movf	___fladd@a+3,w
  2718  0DA4  00A0               	movwf	??___fladd
  2719  0DA5  0720               	addwf	??___fladd,w
  2720  0DA6  00A1               	movwf	??___fladd+1
  2721  0DA7  0821               	movf	??___fladd+1,w
  2722  0DA8  00F9               	movwf	___fladd@aexp
  2723  0DA9                     l1755:
  2724  0DA9  1FF6               	btfss	___fladd@a+2,7
  2725  0DAA  2DAC               	goto	u1351
  2726  0DAB  2DAD               	goto	u1350
  2727  0DAC                     u1351:
  2728  0DAC  2DAE               	goto	l1759
  2729  0DAD                     u1350:
  2730  0DAD                     l1757:
  2731  0DAD  1479               	bsf	___fladd@aexp,0
  2732  0DAE                     l1759:
  2733  0DAE  0879               	movf	___fladd@aexp,w
  2734  0DAF  1903               	btfsc	3,2
  2735  0DB0  2DB2               	goto	u1361
  2736  0DB1  2DB3               	goto	u1360
  2737  0DB2                     u1361:
  2738  0DB2  2DC3               	goto	l1769
  2739  0DB3                     u1360:
  2740  0DB3                     l1761:
  2741  0DB3  0A79               	incf	___fladd@aexp,w
  2742  0DB4  1D03               	btfss	3,2
  2743  0DB5  2DB7               	goto	u1371
  2744  0DB6  2DB8               	goto	u1370
  2745  0DB7                     u1371:
  2746  0DB7  2DC0               	goto	l1765
  2747  0DB8                     u1370:
  2748  0DB8                     l1763:
  2749  0DB8  3000               	movlw	0
  2750  0DB9  00F7               	movwf	___fladd@a+3
  2751  0DBA  3000               	movlw	0
  2752  0DBB  00F6               	movwf	___fladd@a+2
  2753  0DBC  3000               	movlw	0
  2754  0DBD  00F5               	movwf	___fladd@a+1
  2755  0DBE  3000               	movlw	0
  2756  0DBF  00F4               	movwf	___fladd@a
  2757  0DC0                     l1765:
  2758  0DC0  17F6               	bsf	___fladd@a+2,7
  2759  0DC1                     l1767:
  2760  0DC1  01F7               	clrf	___fladd@a+3
  2761  0DC2  2DCB               	goto	l627
  2762  0DC3                     l1769:
  2763  0DC3  3000               	movlw	0
  2764  0DC4  00F7               	movwf	___fladd@a+3
  2765  0DC5  3000               	movlw	0
  2766  0DC6  00F6               	movwf	___fladd@a+2
  2767  0DC7  3000               	movlw	0
  2768  0DC8  00F5               	movwf	___fladd@a+1
  2769  0DC9  3000               	movlw	0
  2770  0DCA  00F4               	movwf	___fladd@a
  2771  0DCB                     l627:
  2772  0DCB  087A               	movf	___fladd@bexp,w
  2773  0DCC  0279               	subwf	___fladd@aexp,w
  2774  0DCD  1803               	skipnc
  2775  0DCE  2DD0               	goto	u1381
  2776  0DCF  2DD1               	goto	u1380
  2777  0DD0                     u1381:
  2778  0DD0  2E15               	goto	l1805
  2779  0DD1                     u1380:
  2780  0DD1                     l1771:
  2781  0DD1  1F78               	btfss	___fladd@signs,6
  2782  0DD2  2DD4               	goto	u1391
  2783  0DD3  2DD5               	goto	u1390
  2784  0DD4                     u1391:
  2785  0DD4  2DD9               	goto	l1775
  2786  0DD5                     u1390:
  2787  0DD5                     l1773:
  2788  0DD5  3080               	movlw	128
  2789  0DD6  00A0               	movwf	??___fladd
  2790  0DD7  0820               	movf	??___fladd,w
  2791  0DD8  06F8               	xorwf	___fladd@signs,f
  2792  0DD9                     l1775:
  2793  0DD9  087A               	movf	___fladd@bexp,w
  2794  0DDA  00A0               	movwf	??___fladd
  2795  0DDB  0820               	movf	??___fladd,w
  2796  0DDC  00FB               	movwf	___fladd@grs
  2797  0DDD                     l1777:
  2798  0DDD  0879               	movf	___fladd@aexp,w
  2799  0DDE  00A0               	movwf	??___fladd
  2800  0DDF  0820               	movf	??___fladd,w
  2801  0DE0  00FA               	movwf	___fladd@bexp
  2802  0DE1                     l1779:
  2803  0DE1  087B               	movf	___fladd@grs,w
  2804  0DE2  00A0               	movwf	??___fladd
  2805  0DE3  0820               	movf	??___fladd,w
  2806  0DE4  00F9               	movwf	___fladd@aexp
  2807  0DE5                     l1781:
  2808  0DE5  0870               	movf	___fladd@b,w
  2809  0DE6  00A0               	movwf	??___fladd
  2810  0DE7  0820               	movf	??___fladd,w
  2811  0DE8  00FB               	movwf	___fladd@grs
  2812  0DE9                     l1783:
  2813  0DE9  0874               	movf	___fladd@a,w
  2814  0DEA  00A0               	movwf	??___fladd
  2815  0DEB  0820               	movf	??___fladd,w
  2816  0DEC  00F0               	movwf	___fladd@b
  2817  0DED                     l1785:
  2818  0DED  087B               	movf	___fladd@grs,w
  2819  0DEE  00A0               	movwf	??___fladd
  2820  0DEF  0820               	movf	??___fladd,w
  2821  0DF0  00F4               	movwf	___fladd@a
  2822  0DF1                     l1787:
  2823  0DF1  0871               	movf	___fladd@b+1,w
  2824  0DF2  00A0               	movwf	??___fladd
  2825  0DF3  0820               	movf	??___fladd,w
  2826  0DF4  00FB               	movwf	___fladd@grs
  2827  0DF5                     l1789:
  2828  0DF5  0875               	movf	___fladd@a+1,w
  2829  0DF6  00A0               	movwf	??___fladd
  2830  0DF7  0820               	movf	??___fladd,w
  2831  0DF8  00F1               	movwf	___fladd@b+1
  2832  0DF9                     l1791:
  2833  0DF9  087B               	movf	___fladd@grs,w
  2834  0DFA  00A0               	movwf	??___fladd
  2835  0DFB  0820               	movf	??___fladd,w
  2836  0DFC  00F5               	movwf	___fladd@a+1
  2837  0DFD                     l1793:
  2838  0DFD  0872               	movf	___fladd@b+2,w
  2839  0DFE  00A0               	movwf	??___fladd
  2840  0DFF  0820               	movf	??___fladd,w
  2841  0E00  00FB               	movwf	___fladd@grs
  2842  0E01                     l1795:
  2843  0E01  0876               	movf	___fladd@a+2,w
  2844  0E02  00A0               	movwf	??___fladd
  2845  0E03  0820               	movf	??___fladd,w
  2846  0E04  00F2               	movwf	___fladd@b+2
  2847  0E05                     l1797:
  2848  0E05  087B               	movf	___fladd@grs,w
  2849  0E06  00A0               	movwf	??___fladd
  2850  0E07  0820               	movf	??___fladd,w
  2851  0E08  00F6               	movwf	___fladd@a+2
  2852  0E09                     l1799:
  2853  0E09  0873               	movf	___fladd@b+3,w
  2854  0E0A  00A0               	movwf	??___fladd
  2855  0E0B  0820               	movf	??___fladd,w
  2856  0E0C  00FB               	movwf	___fladd@grs
  2857  0E0D                     l1801:
  2858  0E0D  0877               	movf	___fladd@a+3,w
  2859  0E0E  00A0               	movwf	??___fladd
  2860  0E0F  0820               	movf	??___fladd,w
  2861  0E10  00F3               	movwf	___fladd@b+3
  2862  0E11                     l1803:
  2863  0E11  087B               	movf	___fladd@grs,w
  2864  0E12  00A0               	movwf	??___fladd
  2865  0E13  0820               	movf	??___fladd,w
  2866  0E14  00F7               	movwf	___fladd@a+3
  2867  0E15                     l1805:
  2868  0E15  01FB               	clrf	___fladd@grs
  2869  0E16                     l1807:
  2870  0E16  0879               	movf	___fladd@aexp,w
  2871  0E17  00A0               	movwf	??___fladd
  2872  0E18  01A1               	clrf	??___fladd+1
  2873  0E19  0821               	movf	??___fladd+1,w
  2874  0E1A  00A3               	movwf	??___fladd+3
  2875  0E1B  087A               	movf	___fladd@bexp,w
  2876  0E1C  0220               	subwf	??___fladd,w
  2877  0E1D  00A2               	movwf	??___fladd+2
  2878  0E1E  1C03               	skipc
  2879  0E1F  03A3               	decf	??___fladd+3,f
  2880  0E20  0823               	movf	??___fladd+3,w
  2881  0E21  3A80               	xorlw	128
  2882  0E22  00FF               	movwf	btemp+1
  2883  0E23  3080               	movlw	128
  2884  0E24  027F               	subwf	btemp+1,w
  2885  0E25  1D03               	skipz
  2886  0E26  2E29               	goto	u1405
  2887  0E27  301A               	movlw	26
  2888  0E28  0222               	subwf	??___fladd+2,w
  2889  0E29                     u1405:
  2890  0E29  1C03               	skipc
  2891  0E2A  2E2C               	goto	u1401
  2892  0E2B  2E2D               	goto	u1400
  2893  0E2C                     u1401:
  2894  0E2C  2E6E               	goto	l1823
  2895  0E2D                     u1400:
  2896  0E2D                     l1809:
  2897  0E2D  0873               	movf	___fladd@b+3,w
  2898  0E2E  0472               	iorwf	___fladd@b+2,w
  2899  0E2F  0471               	iorwf	___fladd@b+1,w
  2900  0E30  0470               	iorwf	___fladd@b,w
  2901  0E31  1D03               	skipz
  2902  0E32  2E34               	goto	u1411
  2903  0E33  2E36               	goto	u1410
  2904  0E34                     u1411:
  2905  0E34  3001               	movlw	1
  2906  0E35  2E37               	goto	u1420
  2907  0E36                     u1410:
  2908  0E36  3000               	movlw	0
  2909  0E37                     u1420:
  2910  0E37  1283               	bcf	3,5	;RP0=0, select bank0
  2911  0E38  1303               	bcf	3,6	;RP1=0, select bank0
  2912  0E39  00A0               	movwf	??___fladd
  2913  0E3A  0820               	movf	??___fladd,w
  2914  0E3B  00FB               	movwf	___fladd@grs
  2915  0E3C  3000               	movlw	0
  2916  0E3D  00F3               	movwf	___fladd@b+3
  2917  0E3E  3000               	movlw	0
  2918  0E3F  00F2               	movwf	___fladd@b+2
  2919  0E40  3000               	movlw	0
  2920  0E41  00F1               	movwf	___fladd@b+1
  2921  0E42  3000               	movlw	0
  2922  0E43  00F0               	movwf	___fladd@b
  2923  0E44  0879               	movf	___fladd@aexp,w
  2924  0E45  00A0               	movwf	??___fladd
  2925  0E46  0820               	movf	??___fladd,w
  2926  0E47  00FA               	movwf	___fladd@bexp
  2927  0E48  2E74               	goto	l631
  2928  0E49                     l633:
  2929  0E49  1C7B               	btfss	___fladd@grs,0
  2930  0E4A  2E4C               	goto	u1431
  2931  0E4B  2E4D               	goto	u1430
  2932  0E4C                     u1431:
  2933  0E4C  2E58               	goto	l1813
  2934  0E4D                     u1430:
  2935  0E4D                     l1811:
  2936  0E4D  087B               	movf	___fladd@grs,w
  2937  0E4E  1283               	bcf	3,5	;RP0=0, select bank0
  2938  0E4F  1303               	bcf	3,6	;RP1=0, select bank0
  2939  0E50  00A0               	movwf	??___fladd
  2940  0E51  1003               	clrc
  2941  0E52  0C20               	rrf	??___fladd,w
  2942  0E53  3801               	iorlw	1
  2943  0E54  00A1               	movwf	??___fladd+1
  2944  0E55  0821               	movf	??___fladd+1,w
  2945  0E56  00FB               	movwf	___fladd@grs
  2946  0E57  2E5A               	goto	l1815
  2947  0E58                     l1813:
  2948  0E58  1003               	clrc
  2949  0E59  0CFB               	rrf	___fladd@grs,f
  2950  0E5A                     l1815:
  2951  0E5A  1C70               	btfss	___fladd@b,0
  2952  0E5B  2E5D               	goto	u1441
  2953  0E5C  2E5E               	goto	u1440
  2954  0E5D                     u1441:
  2955  0E5D  2E5F               	goto	l1819
  2956  0E5E                     u1440:
  2957  0E5E                     l1817:
  2958  0E5E  17FB               	bsf	___fladd@grs,7
  2959  0E5F                     l1819:
  2960  0E5F  3001               	movlw	1
  2961  0E60  1283               	bcf	3,5	;RP0=0, select bank0
  2962  0E61  1303               	bcf	3,6	;RP1=0, select bank0
  2963  0E62  00A0               	movwf	??___fladd
  2964  0E63                     u1455:
  2965  0E63  0D73               	rlf	___fladd@b+3,w
  2966  0E64  0CF3               	rrf	___fladd@b+3,f
  2967  0E65  0CF2               	rrf	___fladd@b+2,f
  2968  0E66  0CF1               	rrf	___fladd@b+1,f
  2969  0E67  0CF0               	rrf	___fladd@b,f
  2970  0E68  0BA0               	decfsz	??___fladd& (0+127),f
  2971  0E69  2E63               	goto	u1455
  2972  0E6A                     l1821:
  2973  0E6A  3001               	movlw	1
  2974  0E6B  00A0               	movwf	??___fladd
  2975  0E6C  0820               	movf	??___fladd,w
  2976  0E6D  07FA               	addwf	___fladd@bexp,f
  2977  0E6E                     l1823:
  2978  0E6E  0879               	movf	___fladd@aexp,w
  2979  0E6F  027A               	subwf	___fladd@bexp,w
  2980  0E70  1C03               	skipc
  2981  0E71  2E73               	goto	u1461
  2982  0E72  2E74               	goto	u1460
  2983  0E73                     u1461:
  2984  0E73  2E49               	goto	l633
  2985  0E74                     u1460:
  2986  0E74                     l631:
  2987  0E74  1B78               	btfsc	___fladd@signs,6
  2988  0E75  2E77               	goto	u1471
  2989  0E76  2E78               	goto	u1470
  2990  0E77                     u1471:
  2991  0E77  2EC7               	goto	l1849
  2992  0E78                     u1470:
  2993  0E78                     l1825:
  2994  0E78  087A               	movf	___fladd@bexp,w
  2995  0E79  1D03               	btfss	3,2
  2996  0E7A  2E7C               	goto	u1481
  2997  0E7B  2E7D               	goto	u1480
  2998  0E7C                     u1481:
  2999  0E7C  2E86               	goto	l1831
  3000  0E7D                     u1480:
  3001  0E7D                     l1827:
  3002  0E7D  3000               	movlw	0
  3003  0E7E  00F3               	movwf	?___fladd+3
  3004  0E7F  3000               	movlw	0
  3005  0E80  00F2               	movwf	?___fladd+2
  3006  0E81  3000               	movlw	0
  3007  0E82  00F1               	movwf	?___fladd+1
  3008  0E83  3000               	movlw	0
  3009  0E84  00F0               	movwf	?___fladd
  3010  0E85  2FFF               	goto	l640
  3011  0E86                     l1831:
  3012  0E86  0874               	movf	___fladd@a,w
  3013  0E87  07F0               	addwf	___fladd@b,f
  3014  0E88  0875               	movf	___fladd@a+1,w
  3015  0E89  1103               	clrz
  3016  0E8A  1803               	skipnc
  3017  0E8B  3E01               	addlw	1
  3018  0E8C  1903               	skipnz
  3019  0E8D  2E8F               	goto	u1491
  3020  0E8E  07F1               	addwf	___fladd@b+1,f
  3021  0E8F                     u1491:
  3022  0E8F  0876               	movf	___fladd@a+2,w
  3023  0E90  1103               	clrz
  3024  0E91  1803               	skipnc
  3025  0E92  3E01               	addlw	1
  3026  0E93  1903               	skipnz
  3027  0E94  2E96               	goto	u1492
  3028  0E95  07F2               	addwf	___fladd@b+2,f
  3029  0E96                     u1492:
  3030  0E96  0877               	movf	___fladd@a+3,w
  3031  0E97  1103               	clrz
  3032  0E98  1803               	skipnc
  3033  0E99  3E01               	addlw	1
  3034  0E9A  1903               	skipnz
  3035  0E9B  2E9D               	goto	u1493
  3036  0E9C  07F3               	addwf	___fladd@b+3,f
  3037  0E9D                     u1493:
  3038  0E9D                     l1833:
  3039  0E9D  1C73               	btfss	___fladd@b+3,0
  3040  0E9E  2EA0               	goto	u1501
  3041  0E9F  2EA1               	goto	u1500
  3042  0EA0                     u1501:
  3043  0EA0  2F7F               	goto	l1883
  3044  0EA1                     u1500:
  3045  0EA1                     l1835:
  3046  0EA1  1C7B               	btfss	___fladd@grs,0
  3047  0EA2  2EA4               	goto	u1511
  3048  0EA3  2EA5               	goto	u1510
  3049  0EA4                     u1511:
  3050  0EA4  2EB0               	goto	l1839
  3051  0EA5                     u1510:
  3052  0EA5                     l1837:
  3053  0EA5  087B               	movf	___fladd@grs,w
  3054  0EA6  1283               	bcf	3,5	;RP0=0, select bank0
  3055  0EA7  1303               	bcf	3,6	;RP1=0, select bank0
  3056  0EA8  00A0               	movwf	??___fladd
  3057  0EA9  1003               	clrc
  3058  0EAA  0C20               	rrf	??___fladd,w
  3059  0EAB  3801               	iorlw	1
  3060  0EAC  00A1               	movwf	??___fladd+1
  3061  0EAD  0821               	movf	??___fladd+1,w
  3062  0EAE  00FB               	movwf	___fladd@grs
  3063  0EAF  2EB2               	goto	l1841
  3064  0EB0                     l1839:
  3065  0EB0  1003               	clrc
  3066  0EB1  0CFB               	rrf	___fladd@grs,f
  3067  0EB2                     l1841:
  3068  0EB2  1C70               	btfss	___fladd@b,0
  3069  0EB3  2EB5               	goto	u1521
  3070  0EB4  2EB6               	goto	u1520
  3071  0EB5                     u1521:
  3072  0EB5  2EB7               	goto	l1845
  3073  0EB6                     u1520:
  3074  0EB6                     l1843:
  3075  0EB6  17FB               	bsf	___fladd@grs,7
  3076  0EB7                     l1845:
  3077  0EB7  3001               	movlw	1
  3078  0EB8  1283               	bcf	3,5	;RP0=0, select bank0
  3079  0EB9  1303               	bcf	3,6	;RP1=0, select bank0
  3080  0EBA  00A0               	movwf	??___fladd
  3081  0EBB                     u1535:
  3082  0EBB  0D73               	rlf	___fladd@b+3,w
  3083  0EBC  0CF3               	rrf	___fladd@b+3,f
  3084  0EBD  0CF2               	rrf	___fladd@b+2,f
  3085  0EBE  0CF1               	rrf	___fladd@b+1,f
  3086  0EBF  0CF0               	rrf	___fladd@b,f
  3087  0EC0  0BA0               	decfsz	??___fladd& (0+127),f
  3088  0EC1  2EBB               	goto	u1535
  3089  0EC2                     l1847:
  3090  0EC2  3001               	movlw	1
  3091  0EC3  00A0               	movwf	??___fladd
  3092  0EC4  0820               	movf	??___fladd,w
  3093  0EC5  07FA               	addwf	___fladd@bexp,f
  3094  0EC6  2F7F               	goto	l1883
  3095  0EC7                     l1849:
  3096  0EC7  0873               	movf	___fladd@b+3,w
  3097  0EC8  3A80               	xorlw	128
  3098  0EC9  00FF               	movwf	btemp+1
  3099  0ECA  0877               	movf	___fladd@a+3,w
  3100  0ECB  3A80               	xorlw	128
  3101  0ECC  027F               	subwf	btemp+1,w
  3102  0ECD  1D03               	skipz
  3103  0ECE  2ED9               	goto	u1543
  3104  0ECF  0876               	movf	___fladd@a+2,w
  3105  0ED0  0272               	subwf	___fladd@b+2,w
  3106  0ED1  1D03               	skipz
  3107  0ED2  2ED9               	goto	u1543
  3108  0ED3  0875               	movf	___fladd@a+1,w
  3109  0ED4  0271               	subwf	___fladd@b+1,w
  3110  0ED5  1D03               	skipz
  3111  0ED6  2ED9               	goto	u1543
  3112  0ED7  0874               	movf	___fladd@a,w
  3113  0ED8  0270               	subwf	___fladd@b,w
  3114  0ED9                     u1543:
  3115  0ED9  1803               	skipnc
  3116  0EDA  2EDC               	goto	u1541
  3117  0EDB  2EDD               	goto	u1540
  3118  0EDC                     u1541:
  3119  0EDC  2F37               	goto	l1859
  3120  0EDD                     u1540:
  3121  0EDD                     l1851:
  3122  0EDD  30FF               	movlw	255
  3123  0EDE  1283               	bcf	3,5	;RP0=0, select bank0
  3124  0EDF  1303               	bcf	3,6	;RP1=0, select bank0
  3125  0EE0  00A0               	movwf	??___fladd
  3126  0EE1  30FF               	movlw	255
  3127  0EE2  00A1               	movwf	??___fladd+1
  3128  0EE3  30FF               	movlw	255
  3129  0EE4  00A2               	movwf	??___fladd+2
  3130  0EE5  30FF               	movlw	255
  3131  0EE6  00A3               	movwf	??___fladd+3
  3132  0EE7  0874               	movf	___fladd@a,w
  3133  0EE8  00A4               	movwf	??___fladd+4
  3134  0EE9  0875               	movf	___fladd@a+1,w
  3135  0EEA  00A5               	movwf	??___fladd+5
  3136  0EEB  0876               	movf	___fladd@a+2,w
  3137  0EEC  00A6               	movwf	??___fladd+6
  3138  0EED  0877               	movf	___fladd@a+3,w
  3139  0EEE  00A7               	movwf	??___fladd+7
  3140  0EEF  0870               	movf	___fladd@b,w
  3141  0EF0  02A4               	subwf	??___fladd+4,f
  3142  0EF1  0871               	movf	___fladd@b+1,w
  3143  0EF2  1C03               	skipc
  3144  0EF3  0F71               	incfsz	___fladd@b+1,w
  3145  0EF4  2EF6               	goto	u1551
  3146  0EF5  2EF7               	goto	u1552
  3147  0EF6                     u1551:
  3148  0EF6  02A5               	subwf	??___fladd+5,f
  3149  0EF7                     u1552:
  3150  0EF7  0872               	movf	___fladd@b+2,w
  3151  0EF8  1C03               	skipc
  3152  0EF9  0F72               	incfsz	___fladd@b+2,w
  3153  0EFA  2EFC               	goto	u1553
  3154  0EFB  2EFD               	goto	u1554
  3155  0EFC                     u1553:
  3156  0EFC  02A6               	subwf	??___fladd+6,f
  3157  0EFD                     u1554:
  3158  0EFD  0873               	movf	___fladd@b+3,w
  3159  0EFE  1C03               	skipc
  3160  0EFF  0F73               	incfsz	___fladd@b+3,w
  3161  0F00  2F02               	goto	u1555
  3162  0F01  2F03               	goto	u1556
  3163  0F02                     u1555:
  3164  0F02  02A7               	subwf	??___fladd+7,f
  3165  0F03                     u1556:
  3166  0F03  0824               	movf	??___fladd+4,w
  3167  0F04  07A0               	addwf	??___fladd,f
  3168  0F05  0825               	movf	??___fladd+5,w
  3169  0F06  1803               	skipnc
  3170  0F07  0F25               	incfsz	??___fladd+5,w
  3171  0F08  2F0A               	goto	u1560
  3172  0F09  2F0B               	goto	u1561
  3173  0F0A                     u1560:
  3174  0F0A  07A1               	addwf	??___fladd+1,f
  3175  0F0B                     u1561:
  3176  0F0B  0826               	movf	??___fladd+6,w
  3177  0F0C  1803               	skipnc
  3178  0F0D  0F26               	incfsz	??___fladd+6,w
  3179  0F0E  2F10               	goto	u1562
  3180  0F0F  2F11               	goto	u1563
  3181  0F10                     u1562:
  3182  0F10  07A2               	addwf	??___fladd+2,f
  3183  0F11                     u1563:
  3184  0F11  0827               	movf	??___fladd+7,w
  3185  0F12  1803               	skipnc
  3186  0F13  0A27               	incf	??___fladd+7,w
  3187  0F14  07A3               	addwf	??___fladd+3,f
  3188  0F15  0823               	movf	??___fladd+3,w
  3189  0F16  00F3               	movwf	___fladd@b+3
  3190  0F17  0822               	movf	??___fladd+2,w
  3191  0F18  00F2               	movwf	___fladd@b+2
  3192  0F19  0821               	movf	??___fladd+1,w
  3193  0F1A  00F1               	movwf	___fladd@b+1
  3194  0F1B  0820               	movf	??___fladd,w
  3195  0F1C  00F0               	movwf	___fladd@b
  3196  0F1D                     l1853:
  3197  0F1D  3080               	movlw	128
  3198  0F1E  00A0               	movwf	??___fladd
  3199  0F1F  0820               	movf	??___fladd,w
  3200  0F20  06F8               	xorwf	___fladd@signs,f
  3201  0F21  09FB               	comf	___fladd@grs,f
  3202  0F22  0AFB               	incf	___fladd@grs,f
  3203  0F23                     l1855:
  3204  0F23  087B               	movf	___fladd@grs,w
  3205  0F24  1D03               	btfss	3,2
  3206  0F25  2F27               	goto	u1571
  3207  0F26  2F28               	goto	u1570
  3208  0F27                     u1571:
  3209  0F27  2F45               	goto	l648
  3210  0F28                     u1570:
  3211  0F28                     l1857:
  3212  0F28  3001               	movlw	1
  3213  0F29  07F0               	addwf	___fladd@b,f
  3214  0F2A  3000               	movlw	0
  3215  0F2B  1803               	skipnc
  3216  0F2C  3001               	movlw	1
  3217  0F2D  07F1               	addwf	___fladd@b+1,f
  3218  0F2E  3000               	movlw	0
  3219  0F2F  1803               	skipnc
  3220  0F30  3001               	movlw	1
  3221  0F31  07F2               	addwf	___fladd@b+2,f
  3222  0F32  3000               	movlw	0
  3223  0F33  1803               	skipnc
  3224  0F34  3001               	movlw	1
  3225  0F35  07F3               	addwf	___fladd@b+3,f
  3226  0F36  2F45               	goto	l648
  3227  0F37                     l1859:
  3228  0F37  0874               	movf	___fladd@a,w
  3229  0F38  02F0               	subwf	___fladd@b,f
  3230  0F39  0875               	movf	___fladd@a+1,w
  3231  0F3A  1C03               	skipc
  3232  0F3B  0F75               	incfsz	___fladd@a+1,w
  3233  0F3C  02F1               	subwf	___fladd@b+1,f
  3234  0F3D  0876               	movf	___fladd@a+2,w
  3235  0F3E  1C03               	skipc
  3236  0F3F  0F76               	incfsz	___fladd@a+2,w
  3237  0F40  02F2               	subwf	___fladd@b+2,f
  3238  0F41  0877               	movf	___fladd@a+3,w
  3239  0F42  1C03               	skipc
  3240  0F43  0F77               	incfsz	___fladd@a+3,w
  3241  0F44  02F3               	subwf	___fladd@b+3,f
  3242  0F45                     l648:
  3243  0F45  0873               	movf	___fladd@b+3,w
  3244  0F46  0472               	iorwf	___fladd@b+2,w
  3245  0F47  0471               	iorwf	___fladd@b+1,w
  3246  0F48  0470               	iorwf	___fladd@b,w
  3247  0F49  1D03               	skipz
  3248  0F4A  2F4C               	goto	u1581
  3249  0F4B  2F4D               	goto	u1580
  3250  0F4C                     u1581:
  3251  0F4C  2F7B               	goto	l1881
  3252  0F4D                     u1580:
  3253  0F4D                     l1861:
  3254  0F4D  087B               	movf	___fladd@grs,w
  3255  0F4E  1D03               	btfss	3,2
  3256  0F4F  2F51               	goto	u1591
  3257  0F50  2F52               	goto	u1590
  3258  0F51                     u1591:
  3259  0F51  2F7B               	goto	l1881
  3260  0F52                     u1590:
  3261  0F52                     l1863:
  3262  0F52  3000               	movlw	0
  3263  0F53  00F3               	movwf	?___fladd+3
  3264  0F54  3000               	movlw	0
  3265  0F55  00F2               	movwf	?___fladd+2
  3266  0F56  3000               	movlw	0
  3267  0F57  00F1               	movwf	?___fladd+1
  3268  0F58  3000               	movlw	0
  3269  0F59  00F0               	movwf	?___fladd
  3270  0F5A  2FFF               	goto	l640
  3271  0F5B                     l1867:
  3272  0F5B  3001               	movlw	1
  3273  0F5C  1283               	bcf	3,5	;RP0=0, select bank0
  3274  0F5D  1303               	bcf	3,6	;RP1=0, select bank0
  3275  0F5E  00A0               	movwf	??___fladd
  3276  0F5F                     u1605:
  3277  0F5F  1003               	clrc
  3278  0F60  0DF0               	rlf	___fladd@b,f
  3279  0F61  0DF1               	rlf	___fladd@b+1,f
  3280  0F62  0DF2               	rlf	___fladd@b+2,f
  3281  0F63  0DF3               	rlf	___fladd@b+3,f
  3282  0F64  0BA0               	decfsz	??___fladd,f
  3283  0F65  2F5F               	goto	u1605
  3284  0F66                     l1869:
  3285  0F66  1FFB               	btfss	___fladd@grs,7
  3286  0F67  2F69               	goto	u1611
  3287  0F68  2F6A               	goto	u1610
  3288  0F69                     u1611:
  3289  0F69  2F6B               	goto	l652
  3290  0F6A                     u1610:
  3291  0F6A                     l1871:
  3292  0F6A  1470               	bsf	___fladd@b,0
  3293  0F6B                     l652:
  3294  0F6B  1C7B               	btfss	___fladd@grs,0
  3295  0F6C  2F6E               	goto	u1621
  3296  0F6D  2F6F               	goto	u1620
  3297  0F6E                     u1621:
  3298  0F6E  2F72               	goto	l1875
  3299  0F6F                     u1620:
  3300  0F6F                     l1873:
  3301  0F6F  1403               	setc
  3302  0F70  0DFB               	rlf	___fladd@grs,f
  3303  0F71  2F74               	goto	l1877
  3304  0F72                     l1875:
  3305  0F72  1003               	clrc
  3306  0F73  0DFB               	rlf	___fladd@grs,f
  3307  0F74                     l1877:
  3308  0F74  087A               	movf	___fladd@bexp,w
  3309  0F75  1903               	btfsc	3,2
  3310  0F76  2F78               	goto	u1631
  3311  0F77  2F79               	goto	u1630
  3312  0F78                     u1631:
  3313  0F78  2F7B               	goto	l1881
  3314  0F79                     u1630:
  3315  0F79                     l1879:
  3316  0F79  3001               	movlw	1
  3317  0F7A  02FA               	subwf	___fladd@bexp,f
  3318  0F7B                     l1881:
  3319  0F7B  1FF2               	btfss	___fladd@b+2,7
  3320  0F7C  2F7E               	goto	u1641
  3321  0F7D  2F7F               	goto	u1640
  3322  0F7E                     u1641:
  3323  0F7E  2F5B               	goto	l1867
  3324  0F7F                     u1640:
  3325  0F7F                     l1883:
  3326  0F7F  01F9               	clrf	___fladd@aexp
  3327  0F80                     l1885:
  3328  0F80  1FFB               	btfss	___fladd@grs,7
  3329  0F81  2F83               	goto	u1651
  3330  0F82  2F84               	goto	u1650
  3331  0F83                     u1651:
  3332  0F83  2F92               	goto	l1893
  3333  0F84                     u1650:
  3334  0F84                     l1887:
  3335  0F84  087B               	movf	___fladd@grs,w
  3336  0F85  397F               	andlw	127
  3337  0F86  1903               	btfsc	3,2
  3338  0F87  2F89               	goto	u1661
  3339  0F88  2F8A               	goto	u1660
  3340  0F89                     u1661:
  3341  0F89  2F8D               	goto	l658
  3342  0F8A                     u1660:
  3343  0F8A                     l1889:
  3344  0F8A  01F9               	clrf	___fladd@aexp
  3345  0F8B  0AF9               	incf	___fladd@aexp,f
  3346  0F8C  2F92               	goto	l1893
  3347  0F8D                     l658:
  3348  0F8D  1C70               	btfss	___fladd@b,0
  3349  0F8E  2F90               	goto	u1671
  3350  0F8F  2F91               	goto	u1670
  3351  0F90                     u1671:
  3352  0F90  2F92               	goto	l1893
  3353  0F91                     u1670:
  3354  0F91  2F8A               	goto	l1889
  3355  0F92                     l1893:
  3356  0F92  0879               	movf	___fladd@aexp,w
  3357  0F93  1903               	btfsc	3,2
  3358  0F94  2F96               	goto	u1681
  3359  0F95  2F97               	goto	u1680
  3360  0F96                     u1681:
  3361  0F96  2FCD               	goto	l661
  3362  0F97                     u1680:
  3363  0F97                     l1895:
  3364  0F97  3001               	movlw	1
  3365  0F98  07F0               	addwf	___fladd@b,f
  3366  0F99  3000               	movlw	0
  3367  0F9A  1803               	skipnc
  3368  0F9B  3001               	movlw	1
  3369  0F9C  07F1               	addwf	___fladd@b+1,f
  3370  0F9D  3000               	movlw	0
  3371  0F9E  1803               	skipnc
  3372  0F9F  3001               	movlw	1
  3373  0FA0  07F2               	addwf	___fladd@b+2,f
  3374  0FA1  3000               	movlw	0
  3375  0FA2  1803               	skipnc
  3376  0FA3  3001               	movlw	1
  3377  0FA4  07F3               	addwf	___fladd@b+3,f
  3378  0FA5                     l1897:
  3379  0FA5  1C73               	btfss	___fladd@b+3,0
  3380  0FA6  2FA8               	goto	u1691
  3381  0FA7  2FA9               	goto	u1690
  3382  0FA8                     u1691:
  3383  0FA8  2FCD               	goto	l661
  3384  0FA9                     u1690:
  3385  0FA9                     l1899:
  3386  0FA9  0870               	movf	___fladd@b,w
  3387  0FAA  1283               	bcf	3,5	;RP0=0, select bank0
  3388  0FAB  1303               	bcf	3,6	;RP1=0, select bank0
  3389  0FAC  00A0               	movwf	??___fladd
  3390  0FAD  0871               	movf	___fladd@b+1,w
  3391  0FAE  00A1               	movwf	??___fladd+1
  3392  0FAF  0872               	movf	___fladd@b+2,w
  3393  0FB0  00A2               	movwf	??___fladd+2
  3394  0FB1  0873               	movf	___fladd@b+3,w
  3395  0FB2  00A3               	movwf	??___fladd+3
  3396  0FB3  3001               	movlw	1
  3397  0FB4  00A4               	movwf	??___fladd+4
  3398  0FB5                     u1705:
  3399  0FB5  0D23               	rlf	??___fladd+3,w
  3400  0FB6  0CA3               	rrf	??___fladd+3,f
  3401  0FB7  0CA2               	rrf	??___fladd+2,f
  3402  0FB8  0CA1               	rrf	??___fladd+1,f
  3403  0FB9  0CA0               	rrf	??___fladd,f
  3404  0FBA                     u1700:
  3405  0FBA  0BA4               	decfsz	??___fladd+4,f
  3406  0FBB  2FB5               	goto	u1705
  3407  0FBC  0823               	movf	??___fladd+3,w
  3408  0FBD  00F3               	movwf	___fladd@b+3
  3409  0FBE  0822               	movf	??___fladd+2,w
  3410  0FBF  00F2               	movwf	___fladd@b+2
  3411  0FC0  0821               	movf	??___fladd+1,w
  3412  0FC1  00F1               	movwf	___fladd@b+1
  3413  0FC2  0820               	movf	??___fladd,w
  3414  0FC3  00F0               	movwf	___fladd@b
  3415  0FC4  0A7A               	incf	___fladd@bexp,w
  3416  0FC5  1903               	btfsc	3,2
  3417  0FC6  2FC8               	goto	u1711
  3418  0FC7  2FC9               	goto	u1710
  3419  0FC8                     u1711:
  3420  0FC8  2FCD               	goto	l661
  3421  0FC9                     u1710:
  3422  0FC9                     l1901:
  3423  0FC9  3001               	movlw	1
  3424  0FCA  00A0               	movwf	??___fladd
  3425  0FCB  0820               	movf	??___fladd,w
  3426  0FCC  07FA               	addwf	___fladd@bexp,f
  3427  0FCD                     l661:
  3428  0FCD  0A7A               	incf	___fladd@bexp,w
  3429  0FCE  1903               	btfsc	3,2
  3430  0FCF  2FD1               	goto	u1721
  3431  0FD0  2FD2               	goto	u1720
  3432  0FD1                     u1721:
  3433  0FD1  2FD7               	goto	l1905
  3434  0FD2                     u1720:
  3435  0FD2                     l1903:
  3436  0FD2  087A               	movf	___fladd@bexp,w
  3437  0FD3  1D03               	btfss	3,2
  3438  0FD4  2FD6               	goto	u1731
  3439  0FD5  2FD7               	goto	u1730
  3440  0FD6                     u1731:
  3441  0FD6  2FE5               	goto	l1911
  3442  0FD7                     u1730:
  3443  0FD7                     l1905:
  3444  0FD7  3000               	movlw	0
  3445  0FD8  00F3               	movwf	___fladd@b+3
  3446  0FD9  3000               	movlw	0
  3447  0FDA  00F2               	movwf	___fladd@b+2
  3448  0FDB  3000               	movlw	0
  3449  0FDC  00F1               	movwf	___fladd@b+1
  3450  0FDD  3000               	movlw	0
  3451  0FDE  00F0               	movwf	___fladd@b
  3452  0FDF                     l1907:
  3453  0FDF  087A               	movf	___fladd@bexp,w
  3454  0FE0  1D03               	btfss	3,2
  3455  0FE1  2FE3               	goto	u1741
  3456  0FE2  2FE4               	goto	u1740
  3457  0FE3                     u1741:
  3458  0FE3  2FE5               	goto	l1911
  3459  0FE4                     u1740:
  3460  0FE4                     l1909:
  3461  0FE4  01F8               	clrf	___fladd@signs
  3462  0FE5                     l1911:
  3463  0FE5  1C7A               	btfss	___fladd@bexp,0
  3464  0FE6  2FE8               	goto	u1751
  3465  0FE7  2FE9               	goto	u1750
  3466  0FE8                     u1751:
  3467  0FE8  2FEB               	goto	l1915
  3468  0FE9                     u1750:
  3469  0FE9                     l1913:
  3470  0FE9  17F2               	bsf	___fladd@b+2,7
  3471  0FEA  2FF1               	goto	l669
  3472  0FEB                     l1915:
  3473  0FEB  307F               	movlw	127
  3474  0FEC  1283               	bcf	3,5	;RP0=0, select bank0
  3475  0FED  1303               	bcf	3,6	;RP1=0, select bank0
  3476  0FEE  00A0               	movwf	??___fladd
  3477  0FEF  0820               	movf	??___fladd,w
  3478  0FF0  05F2               	andwf	___fladd@b+2,f
  3479  0FF1                     l669:
  3480  0FF1  087A               	movf	___fladd@bexp,w
  3481  0FF2  1283               	bcf	3,5	;RP0=0, select bank0
  3482  0FF3  1303               	bcf	3,6	;RP1=0, select bank0
  3483  0FF4  00A0               	movwf	??___fladd
  3484  0FF5  1003               	clrc
  3485  0FF6  0C20               	rrf	??___fladd,w
  3486  0FF7  00A1               	movwf	??___fladd+1
  3487  0FF8  0821               	movf	??___fladd+1,w
  3488  0FF9  00F3               	movwf	___fladd@b+3
  3489  0FFA                     l1917:
  3490  0FFA  1FF8               	btfss	___fladd@signs,7
  3491  0FFB  2FFD               	goto	u1761
  3492  0FFC  2FFE               	goto	u1760
  3493  0FFD                     u1761:
  3494  0FFD  2FFF               	goto	l670
  3495  0FFE                     u1760:
  3496  0FFE                     l1919:
  3497  0FFE  17F3               	bsf	___fladd@b+3,7
  3498  0FFF                     l670:
  3499  0FFF                     l640:
  3500  0FFF  0008               	return
  3501  1000                     __end_of___fladd:
  3502                           
  3503                           	psect	text6
  3504  045F                     __ptext6:	
  3505 ;; *************** function ___flmul *****************
  3506 ;; Defined at:
  3507 ;;		line 8 in file "C:\Program Files\Microchip\xc8\v2.32\pic\sources\c90\common\sprcmul.c"
  3508 ;; Parameters:    Size  Location     Type
  3509 ;;  b               4    0[BANK0 ] unsigned char 
  3510 ;;  a               4    4[BANK0 ] unsigned char 
  3511 ;; Auto vars:     Size  Location     Type
  3512 ;;  prod            4   15[BANK0 ] struct .
  3513 ;;  grs             4    9[BANK0 ] unsigned long 
  3514 ;;  temp            2   19[BANK0 ] struct .
  3515 ;;  bexp            1   14[BANK0 ] unsigned char 
  3516 ;;  aexp            1   13[BANK0 ] unsigned char 
  3517 ;;  sign            1    8[BANK0 ] unsigned char 
  3518 ;; Return value:  Size  Location     Type
  3519 ;;                  4    0[BANK0 ] unsigned char 
  3520 ;; Registers used:
  3521 ;;		wreg, status,2, status,0, btemp+1, pclath, cstack
  3522 ;; Tracked objects:
  3523 ;;		On entry : 0/0
  3524 ;;		On exit  : 0/0
  3525 ;;		Unchanged: 0/0
  3526 ;; Data sizes:     COMMON   BANK0   BANK1   BANK3   BANK2
  3527 ;;      Params:         0       8       0       0       0
  3528 ;;      Locals:         0      13       0       0       0
  3529 ;;      Temps:          5       0       0       0       0
  3530 ;;      Totals:         5      21       0       0       0
  3531 ;;Total ram usage:       26 bytes
  3532 ;; Hardware stack levels used: 1
  3533 ;; Hardware stack levels required when called: 1
  3534 ;; This function calls:
  3535 ;;		__Umul8_16
  3536 ;; This function is called by:
  3537 ;;		_liga_buzzer
  3538 ;; This function uses a non-reentrant model
  3539 ;;
  3540                           
  3541                           
  3542                           ;psect for function ___flmul
  3543  045F                     ___flmul:
  3544  045F                     l1971:	
  3545                           ;incstack = 0
  3546                           ; Regs used in ___flmul: [wreg+status,2+status,0+btemp+1+pclath+cstack]
  3547                           
  3548  045F  1283               	bcf	3,5	;RP0=0, select bank0
  3549  0460  1303               	bcf	3,6	;RP1=0, select bank0
  3550  0461  0823               	movf	___flmul@b+3,w
  3551  0462  3980               	andlw	128
  3552  0463  00F9               	movwf	??___flmul
  3553  0464  0879               	movf	??___flmul,w
  3554  0465  00A8               	movwf	___flmul@sign
  3555  0466                     l1973:
  3556  0466  0823               	movf	___flmul@b+3,w
  3557  0467  00F9               	movwf	??___flmul
  3558  0468  0779               	addwf	??___flmul,w
  3559  0469  00FA               	movwf	??___flmul+1
  3560  046A  087A               	movf	??___flmul+1,w
  3561  046B  00AE               	movwf	___flmul@bexp
  3562  046C                     l1975:
  3563  046C  1FA2               	btfss	___flmul@b+2,7
  3564  046D  2C6F               	goto	u1881
  3565  046E  2C70               	goto	u1880
  3566  046F                     u1881:
  3567  046F  2C71               	goto	l1979
  3568  0470                     u1880:
  3569  0470                     l1977:
  3570  0470  142E               	bsf	___flmul@bexp,0
  3571  0471                     l1979:
  3572  0471  082E               	movf	___flmul@bexp,w
  3573  0472  1903               	btfsc	3,2
  3574  0473  2C75               	goto	u1891
  3575  0474  2C76               	goto	u1890
  3576  0475                     u1891:
  3577  0475  2C85               	goto	l1987
  3578  0476                     u1890:
  3579  0476                     l1981:
  3580  0476  0A2E               	incf	___flmul@bexp,w
  3581  0477  1D03               	btfss	3,2
  3582  0478  2C7A               	goto	u1901
  3583  0479  2C7B               	goto	u1900
  3584  047A                     u1901:
  3585  047A  2C83               	goto	l1985
  3586  047B                     u1900:
  3587  047B                     l1983:
  3588  047B  3000               	movlw	0
  3589  047C  00A3               	movwf	___flmul@b+3
  3590  047D  3000               	movlw	0
  3591  047E  00A2               	movwf	___flmul@b+2
  3592  047F  3000               	movlw	0
  3593  0480  00A1               	movwf	___flmul@b+1
  3594  0481  3000               	movlw	0
  3595  0482  00A0               	movwf	___flmul@b
  3596  0483                     l1985:
  3597  0483  17A2               	bsf	___flmul@b+2,7
  3598  0484  2C8D               	goto	l1989
  3599  0485                     l1987:
  3600  0485  3000               	movlw	0
  3601  0486  00A3               	movwf	___flmul@b+3
  3602  0487  3000               	movlw	0
  3603  0488  00A2               	movwf	___flmul@b+2
  3604  0489  3000               	movlw	0
  3605  048A  00A1               	movwf	___flmul@b+1
  3606  048B  3000               	movlw	0
  3607  048C  00A0               	movwf	___flmul@b
  3608  048D                     l1989:
  3609  048D  0827               	movf	___flmul@a+3,w
  3610  048E  3980               	andlw	128
  3611  048F  00F9               	movwf	??___flmul
  3612  0490  0879               	movf	??___flmul,w
  3613  0491  06A8               	xorwf	___flmul@sign,f
  3614  0492                     l1991:
  3615  0492  0827               	movf	___flmul@a+3,w
  3616  0493  00F9               	movwf	??___flmul
  3617  0494  0779               	addwf	??___flmul,w
  3618  0495  00FA               	movwf	??___flmul+1
  3619  0496  087A               	movf	??___flmul+1,w
  3620  0497  00AD               	movwf	___flmul@aexp
  3621  0498                     l1993:
  3622  0498  1FA6               	btfss	___flmul@a+2,7
  3623  0499  2C9B               	goto	u1911
  3624  049A  2C9C               	goto	u1910
  3625  049B                     u1911:
  3626  049B  2C9D               	goto	l1997
  3627  049C                     u1910:
  3628  049C                     l1995:
  3629  049C  142D               	bsf	___flmul@aexp,0
  3630  049D                     l1997:
  3631  049D  082D               	movf	___flmul@aexp,w
  3632  049E  1903               	btfsc	3,2
  3633  049F  2CA1               	goto	u1921
  3634  04A0  2CA2               	goto	u1920
  3635  04A1                     u1921:
  3636  04A1  2CB1               	goto	l2005
  3637  04A2                     u1920:
  3638  04A2                     l1999:
  3639  04A2  0A2D               	incf	___flmul@aexp,w
  3640  04A3  1D03               	btfss	3,2
  3641  04A4  2CA6               	goto	u1931
  3642  04A5  2CA7               	goto	u1930
  3643  04A6                     u1931:
  3644  04A6  2CAF               	goto	l2003
  3645  04A7                     u1930:
  3646  04A7                     l2001:
  3647  04A7  3000               	movlw	0
  3648  04A8  00A7               	movwf	___flmul@a+3
  3649  04A9  3000               	movlw	0
  3650  04AA  00A6               	movwf	___flmul@a+2
  3651  04AB  3000               	movlw	0
  3652  04AC  00A5               	movwf	___flmul@a+1
  3653  04AD  3000               	movlw	0
  3654  04AE  00A4               	movwf	___flmul@a
  3655  04AF                     l2003:
  3656  04AF  17A6               	bsf	___flmul@a+2,7
  3657  04B0  2CB9               	goto	l2007
  3658  04B1                     l2005:
  3659  04B1  3000               	movlw	0
  3660  04B2  00A7               	movwf	___flmul@a+3
  3661  04B3  3000               	movlw	0
  3662  04B4  00A6               	movwf	___flmul@a+2
  3663  04B5  3000               	movlw	0
  3664  04B6  00A5               	movwf	___flmul@a+1
  3665  04B7  3000               	movlw	0
  3666  04B8  00A4               	movwf	___flmul@a
  3667  04B9                     l2007:
  3668  04B9  082D               	movf	___flmul@aexp,w
  3669  04BA  1903               	btfsc	3,2
  3670  04BB  2CBD               	goto	u1941
  3671  04BC  2CBE               	goto	u1940
  3672  04BD                     u1941:
  3673  04BD  2CC3               	goto	l2011
  3674  04BE                     u1940:
  3675  04BE                     l2009:
  3676  04BE  082E               	movf	___flmul@bexp,w
  3677  04BF  1D03               	btfss	3,2
  3678  04C0  2CC2               	goto	u1951
  3679  04C1  2CC3               	goto	u1950
  3680  04C2                     u1951:
  3681  04C2  2CCC               	goto	l2015
  3682  04C3                     u1950:
  3683  04C3                     l2011:
  3684  04C3  3000               	movlw	0
  3685  04C4  00A3               	movwf	?___flmul+3
  3686  04C5  3000               	movlw	0
  3687  04C6  00A2               	movwf	?___flmul+2
  3688  04C7  3000               	movlw	0
  3689  04C8  00A1               	movwf	?___flmul+1
  3690  04C9  3000               	movlw	0
  3691  04CA  00A0               	movwf	?___flmul
  3692  04CB  2FBF               	goto	l723
  3693  04CC                     l2015:
  3694  04CC  0820               	movf	___flmul@b,w
  3695  04CD  00F9               	movwf	??___flmul
  3696  04CE  0879               	movf	??___flmul,w
  3697  04CF  00F0               	movwf	__Umul8_16@multiplicand
  3698  04D0  0826               	movf	___flmul@a+2,w
  3699  04D1  120A  158A  22EB  120A  118A  	fcall	__Umul8_16
  3700  04D6  0871               	movf	?__Umul8_16+1,w
  3701  04D7  1283               	bcf	3,5	;RP0=0, select bank0
  3702  04D8  1303               	bcf	3,6	;RP1=0, select bank0
  3703  04D9  00B4               	movwf	___flmul@temp+1
  3704  04DA  0870               	movf	?__Umul8_16,w
  3705  04DB  00B3               	movwf	___flmul@temp
  3706  04DC                     l2017:
  3707  04DC  0833               	movf	___flmul@temp,w
  3708  04DD  00F9               	movwf	??___flmul
  3709  04DE  01FA               	clrf	??___flmul+1
  3710  04DF  01FB               	clrf	??___flmul+2
  3711  04E0  01FC               	clrf	??___flmul+3
  3712  04E1  087C               	movf	??___flmul+3,w
  3713  04E2  00AC               	movwf	___flmul@grs+3
  3714  04E3  087B               	movf	??___flmul+2,w
  3715  04E4  00AB               	movwf	___flmul@grs+2
  3716  04E5  087A               	movf	??___flmul+1,w
  3717  04E6  00AA               	movwf	___flmul@grs+1
  3718  04E7  0879               	movf	??___flmul,w
  3719  04E8  00A9               	movwf	___flmul@grs
  3720  04E9                     l2019:
  3721  04E9  0834               	movf	___flmul@temp+1,w
  3722  04EA  00F9               	movwf	??___flmul
  3723  04EB  01FA               	clrf	??___flmul+1
  3724  04EC  01FB               	clrf	??___flmul+2
  3725  04ED  01FC               	clrf	??___flmul+3
  3726  04EE  087C               	movf	??___flmul+3,w
  3727  04EF  00B2               	movwf	___flmul@prod+3
  3728  04F0  087B               	movf	??___flmul+2,w
  3729  04F1  00B1               	movwf	___flmul@prod+2
  3730  04F2  087A               	movf	??___flmul+1,w
  3731  04F3  00B0               	movwf	___flmul@prod+1
  3732  04F4  0879               	movf	??___flmul,w
  3733  04F5  00AF               	movwf	___flmul@prod
  3734  04F6  0821               	movf	___flmul@b+1,w
  3735  04F7  00F9               	movwf	??___flmul
  3736  04F8  0879               	movf	??___flmul,w
  3737  04F9  00F0               	movwf	__Umul8_16@multiplicand
  3738  04FA  0825               	movf	___flmul@a+1,w
  3739  04FB  120A  158A  22EB  120A  118A  	fcall	__Umul8_16
  3740  0500  0871               	movf	?__Umul8_16+1,w
  3741  0501  1283               	bcf	3,5	;RP0=0, select bank0
  3742  0502  1303               	bcf	3,6	;RP1=0, select bank0
  3743  0503  00B4               	movwf	___flmul@temp+1
  3744  0504  0870               	movf	?__Umul8_16,w
  3745  0505  00B3               	movwf	___flmul@temp
  3746  0506                     l2021:
  3747  0506  0833               	movf	___flmul@temp,w
  3748  0507  00F9               	movwf	??___flmul
  3749  0508  01FA               	clrf	??___flmul+1
  3750  0509  01FB               	clrf	??___flmul+2
  3751  050A  01FC               	clrf	??___flmul+3
  3752  050B  0879               	movf	??___flmul,w
  3753  050C  07A9               	addwf	___flmul@grs,f
  3754  050D  087A               	movf	??___flmul+1,w
  3755  050E  1103               	clrz
  3756  050F  1803               	skipnc
  3757  0510  3E01               	addlw	1
  3758  0511  1903               	skipnz
  3759  0512  2D14               	goto	u1961
  3760  0513  07AA               	addwf	___flmul@grs+1,f
  3761  0514                     u1961:
  3762  0514  087B               	movf	??___flmul+2,w
  3763  0515  1103               	clrz
  3764  0516  1803               	skipnc
  3765  0517  3E01               	addlw	1
  3766  0518  1903               	skipnz
  3767  0519  2D1B               	goto	u1962
  3768  051A  07AB               	addwf	___flmul@grs+2,f
  3769  051B                     u1962:
  3770  051B  087C               	movf	??___flmul+3,w
  3771  051C  1103               	clrz
  3772  051D  1803               	skipnc
  3773  051E  3E01               	addlw	1
  3774  051F  1903               	skipnz
  3775  0520  2D22               	goto	u1963
  3776  0521  07AC               	addwf	___flmul@grs+3,f
  3777  0522                     u1963:
  3778  0522                     l2023:
  3779  0522  0834               	movf	___flmul@temp+1,w
  3780  0523  00F9               	movwf	??___flmul
  3781  0524  01FA               	clrf	??___flmul+1
  3782  0525  01FB               	clrf	??___flmul+2
  3783  0526  01FC               	clrf	??___flmul+3
  3784  0527  0879               	movf	??___flmul,w
  3785  0528  07AF               	addwf	___flmul@prod,f
  3786  0529  087A               	movf	??___flmul+1,w
  3787  052A  1103               	clrz
  3788  052B  1803               	skipnc
  3789  052C  3E01               	addlw	1
  3790  052D  1903               	skipnz
  3791  052E  2D30               	goto	u1971
  3792  052F  07B0               	addwf	___flmul@prod+1,f
  3793  0530                     u1971:
  3794  0530  087B               	movf	??___flmul+2,w
  3795  0531  1103               	clrz
  3796  0532  1803               	skipnc
  3797  0533  3E01               	addlw	1
  3798  0534  1903               	skipnz
  3799  0535  2D37               	goto	u1972
  3800  0536  07B1               	addwf	___flmul@prod+2,f
  3801  0537                     u1972:
  3802  0537  087C               	movf	??___flmul+3,w
  3803  0538  1103               	clrz
  3804  0539  1803               	skipnc
  3805  053A  3E01               	addlw	1
  3806  053B  1903               	skipnz
  3807  053C  2D3E               	goto	u1973
  3808  053D  07B2               	addwf	___flmul@prod+3,f
  3809  053E                     u1973:
  3810  053E  0822               	movf	___flmul@b+2,w
  3811  053F  00F9               	movwf	??___flmul
  3812  0540  0879               	movf	??___flmul,w
  3813  0541  00F0               	movwf	__Umul8_16@multiplicand
  3814  0542  0824               	movf	___flmul@a,w
  3815  0543  120A  158A  22EB  120A  118A  	fcall	__Umul8_16
  3816  0548  0871               	movf	?__Umul8_16+1,w
  3817  0549  1283               	bcf	3,5	;RP0=0, select bank0
  3818  054A  1303               	bcf	3,6	;RP1=0, select bank0
  3819  054B  00B4               	movwf	___flmul@temp+1
  3820  054C  0870               	movf	?__Umul8_16,w
  3821  054D  00B3               	movwf	___flmul@temp
  3822  054E                     l2025:
  3823  054E  0833               	movf	___flmul@temp,w
  3824  054F  00F9               	movwf	??___flmul
  3825  0550  01FA               	clrf	??___flmul+1
  3826  0551  01FB               	clrf	??___flmul+2
  3827  0552  01FC               	clrf	??___flmul+3
  3828  0553  0879               	movf	??___flmul,w
  3829  0554  07A9               	addwf	___flmul@grs,f
  3830  0555  087A               	movf	??___flmul+1,w
  3831  0556  1103               	clrz
  3832  0557  1803               	skipnc
  3833  0558  3E01               	addlw	1
  3834  0559  1903               	skipnz
  3835  055A  2D5C               	goto	u1981
  3836  055B  07AA               	addwf	___flmul@grs+1,f
  3837  055C                     u1981:
  3838  055C  087B               	movf	??___flmul+2,w
  3839  055D  1103               	clrz
  3840  055E  1803               	skipnc
  3841  055F  3E01               	addlw	1
  3842  0560  1903               	skipnz
  3843  0561  2D63               	goto	u1982
  3844  0562  07AB               	addwf	___flmul@grs+2,f
  3845  0563                     u1982:
  3846  0563  087C               	movf	??___flmul+3,w
  3847  0564  1103               	clrz
  3848  0565  1803               	skipnc
  3849  0566  3E01               	addlw	1
  3850  0567  1903               	skipnz
  3851  0568  2D6A               	goto	u1983
  3852  0569  07AC               	addwf	___flmul@grs+3,f
  3853  056A                     u1983:
  3854  056A                     l2027:
  3855  056A  0834               	movf	___flmul@temp+1,w
  3856  056B  00F9               	movwf	??___flmul
  3857  056C  01FA               	clrf	??___flmul+1
  3858  056D  01FB               	clrf	??___flmul+2
  3859  056E  01FC               	clrf	??___flmul+3
  3860  056F  0879               	movf	??___flmul,w
  3861  0570  07AF               	addwf	___flmul@prod,f
  3862  0571  087A               	movf	??___flmul+1,w
  3863  0572  1103               	clrz
  3864  0573  1803               	skipnc
  3865  0574  3E01               	addlw	1
  3866  0575  1903               	skipnz
  3867  0576  2D78               	goto	u1991
  3868  0577  07B0               	addwf	___flmul@prod+1,f
  3869  0578                     u1991:
  3870  0578  087B               	movf	??___flmul+2,w
  3871  0579  1103               	clrz
  3872  057A  1803               	skipnc
  3873  057B  3E01               	addlw	1
  3874  057C  1903               	skipnz
  3875  057D  2D7F               	goto	u1992
  3876  057E  07B1               	addwf	___flmul@prod+2,f
  3877  057F                     u1992:
  3878  057F  087C               	movf	??___flmul+3,w
  3879  0580  1103               	clrz
  3880  0581  1803               	skipnc
  3881  0582  3E01               	addlw	1
  3882  0583  1903               	skipnz
  3883  0584  2D86               	goto	u1993
  3884  0585  07B2               	addwf	___flmul@prod+3,f
  3885  0586                     u1993:
  3886  0586                     l2029:
  3887  0586  3008               	movlw	8
  3888  0587  00F9               	movwf	??___flmul
  3889  0588                     u2005:
  3890  0588  1003               	clrc
  3891  0589  0DA9               	rlf	___flmul@grs,f
  3892  058A  0DAA               	rlf	___flmul@grs+1,f
  3893  058B  0DAB               	rlf	___flmul@grs+2,f
  3894  058C  0DAC               	rlf	___flmul@grs+3,f
  3895  058D  0BF9               	decfsz	??___flmul,f
  3896  058E  2D88               	goto	u2005
  3897  058F                     l2031:
  3898  058F  0821               	movf	___flmul@b+1,w
  3899  0590  00F9               	movwf	??___flmul
  3900  0591  0879               	movf	??___flmul,w
  3901  0592  00F0               	movwf	__Umul8_16@multiplicand
  3902  0593  0824               	movf	___flmul@a,w
  3903  0594  120A  158A  22EB  120A  118A  	fcall	__Umul8_16
  3904  0599  0871               	movf	?__Umul8_16+1,w
  3905  059A  1283               	bcf	3,5	;RP0=0, select bank0
  3906  059B  1303               	bcf	3,6	;RP1=0, select bank0
  3907  059C  00B4               	movwf	___flmul@temp+1
  3908  059D  0870               	movf	?__Umul8_16,w
  3909  059E  00B3               	movwf	___flmul@temp
  3910  059F                     l2033:
  3911  059F  0833               	movf	___flmul@temp,w
  3912  05A0  00F9               	movwf	??___flmul
  3913  05A1  0834               	movf	___flmul@temp+1,w
  3914  05A2  00FA               	movwf	??___flmul+1
  3915  05A3  01FB               	clrf	??___flmul+2
  3916  05A4  01FC               	clrf	??___flmul+3
  3917  05A5  0879               	movf	??___flmul,w
  3918  05A6  07A9               	addwf	___flmul@grs,f
  3919  05A7  087A               	movf	??___flmul+1,w
  3920  05A8  1103               	clrz
  3921  05A9  1803               	skipnc
  3922  05AA  3E01               	addlw	1
  3923  05AB  1903               	skipnz
  3924  05AC  2DAE               	goto	u2011
  3925  05AD  07AA               	addwf	___flmul@grs+1,f
  3926  05AE                     u2011:
  3927  05AE  087B               	movf	??___flmul+2,w
  3928  05AF  1103               	clrz
  3929  05B0  1803               	skipnc
  3930  05B1  3E01               	addlw	1
  3931  05B2  1903               	skipnz
  3932  05B3  2DB5               	goto	u2012
  3933  05B4  07AB               	addwf	___flmul@grs+2,f
  3934  05B5                     u2012:
  3935  05B5  087C               	movf	??___flmul+3,w
  3936  05B6  1103               	clrz
  3937  05B7  1803               	skipnc
  3938  05B8  3E01               	addlw	1
  3939  05B9  1903               	skipnz
  3940  05BA  2DBC               	goto	u2013
  3941  05BB  07AC               	addwf	___flmul@grs+3,f
  3942  05BC                     u2013:
  3943  05BC                     l2035:
  3944  05BC  0820               	movf	___flmul@b,w
  3945  05BD  00F9               	movwf	??___flmul
  3946  05BE  0879               	movf	??___flmul,w
  3947  05BF  00F0               	movwf	__Umul8_16@multiplicand
  3948  05C0  0825               	movf	___flmul@a+1,w
  3949  05C1  120A  158A  22EB  120A  118A  	fcall	__Umul8_16
  3950  05C6  0871               	movf	?__Umul8_16+1,w
  3951  05C7  1283               	bcf	3,5	;RP0=0, select bank0
  3952  05C8  1303               	bcf	3,6	;RP1=0, select bank0
  3953  05C9  00B4               	movwf	___flmul@temp+1
  3954  05CA  0870               	movf	?__Umul8_16,w
  3955  05CB  00B3               	movwf	___flmul@temp
  3956  05CC                     l2037:
  3957  05CC  0833               	movf	___flmul@temp,w
  3958  05CD  00F9               	movwf	??___flmul
  3959  05CE  0834               	movf	___flmul@temp+1,w
  3960  05CF  00FA               	movwf	??___flmul+1
  3961  05D0  01FB               	clrf	??___flmul+2
  3962  05D1  01FC               	clrf	??___flmul+3
  3963  05D2  0879               	movf	??___flmul,w
  3964  05D3  07A9               	addwf	___flmul@grs,f
  3965  05D4  087A               	movf	??___flmul+1,w
  3966  05D5  1103               	clrz
  3967  05D6  1803               	skipnc
  3968  05D7  3E01               	addlw	1
  3969  05D8  1903               	skipnz
  3970  05D9  2DDB               	goto	u2021
  3971  05DA  07AA               	addwf	___flmul@grs+1,f
  3972  05DB                     u2021:
  3973  05DB  087B               	movf	??___flmul+2,w
  3974  05DC  1103               	clrz
  3975  05DD  1803               	skipnc
  3976  05DE  3E01               	addlw	1
  3977  05DF  1903               	skipnz
  3978  05E0  2DE2               	goto	u2022
  3979  05E1  07AB               	addwf	___flmul@grs+2,f
  3980  05E2                     u2022:
  3981  05E2  087C               	movf	??___flmul+3,w
  3982  05E3  1103               	clrz
  3983  05E4  1803               	skipnc
  3984  05E5  3E01               	addlw	1
  3985  05E6  1903               	skipnz
  3986  05E7  2DE9               	goto	u2023
  3987  05E8  07AC               	addwf	___flmul@grs+3,f
  3988  05E9                     u2023:
  3989  05E9                     l2039:
  3990  05E9  3008               	movlw	8
  3991  05EA  00F9               	movwf	??___flmul
  3992  05EB                     u2035:
  3993  05EB  1003               	clrc
  3994  05EC  0DA9               	rlf	___flmul@grs,f
  3995  05ED  0DAA               	rlf	___flmul@grs+1,f
  3996  05EE  0DAB               	rlf	___flmul@grs+2,f
  3997  05EF  0DAC               	rlf	___flmul@grs+3,f
  3998  05F0  0BF9               	decfsz	??___flmul,f
  3999  05F1  2DEB               	goto	u2035
  4000  05F2  0820               	movf	___flmul@b,w
  4001  05F3  00F9               	movwf	??___flmul
  4002  05F4  0879               	movf	??___flmul,w
  4003  05F5  00F0               	movwf	__Umul8_16@multiplicand
  4004  05F6  0824               	movf	___flmul@a,w
  4005  05F7  120A  158A  22EB  120A  118A  	fcall	__Umul8_16
  4006  05FC  0871               	movf	?__Umul8_16+1,w
  4007  05FD  1283               	bcf	3,5	;RP0=0, select bank0
  4008  05FE  1303               	bcf	3,6	;RP1=0, select bank0
  4009  05FF  00B4               	movwf	___flmul@temp+1
  4010  0600  0870               	movf	?__Umul8_16,w
  4011  0601  00B3               	movwf	___flmul@temp
  4012  0602                     l2041:
  4013  0602  0833               	movf	___flmul@temp,w
  4014  0603  00F9               	movwf	??___flmul
  4015  0604  0834               	movf	___flmul@temp+1,w
  4016  0605  00FA               	movwf	??___flmul+1
  4017  0606  01FB               	clrf	??___flmul+2
  4018  0607  01FC               	clrf	??___flmul+3
  4019  0608  0879               	movf	??___flmul,w
  4020  0609  07A9               	addwf	___flmul@grs,f
  4021  060A  087A               	movf	??___flmul+1,w
  4022  060B  1103               	clrz
  4023  060C  1803               	skipnc
  4024  060D  3E01               	addlw	1
  4025  060E  1903               	skipnz
  4026  060F  2E11               	goto	u2041
  4027  0610  07AA               	addwf	___flmul@grs+1,f
  4028  0611                     u2041:
  4029  0611  087B               	movf	??___flmul+2,w
  4030  0612  1103               	clrz
  4031  0613  1803               	skipnc
  4032  0614  3E01               	addlw	1
  4033  0615  1903               	skipnz
  4034  0616  2E18               	goto	u2042
  4035  0617  07AB               	addwf	___flmul@grs+2,f
  4036  0618                     u2042:
  4037  0618  087C               	movf	??___flmul+3,w
  4038  0619  1103               	clrz
  4039  061A  1803               	skipnc
  4040  061B  3E01               	addlw	1
  4041  061C  1903               	skipnz
  4042  061D  2E1F               	goto	u2043
  4043  061E  07AC               	addwf	___flmul@grs+3,f
  4044  061F                     u2043:
  4045  061F                     l2043:
  4046  061F  0821               	movf	___flmul@b+1,w
  4047  0620  00F9               	movwf	??___flmul
  4048  0621  0879               	movf	??___flmul,w
  4049  0622  00F0               	movwf	__Umul8_16@multiplicand
  4050  0623  0826               	movf	___flmul@a+2,w
  4051  0624  120A  158A  22EB  120A  118A  	fcall	__Umul8_16
  4052  0629  0871               	movf	?__Umul8_16+1,w
  4053  062A  1283               	bcf	3,5	;RP0=0, select bank0
  4054  062B  1303               	bcf	3,6	;RP1=0, select bank0
  4055  062C  00B4               	movwf	___flmul@temp+1
  4056  062D  0870               	movf	?__Umul8_16,w
  4057  062E  00B3               	movwf	___flmul@temp
  4058  062F  0833               	movf	___flmul@temp,w
  4059  0630  00F9               	movwf	??___flmul
  4060  0631  0834               	movf	___flmul@temp+1,w
  4061  0632  00FA               	movwf	??___flmul+1
  4062  0633  01FB               	clrf	??___flmul+2
  4063  0634  01FC               	clrf	??___flmul+3
  4064  0635  0879               	movf	??___flmul,w
  4065  0636  07AF               	addwf	___flmul@prod,f
  4066  0637  087A               	movf	??___flmul+1,w
  4067  0638  1103               	clrz
  4068  0639  1803               	skipnc
  4069  063A  3E01               	addlw	1
  4070  063B  1903               	skipnz
  4071  063C  2E3E               	goto	u2051
  4072  063D  07B0               	addwf	___flmul@prod+1,f
  4073  063E                     u2051:
  4074  063E  087B               	movf	??___flmul+2,w
  4075  063F  1103               	clrz
  4076  0640  1803               	skipnc
  4077  0641  3E01               	addlw	1
  4078  0642  1903               	skipnz
  4079  0643  2E45               	goto	u2052
  4080  0644  07B1               	addwf	___flmul@prod+2,f
  4081  0645                     u2052:
  4082  0645  087C               	movf	??___flmul+3,w
  4083  0646  1103               	clrz
  4084  0647  1803               	skipnc
  4085  0648  3E01               	addlw	1
  4086  0649  1903               	skipnz
  4087  064A  2E4C               	goto	u2053
  4088  064B  07B2               	addwf	___flmul@prod+3,f
  4089  064C                     u2053:
  4090  064C                     l2045:
  4091  064C  0822               	movf	___flmul@b+2,w
  4092  064D  00F9               	movwf	??___flmul
  4093  064E  0879               	movf	??___flmul,w
  4094  064F  00F0               	movwf	__Umul8_16@multiplicand
  4095  0650  0825               	movf	___flmul@a+1,w
  4096  0651  120A  158A  22EB  120A  118A  	fcall	__Umul8_16
  4097  0656  0871               	movf	?__Umul8_16+1,w
  4098  0657  1283               	bcf	3,5	;RP0=0, select bank0
  4099  0658  1303               	bcf	3,6	;RP1=0, select bank0
  4100  0659  00B4               	movwf	___flmul@temp+1
  4101  065A  0870               	movf	?__Umul8_16,w
  4102  065B  00B3               	movwf	___flmul@temp
  4103  065C                     l2047:
  4104  065C  0833               	movf	___flmul@temp,w
  4105  065D  00F9               	movwf	??___flmul
  4106  065E  0834               	movf	___flmul@temp+1,w
  4107  065F  00FA               	movwf	??___flmul+1
  4108  0660  01FB               	clrf	??___flmul+2
  4109  0661  01FC               	clrf	??___flmul+3
  4110  0662  0879               	movf	??___flmul,w
  4111  0663  07AF               	addwf	___flmul@prod,f
  4112  0664  087A               	movf	??___flmul+1,w
  4113  0665  1103               	clrz
  4114  0666  1803               	skipnc
  4115  0667  3E01               	addlw	1
  4116  0668  1903               	skipnz
  4117  0669  2E6B               	goto	u2061
  4118  066A  07B0               	addwf	___flmul@prod+1,f
  4119  066B                     u2061:
  4120  066B  087B               	movf	??___flmul+2,w
  4121  066C  1103               	clrz
  4122  066D  1803               	skipnc
  4123  066E  3E01               	addlw	1
  4124  066F  1903               	skipnz
  4125  0670  2E72               	goto	u2062
  4126  0671  07B1               	addwf	___flmul@prod+2,f
  4127  0672                     u2062:
  4128  0672  087C               	movf	??___flmul+3,w
  4129  0673  1103               	clrz
  4130  0674  1803               	skipnc
  4131  0675  3E01               	addlw	1
  4132  0676  1903               	skipnz
  4133  0677  2E79               	goto	u2063
  4134  0678  07B2               	addwf	___flmul@prod+3,f
  4135  0679                     u2063:
  4136  0679  0822               	movf	___flmul@b+2,w
  4137  067A  00F9               	movwf	??___flmul
  4138  067B  0879               	movf	??___flmul,w
  4139  067C  00F0               	movwf	__Umul8_16@multiplicand
  4140  067D  0826               	movf	___flmul@a+2,w
  4141  067E  120A  158A  22EB  120A  118A  	fcall	__Umul8_16
  4142  0683  0871               	movf	?__Umul8_16+1,w
  4143  0684  1283               	bcf	3,5	;RP0=0, select bank0
  4144  0685  1303               	bcf	3,6	;RP1=0, select bank0
  4145  0686  00B4               	movwf	___flmul@temp+1
  4146  0687  0870               	movf	?__Umul8_16,w
  4147  0688  00B3               	movwf	___flmul@temp
  4148  0689                     l2049:
  4149  0689  0833               	movf	___flmul@temp,w
  4150  068A  00F9               	movwf	??___flmul
  4151  068B  0834               	movf	___flmul@temp+1,w
  4152  068C  00FA               	movwf	??___flmul+1
  4153  068D  01FB               	clrf	??___flmul+2
  4154  068E  01FC               	clrf	??___flmul+3
  4155  068F  3008               	movlw	8
  4156  0690                     u2075:
  4157  0690  1003               	clrc
  4158  0691  0DF9               	rlf	??___flmul,f
  4159  0692  0DFA               	rlf	??___flmul+1,f
  4160  0693  0DFB               	rlf	??___flmul+2,f
  4161  0694  0DFC               	rlf	??___flmul+3,f
  4162  0695                     u2070:
  4163  0695  3EFF               	addlw	-1
  4164  0696  1D03               	skipz
  4165  0697  2E90               	goto	u2075
  4166  0698  0879               	movf	??___flmul,w
  4167  0699  07AF               	addwf	___flmul@prod,f
  4168  069A  087A               	movf	??___flmul+1,w
  4169  069B  1103               	clrz
  4170  069C  1803               	skipnc
  4171  069D  3E01               	addlw	1
  4172  069E  1903               	skipnz
  4173  069F  2EA1               	goto	u2081
  4174  06A0  07B0               	addwf	___flmul@prod+1,f
  4175  06A1                     u2081:
  4176  06A1  087B               	movf	??___flmul+2,w
  4177  06A2  1103               	clrz
  4178  06A3  1803               	skipnc
  4179  06A4  3E01               	addlw	1
  4180  06A5  1903               	skipnz
  4181  06A6  2EA8               	goto	u2082
  4182  06A7  07B1               	addwf	___flmul@prod+2,f
  4183  06A8                     u2082:
  4184  06A8  087C               	movf	??___flmul+3,w
  4185  06A9  1103               	clrz
  4186  06AA  1803               	skipnc
  4187  06AB  3E01               	addlw	1
  4188  06AC  1903               	skipnz
  4189  06AD  2EAF               	goto	u2083
  4190  06AE  07B2               	addwf	___flmul@prod+3,f
  4191  06AF                     u2083:
  4192  06AF                     l2051:
  4193  06AF  0829               	movf	___flmul@grs,w
  4194  06B0  00F9               	movwf	??___flmul
  4195  06B1  082A               	movf	___flmul@grs+1,w
  4196  06B2  00FA               	movwf	??___flmul+1
  4197  06B3  082B               	movf	___flmul@grs+2,w
  4198  06B4  00FB               	movwf	??___flmul+2
  4199  06B5  082C               	movf	___flmul@grs+3,w
  4200  06B6  00FC               	movwf	??___flmul+3
  4201  06B7  3018               	movlw	24
  4202  06B8                     u2095:
  4203  06B8  1003               	clrc
  4204  06B9  0CFC               	rrf	??___flmul+3,f
  4205  06BA  0CFB               	rrf	??___flmul+2,f
  4206  06BB  0CFA               	rrf	??___flmul+1,f
  4207  06BC  0CF9               	rrf	??___flmul,f
  4208  06BD                     u2090:
  4209  06BD  3EFF               	addlw	-1
  4210  06BE  1D03               	skipz
  4211  06BF  2EB8               	goto	u2095
  4212  06C0  0879               	movf	??___flmul,w
  4213  06C1  07AF               	addwf	___flmul@prod,f
  4214  06C2  087A               	movf	??___flmul+1,w
  4215  06C3  1103               	clrz
  4216  06C4  1803               	skipnc
  4217  06C5  3E01               	addlw	1
  4218  06C6  1903               	skipnz
  4219  06C7  2EC9               	goto	u2101
  4220  06C8  07B0               	addwf	___flmul@prod+1,f
  4221  06C9                     u2101:
  4222  06C9  087B               	movf	??___flmul+2,w
  4223  06CA  1103               	clrz
  4224  06CB  1803               	skipnc
  4225  06CC  3E01               	addlw	1
  4226  06CD  1903               	skipnz
  4227  06CE  2ED0               	goto	u2102
  4228  06CF  07B1               	addwf	___flmul@prod+2,f
  4229  06D0                     u2102:
  4230  06D0  087C               	movf	??___flmul+3,w
  4231  06D1  1103               	clrz
  4232  06D2  1803               	skipnc
  4233  06D3  3E01               	addlw	1
  4234  06D4  1903               	skipnz
  4235  06D5  2ED7               	goto	u2103
  4236  06D6  07B2               	addwf	___flmul@prod+3,f
  4237  06D7                     u2103:
  4238  06D7                     l2053:
  4239  06D7  3008               	movlw	8
  4240  06D8  00F9               	movwf	??___flmul
  4241  06D9                     u2115:
  4242  06D9  1003               	clrc
  4243  06DA  0DA9               	rlf	___flmul@grs,f
  4244  06DB  0DAA               	rlf	___flmul@grs+1,f
  4245  06DC  0DAB               	rlf	___flmul@grs+2,f
  4246  06DD  0DAC               	rlf	___flmul@grs+3,f
  4247  06DE  0BF9               	decfsz	??___flmul,f
  4248  06DF  2ED9               	goto	u2115
  4249  06E0                     l2055:
  4250  06E0  082E               	movf	___flmul@bexp,w
  4251  06E1  072D               	addwf	___flmul@aexp,w
  4252  06E2  00F9               	movwf	??___flmul
  4253  06E3  01FA               	clrf	??___flmul+1
  4254  06E4  0DFA               	rlf	??___flmul+1,f
  4255  06E5  0879               	movf	??___flmul,w
  4256  06E6  3E82               	addlw	130
  4257  06E7  00B3               	movwf	___flmul@temp
  4258  06E8  087A               	movf	??___flmul+1,w
  4259  06E9  1803               	skipnc
  4260  06EA  3E01               	addlw	1
  4261  06EB  3EFF               	addlw	255
  4262  06EC  00B4               	movwf	___flmul@temp+1
  4263  06ED  2F0B               	goto	l2067
  4264  06EE                     l2057:
  4265  06EE  3001               	movlw	1
  4266  06EF  00F9               	movwf	??___flmul
  4267  06F0                     u2125:
  4268  06F0  1003               	clrc
  4269  06F1  0DAF               	rlf	___flmul@prod,f
  4270  06F2  0DB0               	rlf	___flmul@prod+1,f
  4271  06F3  0DB1               	rlf	___flmul@prod+2,f
  4272  06F4  0DB2               	rlf	___flmul@prod+3,f
  4273  06F5  0BF9               	decfsz	??___flmul,f
  4274  06F6  2EF0               	goto	u2125
  4275  06F7                     l2059:
  4276  06F7  1FAC               	btfss	___flmul@grs+3,7
  4277  06F8  2EFA               	goto	u2131
  4278  06F9  2EFB               	goto	u2130
  4279  06FA                     u2131:
  4280  06FA  2EFC               	goto	l2063
  4281  06FB                     u2130:
  4282  06FB                     l2061:
  4283  06FB  142F               	bsf	___flmul@prod,0
  4284  06FC                     l2063:
  4285  06FC  3001               	movlw	1
  4286  06FD  00F9               	movwf	??___flmul
  4287  06FE                     u2145:
  4288  06FE  1003               	clrc
  4289  06FF  0DA9               	rlf	___flmul@grs,f
  4290  0700  0DAA               	rlf	___flmul@grs+1,f
  4291  0701  0DAB               	rlf	___flmul@grs+2,f
  4292  0702  0DAC               	rlf	___flmul@grs+3,f
  4293  0703  0BF9               	decfsz	??___flmul,f
  4294  0704  2EFE               	goto	u2145
  4295  0705                     l2065:
  4296  0705  30FF               	movlw	255
  4297  0706  07B3               	addwf	___flmul@temp,f
  4298  0707  1803               	skipnc
  4299  0708  0AB4               	incf	___flmul@temp+1,f
  4300  0709  30FF               	movlw	255
  4301  070A  07B4               	addwf	___flmul@temp+1,f
  4302  070B                     l2067:
  4303  070B  1FB1               	btfss	___flmul@prod+2,7
  4304  070C  2F0E               	goto	u2151
  4305  070D  2F0F               	goto	u2150
  4306  070E                     u2151:
  4307  070E  2EEE               	goto	l2057
  4308  070F                     u2150:
  4309  070F                     l2069:
  4310  070F  01AD               	clrf	___flmul@aexp
  4311  0710                     l2071:
  4312  0710  1FAC               	btfss	___flmul@grs+3,7
  4313  0711  2F13               	goto	u2161
  4314  0712  2F14               	goto	u2160
  4315  0713                     u2161:
  4316  0713  2F30               	goto	l2079
  4317  0714                     u2160:
  4318  0714                     l2073:
  4319  0714  30FF               	movlw	255
  4320  0715  0529               	andwf	___flmul@grs,w
  4321  0716  00F9               	movwf	??___flmul
  4322  0717  30FF               	movlw	255
  4323  0718  052A               	andwf	___flmul@grs+1,w
  4324  0719  00FA               	movwf	??___flmul+1
  4325  071A  30FF               	movlw	255
  4326  071B  052B               	andwf	___flmul@grs+2,w
  4327  071C  00FB               	movwf	??___flmul+2
  4328  071D  307F               	movlw	127
  4329  071E  052C               	andwf	___flmul@grs+3,w
  4330  071F  00FC               	movwf	??___flmul+3
  4331  0720  087C               	movf	??___flmul+3,w
  4332  0721  047B               	iorwf	??___flmul+2,w
  4333  0722  047A               	iorwf	??___flmul+1,w
  4334  0723  0479               	iorwf	??___flmul,w
  4335  0724  1903               	skipnz
  4336  0725  2F27               	goto	u2171
  4337  0726  2F28               	goto	u2170
  4338  0727                     u2171:
  4339  0727  2F2B               	goto	l729
  4340  0728                     u2170:
  4341  0728                     l2075:
  4342  0728  01AD               	clrf	___flmul@aexp
  4343  0729  0AAD               	incf	___flmul@aexp,f
  4344  072A  2F30               	goto	l2079
  4345  072B                     l729:
  4346  072B  1C2F               	btfss	___flmul@prod,0
  4347  072C  2F2E               	goto	u2181
  4348  072D  2F2F               	goto	u2180
  4349  072E                     u2181:
  4350  072E  2F30               	goto	l2079
  4351  072F                     u2180:
  4352  072F  2F28               	goto	l2075
  4353  0730                     l2079:
  4354  0730  082D               	movf	___flmul@aexp,w
  4355  0731  1903               	btfsc	3,2
  4356  0732  2F34               	goto	u2191
  4357  0733  2F35               	goto	u2190
  4358  0734                     u2191:
  4359  0734  2F66               	goto	l2089
  4360  0735                     u2190:
  4361  0735                     l2081:
  4362  0735  3001               	movlw	1
  4363  0736  07AF               	addwf	___flmul@prod,f
  4364  0737  3000               	movlw	0
  4365  0738  1803               	skipnc
  4366  0739  3001               	movlw	1
  4367  073A  07B0               	addwf	___flmul@prod+1,f
  4368  073B  3000               	movlw	0
  4369  073C  1803               	skipnc
  4370  073D  3001               	movlw	1
  4371  073E  07B1               	addwf	___flmul@prod+2,f
  4372  073F  3000               	movlw	0
  4373  0740  1803               	skipnc
  4374  0741  3001               	movlw	1
  4375  0742  07B2               	addwf	___flmul@prod+3,f
  4376  0743                     l2083:
  4377  0743  1C32               	btfss	___flmul@prod+3,0
  4378  0744  2F46               	goto	u2201
  4379  0745  2F47               	goto	u2200
  4380  0746                     u2201:
  4381  0746  2F66               	goto	l2089
  4382  0747                     u2200:
  4383  0747                     l2085:
  4384  0747  082F               	movf	___flmul@prod,w
  4385  0748  00F9               	movwf	??___flmul
  4386  0749  0830               	movf	___flmul@prod+1,w
  4387  074A  00FA               	movwf	??___flmul+1
  4388  074B  0831               	movf	___flmul@prod+2,w
  4389  074C  00FB               	movwf	??___flmul+2
  4390  074D  0832               	movf	___flmul@prod+3,w
  4391  074E  00FC               	movwf	??___flmul+3
  4392  074F  3001               	movlw	1
  4393  0750  00FD               	movwf	??___flmul+4
  4394  0751                     u2215:
  4395  0751  0D7C               	rlf	??___flmul+3,w
  4396  0752  0CFC               	rrf	??___flmul+3,f
  4397  0753  0CFB               	rrf	??___flmul+2,f
  4398  0754  0CFA               	rrf	??___flmul+1,f
  4399  0755  0CF9               	rrf	??___flmul,f
  4400  0756                     u2210:
  4401  0756  0BFD               	decfsz	??___flmul+4,f
  4402  0757  2F51               	goto	u2215
  4403  0758  087C               	movf	??___flmul+3,w
  4404  0759  00B2               	movwf	___flmul@prod+3
  4405  075A  087B               	movf	??___flmul+2,w
  4406  075B  00B1               	movwf	___flmul@prod+2
  4407  075C  087A               	movf	??___flmul+1,w
  4408  075D  00B0               	movwf	___flmul@prod+1
  4409  075E  0879               	movf	??___flmul,w
  4410  075F  00AF               	movwf	___flmul@prod
  4411  0760                     l2087:
  4412  0760  3001               	movlw	1
  4413  0761  07B3               	addwf	___flmul@temp,f
  4414  0762  1803               	skipnc
  4415  0763  0AB4               	incf	___flmul@temp+1,f
  4416  0764  3000               	movlw	0
  4417  0765  07B4               	addwf	___flmul@temp+1,f
  4418  0766                     l2089:
  4419  0766  0834               	movf	___flmul@temp+1,w
  4420  0767  3A80               	xorlw	128
  4421  0768  00FF               	movwf	btemp+1
  4422  0769  3080               	movlw	128
  4423  076A  027F               	subwf	btemp+1,w
  4424  076B  1D03               	skipz
  4425  076C  2F6F               	goto	u2225
  4426  076D  30FF               	movlw	255
  4427  076E  0233               	subwf	___flmul@temp,w
  4428  076F                     u2225:
  4429  076F  1C03               	skipc
  4430  0770  2F72               	goto	u2221
  4431  0771  2F73               	goto	u2220
  4432  0772                     u2221:
  4433  0772  2F7E               	goto	l2093
  4434  0773                     u2220:
  4435  0773                     l2091:
  4436  0773  307F               	movlw	127
  4437  0774  1283               	bcf	3,5	;RP0=0, select bank0
  4438  0775  1303               	bcf	3,6	;RP1=0, select bank0
  4439  0776  00B2               	movwf	___flmul@prod+3
  4440  0777  3080               	movlw	128
  4441  0778  00B1               	movwf	___flmul@prod+2
  4442  0779  3000               	movlw	0
  4443  077A  00B0               	movwf	___flmul@prod+1
  4444  077B  3000               	movlw	0
  4445  077C  00AF               	movwf	___flmul@prod
  4446  077D  2FB3               	goto	l735
  4447  077E                     l2093:
  4448  077E  1283               	bcf	3,5	;RP0=0, select bank0
  4449  077F  1303               	bcf	3,6	;RP1=0, select bank0
  4450  0780  0834               	movf	___flmul@temp+1,w
  4451  0781  3A80               	xorlw	128
  4452  0782  00FF               	movwf	btemp+1
  4453  0783  3080               	movlw	128
  4454  0784  027F               	subwf	btemp+1,w
  4455  0785  1D03               	skipz
  4456  0786  2F89               	goto	u2235
  4457  0787  3001               	movlw	1
  4458  0788  0233               	subwf	___flmul@temp,w
  4459  0789                     u2235:
  4460  0789  1803               	skipnc
  4461  078A  2F8C               	goto	u2231
  4462  078B  2F8D               	goto	u2230
  4463  078C                     u2231:
  4464  078C  2F99               	goto	l2099
  4465  078D                     u2230:
  4466  078D                     l2095:
  4467  078D  3000               	movlw	0
  4468  078E  1283               	bcf	3,5	;RP0=0, select bank0
  4469  078F  1303               	bcf	3,6	;RP1=0, select bank0
  4470  0790  00B2               	movwf	___flmul@prod+3
  4471  0791  3000               	movlw	0
  4472  0792  00B1               	movwf	___flmul@prod+2
  4473  0793  3000               	movlw	0
  4474  0794  00B0               	movwf	___flmul@prod+1
  4475  0795  3000               	movlw	0
  4476  0796  00AF               	movwf	___flmul@prod
  4477  0797                     l2097:
  4478  0797  01A8               	clrf	___flmul@sign
  4479  0798  2FB3               	goto	l735
  4480  0799                     l2099:
  4481  0799  1283               	bcf	3,5	;RP0=0, select bank0
  4482  079A  1303               	bcf	3,6	;RP1=0, select bank0
  4483  079B  0833               	movf	___flmul@temp,w
  4484  079C  00F9               	movwf	??___flmul
  4485  079D  0879               	movf	??___flmul,w
  4486  079E  00AE               	movwf	___flmul@bexp
  4487  079F  30FF               	movlw	255
  4488  07A0  05AF               	andwf	___flmul@prod,f
  4489  07A1  30FF               	movlw	255
  4490  07A2  05B0               	andwf	___flmul@prod+1,f
  4491  07A3  307F               	movlw	127
  4492  07A4  05B1               	andwf	___flmul@prod+2,f
  4493  07A5  3000               	movlw	0
  4494  07A6  05B2               	andwf	___flmul@prod+3,f
  4495  07A7                     l2101:
  4496  07A7  1C2E               	btfss	___flmul@bexp,0
  4497  07A8  2FAA               	goto	u2241
  4498  07A9  2FAB               	goto	u2240
  4499  07AA                     u2241:
  4500  07AA  2FAC               	goto	l2105
  4501  07AB                     u2240:
  4502  07AB                     l2103:
  4503  07AB  17B1               	bsf	___flmul@prod+2,7
  4504  07AC                     l2105:
  4505  07AC  082E               	movf	___flmul@bexp,w
  4506  07AD  00F9               	movwf	??___flmul
  4507  07AE  1003               	clrc
  4508  07AF  0C79               	rrf	??___flmul,w
  4509  07B0  00FA               	movwf	??___flmul+1
  4510  07B1  087A               	movf	??___flmul+1,w
  4511  07B2  00B2               	movwf	___flmul@prod+3
  4512  07B3                     l735:
  4513  07B3  0828               	movf	___flmul@sign,w
  4514  07B4  00F9               	movwf	??___flmul
  4515  07B5  0879               	movf	??___flmul,w
  4516  07B6  04B2               	iorwf	___flmul@prod+3,f
  4517  07B7                     l2107:
  4518  07B7  0832               	movf	___flmul@prod+3,w
  4519  07B8  00A3               	movwf	?___flmul+3
  4520  07B9  0831               	movf	___flmul@prod+2,w
  4521  07BA  00A2               	movwf	?___flmul+2
  4522  07BB  0830               	movf	___flmul@prod+1,w
  4523  07BC  00A1               	movwf	?___flmul+1
  4524  07BD  082F               	movf	___flmul@prod,w
  4525  07BE  00A0               	movwf	?___flmul
  4526  07BF                     l723:
  4527  07BF  0008               	return
  4528  07C0                     __end_of___flmul:
  4529                           
  4530                           	psect	text7
  4531  0AEB                     __ptext7:	
  4532 ;; *************** function __Umul8_16 *****************
  4533 ;; Defined at:
  4534 ;;		line 4 in file "C:\Program Files\Microchip\xc8\v2.32\pic\sources\c90\common\Umul8_16.c"
  4535 ;; Parameters:    Size  Location     Type
  4536 ;;  multiplier      1    wreg     unsigned char 
  4537 ;;  multiplicand    1    0[COMMON] unsigned char 
  4538 ;; Auto vars:     Size  Location     Type
  4539 ;;  multiplier      1    8[COMMON] unsigned char 
  4540 ;;  word_mpld       2    6[COMMON] unsigned int 
  4541 ;;  product         2    4[COMMON] unsigned int 
  4542 ;; Return value:  Size  Location     Type
  4543 ;;                  2    0[COMMON] unsigned int 
  4544 ;; Registers used:
  4545 ;;		wreg, status,2, status,0
  4546 ;; Tracked objects:
  4547 ;;		On entry : 0/0
  4548 ;;		On exit  : 0/0
  4549 ;;		Unchanged: 0/0
  4550 ;; Data sizes:     COMMON   BANK0   BANK1   BANK3   BANK2
  4551 ;;      Params:         2       0       0       0       0
  4552 ;;      Locals:         5       0       0       0       0
  4553 ;;      Temps:          2       0       0       0       0
  4554 ;;      Totals:         9       0       0       0       0
  4555 ;;Total ram usage:        9 bytes
  4556 ;; Hardware stack levels used: 1
  4557 ;; This function calls:
  4558 ;;		Nothing
  4559 ;; This function is called by:
  4560 ;;		___flmul
  4561 ;; This function uses a non-reentrant model
  4562 ;;
  4563                           
  4564                           
  4565                           ;psect for function __Umul8_16
  4566  0AEB                     __Umul8_16:
  4567                           
  4568                           ;incstack = 0
  4569                           ; Regs used in __Umul8_16: [wreg+status,2+status,0]
  4570                           ;__Umul8_16@multiplier stored from wreg
  4571  0AEB  00F8               	movwf	__Umul8_16@multiplier
  4572  0AEC                     l1921:
  4573  0AEC  01F4               	clrf	__Umul8_16@product
  4574  0AED  01F5               	clrf	__Umul8_16@product+1
  4575  0AEE                     l1923:
  4576  0AEE  0870               	movf	__Umul8_16@multiplicand,w
  4577  0AEF  00F2               	movwf	??__Umul8_16
  4578  0AF0  01F3               	clrf	??__Umul8_16+1
  4579  0AF1  0872               	movf	??__Umul8_16,w
  4580  0AF2  00F6               	movwf	__Umul8_16@word_mpld
  4581  0AF3  0873               	movf	??__Umul8_16+1,w
  4582  0AF4  00F7               	movwf	__Umul8_16@word_mpld+1
  4583  0AF5                     l1925:
  4584  0AF5  1C78               	btfss	__Umul8_16@multiplier,0
  4585  0AF6  2AF8               	goto	u1771
  4586  0AF7  2AF9               	goto	u1770
  4587  0AF8                     u1771:
  4588  0AF8  2AFF               	goto	l742
  4589  0AF9                     u1770:
  4590  0AF9                     l1927:
  4591  0AF9  0876               	movf	__Umul8_16@word_mpld,w
  4592  0AFA  07F4               	addwf	__Umul8_16@product,f
  4593  0AFB  1803               	skipnc
  4594  0AFC  0AF5               	incf	__Umul8_16@product+1,f
  4595  0AFD  0877               	movf	__Umul8_16@word_mpld+1,w
  4596  0AFE  07F5               	addwf	__Umul8_16@product+1,f
  4597  0AFF                     l742:
  4598  0AFF  3001               	movlw	1
  4599  0B00                     u1785:
  4600  0B00  1003               	clrc
  4601  0B01  0DF6               	rlf	__Umul8_16@word_mpld,f
  4602  0B02  0DF7               	rlf	__Umul8_16@word_mpld+1,f
  4603  0B03  3EFF               	addlw	-1
  4604  0B04  1D03               	skipz
  4605  0B05  2B00               	goto	u1785
  4606  0B06  1003               	clrc
  4607  0B07  0CF8               	rrf	__Umul8_16@multiplier,f
  4608  0B08                     l1929:
  4609  0B08  0878               	movf	__Umul8_16@multiplier,w
  4610  0B09  1D03               	btfss	3,2
  4611  0B0A  2B0C               	goto	u1791
  4612  0B0B  2B0D               	goto	u1790
  4613  0B0C                     u1791:
  4614  0B0C  2AF5               	goto	l1925
  4615  0B0D                     u1790:
  4616  0B0D                     l1931:
  4617  0B0D  0875               	movf	__Umul8_16@product+1,w
  4618  0B0E  00F1               	movwf	?__Umul8_16+1
  4619  0B0F  0874               	movf	__Umul8_16@product,w
  4620  0B10  00F0               	movwf	?__Umul8_16
  4621  0B11                     l744:
  4622  0B11  0008               	return
  4623  0B12                     __end_of__Umul8_16:
  4624                           
  4625                           	psect	text8
  4626  0014                     __ptext8:	
  4627 ;; *************** function ___flge *****************
  4628 ;; Defined at:
  4629 ;;		line 4 in file "C:\Program Files\Microchip\xc8\v2.32\pic\sources\c90\common\flge.c"
  4630 ;; Parameters:    Size  Location     Type
  4631 ;;  ff1             4    0[COMMON] unsigned int 
  4632 ;;  ff2             4    4[COMMON] unsigned int 
  4633 ;; Auto vars:     Size  Location     Type
  4634 ;;		None
  4635 ;; Return value:  Size  Location     Type
  4636 ;;		None               void
  4637 ;; Registers used:
  4638 ;;		wreg, status,2, status,0
  4639 ;; Tracked objects:
  4640 ;;		On entry : 0/0
  4641 ;;		On exit  : 0/0
  4642 ;;		Unchanged: 0/0
  4643 ;; Data sizes:     COMMON   BANK0   BANK1   BANK3   BANK2
  4644 ;;      Params:         8       0       0       0       0
  4645 ;;      Locals:         0       0       0       0       0
  4646 ;;      Temps:          4       0       0       0       0
  4647 ;;      Totals:        12       0       0       0       0
  4648 ;;Total ram usage:       12 bytes
  4649 ;; Hardware stack levels used: 1
  4650 ;; This function calls:
  4651 ;;		Nothing
  4652 ;; This function is called by:
  4653 ;;		_liga_buzzer
  4654 ;; This function uses a non-reentrant model
  4655 ;;
  4656                           
  4657                           
  4658                           ;psect for function ___flge
  4659  0014                     ___flge:
  4660  0014                     l1945:	
  4661                           ;incstack = 0
  4662                           ; Regs used in ___flge: [wreg+status,2+status,0]
  4663                           
  4664  0014  3000               	movlw	0
  4665  0015  0570               	andwf	___flge@ff1,w
  4666  0016  00F8               	movwf	??___flge
  4667  0017  3000               	movlw	0
  4668  0018  0571               	andwf	___flge@ff1+1,w
  4669  0019  00F9               	movwf	??___flge+1
  4670  001A  3080               	movlw	128
  4671  001B  0572               	andwf	___flge@ff1+2,w
  4672  001C  00FA               	movwf	??___flge+2
  4673  001D  307F               	movlw	127
  4674  001E  0573               	andwf	___flge@ff1+3,w
  4675  001F  00FB               	movwf	??___flge+3
  4676  0020  087B               	movf	??___flge+3,w
  4677  0021  047A               	iorwf	??___flge+2,w
  4678  0022  0479               	iorwf	??___flge+1,w
  4679  0023  0478               	iorwf	??___flge,w
  4680  0024  1D03               	skipz
  4681  0025  2827               	goto	u1811
  4682  0026  2828               	goto	u1810
  4683  0027                     u1811:
  4684  0027  2830               	goto	l508
  4685  0028                     u1810:
  4686  0028                     l1947:
  4687  0028  3000               	movlw	0
  4688  0029  00F3               	movwf	___flge@ff1+3
  4689  002A  3000               	movlw	0
  4690  002B  00F2               	movwf	___flge@ff1+2
  4691  002C  3000               	movlw	0
  4692  002D  00F1               	movwf	___flge@ff1+1
  4693  002E  3000               	movlw	0
  4694  002F  00F0               	movwf	___flge@ff1
  4695  0030                     l508:
  4696  0030  3000               	movlw	0
  4697  0031  0574               	andwf	___flge@ff2,w
  4698  0032  00F8               	movwf	??___flge
  4699  0033  3000               	movlw	0
  4700  0034  0575               	andwf	___flge@ff2+1,w
  4701  0035  00F9               	movwf	??___flge+1
  4702  0036  3080               	movlw	128
  4703  0037  0576               	andwf	___flge@ff2+2,w
  4704  0038  00FA               	movwf	??___flge+2
  4705  0039  307F               	movlw	127
  4706  003A  0577               	andwf	___flge@ff2+3,w
  4707  003B  00FB               	movwf	??___flge+3
  4708  003C  087B               	movf	??___flge+3,w
  4709  003D  047A               	iorwf	??___flge+2,w
  4710  003E  0479               	iorwf	??___flge+1,w
  4711  003F  0478               	iorwf	??___flge,w
  4712  0040  1D03               	skipz
  4713  0041  2843               	goto	u1821
  4714  0042  2844               	goto	u1820
  4715  0043                     u1821:
  4716  0043  284C               	goto	l1951
  4717  0044                     u1820:
  4718  0044                     l1949:
  4719  0044  3000               	movlw	0
  4720  0045  00F7               	movwf	___flge@ff2+3
  4721  0046  3000               	movlw	0
  4722  0047  00F6               	movwf	___flge@ff2+2
  4723  0048  3000               	movlw	0
  4724  0049  00F5               	movwf	___flge@ff2+1
  4725  004A  3000               	movlw	0
  4726  004B  00F4               	movwf	___flge@ff2
  4727  004C                     l1951:
  4728  004C  1FF3               	btfss	___flge@ff1+3,7
  4729  004D  284F               	goto	u1831
  4730  004E  2850               	goto	u1830
  4731  004F                     u1831:
  4732  004F  2874               	goto	l1955
  4733  0050                     u1830:
  4734  0050                     l1953:
  4735  0050  3000               	movlw	0
  4736  0051  00F8               	movwf	??___flge
  4737  0052  3000               	movlw	0
  4738  0053  00F9               	movwf	??___flge+1
  4739  0054  3000               	movlw	0
  4740  0055  00FA               	movwf	??___flge+2
  4741  0056  3080               	movlw	128
  4742  0057  00FB               	movwf	??___flge+3
  4743  0058  0870               	movf	___flge@ff1,w
  4744  0059  02F8               	subwf	??___flge,f
  4745  005A  0871               	movf	___flge@ff1+1,w
  4746  005B  1C03               	skipc
  4747  005C  0F71               	incfsz	___flge@ff1+1,w
  4748  005D  285F               	goto	u1841
  4749  005E  2860               	goto	u1842
  4750  005F                     u1841:
  4751  005F  02F9               	subwf	??___flge+1,f
  4752  0060                     u1842:
  4753  0060  0872               	movf	___flge@ff1+2,w
  4754  0061  1C03               	skipc
  4755  0062  0F72               	incfsz	___flge@ff1+2,w
  4756  0063  2865               	goto	u1843
  4757  0064  2866               	goto	u1844
  4758  0065                     u1843:
  4759  0065  02FA               	subwf	??___flge+2,f
  4760  0066                     u1844:
  4761  0066  0873               	movf	___flge@ff1+3,w
  4762  0067  1C03               	skipc
  4763  0068  0F73               	incfsz	___flge@ff1+3,w
  4764  0069  286B               	goto	u1845
  4765  006A  286C               	goto	u1846
  4766  006B                     u1845:
  4767  006B  02FB               	subwf	??___flge+3,f
  4768  006C                     u1846:
  4769  006C  087B               	movf	??___flge+3,w
  4770  006D  00F3               	movwf	___flge@ff1+3
  4771  006E  087A               	movf	??___flge+2,w
  4772  006F  00F2               	movwf	___flge@ff1+2
  4773  0070  0879               	movf	??___flge+1,w
  4774  0071  00F1               	movwf	___flge@ff1+1
  4775  0072  0878               	movf	??___flge,w
  4776  0073  00F0               	movwf	___flge@ff1
  4777  0074                     l1955:
  4778  0074  1FF7               	btfss	___flge@ff2+3,7
  4779  0075  2877               	goto	u1851
  4780  0076  2878               	goto	u1850
  4781  0077                     u1851:
  4782  0077  289C               	goto	l511
  4783  0078                     u1850:
  4784  0078                     l1957:
  4785  0078  3000               	movlw	0
  4786  0079  00F8               	movwf	??___flge
  4787  007A  3000               	movlw	0
  4788  007B  00F9               	movwf	??___flge+1
  4789  007C  3000               	movlw	0
  4790  007D  00FA               	movwf	??___flge+2
  4791  007E  3080               	movlw	128
  4792  007F  00FB               	movwf	??___flge+3
  4793  0080  0874               	movf	___flge@ff2,w
  4794  0081  02F8               	subwf	??___flge,f
  4795  0082  0875               	movf	___flge@ff2+1,w
  4796  0083  1C03               	skipc
  4797  0084  0F75               	incfsz	___flge@ff2+1,w
  4798  0085  2887               	goto	u1861
  4799  0086  2888               	goto	u1862
  4800  0087                     u1861:
  4801  0087  02F9               	subwf	??___flge+1,f
  4802  0088                     u1862:
  4803  0088  0876               	movf	___flge@ff2+2,w
  4804  0089  1C03               	skipc
  4805  008A  0F76               	incfsz	___flge@ff2+2,w
  4806  008B  288D               	goto	u1863
  4807  008C  288E               	goto	u1864
  4808  008D                     u1863:
  4809  008D  02FA               	subwf	??___flge+2,f
  4810  008E                     u1864:
  4811  008E  0877               	movf	___flge@ff2+3,w
  4812  008F  1C03               	skipc
  4813  0090  0F77               	incfsz	___flge@ff2+3,w
  4814  0091  2893               	goto	u1865
  4815  0092  2894               	goto	u1866
  4816  0093                     u1865:
  4817  0093  02FB               	subwf	??___flge+3,f
  4818  0094                     u1866:
  4819  0094  087B               	movf	??___flge+3,w
  4820  0095  00F7               	movwf	___flge@ff2+3
  4821  0096  087A               	movf	??___flge+2,w
  4822  0097  00F6               	movwf	___flge@ff2+2
  4823  0098  0879               	movf	??___flge+1,w
  4824  0099  00F5               	movwf	___flge@ff2+1
  4825  009A  0878               	movf	??___flge,w
  4826  009B  00F4               	movwf	___flge@ff2
  4827  009C                     l511:
  4828  009C  3080               	movlw	128
  4829  009D  06F3               	xorwf	___flge@ff1+3,f
  4830  009E  3080               	movlw	128
  4831  009F  06F7               	xorwf	___flge@ff2+3,f
  4832  00A0  0877               	movf	___flge@ff2+3,w
  4833  00A1  0273               	subwf	___flge@ff1+3,w
  4834  00A2  1D03               	skipz
  4835  00A3  28AE               	goto	u1875
  4836  00A4  0876               	movf	___flge@ff2+2,w
  4837  00A5  0272               	subwf	___flge@ff1+2,w
  4838  00A6  1D03               	skipz
  4839  00A7  28AE               	goto	u1875
  4840  00A8  0875               	movf	___flge@ff2+1,w
  4841  00A9  0271               	subwf	___flge@ff1+1,w
  4842  00AA  1D03               	skipz
  4843  00AB  28AE               	goto	u1875
  4844  00AC  0874               	movf	___flge@ff2,w
  4845  00AD  0270               	subwf	___flge@ff1,w
  4846  00AE                     u1875:
  4847  00AE  1803               	skipnc
  4848  00AF  28B1               	goto	u1871
  4849  00B0  28B2               	goto	u1870
  4850  00B1                     u1871:
  4851  00B1  28B4               	goto	l1961
  4852  00B2                     u1870:
  4853  00B2                     l1959:
  4854  00B2  1003               	clrc
  4855  00B3  28B5               	goto	l512
  4856  00B4                     l1961:
  4857  00B4  1403               	setc
  4858  00B5                     l512:
  4859  00B5  0008               	return
  4860  00B6                     __end_of___flge:
  4861                           
  4862                           	psect	text9
  4863  0A69                     __ptext9:	
  4864 ;; *************** function _strcpy *****************
  4865 ;; Defined at:
  4866 ;;		line 8 in file "C:\Program Files\Microchip\xc8\v2.32\pic\sources\c90\common\strcpy.c"
  4867 ;; Parameters:    Size  Location     Type
  4868 ;;  to              1    wreg     PTR unsigned char 
  4869 ;;		 -> senhaUserConfere(5), 
  4870 ;;  from            1    0[COMMON] PTR const unsigned char 
  4871 ;;		 -> senhaUserConfere(5), 
  4872 ;; Auto vars:     Size  Location     Type
  4873 ;;  to              1    3[COMMON] PTR unsigned char 
  4874 ;;		 -> senhaUserConfere(5), 
  4875 ;;  cp              1    2[COMMON] PTR unsigned char 
  4876 ;;		 -> senhaUserConfere(5), 
  4877 ;; Return value:  Size  Location     Type
  4878 ;;                  1    wreg      PTR unsigned char 
  4879 ;; Registers used:
  4880 ;;		wreg, fsr0l, fsr0h, status,2, status,0
  4881 ;; Tracked objects:
  4882 ;;		On entry : 0/0
  4883 ;;		On exit  : 0/0
  4884 ;;		Unchanged: 0/0
  4885 ;; Data sizes:     COMMON   BANK0   BANK1   BANK3   BANK2
  4886 ;;      Params:         1       0       0       0       0
  4887 ;;      Locals:         2       0       0       0       0
  4888 ;;      Temps:          1       0       0       0       0
  4889 ;;      Totals:         4       0       0       0       0
  4890 ;;Total ram usage:        4 bytes
  4891 ;; Hardware stack levels used: 1
  4892 ;; This function calls:
  4893 ;;		Nothing
  4894 ;; This function is called by:
  4895 ;;		_validaUser
  4896 ;; This function uses a non-reentrant model
  4897 ;;
  4898                           
  4899                           
  4900                           ;psect for function _strcpy
  4901  0A69                     _strcpy:
  4902                           
  4903                           ;incstack = 0
  4904                           ; Regs used in _strcpy: [wreg-fsr0h+status,2+status,0]
  4905                           ;strcpy@to stored from wreg
  4906  0A69  00F3               	movwf	strcpy@to
  4907  0A6A                     l2343:
  4908  0A6A  0873               	movf	strcpy@to,w
  4909  0A6B  00F1               	movwf	??_strcpy
  4910  0A6C  0871               	movf	??_strcpy,w
  4911  0A6D  00F2               	movwf	strcpy@cp
  4912  0A6E  2A77               	goto	l2347
  4913  0A6F                     l2345:
  4914  0A6F  3001               	movlw	1
  4915  0A70  00F1               	movwf	??_strcpy
  4916  0A71  0871               	movf	??_strcpy,w
  4917  0A72  07F2               	addwf	strcpy@cp,f
  4918  0A73  3001               	movlw	1
  4919  0A74  00F1               	movwf	??_strcpy
  4920  0A75  0871               	movf	??_strcpy,w
  4921  0A76  07F0               	addwf	strcpy@from,f
  4922  0A77                     l2347:
  4923  0A77  0870               	movf	strcpy@from,w
  4924  0A78  0084               	movwf	4
  4925  0A79  1383               	bcf	3,7	;select IRP bank0
  4926  0A7A  0800               	movf	0,w
  4927  0A7B  00F1               	movwf	??_strcpy
  4928  0A7C  0872               	movf	strcpy@cp,w
  4929  0A7D  0084               	movwf	4
  4930  0A7E  0871               	movf	??_strcpy,w
  4931  0A7F  0080               	movwf	0
  4932  0A80  0800               	movf	0,w
  4933  0A81  1D03               	btfss	3,2
  4934  0A82  2A84               	goto	u2441
  4935  0A83  2A85               	goto	u2440
  4936  0A84                     u2441:
  4937  0A84  2A6F               	goto	l2345
  4938  0A85                     u2440:
  4939  0A85                     l2349:
  4940  0A85  0873               	movf	strcpy@to,w
  4941  0A86                     l797:
  4942  0A86  0008               	return
  4943  0A87                     __end_of_strcpy:
  4944                           
  4945                           	psect	text10
  4946  0B3D                     __ptext10:	
  4947 ;; *************** function _strcat *****************
  4948 ;; Defined at:
  4949 ;;		line 8 in file "C:\Program Files\Microchip\xc8\v2.32\pic\sources\c90\common\strcat.c"
  4950 ;; Parameters:    Size  Location     Type
  4951 ;;  to              1    wreg     PTR unsigned char 
  4952 ;;		 -> senhaUserConfere(5), 
  4953 ;;  from            2    4[COMMON] PTR const unsigned char 
  4954 ;;		 -> RAM(512), RAM(512), RAM(512), RAM(512), 
  4955 ;;		 -> RAM(512), RAM(512), RAM(512), RAM(512), 
  4956 ;;		 -> RAM(512), RAM(512), NULL(0), RAM(512), 
  4957 ;;		 -> RAM(512), RAM(512), 
  4958 ;; Auto vars:     Size  Location     Type
  4959 ;;  to              1    7[COMMON] PTR unsigned char 
  4960 ;;		 -> senhaUserConfere(5), 
  4961 ;;  cp              1    8[COMMON] PTR unsigned char 
  4962 ;;		 -> senhaUserConfere(5), 
  4963 ;; Return value:  Size  Location     Type
  4964 ;;                  1    wreg      PTR unsigned char 
  4965 ;; Registers used:
  4966 ;;		wreg, fsr0l, fsr0h, status,2, status,0
  4967 ;; Tracked objects:
  4968 ;;		On entry : 0/0
  4969 ;;		On exit  : 0/0
  4970 ;;		Unchanged: 0/0
  4971 ;; Data sizes:     COMMON   BANK0   BANK1   BANK3   BANK2
  4972 ;;      Params:         2       0       0       0       0
  4973 ;;      Locals:         2       0       0       0       0
  4974 ;;      Temps:          1       0       0       0       0
  4975 ;;      Totals:         5       0       0       0       0
  4976 ;;Total ram usage:        5 bytes
  4977 ;; Hardware stack levels used: 1
  4978 ;; This function calls:
  4979 ;;		Nothing
  4980 ;; This function is called by:
  4981 ;;		_validaUser
  4982 ;; This function uses a non-reentrant model
  4983 ;;
  4984                           
  4985                           
  4986                           ;psect for function _strcat
  4987  0B3D                     _strcat:
  4988                           
  4989                           ;incstack = 0
  4990                           ; Regs used in _strcat: [wreg-fsr0h+status,2+status,0]
  4991                           ;strcat@to stored from wreg
  4992  0B3D  00F7               	movwf	strcat@to
  4993  0B3E                     l2353:
  4994  0B3E  0877               	movf	strcat@to,w
  4995  0B3F  00F6               	movwf	??_strcat
  4996  0B40  0876               	movf	??_strcat,w
  4997  0B41  00F8               	movwf	strcat@cp
  4998  0B42  2B47               	goto	l2357
  4999  0B43                     l2355:
  5000  0B43  3001               	movlw	1
  5001  0B44  00F6               	movwf	??_strcat
  5002  0B45  0876               	movf	??_strcat,w
  5003  0B46  07F8               	addwf	strcat@cp,f
  5004  0B47                     l2357:
  5005  0B47  0878               	movf	strcat@cp,w
  5006  0B48  0084               	movwf	4
  5007  0B49  1383               	bcf	3,7	;select IRP bank0
  5008  0B4A  0800               	movf	0,w
  5009  0B4B  1D03               	btfss	3,2
  5010  0B4C  2B4E               	goto	u2451
  5011  0B4D  2B4F               	goto	u2450
  5012  0B4E                     u2451:
  5013  0B4E  2B43               	goto	l2355
  5014  0B4F                     u2450:
  5015  0B4F  2B5A               	goto	l2363
  5016  0B50                     l2359:
  5017  0B50  3001               	movlw	1
  5018  0B51  00F6               	movwf	??_strcat
  5019  0B52  0876               	movf	??_strcat,w
  5020  0B53  07F8               	addwf	strcat@cp,f
  5021  0B54                     l2361:
  5022  0B54  3001               	movlw	1
  5023  0B55  07F4               	addwf	strcat@from,f
  5024  0B56  1803               	skipnc
  5025  0B57  0AF5               	incf	strcat@from+1,f
  5026  0B58  3000               	movlw	0
  5027  0B59  07F5               	addwf	strcat@from+1,f
  5028  0B5A                     l2363:
  5029  0B5A  0874               	movf	strcat@from,w
  5030  0B5B  0084               	movwf	4
  5031  0B5C  1783               	bsf	3,7
  5032  0B5D  1C75               	btfss	strcat@from+1,0
  5033  0B5E  1383               	bcf	3,7
  5034  0B5F  0800               	movf	0,w
  5035  0B60  00F6               	movwf	??_strcat
  5036  0B61  0878               	movf	strcat@cp,w
  5037  0B62  0084               	movwf	4
  5038  0B63  0876               	movf	??_strcat,w
  5039  0B64  1383               	bcf	3,7	;select IRP bank0
  5040  0B65  0080               	movwf	0
  5041  0B66  0800               	movf	0,w
  5042  0B67  1D03               	btfss	3,2
  5043  0B68  2B6A               	goto	u2461
  5044  0B69  2B6B               	goto	u2460
  5045  0B6A                     u2461:
  5046  0B6A  2B50               	goto	l2359
  5047  0B6B                     u2460:
  5048  0B6B                     l791:
  5049  0B6B  0008               	return
  5050  0B6C                     __end_of_strcat:
  5051                           
  5052                           	psect	text11
  5053  0A17                     __ptext11:	
  5054 ;; *************** function _LCD_limpa *****************
  5055 ;; Defined at:
  5056 ;;		line 56 in file "./lcd.h"
  5057 ;; Parameters:    Size  Location     Type
  5058 ;;		None
  5059 ;; Auto vars:     Size  Location     Type
  5060 ;;		None
  5061 ;; Return value:  Size  Location     Type
  5062 ;;                  1    wreg      void 
  5063 ;; Registers used:
  5064 ;;		wreg, status,2, status,0, btemp+1, pclath, cstack
  5065 ;; Tracked objects:
  5066 ;;		On entry : 0/0
  5067 ;;		On exit  : 0/0
  5068 ;;		Unchanged: 0/0
  5069 ;; Data sizes:     COMMON   BANK0   BANK1   BANK3   BANK2
  5070 ;;      Params:         0       0       0       0       0
  5071 ;;      Locals:         0       0       0       0       0
  5072 ;;      Temps:          0       0       0       0       0
  5073 ;;      Totals:         0       0       0       0       0
  5074 ;;Total ram usage:        0 bytes
  5075 ;; Hardware stack levels used: 1
  5076 ;; Hardware stack levels required when called: 1
  5077 ;; This function calls:
  5078 ;;		_delay
  5079 ;; This function is called by:
  5080 ;;		_main
  5081 ;;		_validaUser
  5082 ;;		_listaZonas
  5083 ;; This function uses a non-reentrant model
  5084 ;;
  5085                           
  5086                           
  5087                           ;psect for function _LCD_limpa
  5088  0A17                     _LCD_limpa:
  5089  0A17                     l2163:	
  5090                           ;incstack = 0
  5091                           ; Regs used in _LCD_limpa: [wreg+status,2+status,0+btemp+1+pclath+cstack]
  5092                           
  5093                           
  5094                           ;./lcd.h: 57:     PORTD = 0x01;
  5095  0A17  3001               	movlw	1
  5096  0A18  1283               	bcf	3,5	;RP0=0, select bank0
  5097  0A19  1303               	bcf	3,6	;RP1=0, select bank0
  5098  0A1A  0088               	movwf	8	;volatile
  5099  0A1B                     l2165:
  5100                           
  5101                           ;./lcd.h: 58:     RA5 = 0;
  5102  0A1B  1285               	bcf	5,5	;volatile
  5103  0A1C                     l2167:
  5104                           
  5105                           ;./lcd.h: 59:     RA4 = 0;
  5106  0A1C  1205               	bcf	5,4	;volatile
  5107  0A1D                     l2169:
  5108                           
  5109                           ;./lcd.h: 60:     RA3=0;
  5110  0A1D  1185               	bcf	5,3	;volatile
  5111  0A1E                     l2171:
  5112                           
  5113                           ;./lcd.h: 61:     delay();
  5114  0A1E  120A  158A  223A  120A  158A  	fcall	_delay
  5115  0A23                     l2173:
  5116                           
  5117                           ;./lcd.h: 62:  RA3 = 1;
  5118  0A23  1283               	bcf	3,5	;RP0=0, select bank0
  5119  0A24  1303               	bcf	3,6	;RP1=0, select bank0
  5120  0A25  1585               	bsf	5,3	;volatile
  5121  0A26                     l68:
  5122  0A26  0008               	return
  5123  0A27                     __end_of_LCD_limpa:
  5124                           
  5125                           	psect	text12
  5126  0C0E                     __ptext12:	
  5127 ;; *************** function _telaInicial *****************
  5128 ;; Defined at:
  5129 ;;		line 340 in file "main.c"
  5130 ;; Parameters:    Size  Location     Type
  5131 ;;		None
  5132 ;; Auto vars:     Size  Location     Type
  5133 ;;  i               2    7[COMMON] int 
  5134 ;; Return value:  Size  Location     Type
  5135 ;;                  1    wreg      void 
  5136 ;; Registers used:
  5137 ;;		wreg, fsr0l, fsr0h, status,2, status,0, btemp+1, pclath, cstack
  5138 ;; Tracked objects:
  5139 ;;		On entry : 0/0
  5140 ;;		On exit  : 0/0
  5141 ;;		Unchanged: 0/0
  5142 ;; Data sizes:     COMMON   BANK0   BANK1   BANK3   BANK2
  5143 ;;      Params:         0       0       0       0       0
  5144 ;;      Locals:         2       0       0       0       0
  5145 ;;      Temps:          2       0       0       0       0
  5146 ;;      Totals:         4       0       0       0       0
  5147 ;;Total ram usage:        4 bytes
  5148 ;; Hardware stack levels used: 1
  5149 ;; Hardware stack levels required when called: 2
  5150 ;; This function calls:
  5151 ;;		_LCD_escreve
  5152 ;;		_LCD_linha1
  5153 ;;		_strlen
  5154 ;; This function is called by:
  5155 ;;		_main
  5156 ;; This function uses a non-reentrant model
  5157 ;;
  5158                           
  5159                           
  5160                           ;psect for function _telaInicial
  5161  0C0E                     _telaInicial:
  5162  0C0E                     l2387:	
  5163                           ;incstack = 0
  5164                           ; Regs used in _telaInicial: [wreg-fsr0h+status,2+status,0+btemp+1+pclath+cstack]
  5165                           
  5166                           
  5167                           ;main.c: 342:     LCD_linha1();
  5168  0C0E  120A  158A  2207  120A  158A  	fcall	_LCD_linha1
  5169                           
  5170                           ;main.c: 343:     LCD_escreve(' ');
  5171  0C13  3020               	movlw	32
  5172  0C14  120A  118A  2003  120A  158A  	fcall	_LCD_escreve
  5173  0C19                     l2389:
  5174                           
  5175                           ;main.c: 344:     for (int i = 0; i <= strlen(msgDigiteSenha)-1; i++){
  5176  0C19  01F7               	clrf	telaInicial@i
  5177  0C1A  01F8               	clrf	telaInicial@i+1
  5178  0C1B  2C2C               	goto	l2395
  5179  0C1C                     l2391:
  5180                           
  5181                           ;main.c: 345:         LCD_escreve(msgDigiteSenha[i]);
  5182  0C1C  0877               	movf	telaInicial@i,w
  5183  0C1D  3EA0               	addlw	(low (_msgDigiteSenha| 0))& (0+255)
  5184  0C1E  0084               	movwf	4
  5185  0C1F  1383               	bcf	3,7	;select IRP bank1
  5186  0C20  0800               	movf	0,w
  5187  0C21  120A  118A  2003  120A  158A  	fcall	_LCD_escreve
  5188  0C26                     l2393:
  5189                           
  5190                           ;main.c: 346:     }
  5191  0C26  3001               	movlw	1
  5192  0C27  07F7               	addwf	telaInicial@i,f
  5193  0C28  1803               	skipnc
  5194  0C29  0AF8               	incf	telaInicial@i+1,f
  5195  0C2A  3000               	movlw	0
  5196  0C2B  07F8               	addwf	telaInicial@i+1,f
  5197  0C2C                     l2395:
  5198  0C2C  30A0               	movlw	(low (_msgDigiteSenha| 0))& (0+255)
  5199  0C2D  120A  158A  2250  120A  158A  	fcall	_strlen
  5200  0C32  0870               	movf	?_strlen,w
  5201  0C33  3EFF               	addlw	255
  5202  0C34  00F5               	movwf	??_telaInicial
  5203  0C35  0871               	movf	?_strlen+1,w
  5204  0C36  1803               	skipnc
  5205  0C37  3E01               	addlw	1
  5206  0C38  3EFF               	addlw	255
  5207  0C39  00F6               	movwf	??_telaInicial+1
  5208  0C3A  0878               	movf	telaInicial@i+1,w
  5209  0C3B  0276               	subwf	??_telaInicial+1,w
  5210  0C3C  1D03               	skipz
  5211  0C3D  2C40               	goto	u2475
  5212  0C3E  0877               	movf	telaInicial@i,w
  5213  0C3F  0275               	subwf	??_telaInicial,w
  5214  0C40                     u2475:
  5215  0C40  1803               	skipnc
  5216  0C41  2C43               	goto	u2471
  5217  0C42  2C44               	goto	u2470
  5218  0C43                     u2471:
  5219  0C43  2C1C               	goto	l2391
  5220  0C44                     u2470:
  5221  0C44                     l2397:
  5222                           
  5223                           ;main.c: 347:     LCD_escreve(' ');
  5224  0C44  3020               	movlw	32
  5225  0C45  120A  118A  2003  120A  158A  	fcall	_LCD_escreve
  5226  0C4A                     l195:
  5227  0C4A  0008               	return
  5228  0C4B                     __end_of_telaInicial:
  5229                           
  5230                           	psect	text13
  5231  0A07                     __ptext13:	
  5232 ;; *************** function _LCD_linha1 *****************
  5233 ;; Defined at:
  5234 ;;		line 65 in file "./lcd.h"
  5235 ;; Parameters:    Size  Location     Type
  5236 ;;		None
  5237 ;; Auto vars:     Size  Location     Type
  5238 ;;		None
  5239 ;; Return value:  Size  Location     Type
  5240 ;;                  1    wreg      void 
  5241 ;; Registers used:
  5242 ;;		wreg, status,2, status,0, btemp+1, pclath, cstack
  5243 ;; Tracked objects:
  5244 ;;		On entry : 0/0
  5245 ;;		On exit  : 0/0
  5246 ;;		Unchanged: 0/0
  5247 ;; Data sizes:     COMMON   BANK0   BANK1   BANK3   BANK2
  5248 ;;      Params:         0       0       0       0       0
  5249 ;;      Locals:         0       0       0       0       0
  5250 ;;      Temps:          0       0       0       0       0
  5251 ;;      Totals:         0       0       0       0       0
  5252 ;;Total ram usage:        0 bytes
  5253 ;; Hardware stack levels used: 1
  5254 ;; Hardware stack levels required when called: 1
  5255 ;; This function calls:
  5256 ;;		_delay
  5257 ;; This function is called by:
  5258 ;;		_telaInicial
  5259 ;;		_listaZonas
  5260 ;; This function uses a non-reentrant model
  5261 ;;
  5262                           
  5263                           
  5264                           ;psect for function _LCD_linha1
  5265  0A07                     _LCD_linha1:
  5266  0A07                     l2175:	
  5267                           ;incstack = 0
  5268                           ; Regs used in _LCD_linha1: [wreg+status,2+status,0+btemp+1+pclath+cstack]
  5269                           
  5270                           
  5271                           ;./lcd.h: 66:     PORTD = 0x02;
  5272  0A07  3002               	movlw	2
  5273  0A08  1283               	bcf	3,5	;RP0=0, select bank0
  5274  0A09  1303               	bcf	3,6	;RP1=0, select bank0
  5275  0A0A  0088               	movwf	8	;volatile
  5276  0A0B                     l2177:
  5277                           
  5278                           ;./lcd.h: 67:     RA5 = 0;
  5279  0A0B  1285               	bcf	5,5	;volatile
  5280  0A0C                     l2179:
  5281                           
  5282                           ;./lcd.h: 68:     RA4 = 0;
  5283  0A0C  1205               	bcf	5,4	;volatile
  5284  0A0D                     l2181:
  5285                           
  5286                           ;./lcd.h: 69:     RA3=0;
  5287  0A0D  1185               	bcf	5,3	;volatile
  5288  0A0E                     l2183:
  5289                           
  5290                           ;./lcd.h: 70:     delay();
  5291  0A0E  120A  158A  223A  120A  158A  	fcall	_delay
  5292  0A13                     l2185:
  5293                           
  5294                           ;./lcd.h: 71:  RA3 = 1;
  5295  0A13  1283               	bcf	3,5	;RP0=0, select bank0
  5296  0A14  1303               	bcf	3,6	;RP1=0, select bank0
  5297  0A15  1585               	bsf	5,3	;volatile
  5298  0A16                     l71:
  5299  0A16  0008               	return
  5300  0A17                     __end_of_LCD_linha1:
  5301                           
  5302                           	psect	text14
  5303  0BD3                     __ptext14:	
  5304 ;; *************** function _Linha2 *****************
  5305 ;; Defined at:
  5306 ;;		line 354 in file "main.c"
  5307 ;; Parameters:    Size  Location     Type
  5308 ;;		None
  5309 ;; Auto vars:     Size  Location     Type
  5310 ;;  i               2    7[COMMON] int 
  5311 ;; Return value:  Size  Location     Type
  5312 ;;                  1    wreg      void 
  5313 ;; Registers used:
  5314 ;;		wreg, fsr0l, fsr0h, status,2, status,0, btemp+1, pclath, cstack
  5315 ;; Tracked objects:
  5316 ;;		On entry : 0/0
  5317 ;;		On exit  : 0/0
  5318 ;;		Unchanged: 0/0
  5319 ;; Data sizes:     COMMON   BANK0   BANK1   BANK3   BANK2
  5320 ;;      Params:         0       0       0       0       0
  5321 ;;      Locals:         2       0       0       0       0
  5322 ;;      Temps:          2       0       0       0       0
  5323 ;;      Totals:         4       0       0       0       0
  5324 ;;Total ram usage:        4 bytes
  5325 ;; Hardware stack levels used: 1
  5326 ;; Hardware stack levels required when called: 3
  5327 ;; This function calls:
  5328 ;;		_LCD_escreve
  5329 ;;		_LCD_linha2
  5330 ;;		_espacoLivre
  5331 ;;		_strlen
  5332 ;; This function is called by:
  5333 ;;		_main
  5334 ;; This function uses a non-reentrant model
  5335 ;;
  5336                           
  5337                           
  5338                           ;psect for function _Linha2
  5339  0BD3                     _Linha2:
  5340  0BD3                     l2399:	
  5341                           ;incstack = 0
  5342                           ; Regs used in _Linha2: [wreg-fsr0h+status,2+status,0+btemp+1+pclath+cstack]
  5343                           
  5344                           
  5345                           ;main.c: 355:     LCD_linha2();
  5346  0BD3  120A  158A  21F7  120A  158A  	fcall	_LCD_linha2
  5347                           
  5348                           ;main.c: 356:     espacoLivre();
  5349  0BD8  120A  158A  22A6  120A  158A  	fcall	_espacoLivre
  5350  0BDD                     l2401:
  5351                           
  5352                           ;main.c: 357:     for (int i = 0; i <= strlen(msgMascara)-1; i++){
  5353  0BDD  01F7               	clrf	Linha2@i
  5354  0BDE  01F8               	clrf	Linha2@i+1
  5355  0BDF  2BF0               	goto	l2407
  5356  0BE0                     l2403:
  5357                           
  5358                           ;main.c: 358:         LCD_escreve(msgMascara[i]);
  5359  0BE0  0877               	movf	Linha2@i,w
  5360  0BE1  3E5A               	addlw	(low (_msgMascara| 0))& (0+255)
  5361  0BE2  0084               	movwf	4
  5362  0BE3  1383               	bcf	3,7	;select IRP bank0
  5363  0BE4  0800               	movf	0,w
  5364  0BE5  120A  118A  2003  120A  158A  	fcall	_LCD_escreve
  5365  0BEA                     l2405:
  5366                           
  5367                           ;main.c: 359:     }
  5368  0BEA  3001               	movlw	1
  5369  0BEB  07F7               	addwf	Linha2@i,f
  5370  0BEC  1803               	skipnc
  5371  0BED  0AF8               	incf	Linha2@i+1,f
  5372  0BEE  3000               	movlw	0
  5373  0BEF  07F8               	addwf	Linha2@i+1,f
  5374  0BF0                     l2407:
  5375  0BF0  305A               	movlw	(low (_msgMascara| 0))& (0+255)
  5376  0BF1  120A  158A  2250  120A  158A  	fcall	_strlen
  5377  0BF6  0870               	movf	?_strlen,w
  5378  0BF7  3EFF               	addlw	255
  5379  0BF8  00F5               	movwf	??_Linha2
  5380  0BF9  0871               	movf	?_strlen+1,w
  5381  0BFA  1803               	skipnc
  5382  0BFB  3E01               	addlw	1
  5383  0BFC  3EFF               	addlw	255
  5384  0BFD  00F6               	movwf	??_Linha2+1
  5385  0BFE  0878               	movf	Linha2@i+1,w
  5386  0BFF  0276               	subwf	??_Linha2+1,w
  5387  0C00  1D03               	skipz
  5388  0C01  2C04               	goto	u2485
  5389  0C02  0877               	movf	Linha2@i,w
  5390  0C03  0275               	subwf	??_Linha2,w
  5391  0C04                     u2485:
  5392  0C04  1803               	skipnc
  5393  0C05  2C07               	goto	u2481
  5394  0C06  2C08               	goto	u2480
  5395  0C07                     u2481:
  5396  0C07  2BE0               	goto	l2403
  5397  0C08                     u2480:
  5398  0C08                     l2409:
  5399                           
  5400                           ;main.c: 360:     espacoLivre();
  5401  0C08  120A  158A  22A6  120A  158A  	fcall	_espacoLivre
  5402  0C0D                     l201:
  5403  0C0D  0008               	return
  5404  0C0E                     __end_of_Linha2:
  5405                           
  5406                           	psect	text15
  5407  0A50                     __ptext15:	
  5408 ;; *************** function _strlen *****************
  5409 ;; Defined at:
  5410 ;;		line 4 in file "C:\Program Files\Microchip\xc8\v2.32\pic\sources\c90\common\strlen.c"
  5411 ;; Parameters:    Size  Location     Type
  5412 ;;  s               1    wreg     PTR const unsigned char 
  5413 ;;		 -> msgMascara(5), msgDigiteSenha(15), 
  5414 ;; Auto vars:     Size  Location     Type
  5415 ;;  s               1    4[COMMON] PTR const unsigned char 
  5416 ;;		 -> msgMascara(5), msgDigiteSenha(15), 
  5417 ;;  cp              1    3[COMMON] PTR const unsigned char 
  5418 ;;		 -> msgMascara(5), msgDigiteSenha(15), 
  5419 ;; Return value:  Size  Location     Type
  5420 ;;                  2    0[COMMON] unsigned int 
  5421 ;; Registers used:
  5422 ;;		wreg, fsr0l, fsr0h, status,2, status,0
  5423 ;; Tracked objects:
  5424 ;;		On entry : 0/0
  5425 ;;		On exit  : 0/0
  5426 ;;		Unchanged: 0/0
  5427 ;; Data sizes:     COMMON   BANK0   BANK1   BANK3   BANK2
  5428 ;;      Params:         2       0       0       0       0
  5429 ;;      Locals:         2       0       0       0       0
  5430 ;;      Temps:          1       0       0       0       0
  5431 ;;      Totals:         5       0       0       0       0
  5432 ;;Total ram usage:        5 bytes
  5433 ;; Hardware stack levels used: 1
  5434 ;; This function calls:
  5435 ;;		Nothing
  5436 ;; This function is called by:
  5437 ;;		_telaInicial
  5438 ;;		_Linha2
  5439 ;; This function uses a non-reentrant model
  5440 ;;
  5441                           
  5442                           
  5443                           ;psect for function _strlen
  5444  0A50                     _strlen:
  5445                           
  5446                           ;incstack = 0
  5447                           ; Regs used in _strlen: [wreg-fsr0h+status,2+status,0]
  5448                           ;strlen@s stored from wreg
  5449  0A50  00F4               	movwf	strlen@s
  5450  0A51                     l2319:
  5451  0A51  0874               	movf	strlen@s,w
  5452  0A52  00F2               	movwf	??_strlen
  5453  0A53  0872               	movf	??_strlen,w
  5454  0A54  00F3               	movwf	strlen@cp
  5455  0A55  2A5A               	goto	l2323
  5456  0A56                     l2321:
  5457  0A56  3001               	movlw	1
  5458  0A57  00F2               	movwf	??_strlen
  5459  0A58  0872               	movf	??_strlen,w
  5460  0A59  07F3               	addwf	strlen@cp,f
  5461  0A5A                     l2323:
  5462  0A5A  0873               	movf	strlen@cp,w
  5463  0A5B  0084               	movwf	4
  5464  0A5C  1383               	bcf	3,7	;select IRP bank0
  5465  0A5D  0800               	movf	0,w
  5466  0A5E  1D03               	btfss	3,2
  5467  0A5F  2A61               	goto	u2421
  5468  0A60  2A62               	goto	u2420
  5469  0A61                     u2421:
  5470  0A61  2A56               	goto	l2321
  5471  0A62                     u2420:
  5472  0A62                     l2325:
  5473  0A62  0874               	movf	strlen@s,w
  5474  0A63  0273               	subwf	strlen@cp,w
  5475  0A64  00F0               	movwf	?_strlen
  5476  0A65  01F1               	clrf	?_strlen+1
  5477  0A66  1BF0               	btfsc	?_strlen,7
  5478  0A67  03F1               	decf	?_strlen+1,f
  5479  0A68                     l803:
  5480  0A68  0008               	return
  5481  0A69                     __end_of_strlen:
  5482                           
  5483                           	psect	text16
  5484  0AA6                     __ptext16:	
  5485 ;; *************** function _espacoLivre *****************
  5486 ;; Defined at:
  5487 ;;		line 366 in file "main.c"
  5488 ;; Parameters:    Size  Location     Type
  5489 ;;		None
  5490 ;; Auto vars:     Size  Location     Type
  5491 ;;  i               2    3[COMMON] int 
  5492 ;; Return value:  Size  Location     Type
  5493 ;;                  1    wreg      void 
  5494 ;; Registers used:
  5495 ;;		wreg, status,2, status,0, btemp+1, pclath, cstack
  5496 ;; Tracked objects:
  5497 ;;		On entry : 0/0
  5498 ;;		On exit  : 0/0
  5499 ;;		Unchanged: 0/0
  5500 ;; Data sizes:     COMMON   BANK0   BANK1   BANK3   BANK2
  5501 ;;      Params:         0       0       0       0       0
  5502 ;;      Locals:         2       0       0       0       0
  5503 ;;      Temps:          0       0       0       0       0
  5504 ;;      Totals:         2       0       0       0       0
  5505 ;;Total ram usage:        2 bytes
  5506 ;; Hardware stack levels used: 1
  5507 ;; Hardware stack levels required when called: 2
  5508 ;; This function calls:
  5509 ;;		_LCD_escreve
  5510 ;;		_LCD_linha2
  5511 ;; This function is called by:
  5512 ;;		_Linha2
  5513 ;; This function uses a non-reentrant model
  5514 ;;
  5515                           
  5516                           
  5517                           ;psect for function _espacoLivre
  5518  0AA6                     _espacoLivre:
  5519  0AA6                     l2329:	
  5520                           ;incstack = 0
  5521                           ; Regs used in _espacoLivre: [wreg+status,2+status,0+btemp+1+pclath+cstack]
  5522                           
  5523                           
  5524                           ;main.c: 367:     LCD_linha2();
  5525  0AA6  120A  158A  21F7  120A  158A  	fcall	_LCD_linha2
  5526  0AAB                     l2331:
  5527                           
  5528                           ;main.c: 368:     for (int i = 0; i < 6; i++){
  5529  0AAB  01F3               	clrf	espacoLivre@i
  5530  0AAC  01F4               	clrf	espacoLivre@i+1
  5531  0AAD                     l2337:
  5532                           
  5533                           ;main.c: 369:         LCD_escreve(' ');
  5534  0AAD  3020               	movlw	32
  5535  0AAE  120A  118A  2003  120A  158A  	fcall	_LCD_escreve
  5536  0AB3                     l2339:
  5537                           
  5538                           ;main.c: 370:     }
  5539  0AB3  3001               	movlw	1
  5540  0AB4  07F3               	addwf	espacoLivre@i,f
  5541  0AB5  1803               	skipnc
  5542  0AB6  0AF4               	incf	espacoLivre@i+1,f
  5543  0AB7  3000               	movlw	0
  5544  0AB8  07F4               	addwf	espacoLivre@i+1,f
  5545  0AB9                     l2341:
  5546  0AB9  0874               	movf	espacoLivre@i+1,w
  5547  0ABA  3A80               	xorlw	128
  5548  0ABB  00FF               	movwf	btemp+1
  5549  0ABC  3080               	movlw	128
  5550  0ABD  027F               	subwf	btemp+1,w
  5551  0ABE  1D03               	skipz
  5552  0ABF  2AC2               	goto	u2435
  5553  0AC0  3006               	movlw	6
  5554  0AC1  0273               	subwf	espacoLivre@i,w
  5555  0AC2                     u2435:
  5556  0AC2  1C03               	skipc
  5557  0AC3  2AC5               	goto	u2431
  5558  0AC4  2AC6               	goto	u2430
  5559  0AC5                     u2431:
  5560  0AC5  2AAD               	goto	l2337
  5561  0AC6                     u2430:
  5562  0AC6                     l206:
  5563  0AC6  0008               	return
  5564  0AC7                     __end_of_espacoLivre:
  5565                           
  5566                           	psect	text17
  5567  09F7                     __ptext17:	
  5568 ;; *************** function _LCD_linha2 *****************
  5569 ;; Defined at:
  5570 ;;		line 73 in file "./lcd.h"
  5571 ;; Parameters:    Size  Location     Type
  5572 ;;		None
  5573 ;; Auto vars:     Size  Location     Type
  5574 ;;		None
  5575 ;; Return value:  Size  Location     Type
  5576 ;;                  1    wreg      void 
  5577 ;; Registers used:
  5578 ;;		wreg, status,2, status,0, btemp+1, pclath, cstack
  5579 ;; Tracked objects:
  5580 ;;		On entry : 0/0
  5581 ;;		On exit  : 0/0
  5582 ;;		Unchanged: 0/0
  5583 ;; Data sizes:     COMMON   BANK0   BANK1   BANK3   BANK2
  5584 ;;      Params:         0       0       0       0       0
  5585 ;;      Locals:         0       0       0       0       0
  5586 ;;      Temps:          0       0       0       0       0
  5587 ;;      Totals:         0       0       0       0       0
  5588 ;;Total ram usage:        0 bytes
  5589 ;; Hardware stack levels used: 1
  5590 ;; Hardware stack levels required when called: 1
  5591 ;; This function calls:
  5592 ;;		_delay
  5593 ;; This function is called by:
  5594 ;;		_Linha2
  5595 ;;		_espacoLivre
  5596 ;;		_listaZonas
  5597 ;; This function uses a non-reentrant model
  5598 ;;
  5599                           
  5600                           
  5601                           ;psect for function _LCD_linha2
  5602  09F7                     _LCD_linha2:
  5603  09F7                     l2123:	
  5604                           ;incstack = 0
  5605                           ; Regs used in _LCD_linha2: [wreg+status,2+status,0+btemp+1+pclath+cstack]
  5606                           
  5607                           
  5608                           ;./lcd.h: 74:     PORTD = 0xC0;
  5609  09F7  30C0               	movlw	192
  5610  09F8  1283               	bcf	3,5	;RP0=0, select bank0
  5611  09F9  1303               	bcf	3,6	;RP1=0, select bank0
  5612  09FA  0088               	movwf	8	;volatile
  5613  09FB                     l2125:
  5614                           
  5615                           ;./lcd.h: 75:     RA5 = 0;
  5616  09FB  1285               	bcf	5,5	;volatile
  5617  09FC                     l2127:
  5618                           
  5619                           ;./lcd.h: 76:     RA4 = 0;
  5620  09FC  1205               	bcf	5,4	;volatile
  5621  09FD                     l2129:
  5622                           
  5623                           ;./lcd.h: 77:     RA3=0;
  5624  09FD  1185               	bcf	5,3	;volatile
  5625  09FE                     l2131:
  5626                           
  5627                           ;./lcd.h: 78:     delay();
  5628  09FE  120A  158A  223A  120A  158A  	fcall	_delay
  5629  0A03                     l2133:
  5630                           
  5631                           ;./lcd.h: 79:  RA3 = 1;
  5632  0A03  1283               	bcf	3,5	;RP0=0, select bank0
  5633  0A04  1303               	bcf	3,6	;RP1=0, select bank0
  5634  0A05  1585               	bsf	5,3	;volatile
  5635  0A06                     l74:
  5636  0A06  0008               	return
  5637  0A07                     __end_of_LCD_linha2:
  5638                           
  5639                           	psect	text18
  5640  0003                     __ptext18:	
  5641 ;; *************** function _LCD_escreve *****************
  5642 ;; Defined at:
  5643 ;;		line 46 in file "./lcd.h"
  5644 ;; Parameters:    Size  Location     Type
  5645 ;;  x               1    wreg     unsigned char 
  5646 ;; Auto vars:     Size  Location     Type
  5647 ;;  x               1    2[COMMON] unsigned char 
  5648 ;; Return value:  Size  Location     Type
  5649 ;;                  1    wreg      void 
  5650 ;; Registers used:
  5651 ;;		wreg, status,2, status,0, btemp+1, pclath, cstack
  5652 ;; Tracked objects:
  5653 ;;		On entry : 0/0
  5654 ;;		On exit  : 0/0
  5655 ;;		Unchanged: 0/0
  5656 ;; Data sizes:     COMMON   BANK0   BANK1   BANK3   BANK2
  5657 ;;      Params:         0       0       0       0       0
  5658 ;;      Locals:         1       0       0       0       0
  5659 ;;      Temps:          0       0       0       0       0
  5660 ;;      Totals:         1       0       0       0       0
  5661 ;;Total ram usage:        1 bytes
  5662 ;; Hardware stack levels used: 1
  5663 ;; Hardware stack levels required when called: 1
  5664 ;; This function calls:
  5665 ;;		_delay
  5666 ;; This function is called by:
  5667 ;;		_teclado
  5668 ;;		_telaInicial
  5669 ;;		_Linha2
  5670 ;;		_espacoLivre
  5671 ;;		_validaUser
  5672 ;;		_LCD_escreveFrase
  5673 ;;		_escreveMesagem
  5674 ;; This function uses a non-reentrant model
  5675 ;;
  5676                           
  5677                           
  5678                           ;psect for function _LCD_escreve
  5679  0003                     _LCD_escreve:
  5680                           
  5681                           ;incstack = 0
  5682                           ; Regs used in _LCD_escreve: [wreg+status,2+status,0+btemp+1+pclath+cstack]
  5683                           ;LCD_escreve@x stored from wreg
  5684  0003  00F2               	movwf	LCD_escreve@x
  5685  0004                     l2111:
  5686                           
  5687                           ;./lcd.h: 46: void LCD_escreve(char x);./lcd.h: 47: {;./lcd.h: 48:  PORTD = x;
  5688  0004  0872               	movf	LCD_escreve@x,w
  5689  0005  1283               	bcf	3,5	;RP0=0, select bank0
  5690  0006  1303               	bcf	3,6	;RP1=0, select bank0
  5691  0007  0088               	movwf	8	;volatile
  5692  0008                     l2113:
  5693                           
  5694                           ;./lcd.h: 49:  RA5 = 1;
  5695  0008  1685               	bsf	5,5	;volatile
  5696  0009                     l2115:
  5697                           
  5698                           ;./lcd.h: 50:  RA4 = 0;
  5699  0009  1205               	bcf	5,4	;volatile
  5700  000A                     l2117:
  5701                           
  5702                           ;./lcd.h: 51:  RA3 = 0;
  5703  000A  1185               	bcf	5,3	;volatile
  5704  000B                     l2119:
  5705                           
  5706                           ;./lcd.h: 52:  delay();
  5707  000B  120A  158A  223A  120A  118A  	fcall	_delay
  5708  0010                     l2121:
  5709                           
  5710                           ;./lcd.h: 53:  RA3 = 1;
  5711  0010  1283               	bcf	3,5	;RP0=0, select bank0
  5712  0011  1303               	bcf	3,6	;RP1=0, select bank0
  5713  0012  1585               	bsf	5,3	;volatile
  5714  0013                     l65:
  5715  0013  0008               	return
  5716  0014                     __end_of_LCD_escreve:
  5717                           
  5718                           	psect	text19
  5719  0B6C                     __ptext19:	
  5720 ;; *************** function _LCD_init *****************
  5721 ;; Defined at:
  5722 ;;		line 31 in file "./lcd.h"
  5723 ;; Parameters:    Size  Location     Type
  5724 ;;		None
  5725 ;; Auto vars:     Size  Location     Type
  5726 ;;		None
  5727 ;; Return value:  Size  Location     Type
  5728 ;;                  1    wreg      void 
  5729 ;; Registers used:
  5730 ;;		wreg, status,2, status,0, btemp+1, pclath, cstack
  5731 ;; Tracked objects:
  5732 ;;		On entry : 0/0
  5733 ;;		On exit  : 0/0
  5734 ;;		Unchanged: 0/0
  5735 ;; Data sizes:     COMMON   BANK0   BANK1   BANK3   BANK2
  5736 ;;      Params:         0       0       0       0       0
  5737 ;;      Locals:         0       0       0       0       0
  5738 ;;      Temps:          0       0       0       0       0
  5739 ;;      Totals:         0       0       0       0       0
  5740 ;;Total ram usage:        0 bytes
  5741 ;; Hardware stack levels used: 1
  5742 ;; Hardware stack levels required when called: 2
  5743 ;; This function calls:
  5744 ;;		_LCD_enable
  5745 ;;		_init
  5746 ;; This function is called by:
  5747 ;;		_main
  5748 ;; This function uses a non-reentrant model
  5749 ;;
  5750                           
  5751                           
  5752                           ;psect for function _LCD_init
  5753  0B6C                     _LCD_init:
  5754  0B6C                     l2365:	
  5755                           ;incstack = 0
  5756                           ; Regs used in _LCD_init: [wreg+status,2+status,0+btemp+1+pclath+cstack]
  5757                           
  5758                           
  5759                           ;./lcd.h: 33:     init();
  5760  0B6C  120A  158A  21DD  120A  158A  	fcall	_init
  5761  0B71                     l2367:
  5762                           
  5763                           ;./lcd.h: 34:  PORTD = 0X1;
  5764  0B71  3001               	movlw	1
  5765  0B72  1283               	bcf	3,5	;RP0=0, select bank0
  5766  0B73  1303               	bcf	3,6	;RP1=0, select bank0
  5767  0B74  0088               	movwf	8	;volatile
  5768  0B75                     l2369:
  5769                           
  5770                           ;./lcd.h: 35:  LCD_enable();
  5771  0B75  120A  158A  21E9  120A  158A  	fcall	_LCD_enable
  5772  0B7A                     l2371:
  5773                           
  5774                           ;./lcd.h: 36:  PORTD = 0X38;
  5775  0B7A  3038               	movlw	56
  5776  0B7B  1283               	bcf	3,5	;RP0=0, select bank0
  5777  0B7C  1303               	bcf	3,6	;RP1=0, select bank0
  5778  0B7D  0088               	movwf	8	;volatile
  5779  0B7E                     l2373:
  5780                           
  5781                           ;./lcd.h: 37:  LCD_enable();
  5782  0B7E  120A  158A  21E9  120A  158A  	fcall	_LCD_enable
  5783  0B83                     l2375:
  5784                           
  5785                           ;./lcd.h: 38:  PORTD = 0X0e;
  5786  0B83  300E               	movlw	14
  5787  0B84  1283               	bcf	3,5	;RP0=0, select bank0
  5788  0B85  1303               	bcf	3,6	;RP1=0, select bank0
  5789  0B86  0088               	movwf	8	;volatile
  5790  0B87                     l2377:
  5791                           
  5792                           ;./lcd.h: 39:  LCD_enable();
  5793  0B87  120A  158A  21E9  120A  158A  	fcall	_LCD_enable
  5794  0B8C                     l2379:
  5795                           
  5796                           ;./lcd.h: 40:  PORTD = 0X06;
  5797  0B8C  3006               	movlw	6
  5798  0B8D  1283               	bcf	3,5	;RP0=0, select bank0
  5799  0B8E  1303               	bcf	3,6	;RP1=0, select bank0
  5800  0B8F  0088               	movwf	8	;volatile
  5801  0B90                     l2381:
  5802                           
  5803                           ;./lcd.h: 41:  LCD_enable();
  5804  0B90  120A  158A  21E9  120A  158A  	fcall	_LCD_enable
  5805  0B95                     l2383:
  5806                           
  5807                           ;./lcd.h: 42:  PORTD = 0X80;
  5808  0B95  3080               	movlw	128
  5809  0B96  1283               	bcf	3,5	;RP0=0, select bank0
  5810  0B97  1303               	bcf	3,6	;RP1=0, select bank0
  5811  0B98  0088               	movwf	8	;volatile
  5812  0B99                     l2385:
  5813                           
  5814                           ;./lcd.h: 43:  LCD_enable();
  5815  0B99  120A  158A  21E9  120A  158A  	fcall	_LCD_enable
  5816  0B9E                     l62:
  5817  0B9E  0008               	return
  5818  0B9F                     __end_of_LCD_init:
  5819                           
  5820                           	psect	text20
  5821  09DD                     __ptext20:	
  5822 ;; *************** function _init *****************
  5823 ;; Defined at:
  5824 ;;		line 23 in file "./lcd.h"
  5825 ;; Parameters:    Size  Location     Type
  5826 ;;		None
  5827 ;; Auto vars:     Size  Location     Type
  5828 ;;		None
  5829 ;; Return value:  Size  Location     Type
  5830 ;;                  1    wreg      void 
  5831 ;; Registers used:
  5832 ;;		wreg, status,2
  5833 ;; Tracked objects:
  5834 ;;		On entry : 0/0
  5835 ;;		On exit  : 0/0
  5836 ;;		Unchanged: 0/0
  5837 ;; Data sizes:     COMMON   BANK0   BANK1   BANK3   BANK2
  5838 ;;      Params:         0       0       0       0       0
  5839 ;;      Locals:         0       0       0       0       0
  5840 ;;      Temps:          0       0       0       0       0
  5841 ;;      Totals:         0       0       0       0       0
  5842 ;;Total ram usage:        0 bytes
  5843 ;; Hardware stack levels used: 1
  5844 ;; This function calls:
  5845 ;;		Nothing
  5846 ;; This function is called by:
  5847 ;;		_LCD_init
  5848 ;; This function uses a non-reentrant model
  5849 ;;
  5850                           
  5851                           
  5852                           ;psect for function _init
  5853  09DD                     _init:
  5854  09DD                     l2149:	
  5855                           ;incstack = 0
  5856                           ; Regs used in _init: [wreg+status,2]
  5857                           
  5858                           
  5859                           ;./lcd.h: 25:  ADCON1 = 0X07;
  5860  09DD  3007               	movlw	7
  5861  09DE  1683               	bsf	3,5	;RP0=1, select bank1
  5862  09DF  1303               	bcf	3,6	;RP1=0, select bank1
  5863  09E0  009F               	movwf	31	;volatile
  5864  09E1                     l2151:
  5865                           
  5866                           ;./lcd.h: 26:      RA1=1;
  5867  09E1  1283               	bcf	3,5	;RP0=0, select bank0
  5868  09E2  1303               	bcf	3,6	;RP1=0, select bank0
  5869  09E3  1485               	bsf	5,1	;volatile
  5870  09E4                     l2153:
  5871                           
  5872                           ;./lcd.h: 27:  TRISA = 0X00;
  5873  09E4  1683               	bsf	3,5	;RP0=1, select bank1
  5874  09E5  1303               	bcf	3,6	;RP1=0, select bank1
  5875  09E6  0185               	clrf	5	;volatile
  5876  09E7                     l2155:
  5877                           
  5878                           ;./lcd.h: 28:  TRISD = 0X00;
  5879  09E7  0188               	clrf	8	;volatile
  5880  09E8                     l59:
  5881  09E8  0008               	return
  5882  09E9                     __end_of_init:
  5883                           
  5884                           	psect	text21
  5885  09E9                     __ptext21:	
  5886 ;; *************** function _LCD_enable *****************
  5887 ;; Defined at:
  5888 ;;		line 85 in file "./lcd.h"
  5889 ;; Parameters:    Size  Location     Type
  5890 ;;		None
  5891 ;; Auto vars:     Size  Location     Type
  5892 ;;		None
  5893 ;; Return value:  Size  Location     Type
  5894 ;;                  1    wreg      void 
  5895 ;; Registers used:
  5896 ;;		wreg, status,2, status,0, btemp+1, pclath, cstack
  5897 ;; Tracked objects:
  5898 ;;		On entry : 0/0
  5899 ;;		On exit  : 0/0
  5900 ;;		Unchanged: 0/0
  5901 ;; Data sizes:     COMMON   BANK0   BANK1   BANK3   BANK2
  5902 ;;      Params:         0       0       0       0       0
  5903 ;;      Locals:         0       0       0       0       0
  5904 ;;      Temps:          0       0       0       0       0
  5905 ;;      Totals:         0       0       0       0       0
  5906 ;;Total ram usage:        0 bytes
  5907 ;; Hardware stack levels used: 1
  5908 ;; Hardware stack levels required when called: 1
  5909 ;; This function calls:
  5910 ;;		_delay
  5911 ;; This function is called by:
  5912 ;;		_LCD_init
  5913 ;; This function uses a non-reentrant model
  5914 ;;
  5915                           
  5916                           
  5917                           ;psect for function _LCD_enable
  5918  09E9                     _LCD_enable:
  5919  09E9                     l2157:	
  5920                           ;incstack = 0
  5921                           ; Regs used in _LCD_enable: [wreg+status,2+status,0+btemp+1+pclath+cstack]
  5922                           
  5923                           
  5924                           ;./lcd.h: 87:  RA5 = 0;
  5925  09E9  1283               	bcf	3,5	;RP0=0, select bank0
  5926  09EA  1303               	bcf	3,6	;RP1=0, select bank0
  5927  09EB  1285               	bcf	5,5	;volatile
  5928                           
  5929                           ;./lcd.h: 88:  RA4 = 0;
  5930  09EC  1205               	bcf	5,4	;volatile
  5931                           
  5932                           ;./lcd.h: 89:  RA3 = 0;
  5933  09ED  1185               	bcf	5,3	;volatile
  5934  09EE                     l2159:
  5935                           
  5936                           ;./lcd.h: 90:  delay();
  5937  09EE  120A  158A  223A  120A  158A  	fcall	_delay
  5938  09F3                     l2161:
  5939                           
  5940                           ;./lcd.h: 91:  RA3 = 1;
  5941  09F3  1283               	bcf	3,5	;RP0=0, select bank0
  5942  09F4  1303               	bcf	3,6	;RP1=0, select bank0
  5943  09F5  1585               	bsf	5,3	;volatile
  5944  09F6                     l77:
  5945  09F6  0008               	return
  5946  09F7                     __end_of_LCD_enable:
  5947                           
  5948                           	psect	text22
  5949  0A3A                     __ptext22:	
  5950 ;; *************** function _delay *****************
  5951 ;; Defined at:
  5952 ;;		line 94 in file "./lcd.h"
  5953 ;; Parameters:    Size  Location     Type
  5954 ;;		None
  5955 ;; Auto vars:     Size  Location     Type
  5956 ;;  i               2    0[COMMON] int 
  5957 ;; Return value:  Size  Location     Type
  5958 ;;                  1    wreg      void 
  5959 ;; Registers used:
  5960 ;;		wreg, status,2, btemp+1
  5961 ;; Tracked objects:
  5962 ;;		On entry : 0/0
  5963 ;;		On exit  : 0/0
  5964 ;;		Unchanged: 0/0
  5965 ;; Data sizes:     COMMON   BANK0   BANK1   BANK3   BANK2
  5966 ;;      Params:         0       0       0       0       0
  5967 ;;      Locals:         2       0       0       0       0
  5968 ;;      Temps:          0       0       0       0       0
  5969 ;;      Totals:         2       0       0       0       0
  5970 ;;Total ram usage:        2 bytes
  5971 ;; Hardware stack levels used: 1
  5972 ;; This function calls:
  5973 ;;		Nothing
  5974 ;; This function is called by:
  5975 ;;		_LCD_escreve
  5976 ;;		_LCD_limpa
  5977 ;;		_LCD_linha1
  5978 ;;		_LCD_linha2
  5979 ;;		_LCD_enable
  5980 ;; This function uses a non-reentrant model
  5981 ;;
  5982                           
  5983                           
  5984                           ;psect for function _delay
  5985  0A3A                     _delay:
  5986  0A3A                     l1935:	
  5987                           ;incstack = 0
  5988                           ; Regs used in _delay: [wreg+status,2+btemp+1]
  5989                           
  5990                           
  5991                           ;./lcd.h: 96:  int i;;./lcd.h: 97:  for (i = 0;i < 5000;i++);
  5992  0A3A  01F0               	clrf	delay@i
  5993  0A3B  01F1               	clrf	delay@i+1
  5994  0A3C                     l1941:
  5995  0A3C  3001               	movlw	1
  5996  0A3D  07F0               	addwf	delay@i,f
  5997  0A3E  1803               	skipnc
  5998  0A3F  0AF1               	incf	delay@i+1,f
  5999  0A40  3000               	movlw	0
  6000  0A41  07F1               	addwf	delay@i+1,f
  6001  0A42                     l1943:
  6002  0A42  0871               	movf	delay@i+1,w
  6003  0A43  3A80               	xorlw	128
  6004  0A44  00FF               	movwf	btemp+1
  6005  0A45  3093               	movlw	147
  6006  0A46  027F               	subwf	btemp+1,w
  6007  0A47  1D03               	skipz
  6008  0A48  2A4B               	goto	u1805
  6009  0A49  3088               	movlw	136
  6010  0A4A  0270               	subwf	delay@i,w
  6011  0A4B                     u1805:
  6012  0A4B  1C03               	skipc
  6013  0A4C  2A4E               	goto	u1801
  6014  0A4D  2A4F               	goto	u1800
  6015  0A4E                     u1801:
  6016  0A4E  2A3C               	goto	l1941
  6017  0A4F                     u1800:
  6018  0A4F                     l82:
  6019  0A4F  0008               	return
  6020  0A50                     __end_of_delay:
  6021  007E                     btemp	set	126	;btemp
  6022  007E                     wtemp0	set	126

Data Sizes:
    Strings     0
    Constant    0
    Data        235
    BSS         6
    Persistent  0
    Stack       0

Auto Spaces:
    Space          Size  Autos    Used
    COMMON           14     14      14
    BANK0            80     37      74
    BANK1            80      0      74
    BANK3            96      0      87
    BANK2            96      0      43

Pointer List with Targets:

    strlen@s	PTR const unsigned char  size(1) Largest target is 15
		 -> msgMascara(BANK0[5]), msgDigiteSenha(BANK1[15]), 

    strlen@cp	PTR const unsigned char  size(1) Largest target is 15
		 -> msgMascara(BANK0[5]), msgDigiteSenha(BANK1[15]), 

    strcpy@from	PTR const unsigned char  size(1) Largest target is 5
		 -> senhaUserConfere(BANK0[5]), 

    strcpy@to	PTR unsigned char  size(1) Largest target is 5
		 -> senhaUserConfere(BANK0[5]), 

    strcpy@cp	PTR unsigned char  size(1) Largest target is 5
		 -> senhaUserConfere(BANK0[5]), 

    strcat@from	PTR const unsigned char  size(2) Largest target is 512
		 -> RAM(DATA[512]), RAM(DATA[512]), RAM(DATA[512]), RAM(DATA[512]), 
		 -> RAM(DATA[512]), RAM(DATA[512]), RAM(DATA[512]), RAM(DATA[512]), 
		 -> RAM(DATA[512]), RAM(DATA[512]), NULL(NULL[0]), RAM(DATA[512]), 
		 -> RAM(DATA[512]), RAM(DATA[512]), 

    strcat@to	PTR unsigned char  size(1) Largest target is 5
		 -> senhaUserConfere(BANK0[5]), 

    strcat@cp	PTR unsigned char  size(1) Largest target is 5
		 -> senhaUserConfere(BANK0[5]), 

    sp__strcat	PTR unsigned char  size(1) Largest target is 5
		 -> senhaUserConfere(BANK0[5]), 

    sp__strcpy	PTR unsigned char  size(1) Largest target is 5
		 -> senhaUserConfere(BANK0[5]), 

    aux	PTR unsigned char  size(2) Largest target is 512
		 -> RAM(DATA[512]), RAM(DATA[512]), RAM(DATA[512]), RAM(DATA[512]), 
		 -> RAM(DATA[512]), RAM(DATA[512]), RAM(DATA[512]), RAM(DATA[512]), 
		 -> RAM(DATA[512]), RAM(DATA[512]), NULL(NULL[0]), RAM(DATA[512]), 
		 -> RAM(DATA[512]), RAM(DATA[512]), 


Critical Paths under _main in COMMON

    _liga_buzzer->___flmul
    ___flsub->___fladd
    ___flmul->__Umul8_16
    _strcat->_strcpy
    _LCD_limpa->_delay
    _telaInicial->_strlen
    _LCD_linha1->_delay
    _Linha2->_espacoLivre
    _Linha2->_strlen
    _espacoLivre->_LCD_escreve
    _LCD_linha2->_delay
    _LCD_escreve->_delay
    _LCD_enable->_delay

Critical Paths under _main in BANK0

    _main->_validaUser
    _validaUser->_teclado
    _teclado->_liga_buzzer
    _liga_buzzer->___flmul
    ___flsub->___fladd

Critical Paths under _main in BANK1

    None.

Critical Paths under _main in BANK3

    None.

Critical Paths under _main in BANK2

    None.

Call Graph Tables:

 ---------------------------------------------------------------------------------
 (Depth) Function   	        Calls       Base Space   Used Autos Params    Refs
 ---------------------------------------------------------------------------------
 (0) _main                                                 0     0      0   14391
                           _LCD_init
                          _LCD_limpa
                             _Linha2
                            _teclado
                        _telaInicial
                         _validaUser
 ---------------------------------------------------------------------------------
 (1) _validaUser                                           7     7      0    7071
                                             30 BANK0      7     7      0
                        _LCD_escreve
                          _LCD_limpa
                             _strcat
                             _strcpy
                            _teclado
 ---------------------------------------------------------------------------------
 (2) _teclado                                              3     3      0    6436
                                             27 BANK0      3     3      0
                        _LCD_escreve
                        _liga_buzzer
 ---------------------------------------------------------------------------------
 (3) _liga_buzzer                                          6     2      4    6368
                                             21 BANK0      6     2      4
                             ___flge
                            ___flmul
                            ___flsub
 ---------------------------------------------------------------------------------
 (4) ___flsub                                              8     0      8    2333
                                              8 BANK0      8     0      8
                            ___fladd
 ---------------------------------------------------------------------------------
 (5) ___fladd                                             20    12      8    2136
                                              0 COMMON    12     4      8
                                              0 BANK0      8     8      0
 ---------------------------------------------------------------------------------
 (4) ___flmul                                             26    18      8    2417
                                              9 COMMON     5     5      0
                                              0 BANK0     21    13      8
                          __Umul8_16
 ---------------------------------------------------------------------------------
 (5) __Umul8_16                                            9     7      2     799
                                              0 COMMON     9     7      2
 ---------------------------------------------------------------------------------
 (4) ___flge                                              12     4      8     334
                                              0 COMMON    12     4      8
 ---------------------------------------------------------------------------------
 (2) _strcpy                                               4     3      1     200
                                              0 COMMON     4     3      1
 ---------------------------------------------------------------------------------
 (2) _strcat                                               5     3      2     207
                                              4 COMMON     5     3      2
                             _strcpy (ARG)
 ---------------------------------------------------------------------------------
 (2) _LCD_limpa                                            0     0      0      46
                              _delay
 ---------------------------------------------------------------------------------
 (1) _telaInicial                                          4     4      0     316
                                              5 COMMON     4     4      0
                        _LCD_escreve
                         _LCD_linha1
                             _strlen
 ---------------------------------------------------------------------------------
 (2) _LCD_linha1                                           0     0      0      46
                              _delay
 ---------------------------------------------------------------------------------
 (1) _Linha2                                               4     4      0     476
                                              5 COMMON     4     4      0
                        _LCD_escreve
                         _LCD_linha2
                        _espacoLivre
                             _strlen
 ---------------------------------------------------------------------------------
 (2) _strlen                                               5     3      2     156
                                              0 COMMON     5     3      2
 ---------------------------------------------------------------------------------
 (2) _espacoLivre                                          2     2      0     160
                                              3 COMMON     2     2      0
                        _LCD_escreve
                         _LCD_linha2
 ---------------------------------------------------------------------------------
 (3) _LCD_linha2                                           0     0      0      46
                              _delay
 ---------------------------------------------------------------------------------
 (3) _LCD_escreve                                          1     1      0      68
                                              2 COMMON     1     1      0
                              _delay
 ---------------------------------------------------------------------------------
 (1) _LCD_init                                             0     0      0      46
                         _LCD_enable
                               _init
 ---------------------------------------------------------------------------------
 (2) _init                                                 0     0      0       0
 ---------------------------------------------------------------------------------
 (2) _LCD_enable                                           0     0      0      46
                              _delay
 ---------------------------------------------------------------------------------
 (4) _delay                                                2     2      0      46
                                              0 COMMON     2     2      0
 ---------------------------------------------------------------------------------
 Estimated maximum stack depth 5
 ---------------------------------------------------------------------------------

 Call Graph Graphs:

 _main (ROOT)
   _LCD_init
     _LCD_enable
       _delay
     _init
   _LCD_limpa
     _delay
   _Linha2
     _LCD_escreve
       _delay
     _LCD_linha2
       _delay
     _espacoLivre
       _LCD_escreve
       _LCD_linha2
     _strlen
   _teclado
     _LCD_escreve
     _liga_buzzer
       ___flge
       ___flmul
         __Umul8_16
       ___flsub
         ___fladd
   _telaInicial
     _LCD_escreve
     _LCD_linha1
       _delay
     _strlen
   _validaUser
     _LCD_escreve
     _LCD_limpa
     _strcat
       _strcpy (ARG)
     _strcpy
     _teclado

 Address spaces:
Name               Size   Autos  Total    Cost      Usage
BANK3               60      0      57       9       90.6%
BITBANK3            60      0       0       8        0.0%
SFR3                 0      0       0       4        0.0%
BITSFR3              0      0       0       4        0.0%
BANK2               60      0      2B      11       44.8%
BITBANK2            60      0       0      10        0.0%
SFR2                 0      0       0       5        0.0%
BITSFR2              0      0       0       5        0.0%
BANK1               50      0      4A       7       92.5%
BITBANK1            50      0       0       6        0.0%
SFR1                 0      0       0       2        0.0%
BITSFR1              0      0       0       2        0.0%
BANK0               50     25      4A       5       92.5%
BITBANK0            50      0       0       4        0.0%
SFR0                 0      0       0       1        0.0%
BITSFR0              0      0       0       1        0.0%
COMMON               E      E       E       1      100.0%
BITCOMMON            E      0       0       0        0.0%
CODE                 0      0       0       0        0.0%
DATA                 0      0     124      12        0.0%
ABS                  0      0     124       3        0.0%
NULL                 0      0       0       0        0.0%
STACK                0      0       0       2        0.0%
EEDATA             100      0       0       0        0.0%


Microchip Technology PIC Macro Assembler V2.32 build 20210201212658 
Symbol Table                                                                                   Sat Oct 02 00:14:25 2021

                       pc 0002                        l62 0B9E                        l71 0A16  
                      l65 0013                        l82 0A4F                        l74 0A06  
                      l59 09E8                        l68 0A26                        l77 09F6  
                      fsr 0004       __Umul8_16@word_mpld 0076               ?_LCD_enable 0070  
                     l201 0C0D                       l206 0AC6                       l160 0D67  
                     l511 009C                       l512 00B5                       l184 03B8  
                     l177 030C                       l169 0256                       l195 0C4A  
                     l508 0030                       l189 045E                       l631 0E74  
                     l640 0FFF                       l633 0E49                       l803 0A68  
                     l723 07BF                       l627 0DCB                       l652 0F6B  
                     l661 0FCD                       l742 0AFF                       l670 0FFF  
                     l735 07B3                       l744 0B11                       l648 0F45  
                     l729 072B                       l673 0AEA                       l658 0F8D  
                     l669 0FF1                       l791 0B6B                       l797 0A86  
                     _RA1 0029                       _RB0 0030                       _RA3 002B  
                     _RB1 0031                       _RA4 002C                       _RB2 0032  
                     _RA5 002D                       _RB3 0033               ?_LCD_linha1 0070  
             ?_LCD_linha2 0070                       _aux 0068                       fsr0 0004  
                     indf 0000              ___flmul@aexp 002D              ___flmul@bexp 002E  
            ___flmul@sign 0028              ___flmul@temp 0033              ___flmul@prod 002F  
                    l2001 04A7                      l2011 04C3                      l2003 04AF  
                    l2101 07A7                      l2021 0506                      l2005 04B1  
                    l2111 0004                      l2103 07AB                      l2031 058F  
                    l2023 0522                      l2015 04CC                      l2007 04B9  
                    l2121 0010                      l2113 0008                      l2105 07AC  
                    l2041 0602                      l2033 059F                      l2025 054E  
                    l2017 04DC                      l2009 04BE                      l2201 01D3  
                    l2115 0009                      l2131 09FE                      l2123 09F7  
                    l2107 07B7                      l2051 06AF                      l2043 061F  
                    l2035 05BC                      l2027 056A                      l2019 04E9  
                    l2211 020E                      l2203 01E1                      l2117 000A  
                    l2133 0A03                      l2125 09FB                      l2061 06FB  
                    l2053 06D7                      l2045 064C                      l2037 05CC  
                    l2029 0586                      l2141 0D1C                      l2301 0406  
                    l2221 024A                      l2213 021D                      l2205 01F0  
                    l2151 09E1                      l2119 000B                      l2127 09FC  
                    l2071 0710                      l2063 06FC                      l2055 06E0  
                    l2047 065C                      l2039 05E9                      l2143 0D27  
                    l2135 0CEC                      l2311 0435                      l2303 040C  
                    l2231 0285                      l2223 0258                      l2215 0229  
                    l2207 01FC                      l2161 09F3                      l2153 09E4  
                    l2129 09FD                      l2321 0A56                      l2401 0BDD  
                    l2081 0735                      l2073 0714                      l2065 0705  
                    l2057 06EE                      l2049 0689                      l2145 0D48  
                    l2137 0D0D                      l2313 043B                      l2305 0412  
                    l2241 02B6                      l2233 0289                      l2225 025C  
                    l2217 022D                      l2209 0200                      l2155 09E7  
                    l2331 0AAB                      l2323 0A5A                      l2403 0BE0  
                    l2171 0A1E                      l2163 0A17                      l2091 0773  
                    l2083 0743                      l2075 0728                      l2059 06F7  
                    l2067 070B                      l2147 0D63                      l2139 0D19  
                    l2315 0449                      l2307 0420                      l2251 02F1  
                    l2243 02C4                      l2235 0297                      l2227 026A  
                    l2219 023B                      l2411 00B6                      l2157 09E9  
                    l2149 09DD                      l2341 0AB9                      l2325 0A62  
                    l2405 0BEA                      l2181 0A0D                      l2173 0A23  
                    l2165 0A1B                      l2093 077E                      l2085 0747  
                    l2069 070F                      l2317 0458                      l2309 042F  
                    l2261 032F                      l2253 0300                      l2245 02D3  
                    l2237 02A6                      l2229 0279                      l2421 00D7  
                    l2413 00BD                      l2159 09EE                      l2319 0A51  
                    l2407 0BF0                      l2183 0A0E                      l2175 0A07  
                    l2167 0A1C                      l2343 0A6A                      l2095 078D  
                    l2087 0760                      l2079 0730                      l2271 0368  
                    l2263 033B                      l2255 030E                      l2247 02DF  
                    l2239 02B2                      l2191 01A8                      l2431 00F7  
                    l2423 00DC                      l2415 00C1                      l2337 0AAD  
                    l2329 0AA6                      l2409 0C08                      l2185 0A13  
                    l2177 0A0B                      l2169 0A1D                      l2361 0B54  
                    l2353 0B3E                      l2345 0A6F                      l2097 0797  
                    l2089 0766                      l1801 0E0D                      l2281 0395  
                    l2273 036C                      l2265 033F                      l2257 0312  
                    l2249 02E3                      l2193 01B6                      l2441 0115  
                    l2433 0101                      l2425 00E2                      l2417 00C7  
                    l2371 0B7A                      l2339 0AB3                      l2179 0A0C  
                    l2363 0B5A                      l2355 0B43                      l2347 0A77  
                    l2099 0799                      l1811 0E4D                      l1803 0E11  
                    l1731 0D75                      l2291 03CE                      l2283 03A3  
                    l2275 037A                      l2267 034D                      l2259 0320  
                    l2195 01C5                      l2187 019E                      l2451 012E  
                    l2443 011A                      l2435 0106                      l2427 00E8  
                    l2419 00D1                      l2381 0B90                      l2373 0B7E  
                    l2365 0B6C                      l2357 0B47                      l2349 0A85  
                    l1901 0FC9                      l1821 0E6A                      l1813 0E58  
                    l1805 0E15                      l1741 0D8C                      l1733 0D79  
                    l2293 03DD                      l2285 03B2                      l2277 0389  
                    l2269 035C                      l2197 01CB                      l2189 01A4  
                    l2461 0177                      l2445 011F                      l2437 010B  
                    l2429 00F2                      l2383 0B95                      l2375 0B83  
                    l2367 0B71                      l2391 0C1C                      l2359 0B50  
                    l1911 0FE5                      l1903 0FD2                      l1831 0E86  
                    l1815 0E5A                      l1823 0E6E                      l1807 0E16  
                    l1751 0DA2                      l1743 0D8D                      l1735 0D7A  
                    l1727 0D68                      l2295 03E3                      l2287 03BC  
                    l2279 038F                      l2199 01CF                      l2463 0185  
                    l2447 0124                      l2439 0110                      l2455 0133  
                    l2385 0B99                      l2377 0B87                      l2369 0B75  
                    l2393 0C26                      l1921 0AEC                      l1913 0FE9  
                    l1905 0FD7                      l1841 0EB2                      l1833 0E9D  
                    l1825 0E78                      l1817 0E5E                      l1809 0E2D  
                    l1761 0DB3                      l1753 0DA3                      l1737 0D7F  
                    l1745 0D8F                      l1729 0D6F                      l2297 03E9  
                    l2289 03C0                      l2449 0129                      l2457 0158  
                    l2465 018D                      l2481 0BA3                      l2379 0B8C  
                    l2395 0C2C                      l2387 0C0E                      l1931 0B0D  
                    l1923 0AEE                      l1915 0FEB                      l1907 0FDF  
                    l1851 0EDD                      l1843 0EB6                      l1835 0EA1  
                    l1827 0E7D                      l1819 0E5F                      l1771 0DD1  
                    l1763 0DB8                      l1755 0DA9                      l1747 0D97  
                    l1739 0D84                      l2299 03F7                      l2459 016B  
                    l2491 0BBE                      l2483 0BA5                      l1941 0A3C  
                    l2397 0C44                      l2389 0C19                      l1925 0AF5  
                    l1917 0FFA                      l1909 0FE4                      l1861 0F4D  
                    l1853 0F1D                      l1845 0EB7                      l1837 0EA5  
                    l1781 0DE5                      l1773 0DD5                      l1765 0DC0  
                    l1757 0DAD                      l1749 0D9C                      l2493 0BC2  
                    l2485 0BA9                      l1943 0A42                      l1935 0A3A  
                    l2399 0BD3                      l1951 004C                      l1927 0AF9  
                    l1919 0FFE                      l1871 0F6A                      l1863 0F52  
                    l1855 0F23                      l1847 0EC2                      l1839 0EB0  
                    l1791 0DF9                      l1783 0DE9                      l1775 0DD9  
                    l1767 0DC1                      l1759 0DAE                      l2655 0138  
                    l2495 0BCA                      l2487 0BAE                      l2479 0B9F  
                    l1961 00B4                      l1953 0050                      l1945 0014  
                    l1929 0B08                      l1873 0F6F                      l1881 0F7B  
                    l1857 0F28                      l1849 0EC7                      l1793 0DFD  
                    l1785 0DED                      l1777 0DDD                      l1769 0DC3  
                    l2489 0BB4                      l1955 0074                      l1947 0028  
                    l1971 045F                      l1875 0F72                      l1867 0F5B  
                    l1859 0F37                      l1883 0F7F                      l1795 0E01  
                    l1787 0DF1                      l1779 0DE1                      l1957 0078  
                    l1949 0044                      l1981 0476                      l1973 0466  
                    l1893 0F92                      l1885 0F80                      l1877 0F74  
                    l1869 0F66                      l1797 0E05                      l1789 0DF5  
                    l1965 0AC7                      l1959 00B2                      l1991 0492  
                    l1983 047B                      l1975 046C                      l1895 0F97  
                    l1887 0F84                      l1879 0F79                      l1799 0E09  
                    l1967 0ACB                      l1993 0498                      l1985 0483  
                    l1977 0470                      l1897 0FA5                      l1889 0F8A  
                    l1995 049C                      l1987 0485                      l1979 0471  
                    l1899 0FA9                      l1997 049D                      l1989 048D  
                    l1999 04A2                      u2011 05AE                      u2012 05B5  
                    u2101 06C9                      u2021 05DB                      u2013 05BC  
                    u2005 0588                      u2102 06D0                      u2022 05E2  
                    u1310 0D79                      u2103 06D7                      u2023 05E9  
                    u1311 0D78                      u2200 0747                      u1400 0E2D  
                    u1320 0D7F                      u2201 0746                      u2041 0611  
                    u1401 0E2C                      u1321 0D7E                      u2210 0756  
                    u2130 06FB                      u2042 0618                      u1410 0E36  
                    u1330 0D84                      u2131 06FA                      u2115 06D9  
                    u2051 063E                      u2043 061F                      u2035 05EB  
                    u1411 0E34                      u1331 0D83                      u2220 0773  
                    u2052 0645                      u1500 0EA1                      u1420 0E37  
                    u1340 0DA2                      u2300 025C                      u2221 0772  
                    u2125 06F0                      u2061 066B                      u2053 064C  
                    u1501 0EA0                      u1405 0E29                      u1341 0DA1  
                    u2301 025B                      u2230 078D                      u2150 070F  
                    u2070 0695                      u2062 0672                      u1510 0EA5  
                    u1430 0E4D                      u1350 0DAD                      u2310 0289  
                    u2231 078C                      u2215 0751                      u2151 070E  
                    u2063 0679                      u1511 0EA4                      u1431 0E4C  
                    u1351 0DAC                      u2311 0288                      u2240 07AB  
                    u2160 0714                      u1520 0EB6                      u1440 0E5E  
                    u1360 0DB3                      u2400 0412                      u2320 02B6  
                    u2241 07AA                      u2225 076F                      u2161 0713  
                    u2145 06FE                      u2081 06A1                      u1521 0EB5  
                    u1441 0E5D                      u1361 0DB2                      u2401 0411  
                    u2321 02B5                      u2170 0728                      u2090 06BD  
                    u2082 06A8                      u1610 0F6A                      u1370 0DB8  
                    u2250 0D63                      u2410 043B                      u2330 02E3  
                    u2235 0789                      u2171 0727                      u2083 06AF  
                    u2075 0690                      u1611 0F69                      u1371 0DB7  
                    u2251 0D62                      u2411 043A                      u2331 02E2  
                    u2420 0A62                      u2180 072F                      u1700 0FBA  
                    u1620 0F6F                      u1540 0EDD                      u1460 0E74  
                    u1380 0DD1                      u2340 0312                      u2260 01A8  
                    u2500 0100                      u2421 0A61                      u2181 072E  
                    u1621 0F6E                      u1605 0F5F                      u1541 0EDC  
                    u1461 0E73                      u1381 0DD0                      u2341 0311  
                    u2261 01A7                      u2501 00FF                      u2430 0AC6  
                    u2190 0735                      u1710 0FC9                      u1630 0F79  
                    u1470 0E78                      u1390 0DD5                      u2350 033F  
                    u2270 01D3                      u2510 019C                      u2431 0AC5  
                    u2191 0734                      u2095 06B8                      u1711 0FC8  
                    u1631 0F78                      u1551 0EF6                      u1543 0ED9  
                    u1535 0EBB                      u1471 0E77                      u1455 0E63  
                    u1391 0DD4                      u2351 033E                      u2271 01D2  
                    u2511 019B                      u1800 0A4F                      u2440 0A85  
                    u1720 0FD2                      u1640 0F7F                      u1560 0F0A  
                    u1552 0EF7                      u1480 0E7D                      u2360 036C  
                    u2280 0200                      u1801 0A4E                      u2441 0A84  
                    u1721 0FD1                      u1705 0FB5                      u1641 0F7E  
                    u1561 0F0B                      u1553 0EFC                      u1481 0E7C  
                    u2361 036B                      u2281 01FF                      u2450 0B4F  
                    u1810 0028                      u1730 0FD7                      u1650 0F84  
                    u1570 0F28                      u1562 0F10                      u1554 0EFD  
                    u2370 0395                      u2290 022D                      u2530 0BCA  
                    u2435 0AC2                      u2451 0B4E                      u1811 0027  
                    u1731 0FD6                      u1651 0F83                      u1571 0F27  
                    u1563 0F11                      u1555 0F02                      u1491 0E8F  
                    u2371 0394                      u2291 022C                      u2515 0198  
                    u2531 0BC9                      u2460 0B6B                      u1820 0044  
                    u1900 047B                      u1740 0FE4                      u1660 0F8A  
                    u1580 0F4D                      u1556 0F03                      u1492 0E96  
                    u2380 03C0                      u1805 0A4B                      u2461 0B6A  
                    u1821 0043                      u1901 047A                      u1741 0FE3  
                    u1661 0F89                      u1581 0F4C                      u1493 0E9D  
                    u2381 03BF                      u2470 0C44                      u1830 0050  
                    u1910 049C                      u1750 0FE9                      u1670 0F91  
                    u1590 0F52                      u2390 03E9                      u2471 0C43  
                    u1831 004F                      u1911 049B                      u1751 0FE8  
                    u1671 0F90                      u1591 0F51                      u2391 03E8  
                    u2480 0C08                      u1920 04A2                      u1760 0FFE  
                    u1680 0F97                      u2481 0C07                      u1841 005F  
                    u1921 04A1                      u1761 0FFD                      u1681 0F96  
                    u1850 0078                      u1842 0060                      u1770 0AF9  
                    u1930 04A7                      u1690 0FA9                      u2490 00D0  
                    u2475 0C40                      u1851 0077                      u1843 0065  
                    u1771 0AF8                      u1931 04A6                      u1691 0FA8  
                    u2491 00CF                      u1844 0066                      u1940 04BE  
                    u2485 0C04                      u1861 0087                      u1845 006B  
                    u1941 04BD                      u1870 00B2                      u1862 0088  
                    u1846 006C                      u1790 0B0D                      u1950 04C3  
                    u1871 00B1                      u1863 008D                      u1791 0B0C  
                    u1951 04C2                      u2807 02EB                      u2727 017F  
                    u1864 008E                      u1880 0470                      u1865 0093  
                    u1785 0B00                      u1961 0514                      u1881 046F  
                    u2817 031A                      u2737 01B0                      u1866 0094  
                    u1962 051B                      u1890 0476                      u1875 00AE  
                    u1971 0530                      u1963 0522                      u1891 0475  
                    u2907 0D22                      u2827 0347                      u2747 01DB  
                    u1972 0537                      u1981 055C                      u1973 053E  
                    u2837 0374                      u2757 0208                      u1982 0563  
                    u1991 0578                      u1983 056A                      u2847 039D  
                    u2767 0235                      u1992 057F                      u1993 0586  
                    u2857 03C8                      u2777 0264                      u2867 03F1  
                    u2787 0291                      u2877 041A                      u2797 02BE  
                    u2887 0443                      u2897 0D13              ?_LCD_escreve 0070  
                    _main 0B9F                      _init 09DD              ?_liga_buzzer 0035  
                    btemp 007E              ?_espacoLivre 0070          _senhaUserConfere 005F  
                    start 0000        __size_of_LCD_limpa 0010          __end_of_LCD_init 0B9F  
         __end_of___fladd 1000                     ?_main 0070                     ?_init 0070  
         __end_of___flmul 07C0           __end_of___flsub 0AEB                     _PORTB 0006  
                   _PORTD 0008                     _PORTE 0009                     _TRISA 0085  
                   _TRISB 0086                     _TRISD 0088                     _TRISE 0089  
                   _delay 0A3A                     _input 0058           __end_of_teclado 045F  
       _msgReativarActive 00D7                     pclath 000A                     status 0003  
                   wtemp0 007E       __size_of_LCD_enable 000E       __size_of_LCD_linha1 0010  
     __size_of_LCD_linha2 0010           __initialization 07C0              __end_of_main 0BD3  
            __end_of_init 09E9              ?_telaInicial 0070                    ??_main 007E  
                  ??_init 0070         __end_of_LCD_limpa 0A27                    ?_delay 0070  
                  _ADCON1 009F                    _Linha2 0BD3                    ___flge 0014  
               ??___fladd 0020                 ??___flmul 0079                 ??___flsub 007C  
                  _config 0066                    _painel 0056                    delay@i 0070  
                  _strcat 0B3D                    _strcpy 0A69                    _strlen 0A50  
      __size_of__Umul8_16 0027                 ??_teclado 003B                ___flge@ff1 0070  
              ___flge@ff2 0074   __end_of__initialization 07FC                 ?_LCD_init 0070  
    __size_of_LCD_escreve 0011              LCD_escreve@x 0072      __size_of_liga_buzzer 007C  
    __size_of_espacoLivre 0021            __pcstackCOMMON 0070              __pidataBANK0 0A87  
            __pidataBANK1 0C4B              __pidataBANK2 0B12              __pidataBANK3 0C95  
           __end_of_delay 0A50              ??_LCD_enable 0072              ??_LCD_linha1 0072  
            ??_LCD_linha2 0072              espacoLivre@i 0073                   ??_delay 0070  
              __pbssBANK0 0064                ??_LCD_init 0072                   ?_Linha2 0070  
      __end_of_LCD_enable 09F7         __end_of__Umul8_16 0B12        __end_of_LCD_linha1 0A17  
      __end_of_LCD_linha2 0A07                __pmaintext 0B9F                   ?___flge 0070  
                 ?_strcat 0074                   ?_strcpy 0070                   ?_strlen 0070  
    __size_of_telaInicial 003D     _msgSenhaUsuarioActive 01AE                   Linha2@i 0077  
liga_buzzer@tempoSegundos 0035           __size_of_Linha2 003B           __size_of___flge 00A2  
                 ___fladd 0D68                   ___flmul 045F                   ___flsub 0AC7  
             validaUser@i 0041               validaUser@n 0043                   __ptext1 00B6  
                 __ptext2 019E                   __ptext3 0CEC                   __ptext4 0AC7  
                 __ptext5 0D68                   __ptext6 045F                   __ptext7 0AEB  
                 __ptext8 0014                   __ptext9 0A69           __size_of_strcat 002F  
         __size_of_strcpy 001E           __size_of_strlen 0019                _msgMascara 005A  
                 _teclado 019E      end_of_initialization 07FC                 _LCD_limpa 0A17  
              _validaUser 00B6                   strlen@s 0074               ___fladd@grs 007B  
              ?_LCD_limpa 0070               ___flmul@grs 0029         __size_of_LCD_init 0033  
          __end_of_Linha2 0C0E            __end_of___flge 00B6            __end_of_strcat 0B6C  
          __end_of_strcpy 0A87            __end_of_strlen 0A69       start_initialization 07C0  
           ??_LCD_escreve 0072             ??_liga_buzzer 0039             ??_espacoLivre 0073  
             ?_validaUser 0070                  ??_Linha2 0075                  ??___flge 0078  
              init_fetch0 0A27                 __Umul8_16 0AEB               __pdataBANK0 0045  
             __pdataBANK1 00A0               __pdataBANK2 0110               __pdataBANK3 0190  
                ??_strcat 0076                  ??_strcpy 0071                  ??_strlen 0072  
               ___fladd@a 0074                 ___fladd@b 0070                 ___flmul@a 0024  
               ___flmul@b 0020                 ___flsub@a 0028                 ___flsub@b 002C  
               ___latbits 0002             __pcstackBANK0 0020               ??_LCD_limpa 0072  
     __end_of_LCD_escreve 0014       __end_of_liga_buzzer 0D68                  ?___fladd 0070  
     __end_of_espacoLivre 0AC7                  ?___flmul 0020                  ?___flsub 0028  
              ?__Umul8_16 0070              telaInicial@i 0077             ??_telaInicial 0075  
          _msgDigiteSenha 00A0                  ?_teclado 0070       __size_of_validaUser 00E8  
          __size_of_delay 0016                  _LCD_init 0B6C                 _senhaUser 004F  
               _userFalse 0054       __end_of_telaInicial 0C4B               _LCD_escreve 0003  
             _liga_buzzer 0CEC               _espacoLivre 0AA6          _msgDesativarZona 0190  
    _msgSenhaCoacaoActive 01CB               ??__Umul8_16 0072          __size_of___fladd 0298  
         _msgSenhaDisparo 01BD          __size_of___flmul 0361          __size_of___flsub 0024  
         _msgSenhaCorreta 0110                strcat@from 0074           _msgSenhaUsuario 01D9  
        __size_of_teclado 02C1                  __ptext10 0B3D                  __ptext11 0A17  
                __ptext20 09DD                  __ptext12 0C0E                  __ptext21 09E9  
                __ptext13 0A07                  __ptext22 0A3A                  __ptext14 0BD3  
                __ptext15 0A50                  __ptext16 0AA6                  __ptext17 09F7  
                __ptext18 0003                  __ptext19 0B6C                strcpy@from 0070  
           __size_of_main 0034             __size_of_init 000C              ??_validaUser 003E  
             _msgReativar 00E1                  _senhaCoa 004A    _msgDesativarZonaActive 012B  
             _telaInicial 0C0E                _LCD_enable 09E9                _LCD_linha1 0A07  
              _LCD_linha2 09F7               _senhaConfig 0045                  init_ram0 0A2B  
      __end_of_validaUser 019E            _msgSenhaCoacao 00BD            _msgSenhaConfig 00CA  
          _msgSenhaErrada 011E     _msgSenhaDisparoActive 019F      _msgSenhaConfigActive 00AF  
             _valorSensor 0064    __Umul8_16@multiplicand 0070                  strcat@cp 0078  
                strcat@to 0077                  strcpy@cp 0072                  strlen@cp 0073  
                strcpy@to 0073             ___fladd@signs 0078              ___fladd@aexp 0079  
            ___fladd@bexp 007A      __Umul8_16@multiplier 0078         __Umul8_16@product 0074  
