Microchip MPLAB XC8 Compiler V2.32

Linker command line:

-W-3 --edf=C:\Program Files\Microchip\xc8\v2.32\pic\dat\en_msgs.txt -cn \
  -h+dist/default/production\CentralAlarme.X.production.sym \
  --cmf=dist/default/production\CentralAlarme.X.production.cmf -z -Q16F877A \
  -oC:\Users\joaog\AppData\Local\Temp\xcAsjk8.4 --defsym=__MPLAB_BUILD=1 \
  -Mdist/default/production/CentralAlarme.X.production.map -E1 \
  -ver=XC8 Compiler --acfsm=1493 -ASTACK=0110h-016Fh -pstack=STACK \
  -ACODE=00h-07FFhx4 -ASTRCODE=00h-01FFFh -ASTRING=00h-0FFhx32 \
  -ACONST=00h-0FFhx32 -AENTRY=00h-0FFhx32 -ACOMMON=070h-07Fh \
  -ABANK0=020h-06Fh -ABANK1=0A0h-0EFh -ABANK2=0110h-016Fh \
  -ABANK3=0190h-01EFh -ARAM=020h-06Fh,0A0h-0EFh,0110h-016Fh,0190h-01EFh \
  -AABS1=020h-07Fh,0A0h-0EFh,0110h-016Fh,0190h-01EFh -ASFR0=00h-01Fh \
  -ASFR1=080h-09Fh -ASFR2=0100h-010Fh -ASFR3=0180h-018Fh \
  -ACONFIG=02007h-02007h -DCONFIG=2 -AIDLOC=02000h-02003h -DIDLOC=2 \
  -AEEDATA=00h-0FFh/02100h -peeprom_data=EEDATA -DEEDATA=2 -DCODE=2 \
  -DSTRCODE=2 -DSTRING=2 -DCONST=2 -DENTRY=2 \
  -preset_vec=00h,intentry,init,end_init -ppowerup=CODE -pcinit=CODE \
  -pfunctab=ENTRY -k C:\Users\joaog\AppData\Local\Temp\xcAsjk8.o \
  dist/default/production\CentralAlarme.X.production.o 

Object code version is 3.11

Machine type is 16F877A



                Name                               Link     Load   Length Selector   Space Scale
C:\Users\joaog\AppData\Local\Temp\xcAsjk8.o
                end_init                              0        0        3        0       0
dist/default/production\CentralAlarme.X.production.o
                cinit                               7EA      7EA       16      FD4       0
                text14                              4CE      4CE       16      99C       0
                text13                              458      458        E      8B0       0
                text12                              43F      43F        C      87E       0
                text11                              554      554       33      AA8       0
                text10                              466      466       10      8CC       0
                text9                               496      496       11      92C       0
                text8                               476      476       10      8EC       0
                text7                               4FD      4FD       2A      9FA       0
                text6                               4E4      4E4       19      9C8       0
                text5                               587      587       3B      B0E       0
                text4                               44B      44B        D      896       0
                text3                               5FF      5FF      1EB      BFE       0
                text2                               486      486       10      90C       0
                text1                               5C2      5C2       3D      B84       0
                maintext                            527      527       2D      A4E       0
                cstackCOMMON                         70       70        9       70       1
                inittext                            4A7      4A7       13      94E       0
                dataBANK0                            20       20       14       20       1
                bssCOMMON                            79       79        4       70       1
                idataBANK0                          4BA      4BA       14      974       0

TOTAL           Name                               Link     Load   Length     Space
        CLASS   STACK          

        CLASS   CODE           
                end_init                              0        0        3         0
                cinit                               7EA      7EA       16         0
                text14                              4CE      4CE       16         0
                text13                              458      458        E         0
                text12                              43F      43F        C         0
                text11                              554      554       33         0
                text10                              466      466       10         0
                text9                               496      496       11         0
                text8                               476      476       10         0
                text7                               4FD      4FD       2A         0
                text6                               4E4      4E4       19         0
                text5                               587      587       3B         0
                text4                               44B      44B        D         0
                text3                               5FF      5FF      1EB         0
                text2                               486      486       10         0
                text1                               5C2      5C2       3D         0
                maintext                            527      527       2D         0
                inittext                            4A7      4A7       13         0
                idataBANK0                          4BA      4BA       14         0

        CLASS   STRCODE        

        CLASS   STRING         

        CLASS   CONST          

        CLASS   ENTRY          

        CLASS   COMMON         
                cstackCOMMON                         70       70        9         1
                bssCOMMON                            79       79        4         1

        CLASS   BANK0          
                dataBANK0                            20       20       14         1

        CLASS   BANK1          

        CLASS   BANK2          

        CLASS   BANK3          

        CLASS   RAM            

        CLASS   ABS1           
                abs_s1                               7E       7E        2         1

        CLASS   SFR0           

        CLASS   SFR1           

        CLASS   SFR2           

        CLASS   SFR3           

        CLASS   CONFIG         

        CLASS   IDLOC          

        CLASS   EEDATA         



SEGMENTS        Name                           Load    Length   Top    Selector   Space  Class     Delta

                reset_vec                      000000  000003  000003         0       0  CODE        2
                dataBANK0                      000020  000014  000034        20       1  BANK0       1
                cstackCOMMON                   000070  00000D  00007D        70       1  COMMON      1
                text12                         00043F  00000C  00044B       87E       0  CODE        2
                text4                          00044B  00000D  000458       896       0  CODE        2
                text13                         000458  00000E  000466       8B0       0  CODE        2
                text10                         000466  000010  000476       8CC       0  CODE        2
                text8                          000476  000010  000486       8EC       0  CODE        2
                text2                          000486  000010  000496       90C       0  CODE        2
                text9                          000496  000011  0004A7       92C       0  CODE        2
                inittext                       0004A7  000013  0004BA       94E       0  CODE        2
                idataBANK0                     0004BA  000014  0004CE       974       0  CODE        2
                text14                         0004CE  000016  0004E4       99C       0  CODE        2
                text6                          0004E4  000019  0004FD       9C8       0  CODE        2
                text7                          0004FD  00002A  000527       9FA       0  CODE        2
                maintext                       000527  00002D  000554       A4E       0  CODE        2
                text11                         000554  000033  000587       AA8       0  CODE        2
                text5                          000587  00003B  0005C2       B0E       0  CODE        2
                text1                          0005C2  00003D  0005FF       B84       0  CODE        2
                text3                          0005FF  0001EB  0007EA       BFE       0  CODE        2
                cinit                          0007EA  000016  000800       FD4       0  CODE        2


UNUSED ADDRESS RANGES

        Name                Unused          Largest block    Delta
        BANK0            0034-006F             3C           1
        BANK1            00A0-00EF             50           1
        BANK2            0110-016F             60           1
        BANK3            0190-01EF             60           1
        CODE             0003-043E            43C           2
                         0800-1FFF            800
        COMMON           007D-007D              1           1
        CONFIG           2007-2007              1           2
        CONST            0003-043E            100           2
                         0800-1FFF            100
        EEDATA           2100-21FF            100           2
        ENTRY            0003-043E            100           2
                         0800-1FFF            100
        IDLOC            2000-2003              4           2
        RAM              0034-006F             3C           1
                         00A0-00EF             50
                         0110-016F             60
                         0190-01EF             60
        SFR0             0000-001F             20           1
        SFR1             0080-009F             20           1
        SFR2             0100-010F             10           1
        SFR3             0180-018F             10           1
        STACK            0110-016F             60           1
        STRCODE          0003-043E            43C           2
                         0800-1FFF           1800
        STRING           0003-043E            100           2
                         0800-1FFF            100

                                  Symbol Table

?_strlen                 cstackCOMMON 0070
LCD_escreve@x            cstackCOMMON 0072
Linha2@i                 cstackCOMMON 0077
_ADCON1                  (abs)        009F
_LCD_enable              text13       0458
_LCD_escreve             text9        0496
_LCD_init                text11       0554
_LCD_limpa               text10       0466
_LCD_linha1              text2        0486
_LCD_linha2              text8        0476
_Linha2                  text5        0587
_PORTB                   (abs)        0006
_PORTD                   (abs)        0008
_PORTE                   (abs)        0009
_RA1                     (abs)        0029
_RA3                     (abs)        002B
_RA4                     (abs)        002C
_RA5                     (abs)        002D
_RB0                     (abs)        0030
_RB1                     (abs)        0031
_RB2                     (abs)        0032
_RB3                     (abs)        0033
_TRISA                   (abs)        0085
_TRISB                   (abs)        0086
_TRISD                   (abs)        0088
_TRISE                   (abs)        0089
__Habs1                  abs1         0000
__Hbank0                 bank0        0000
__Hbank1                 bank1        0000
__Hbank2                 bank2        0000
__Hbank3                 bank3        0000
__HbssCOMMON             bssCOMMON    0000
__Hcinit                 cinit        0800
__Hclrtext               clrtext      0000
__Hcode                  code         0000
__Hcommon                common       0000
__HcstackCOMMON          cstackCOMMON 0000
__HdataBANK0             dataBANK0    0000
__Heeprom_data           eeprom_data  0000
__Hend_init              end_init     0003
__Hfunctab               functab      0000
__HidataBANK0            idataBANK0   0000
__Hinit                  init         0000
__Hinittext              inittext     0000
__Hintentry              intentry     0000
__Hmaintext              maintext     0000
__Hpowerup               powerup      0000
__Hram                   ram          0000
__Hreset_vec             reset_vec    0000
__Hsfr0                  sfr0         0000
__Hsfr1                  sfr1         0000
__Hsfr2                  sfr2         0000
__Hsfr3                  sfr3         0000
__Hspace_0               (abs)        0800
__Hspace_1               (abs)        007D
__Hspace_2               (abs)        0000
__Hspace_3               (abs)        0000
__Hstack                 stack        0000
__Hstrings               strings      0000
__Htext                  text         0000
__Labs1                  abs1         0000
__Lbank0                 bank0        0000
__Lbank1                 bank1        0000
__Lbank2                 bank2        0000
__Lbank3                 bank3        0000
__LbssCOMMON             bssCOMMON    0000
__Lcinit                 cinit        07EA
__Lclrtext               clrtext      0000
__Lcode                  code         0000
__Lcommon                common       0000
__LcstackCOMMON          cstackCOMMON 0000
__LdataBANK0             dataBANK0    0000
__Leeprom_data           eeprom_data  0000
__Lend_init              end_init     0000
__Lfunctab               functab      0000
__LidataBANK0            idataBANK0   0000
__Linit                  init         0000
__Linittext              inittext     0000
__Lintentry              intentry     0000
__Lmaintext              maintext     0000
__Lpowerup               powerup      0000
__Lram                   ram          0000
__Lreset_vec             reset_vec    0000
__Lsfr0                  sfr0         0000
__Lsfr1                  sfr1         0000
__Lsfr2                  sfr2         0000
__Lsfr3                  sfr3         0000
__Lspace_0               (abs)        0000
__Lspace_1               (abs)        0000
__Lspace_2               (abs)        0000
__Lspace_3               (abs)        0000
__Lstack                 stack        0000
__Lstrings               strings      0000
__Ltext                  text         0000
__S0                     (abs)        0800
__S1                     (abs)        007D
__S2                     (abs)        0000
__S3                     (abs)        0000
___int_sp                stack        0000
___latbits               (abs)        0002
___sp                    stack        0000
___stackhi               (abs)        0000
___stacklo               (abs)        0000
__end_of_LCD_enable      text13       0466
__end_of_LCD_escreve     text9        04A7
__end_of_LCD_init        text11       0587
__end_of_LCD_limpa       text10       0476
__end_of_LCD_linha1      text2        0496
__end_of_LCD_linha2      text8        0486
__end_of_Linha2          text5        05C2
__end_of__initialization cinit        07FC
__end_of_delay           text14       04E4
__end_of_espacoLivre     text7        0527
__end_of_init            text12       044B
__end_of_liga_buzzer     text4        0458
__end_of_main            maintext     0554
__end_of_strlen          text6        04FD
__end_of_teclado         text3        07EA
__end_of_telaInicial     text1        05FF
__initialization         cinit        07EA
__pbssCOMMON             bssCOMMON    0079
__pcstackCOMMON          cstackCOMMON 0070
__pdataBANK0             dataBANK0    0020
__pidataBANK0            idataBANK0   04BA
__pmaintext              maintext     0527
__ptext1                 text1        05C2
__ptext10                text10       0466
__ptext11                text11       0554
__ptext12                text12       043F
__ptext13                text13       0458
__ptext14                text14       04CE
__ptext2                 text2        0486
__ptext3                 text3        05FF
__ptext4                 text4        044B
__ptext5                 text5        0587
__ptext6                 text6        04E4
__ptext7                 text7        04FD
__ptext8                 text8        0476
__ptext9                 text9        0496
__size_of_LCD_enable     (abs)        0000
__size_of_LCD_escreve    (abs)        0000
__size_of_LCD_init       (abs)        0000
__size_of_LCD_limpa      (abs)        0000
__size_of_LCD_linha1     (abs)        0000
__size_of_LCD_linha2     (abs)        0000
__size_of_Linha2         (abs)        0000
__size_of_delay          (abs)        0000
__size_of_espacoLivre    (abs)        0000
__size_of_init           (abs)        0000
__size_of_liga_buzzer    (abs)        0000
__size_of_main           (abs)        0000
__size_of_strlen         (abs)        0000
__size_of_teclado        (abs)        0000
__size_of_telaInicial    (abs)        0000
_delay                   text14       04CE
_espacoLivre             text7        04FD
_init                    text12       043F
_liga_buzzer             text4        044B
_main                    maintext     0527
_msg                     dataBANK0    0020
_msg2                    dataBANK0    002F
_painel                  bssCOMMON    007B
_strlen                  text6        04E4
_teclado                 text3        05FF
_telaInicial             text1        05C2
btemp                    (abs)        007E
delay@i                  cstackCOMMON 0070
end_of_initialization    cinit        07FC
init_fetch0              inittext     04A7
init_ram0                inittext     04AB
intlevel0                functab      0000
intlevel1                functab      0000
intlevel2                functab      0000
intlevel3                functab      0000
intlevel4                functab      0000
intlevel5                functab      0000
reset_vec                reset_vec    0000
start                    init         0000
start_initialization     cinit        07EA
strlen@cp                cstackCOMMON 0073
strlen@s                 cstackCOMMON 0074
telaInicial@i            cstackCOMMON 0077
wtemp0                   (abs)        007E


MODULE INFORMATION

Module		Function		Class		Link	Load	Size
./lcd.h
		_init          		CODE           	043F	0000	12
		_LCD_limpa     		CODE           	0466	0000	16
		_delay         		CODE           	04CE	0000	22
		_LCD_enable    		CODE           	0458	0000	14
		_LCD_escreve   		CODE           	0496	0000	17
		_LCD_init      		CODE           	0554	0000	51
		_LCD_linha1    		CODE           	0486	0000	16
		_LCD_linha2    		CODE           	0476	0000	16

./lcd.h estimated size: 164

C:\Program Files\Microchip\xc8\v2.32\pic\sources\c90\common\strlen.c
		_strlen        		CODE           	04E4	0000	25

C:\Program Files\Microchip\xc8\v2.32\pic\sources\c90\common\strlen.c estimated size: 25

shared
		__initialization		CODE           	07EA	0000	18

shared estimated size: 18

main.c
		_telaInicial   		CODE           	05C2	0000	61
		_main          		CODE           	0527	0000	45
		_espacoLivre   		CODE           	04FD	0000	42
		_teclado       		CODE           	05FF	0000	491
		_Linha2        		CODE           	0587	0000	59
		_liga_buzzer   		CODE           	044B	0000	13

main.c estimated size: 711

