

Microchip MPLAB XC8 Assembler V2.32 build 20210201212658 
                                                                                               Sun Oct 03 20:18:26 2021

Microchip MPLAB XC8 C Compiler v2.32 (Free license) build 20210201212658 Og1 
     1                           	processor	16F877A
     2                           	pagewidth 120
     3                           	opt	flic
     4                           	psect	idataBANK0,global,class=CODE,delta=2,noexec
     5                           	psect	idataBANK1,global,class=CODE,delta=2,noexec
     6                           	psect	idataBANK2,global,class=CODE,delta=2,noexec
     7                           	psect	idataBANK3,global,class=CODE,delta=2,noexec
     8                           	psect	cinit,global,class=CODE,merge=1,delta=2
     9                           	psect	bssBANK0,global,class=BANK0,space=1,delta=1,noexec
    10                           	psect	dataBANK0,global,class=BANK0,space=1,delta=1,noexec
    11                           	psect	dataBANK1,global,class=BANK1,space=1,delta=1,noexec
    12                           	psect	dataBANK3,global,class=BANK3,space=1,delta=1,noexec
    13                           	psect	dataBANK2,global,class=BANK2,space=1,delta=1,noexec
    14                           	psect	inittext,global,class=CODE,delta=2
    15                           	psect	cstackCOMMON,global,class=COMMON,space=1,delta=1,noexec
    16                           	psect	cstackBANK0,global,class=BANK0,space=1,delta=1,noexec
    17                           	psect	maintext,global,class=CODE,split=1,delta=2
    18                           	psect	text1,local,class=CODE,merge=1,delta=2
    19                           	psect	text2,local,class=CODE,merge=1,delta=2
    20                           	psect	text3,local,class=CODE,merge=1,delta=2
    21                           	psect	text4,local,class=CODE,merge=1,delta=2
    22                           	psect	text5,local,class=CODE,merge=1,delta=2
    23                           	psect	text6,local,class=CODE,merge=1,delta=2
    24                           	psect	text7,local,class=CODE,merge=1,delta=2
    25                           	psect	text8,local,class=CODE,merge=1,delta=2,group=1
    26                           	psect	text9,local,class=CODE,merge=1,delta=2,group=1
    27                           	psect	text10,local,class=CODE,merge=1,delta=2,group=1
    28                           	psect	text11,local,class=CODE,merge=1,delta=2,group=1
    29                           	psect	text12,local,class=CODE,merge=1,delta=2,group=1
    30                           	psect	text13,local,class=CODE,merge=1,delta=2
    31                           	psect	text14,local,class=CODE,merge=1,delta=2
    32                           	psect	text15,local,class=CODE,merge=1,delta=2,group=2
    33                           	psect	text16,local,class=CODE,merge=1,delta=2
    34                           	psect	text17,local,class=CODE,merge=1,delta=2
    35                           	psect	text18,local,class=CODE,merge=1,delta=2
    36                           	psect	text19,local,class=CODE,merge=1,delta=2
    37                           	psect	text20,local,class=CODE,merge=1,delta=2
    38                           	psect	text21,local,class=CODE,merge=1,delta=2
    39                           	psect	text22,local,class=CODE,merge=1,delta=2
    40                           	psect	text23,local,class=CODE,merge=1,delta=2
    41                           	dabs	1,0x7E,2
    42  0000                     
    43                           ; Version 2.20
    44                           ; Generated 12/02/2020 GMT
    45                           ; 
    46                           ; Copyright © 2020, Microchip Technology Inc. and its subsidiaries ("Microchip")
    47                           ; All rights reserved.
    48                           ; 
    49                           ; This software is developed by Microchip Technology Inc. and its subsidiaries ("Microch
      +                          ip").
    50                           ; 
    51                           ; Redistribution and use in source and binary forms, with or without modification, are
    52                           ; permitted provided that the following conditions are met:
    53                           ; 
    54                           ;     1. Redistributions of source code must retain the above copyright notice, this lis
      +                          t of
    55                           ;        conditions and the following disclaimer.
    56                           ; 
    57                           ;     2. Redistributions in binary form must reproduce the above copyright notice, this 
      +                          list
    58                           ;        of conditions and the following disclaimer in the documentation and/or other
    59                           ;        materials provided with the distribution.
    60                           ; 
    61                           ;     3. Microchip's name may not be used to endorse or promote products derived from th
      +                          is
    62                           ;        software without specific prior written permission.
    63                           ; 
    64                           ; THIS SOFTWARE IS PROVIDED BY MICROCHIP "AS IS" AND ANY EXPRESS OR IMPLIED WARRANTIES,
    65                           ; INCLUDING, BUT NOT LIMITED TO, THE IMPLIED WARRANTIES OF MERCHANTABILITY AND FITNESS F
      +                          OR
    66                           ; PURPOSE ARE DISCLAIMED.  IN NO EVENT SHALL MICROCHIP BE LIABLE FOR ANY DIRECT, INDIREC
      +                          T,
    67                           ; INCIDENTAL, SPECIAL, EXEMPLARY, OR CONSEQUENTIAL DAMAGES (INCLUDING BUT NOT LIMITED TO
    68                           ; PROCUREMENT OF SUBSTITUTE GOODS OR SERVICES; LOSS OF USE, DATA OR PROFITS; OR BUSINESS
    69                           ; INTERRUPTION) HOWSOEVER CAUSED AND ON ANY THEORY OF LIABILITY, WHETHER IN CONTRACT, ST
      +                          RICT
    70                           ; LIABILITY, OR TORT (INCLUDING NEGLIGENCE OR OTHERWISE) ARISING IN ANY WAY OUT OF THE U
      +                          SE OF
    71                           ; THIS SOFTWARE, EVEN IF ADVISED OF THE POSSIBILITY OF SUCH DAMAGE.
    72                           ; 
    73                           ; 
    74                           ; Code-generator required, PIC16F877A Definitions
    75                           ; 
    76                           ; SFR Addresses
    77  0000                     	;# 
    78  0001                     	;# 
    79  0002                     	;# 
    80  0003                     	;# 
    81  0004                     	;# 
    82  0005                     	;# 
    83  0006                     	;# 
    84  0007                     	;# 
    85  0008                     	;# 
    86  0009                     	;# 
    87  000A                     	;# 
    88  000B                     	;# 
    89  000C                     	;# 
    90  000D                     	;# 
    91  000E                     	;# 
    92  000E                     	;# 
    93  000F                     	;# 
    94  0010                     	;# 
    95  0011                     	;# 
    96  0012                     	;# 
    97  0013                     	;# 
    98  0014                     	;# 
    99  0015                     	;# 
   100  0015                     	;# 
   101  0016                     	;# 
   102  0017                     	;# 
   103  0018                     	;# 
   104  0019                     	;# 
   105  001A                     	;# 
   106  001B                     	;# 
   107  001B                     	;# 
   108  001C                     	;# 
   109  001D                     	;# 
   110  001E                     	;# 
   111  001F                     	;# 
   112  0081                     	;# 
   113  0085                     	;# 
   114  0086                     	;# 
   115  0087                     	;# 
   116  0088                     	;# 
   117  0089                     	;# 
   118  008C                     	;# 
   119  008D                     	;# 
   120  008E                     	;# 
   121  0091                     	;# 
   122  0092                     	;# 
   123  0093                     	;# 
   124  0094                     	;# 
   125  0098                     	;# 
   126  0099                     	;# 
   127  009C                     	;# 
   128  009D                     	;# 
   129  009E                     	;# 
   130  009F                     	;# 
   131  010C                     	;# 
   132  010D                     	;# 
   133  010E                     	;# 
   134  010F                     	;# 
   135  018C                     	;# 
   136  018D                     	;# 
   137  0000                     	;# 
   138  0001                     	;# 
   139  0002                     	;# 
   140  0003                     	;# 
   141  0004                     	;# 
   142  0005                     	;# 
   143  0006                     	;# 
   144  0007                     	;# 
   145  0008                     	;# 
   146  0009                     	;# 
   147  000A                     	;# 
   148  000B                     	;# 
   149  000C                     	;# 
   150  000D                     	;# 
   151  000E                     	;# 
   152  000E                     	;# 
   153  000F                     	;# 
   154  0010                     	;# 
   155  0011                     	;# 
   156  0012                     	;# 
   157  0013                     	;# 
   158  0014                     	;# 
   159  0015                     	;# 
   160  0015                     	;# 
   161  0016                     	;# 
   162  0017                     	;# 
   163  0018                     	;# 
   164  0019                     	;# 
   165  001A                     	;# 
   166  001B                     	;# 
   167  001B                     	;# 
   168  001C                     	;# 
   169  001D                     	;# 
   170  001E                     	;# 
   171  001F                     	;# 
   172  0081                     	;# 
   173  0085                     	;# 
   174  0086                     	;# 
   175  0087                     	;# 
   176  0088                     	;# 
   177  0089                     	;# 
   178  008C                     	;# 
   179  008D                     	;# 
   180  008E                     	;# 
   181  0091                     	;# 
   182  0092                     	;# 
   183  0093                     	;# 
   184  0094                     	;# 
   185  0098                     	;# 
   186  0099                     	;# 
   187  009C                     	;# 
   188  009D                     	;# 
   189  009E                     	;# 
   190  009F                     	;# 
   191  010C                     	;# 
   192  010D                     	;# 
   193  010E                     	;# 
   194  010F                     	;# 
   195  018C                     	;# 
   196  018D                     	;# 
   197                           
   198                           	psect	idataBANK0
   199  0879                     __pidataBANK0:
   200                           
   201                           ;initializer for _senhaCoa
   202  0879  3435               	retlw	53
   203  087A  3435               	retlw	53
   204  087B  3435               	retlw	53
   205  087C  3435               	retlw	53
   206  087D  3400               	retlw	0
   207                           
   208                           ;initializer for _menu
   209  087E  3401               	retlw	1
   210  087F  3400               	retlw	0
   211                           
   212                           ;initializer for _userFalse
   213  0880  3401               	retlw	1
   214  0881  3400               	retlw	0
   215                           
   216                           ;initializer for _painel
   217  0882  3401               	retlw	1
   218  0883  3400               	retlw	0
   219                           
   220                           ;initializer for _input
   221  0884  340A               	retlw	10
   222  0885  3400               	retlw	0
   223                           
   224                           ;initializer for _auxSensor
   225  0886  34CC               	retlw	204
   226  0887  3400               	retlw	0
   227                           
   228                           ;initializer for _msgMascara
   229  0888  345F               	retlw	95
   230  0889  345F               	retlw	95
   231  088A  345F               	retlw	95
   232  088B  345F               	retlw	95
   233  088C  3400               	retlw	0
   234                           
   235                           ;initializer for _senhaUserConfere
   236  088D  3430               	retlw	48
   237  088E  3430               	retlw	48
   238  088F  3430               	retlw	48
   239  0890  3430               	retlw	48
   240  0891  3400               	retlw	0
   241                           
   242                           ;initializer for _senhaUser
   243  0892  3431               	retlw	49
   244  0893  3432               	retlw	50
   245  0894  3431               	retlw	49
   246  0895  3432               	retlw	50
   247  0896  3400               	retlw	0
   248                           
   249                           	psect	idataBANK1
   250  09D7                     __pidataBANK1:
   251                           
   252                           ;initializer for _senhaConfig
   253  09D7  3430               	retlw	48
   254  09D8  3430               	retlw	48
   255  09D9  3430               	retlw	48
   256  09DA  3430               	retlw	48
   257  09DB  3400               	retlw	0
   258                           
   259                           ;initializer for _msgDigiteSenha
   260  09DC  3444               	retlw	68
   261  09DD  3469               	retlw	105
   262  09DE  3467               	retlw	103
   263  09DF  3469               	retlw	105
   264  09E0  3474               	retlw	116
   265  09E1  3465               	retlw	101
   266  09E2  3420               	retlw	32
   267  09E3  3461               	retlw	97
   268  09E4  3420               	retlw	32
   269  09E5  3473               	retlw	115
   270  09E6  3465               	retlw	101
   271  09E7  346E               	retlw	110
   272  09E8  3468               	retlw	104
   273  09E9  3461               	retlw	97
   274  09EA  3400               	retlw	0
   275                           
   276                           ;initializer for _msgSenhaCoacao
   277  09EB  3453               	retlw	83
   278  09EC  3465               	retlw	101
   279  09ED  346E               	retlw	110
   280  09EE  3468               	retlw	104
   281  09EF  3461               	retlw	97
   282  09F0  3420               	retlw	32
   283  09F1  3443               	retlw	67
   284  09F2  346F               	retlw	111
   285  09F3  3461               	retlw	97
   286  09F4  3463               	retlw	99
   287  09F5  3461               	retlw	97
   288  09F6  346F               	retlw	111
   289  09F7  3400               	retlw	0
   290                           
   291                           ;initializer for _msgSenhaConfig
   292  09F8  3453               	retlw	83
   293  09F9  3465               	retlw	101
   294  09FA  346E               	retlw	110
   295  09FB  3468               	retlw	104
   296  09FC  3461               	retlw	97
   297  09FD  3420               	retlw	32
   298  09FE  3443               	retlw	67
   299  09FF  346F               	retlw	111
   300  0A00  346E               	retlw	110
   301  0A01  3466               	retlw	102
   302  0A02  3469               	retlw	105
   303  0A03  3467               	retlw	103
   304  0A04  3400               	retlw	0
   305                           
   306                           ;initializer for _msgSenhaErrada
   307  0A05  3453               	retlw	83
   308  0A06  3465               	retlw	101
   309  0A07  346E               	retlw	110
   310  0A08  3468               	retlw	104
   311  0A09  3461               	retlw	97
   312  0A0A  3420               	retlw	32
   313  0A0B  3465               	retlw	101
   314  0A0C  3472               	retlw	114
   315  0A0D  3472               	retlw	114
   316  0A0E  3461               	retlw	97
   317  0A0F  3464               	retlw	100
   318  0A10  3461               	retlw	97
   319  0A11  3400               	retlw	0
   320                           
   321                           ;initializer for _msgReativarActive
   322  0A12  343E               	retlw	62
   323  0A13  3452               	retlw	82
   324  0A14  3465               	retlw	101
   325  0A15  3461               	retlw	97
   326  0A16  3474               	retlw	116
   327  0A17  3469               	retlw	105
   328  0A18  3476               	retlw	118
   329  0A19  3461               	retlw	97
   330  0A1A  3472               	retlw	114
   331  0A1B  3400               	retlw	0
   332                           
   333                           ;initializer for _msgReativar
   334  0A1C  3452               	retlw	82
   335  0A1D  3465               	retlw	101
   336  0A1E  3461               	retlw	97
   337  0A1F  3474               	retlw	116
   338  0A20  3469               	retlw	105
   339  0A21  3476               	retlw	118
   340  0A22  3461               	retlw	97
   341  0A23  3472               	retlw	114
   342  0A24  3400               	retlw	0
   343                           
   344                           	psect	idataBANK2
   345  0003                     __pidataBANK2:
   346                           
   347                           ;initializer for _msgDesativarZonaActive
   348  0003  343E               	retlw	62
   349  0004  3444               	retlw	68
   350  0005  3465               	retlw	101
   351  0006  3473               	retlw	115
   352  0007  3461               	retlw	97
   353  0008  3474               	retlw	116
   354  0009  3469               	retlw	105
   355  000A  3476               	retlw	118
   356  000B  3461               	retlw	97
   357  000C  3472               	retlw	114
   358  000D  3420               	retlw	32
   359  000E  345A               	retlw	90
   360  000F  346F               	retlw	111
   361  0010  346E               	retlw	110
   362  0011  3461               	retlw	97
   363  0012  3400               	retlw	0
   364                           
   365                           ;initializer for _msgDesativarZona
   366  0013  3444               	retlw	68
   367  0014  3465               	retlw	101
   368  0015  3473               	retlw	115
   369  0016  3461               	retlw	97
   370  0017  3474               	retlw	116
   371  0018  3469               	retlw	105
   372  0019  3476               	retlw	118
   373  001A  3461               	retlw	97
   374  001B  3472               	retlw	114
   375  001C  3420               	retlw	32
   376  001D  345A               	retlw	90
   377  001E  346F               	retlw	111
   378  001F  346E               	retlw	110
   379  0020  3461               	retlw	97
   380  0021  3400               	retlw	0
   381                           
   382                           ;initializer for _msgSenhaDisparoActive
   383  0022  343E               	retlw	62
   384  0023  3453               	retlw	83
   385  0024  3465               	retlw	101
   386  0025  346E               	retlw	110
   387  0026  3468               	retlw	104
   388  0027  3461               	retlw	97
   389  0028  3420               	retlw	32
   390  0029  3444               	retlw	68
   391  002A  3469               	retlw	105
   392  002B  3473               	retlw	115
   393  002C  3470               	retlw	112
   394  002D  3461               	retlw	97
   395  002E  3472               	retlw	114
   396  002F  346F               	retlw	111
   397  0030  3400               	retlw	0
   398                           
   399                           ;initializer for _msgSenhaUsuarioActive
   400  0031  343E               	retlw	62
   401  0032  3453               	retlw	83
   402  0033  3465               	retlw	101
   403  0034  346E               	retlw	110
   404  0035  3468               	retlw	104
   405  0036  3461               	retlw	97
   406  0037  3420               	retlw	32
   407  0038  3455               	retlw	85
   408  0039  3473               	retlw	115
   409  003A  3475               	retlw	117
   410  003B  3461               	retlw	97
   411  003C  3472               	retlw	114
   412  003D  3469               	retlw	105
   413  003E  346F               	retlw	111
   414  003F  3400               	retlw	0
   415                           
   416                           	psect	idataBANK3
   417  0A25                     __pidataBANK3:
   418                           
   419                           ;initializer for _msgDigiteNovaSenha
   420  0A25  3420               	retlw	32
   421  0A26  3420               	retlw	32
   422  0A27  3420               	retlw	32
   423  0A28  344E               	retlw	78
   424  0A29  346F               	retlw	111
   425  0A2A  3476               	retlw	118
   426  0A2B  3461               	retlw	97
   427  0A2C  3420               	retlw	32
   428  0A2D  3473               	retlw	115
   429  0A2E  3465               	retlw	101
   430  0A2F  346E               	retlw	110
   431  0A30  3468               	retlw	104
   432  0A31  3461               	retlw	97
   433  0A32  3400               	retlw	0
   434                           
   435                           ;initializer for _msgSenhaDisparo
   436  0A33  3453               	retlw	83
   437  0A34  3465               	retlw	101
   438  0A35  346E               	retlw	110
   439  0A36  3468               	retlw	104
   440  0A37  3461               	retlw	97
   441  0A38  3420               	retlw	32
   442  0A39  3444               	retlw	68
   443  0A3A  3469               	retlw	105
   444  0A3B  3473               	retlw	115
   445  0A3C  3470               	retlw	112
   446  0A3D  3461               	retlw	97
   447  0A3E  3472               	retlw	114
   448  0A3F  346F               	retlw	111
   449  0A40  3400               	retlw	0
   450                           
   451                           ;initializer for _msgSenhaCoacaoActive
   452  0A41  343E               	retlw	62
   453  0A42  3453               	retlw	83
   454  0A43  3465               	retlw	101
   455  0A44  346E               	retlw	110
   456  0A45  3468               	retlw	104
   457  0A46  3461               	retlw	97
   458  0A47  3420               	retlw	32
   459  0A48  3443               	retlw	67
   460  0A49  346F               	retlw	111
   461  0A4A  3461               	retlw	97
   462  0A4B  3463               	retlw	99
   463  0A4C  3461               	retlw	97
   464  0A4D  346F               	retlw	111
   465  0A4E  3400               	retlw	0
   466                           
   467                           ;initializer for _msgSenhaUsuario
   468  0A4F  3453               	retlw	83
   469  0A50  3465               	retlw	101
   470  0A51  346E               	retlw	110
   471  0A52  3468               	retlw	104
   472  0A53  3461               	retlw	97
   473  0A54  3420               	retlw	32
   474  0A55  3455               	retlw	85
   475  0A56  3473               	retlw	115
   476  0A57  3475               	retlw	117
   477  0A58  3461               	retlw	97
   478  0A59  3472               	retlw	114
   479  0A5A  3469               	retlw	105
   480  0A5B  346F               	retlw	111
   481  0A5C  3400               	retlw	0
   482                           
   483                           ;initializer for _msgSenhaConfigActive
   484  0A5D  343E               	retlw	62
   485  0A5E  3453               	retlw	83
   486  0A5F  3465               	retlw	101
   487  0A60  346E               	retlw	110
   488  0A61  3468               	retlw	104
   489  0A62  3461               	retlw	97
   490  0A63  3420               	retlw	32
   491  0A64  3443               	retlw	67
   492  0A65  346F               	retlw	111
   493  0A66  346E               	retlw	110
   494  0A67  3466               	retlw	102
   495  0A68  3469               	retlw	105
   496  0A69  3467               	retlw	103
   497  0A6A  3400               	retlw	0
   498                           
   499                           ;initializer for _msgSenhaCorreta
   500  0A6B  3453               	retlw	83
   501  0A6C  3465               	retlw	101
   502  0A6D  346E               	retlw	110
   503  0A6E  3468               	retlw	104
   504  0A6F  3461               	retlw	97
   505  0A70  3420               	retlw	32
   506  0A71  3463               	retlw	99
   507  0A72  346F               	retlw	111
   508  0A73  3472               	retlw	114
   509  0A74  3472               	retlw	114
   510  0A75  3465               	retlw	101
   511  0A76  3474               	retlw	116
   512  0A77  3461               	retlw	97
   513  0A78  3400               	retlw	0
   514  001E                     _ADRESH	set	30
   515  001F                     _ADCON0	set	31
   516  0006                     _PORTB	set	6
   517  0009                     _PORTE	set	9
   518  0008                     _PORTD	set	8
   519  00FA                     _GO_nDONE	set	250
   520  0033                     _RB3	set	51
   521  0032                     _RB2	set	50
   522  0031                     _RB1	set	49
   523  0030                     _RB0	set	48
   524  002B                     _RA3	set	43
   525  002C                     _RA4	set	44
   526  002D                     _RA5	set	45
   527  0029                     _RA1	set	41
   528  009E                     _ADRESL	set	158
   529  0086                     _TRISB	set	134
   530  0089                     _TRISE	set	137
   531  0088                     _TRISD	set	136
   532  0085                     _TRISA	set	133
   533  009F                     _ADCON1	set	159
   534                           
   535                           	psect	cinit
   536  07BC                     start_initialization:	
   537                           ; #config settings
   538                           
   539  07BC                     __initialization:
   540                           
   541                           ; Initialize objects allocated to BANK3
   542  07BC  1783               	bsf	3,7	;select IRP bank2
   543  07BD  30E4               	movlw	low (__pdataBANK3+84)
   544  07BE  00FD               	movwf	btemp+-1
   545  07BF  300A               	movlw	high __pidataBANK3
   546  07C0  00FE               	movwf	btemp
   547  07C1  3025               	movlw	low __pidataBANK3
   548  07C2  00FF               	movwf	btemp+1
   549  07C3  3090               	movlw	low __pdataBANK3
   550  07C4  0084               	movwf	4
   551  07C5  120A  158A  203B  120A  118A  	fcall	init_ram0
   552                           
   553                           ; Initialize objects allocated to BANK2
   554  07CA  304D               	movlw	low (__pdataBANK2+61)
   555  07CB  00FD               	movwf	btemp+-1
   556  07CC  3000               	movlw	high __pidataBANK2
   557  07CD  00FE               	movwf	btemp
   558  07CE  3003               	movlw	low __pidataBANK2
   559  07CF  00FF               	movwf	btemp+1
   560  07D0  3010               	movlw	low __pdataBANK2
   561  07D1  0084               	movwf	4
   562  07D2  120A  158A  203B  120A  118A  	fcall	init_ram0
   563                           
   564                           ; Initialize objects allocated to BANK1
   565  07D7  1383               	bcf	3,7	;select IRP bank0
   566  07D8  30EE               	movlw	low (__pdataBANK1+78)
   567  07D9  00FD               	movwf	btemp+-1
   568  07DA  3009               	movlw	high __pidataBANK1
   569  07DB  00FE               	movwf	btemp
   570  07DC  30D7               	movlw	low __pidataBANK1
   571  07DD  00FF               	movwf	btemp+1
   572  07DE  30A0               	movlw	low __pdataBANK1
   573  07DF  0084               	movwf	4
   574  07E0  120A  158A  203B  120A  118A  	fcall	init_ram0
   575                           
   576                           ; Initialize objects allocated to BANK0
   577  07E5  3066               	movlw	low (__pdataBANK0+30)
   578  07E6  00FD               	movwf	btemp+-1
   579  07E7  3008               	movlw	high __pidataBANK0
   580  07E8  00FE               	movwf	btemp
   581  07E9  3079               	movlw	low __pidataBANK0
   582  07EA  00FF               	movwf	btemp+1
   583  07EB  3048               	movlw	low __pdataBANK0
   584  07EC  0084               	movwf	4
   585  07ED  120A  158A  203B  120A  118A  	fcall	init_ram0
   586                           
   587                           ; Clear objects allocated to BANK0
   588  07F2  01E6               	clrf	__pbssBANK0& (0+127)
   589  07F3  01E7               	clrf	(__pbssBANK0+1)& (0+127)
   590  07F4  01E8               	clrf	(__pbssBANK0+2)& (0+127)
   591  07F5  01E9               	clrf	(__pbssBANK0+3)& (0+127)
   592  07F6  01EA               	clrf	(__pbssBANK0+4)& (0+127)
   593  07F7  01EB               	clrf	(__pbssBANK0+5)& (0+127)
   594  07F8  01EC               	clrf	(__pbssBANK0+6)& (0+127)
   595  07F9  01ED               	clrf	(__pbssBANK0+7)& (0+127)
   596  07FA  01EE               	clrf	(__pbssBANK0+8)& (0+127)
   597  07FB  01EF               	clrf	(__pbssBANK0+9)& (0+127)
   598  07FC                     end_of_initialization:	
   599                           ;End of C runtime variable initialization code
   600                           
   601  07FC                     __end_of__initialization:
   602  07FC  0183               	clrf	3
   603  07FD  120A  158A  2AD4   	ljmp	_main	;jump to C main() function
   604                           
   605                           	psect	bssBANK0
   606  0066                     __pbssBANK0:
   607  0066                     _opConfig:
   608  0066                     	ds	2
   609  0068                     _aux:
   610  0068                     	ds	2
   611  006A                     _alteraSenha:
   612  006A                     	ds	2
   613  006C                     _valorSensorAux:
   614  006C                     	ds	2
   615  006E                     _valorSensor:
   616  006E                     	ds	2
   617                           
   618                           	psect	dataBANK0
   619  0048                     __pdataBANK0:
   620  0048                     _senhaCoa:
   621  0048                     	ds	5
   622  004D                     _menu:
   623  004D                     	ds	2
   624  004F                     _userFalse:
   625  004F                     	ds	2
   626  0051                     _painel:
   627  0051                     	ds	2
   628  0053                     _input:
   629  0053                     	ds	2
   630  0055                     _auxSensor:
   631  0055                     	ds	2
   632  0057                     _msgMascara:
   633  0057                     	ds	5
   634  005C                     _senhaUserConfere:
   635  005C                     	ds	5
   636  0061                     _senhaUser:
   637  0061                     	ds	5
   638                           
   639                           	psect	dataBANK1
   640  00A0                     __pdataBANK1:
   641  00A0                     _senhaConfig:
   642  00A0                     	ds	5
   643  00A5                     _msgDigiteSenha:
   644  00A5                     	ds	15
   645  00B4                     _msgSenhaCoacao:
   646  00B4                     	ds	13
   647  00C1                     _msgSenhaConfig:
   648  00C1                     	ds	13
   649  00CE                     _msgSenhaErrada:
   650  00CE                     	ds	13
   651  00DB                     _msgReativarActive:
   652  00DB                     	ds	10
   653  00E5                     _msgReativar:
   654  00E5                     	ds	9
   655                           
   656                           	psect	dataBANK3
   657  0190                     __pdataBANK3:
   658  0190                     _msgDigiteNovaSenha:
   659  0190                     	ds	14
   660  019E                     _msgSenhaDisparo:
   661  019E                     	ds	14
   662  01AC                     _msgSenhaCoacaoActive:
   663  01AC                     	ds	14
   664  01BA                     _msgSenhaUsuario:
   665  01BA                     	ds	14
   666  01C8                     _msgSenhaConfigActive:
   667  01C8                     	ds	14
   668  01D6                     _msgSenhaCorreta:
   669  01D6                     	ds	14
   670                           
   671                           	psect	dataBANK2
   672  0110                     __pdataBANK2:
   673  0110                     _msgDesativarZonaActive:
   674  0110                     	ds	16
   675  0120                     _msgDesativarZona:
   676  0120                     	ds	15
   677  012F                     _msgSenhaDisparoActive:
   678  012F                     	ds	15
   679  013E                     _msgSenhaUsuarioActive:
   680  013E                     	ds	15
   681                           
   682                           	psect	inittext
   683  0837                     init_fetch0:	
   684                           ;	Called with low address in FSR and high address in W
   685                           
   686  0837  087E               	movf	btemp,w
   687  0838  008A               	movwf	10
   688  0839  087F               	movf	btemp+1,w
   689  083A  0082               	movwf	2
   690  083B                     init_ram0:	
   691                           ;Called with:
   692                           ;	high address of idata address in btemp 
   693                           ;	low address of idata address in btemp+1 
   694                           ;	low address of data in FSR
   695                           ;	high address + 1 of data in btemp-1
   696                           
   697  083B  120A  158A  2037  120A  158A  	fcall	init_fetch0
   698  0840  0080               	movwf	0
   699  0841  0A84               	incf	4,f
   700  0842  0804               	movf	4,w
   701  0843  067D               	xorwf	btemp+-1,w
   702  0844  1903               	btfsc	3,2
   703  0845  3400               	retlw	0
   704  0846  0AFF               	incf	btemp+1,f
   705  0847  1903               	btfsc	3,2
   706  0848  0AFE               	incf	btemp,f
   707  0849  283B               	goto	init_ram0
   708                           
   709                           	psect	cstackCOMMON
   710  0070                     __pcstackCOMMON:
   711  0070                     ?___flge:
   712  0070                     ?_LCD_enable:	
   713                           ; 1 bit 
   714                           
   715  0070                     ?_delay:	
   716                           ; 1 bytes @ 0x0
   717                           
   718  0070                     ??_delay:	
   719                           ; 1 bytes @ 0x0
   720                           
   721  0070                     ?_inicioADC:	
   722                           ; 1 bytes @ 0x0
   723                           
   724  0070                     ??_inicioADC:	
   725                           ; 1 bytes @ 0x0
   726                           
   727  0070                     ?_Linha2:	
   728                           ; 1 bytes @ 0x0
   729                           
   730  0070                     ?_teclado:	
   731                           ; 1 bytes @ 0x0
   732                           
   733  0070                     ?_espacoLivre:	
   734                           ; 1 bytes @ 0x0
   735                           
   736  0070                     ?_init:	
   737                           ; 1 bytes @ 0x0
   738                           
   739  0070                     ??_init:	
   740                           ; 1 bytes @ 0x0
   741                           
   742  0070                     ?_LCD_init:	
   743                           ; 1 bytes @ 0x0
   744                           
   745  0070                     ?_LCD_escreve:	
   746                           ; 1 bytes @ 0x0
   747                           
   748  0070                     ?_LCD_limpa:	
   749                           ; 1 bytes @ 0x0
   750                           
   751  0070                     ?_LCD_linha1:	
   752                           ; 1 bytes @ 0x0
   753                           
   754  0070                     ?_LCD_linha2:	
   755                           ; 1 bytes @ 0x0
   756                           
   757  0070                     ?_main:	
   758                           ; 1 bytes @ 0x0
   759                           
   760  0070                     ?_leituraADC:	
   761                           ; 1 bytes @ 0x0
   762                           
   763  0070                     ?_strlen:	
   764                           ; 2 bytes @ 0x0
   765                           
   766  0070                     ?__Umul8_16:	
   767                           ; 2 bytes @ 0x0
   768                           
   769  0070                     ?___fladd:	
   770                           ; 2 bytes @ 0x0
   771                           
   772  0070                     __Umul8_16@multiplicand:	
   773                           ; 4 bytes @ 0x0
   774                           
   775  0070                     delay@i:	
   776                           ; 1 bytes @ 0x0
   777                           
   778  0070                     ___flge@ff1:	
   779                           ; 2 bytes @ 0x0
   780                           
   781  0070                     ___fladd@b:	
   782                           ; 4 bytes @ 0x0
   783                           
   784                           
   785                           ; 4 bytes @ 0x0
   786  0070                     	ds	2
   787  0072                     ??_LCD_enable:
   788  0072                     ??_leituraADC:	
   789                           ; 1 bytes @ 0x2
   790                           
   791  0072                     ??_strlen:	
   792                           ; 1 bytes @ 0x2
   793                           
   794  0072                     ??__Umul8_16:	
   795                           ; 1 bytes @ 0x2
   796                           
   797  0072                     ??_LCD_init:	
   798                           ; 1 bytes @ 0x2
   799                           
   800  0072                     ??_LCD_escreve:	
   801                           ; 1 bytes @ 0x2
   802                           
   803  0072                     ??_LCD_limpa:	
   804                           ; 1 bytes @ 0x2
   805                           
   806  0072                     ??_LCD_linha1:	
   807                           ; 1 bytes @ 0x2
   808                           
   809  0072                     ??_LCD_linha2:	
   810                           ; 1 bytes @ 0x2
   811                           
   812  0072                     LCD_escreve@x:	
   813                           ; 1 bytes @ 0x2
   814                           
   815                           
   816                           ; 1 bytes @ 0x2
   817  0072                     	ds	1
   818  0073                     ?_escreveMesagem:
   819  0073                     ??_espacoLivre:	
   820                           ; 1 bytes @ 0x3
   821                           
   822  0073                     strlen@cp:	
   823                           ; 1 bytes @ 0x3
   824                           
   825  0073                     espacoLivre@i:	
   826                           ; 1 bytes @ 0x3
   827                           
   828  0073                     escreveMesagem@texto:	
   829                           ; 2 bytes @ 0x3
   830                           
   831                           
   832                           ; 2 bytes @ 0x3
   833  0073                     	ds	1
   834  0074                     strlen@s:
   835  0074                     leituraADC@leitura:	
   836                           ; 1 bytes @ 0x4
   837                           
   838  0074                     __Umul8_16@product:	
   839                           ; 2 bytes @ 0x4
   840                           
   841  0074                     ___flge@ff2:	
   842                           ; 2 bytes @ 0x4
   843                           
   844  0074                     ___fladd@a:	
   845                           ; 4 bytes @ 0x4
   846                           
   847                           
   848                           ; 4 bytes @ 0x4
   849  0074                     	ds	1
   850  0075                     ??_escreveMesagem:
   851  0075                     ??_Linha2:	
   852                           ; 1 bytes @ 0x5
   853                           
   854                           
   855                           ; 1 bytes @ 0x5
   856  0075                     	ds	1
   857  0076                     leituraADC@canal:
   858  0076                     __Umul8_16@word_mpld:	
   859                           ; 1 bytes @ 0x6
   860                           
   861                           
   862                           ; 2 bytes @ 0x6
   863  0076                     	ds	1
   864  0077                     Linha2@i:
   865                           
   866                           ; 2 bytes @ 0x7
   867  0077                     	ds	1
   868  0078                     ??___flge:
   869  0078                     ___fladd@signs:	
   870                           ; 1 bytes @ 0x8
   871                           
   872  0078                     __Umul8_16@multiplier:	
   873                           ; 1 bytes @ 0x8
   874                           
   875  0078                     escreveMesagem@i:	
   876                           ; 1 bytes @ 0x8
   877                           
   878                           
   879                           ; 2 bytes @ 0x8
   880  0078                     	ds	1
   881  0079                     ??___flmul:
   882  0079                     ___fladd@aexp:	
   883                           ; 1 bytes @ 0x9
   884                           
   885                           
   886                           ; 1 bytes @ 0x9
   887  0079                     	ds	1
   888  007A                     ___fladd@bexp:
   889                           
   890                           ; 1 bytes @ 0xA
   891  007A                     	ds	1
   892  007B                     ___fladd@grs:
   893                           
   894                           ; 1 bytes @ 0xB
   895  007B                     	ds	1
   896  007C                     ??___flsub:
   897                           
   898                           ; 1 bytes @ 0xC
   899  007C                     	ds	2
   900                           
   901                           	psect	cstackBANK0
   902  0020                     __pcstackBANK0:
   903  0020                     ??___fladd:
   904  0020                     ?___flmul:	
   905                           ; 1 bytes @ 0x0
   906                           
   907  0020                     ___flmul@b:	
   908                           ; 4 bytes @ 0x0
   909                           
   910                           
   911                           ; 4 bytes @ 0x0
   912  0020                     	ds	4
   913  0024                     ___flmul@a:
   914                           
   915                           ; 4 bytes @ 0x4
   916  0024                     	ds	4
   917  0028                     ?___flsub:
   918  0028                     ___flmul@sign:	
   919                           ; 4 bytes @ 0x8
   920                           
   921  0028                     ___flsub@a:	
   922                           ; 1 bytes @ 0x8
   923                           
   924                           
   925                           ; 4 bytes @ 0x8
   926  0028                     	ds	1
   927  0029                     ___flmul@grs:
   928                           
   929                           ; 4 bytes @ 0x9
   930  0029                     	ds	3
   931  002C                     ___flsub@b:
   932                           
   933                           ; 4 bytes @ 0xC
   934  002C                     	ds	1
   935  002D                     ___flmul@aexp:
   936                           
   937                           ; 1 bytes @ 0xD
   938  002D                     	ds	1
   939  002E                     ___flmul@bexp:
   940                           
   941                           ; 1 bytes @ 0xE
   942  002E                     	ds	1
   943  002F                     ___flmul@prod:
   944                           
   945                           ; 4 bytes @ 0xF
   946  002F                     	ds	4
   947  0033                     ___flmul@temp:
   948                           
   949                           ; 2 bytes @ 0x13
   950  0033                     	ds	2
   951  0035                     ?_liga_buzzer:
   952  0035                     liga_buzzer@tempoSegundos:	
   953                           ; 1 bytes @ 0x15
   954                           
   955                           
   956                           ; 4 bytes @ 0x15
   957  0035                     	ds	4
   958  0039                     ??_liga_buzzer:
   959                           
   960                           ; 1 bytes @ 0x19
   961  0039                     	ds	2
   962  003B                     ?_listaZonas:
   963  003B                     ??_teclado:	
   964                           ; 1 bytes @ 0x1B
   965                           
   966  003B                     listaZonas@valorSensor:	
   967                           ; 1 bytes @ 0x1B
   968                           
   969                           
   970                           ; 2 bytes @ 0x1B
   971  003B                     	ds	2
   972  003D                     ??_listaZonas:
   973                           
   974                           ; 1 bytes @ 0x1D
   975  003D                     	ds	1
   976  003E                     ?_alteraSenhaUser:
   977  003E                     alteraSenhaUser@opConfig:	
   978                           ; 1 bytes @ 0x1E
   979                           
   980                           
   981                           ; 2 bytes @ 0x1E
   982  003E                     	ds	2
   983  0040                     ??_alteraSenhaUser:
   984                           
   985                           ; 1 bytes @ 0x20
   986  0040                     	ds	3
   987  0043                     alteraSenhaUser@i:
   988                           
   989                           ; 2 bytes @ 0x23
   990  0043                     	ds	2
   991  0045                     ??_main:
   992                           
   993                           ; 1 bytes @ 0x25
   994  0045                     	ds	3
   995                           
   996                           	psect	maintext
   997  0AD4                     __pmaintext:	
   998 ;;
   999 ;;Main: autosize = 0, tempsize = 3, incstack = 0, save=0
  1000 ;;
  1001 ;; *************** function _main *****************
  1002 ;; Defined at:
  1003 ;;		line 49 in file "main.c"
  1004 ;; Parameters:    Size  Location     Type
  1005 ;;		None
  1006 ;; Auto vars:     Size  Location     Type
  1007 ;;		None
  1008 ;; Return value:  Size  Location     Type
  1009 ;;                  1    wreg      void 
  1010 ;; Registers used:
  1011 ;;		wreg, fsr0l, fsr0h, status,2, status,0, btemp+1, pclath, cstack
  1012 ;; Tracked objects:
  1013 ;;		On entry : B00/0
  1014 ;;		On exit  : 0/0
  1015 ;;		Unchanged: 0/0
  1016 ;; Data sizes:     COMMON   BANK0   BANK1   BANK3   BANK2
  1017 ;;      Params:         0       0       0       0       0
  1018 ;;      Locals:         0       0       0       0       0
  1019 ;;      Temps:          0       3       0       0       0
  1020 ;;      Totals:         0       3       0       0       0
  1021 ;;Total ram usage:        3 bytes
  1022 ;; Hardware stack levels required when called: 5
  1023 ;; This function calls:
  1024 ;;		_LCD_limpa
  1025 ;;		_alteraSenhaUser
  1026 ;;		_inicioADC
  1027 ;;		_leituraADC
  1028 ;;		_listaZonas
  1029 ;; This function is called by:
  1030 ;;		Startup code after reset
  1031 ;; This function uses a non-reentrant model
  1032 ;;
  1033                           
  1034                           
  1035                           ;psect for function _main
  1036  0AD4                     _main:
  1037  0AD4                     l3105:	
  1038                           ;incstack = 0
  1039                           ; Regs used in _main: [wreg-fsr0h+status,2+status,0+btemp+1+pclath+cstack]
  1040                           
  1041                           
  1042                           ;main.c: 50:     TRISE = 0x00;
  1043  0AD4  1683               	bsf	3,5	;RP0=1, select bank1
  1044  0AD5  1303               	bcf	3,6	;RP1=0, select bank1
  1045  0AD6  0189               	clrf	9	;volatile
  1046                           
  1047                           ;main.c: 51:     TRISD = 0x00;
  1048  0AD7  0188               	clrf	8	;volatile
  1049  0AD8                     l3107:
  1050                           
  1051                           ;main.c: 52:     TRISB = 0x0F;
  1052  0AD8  300F               	movlw	15
  1053  0AD9  0086               	movwf	6	;volatile
  1054  0ADA                     l3109:
  1055                           
  1056                           ;main.c: 53:     PORTE = 0x01;
  1057  0ADA  3001               	movlw	1
  1058  0ADB  1283               	bcf	3,5	;RP0=0, select bank0
  1059  0ADC  1303               	bcf	3,6	;RP1=0, select bank0
  1060  0ADD  0089               	movwf	9	;volatile
  1061  0ADE                     l3111:
  1062                           
  1063                           ;main.c: 54:     inicioADC();
  1064  0ADE  160A  118A  27D5  120A  158A  	fcall	_inicioADC
  1065  0AE3                     l3113:
  1066                           
  1067                           ;main.c: 69:         userFalse = 0;
  1068  0AE3  1283               	bcf	3,5	;RP0=0, select bank0
  1069  0AE4  1303               	bcf	3,6	;RP1=0, select bank0
  1070  0AE5  01CF               	clrf	_userFalse
  1071  0AE6  01D0               	clrf	_userFalse+1
  1072                           
  1073                           ;main.c: 70:         while (menu){
  1074  0AE7  2B42               	goto	l3133
  1075  0AE8                     l3115:
  1076                           
  1077                           ;main.c: 71:             valorSensor = leituraADC(2);
  1078  0AE8  3002               	movlw	2
  1079  0AE9  120A  158A  2103  120A  158A  	fcall	_leituraADC
  1080  0AEE  0871               	movf	?_leituraADC+1,w
  1081  0AEF  1283               	bcf	3,5	;RP0=0, select bank0
  1082  0AF0  1303               	bcf	3,6	;RP1=0, select bank0
  1083  0AF1  00EF               	movwf	_valorSensor+1
  1084  0AF2  0870               	movf	?_leituraADC,w
  1085  0AF3  00EE               	movwf	_valorSensor
  1086  0AF4                     l3117:
  1087                           
  1088                           ;main.c: 72:             listaZonas(valorSensor);
  1089  0AF4  086F               	movf	_valorSensor+1,w
  1090  0AF5  00BC               	movwf	listaZonas@valorSensor+1
  1091  0AF6  086E               	movf	_valorSensor,w
  1092  0AF7  00BB               	movwf	listaZonas@valorSensor
  1093  0AF8  120A  158A  234E  120A  158A  	fcall	_listaZonas
  1094  0AFD                     l3119:
  1095                           
  1096                           ;main.c: 73:             _delay((unsigned long)((100)*(20000000/4000.0)));
  1097  0AFD  3003               	movlw	3
  1098  0AFE  1283               	bcf	3,5	;RP0=0, select bank0
  1099  0AFF  1303               	bcf	3,6	;RP1=0, select bank0
  1100  0B00  00C7               	movwf	??_main+2
  1101  0B01  308A               	movlw	138
  1102  0B02  00C6               	movwf	??_main+1
  1103  0B03  3055               	movlw	85
  1104  0B04  00C5               	movwf	??_main
  1105  0B05                     u3437:
  1106  0B05  0BC5               	decfsz	??_main,f
  1107  0B06  2B05               	goto	u3437
  1108  0B07  0BC6               	decfsz	??_main+1,f
  1109  0B08  2B05               	goto	u3437
  1110  0B09  0BC7               	decfsz	??_main+2,f
  1111  0B0A  2B05               	goto	u3437
  1112  0B0B                     l3121:
  1113                           
  1114                           ;main.c: 74:             opConfig = 2;
  1115  0B0B  3002               	movlw	2
  1116  0B0C  1283               	bcf	3,5	;RP0=0, select bank0
  1117  0B0D  1303               	bcf	3,6	;RP1=0, select bank0
  1118  0B0E  00E6               	movwf	_opConfig
  1119  0B0F  3000               	movlw	0
  1120  0B10  00E7               	movwf	_opConfig+1
  1121  0B11                     l3123:
  1122                           
  1123                           ;main.c: 76:             if (opConfig > 0){
  1124  0B11  0866               	movf	_opConfig,w
  1125  0B12  0467               	iorwf	_opConfig+1,w
  1126  0B13  1903               	btfsc	3,2
  1127  0B14  2B16               	goto	u3351
  1128  0B15  2B17               	goto	u3350
  1129  0B16                     u3351:
  1130  0B16  2B42               	goto	l3133
  1131  0B17                     u3350:
  1132  0B17                     l3125:
  1133                           
  1134                           ;main.c: 77:                 LCD_limpa();
  1135  0B17  160A  118A  27F0  120A  158A  	fcall	_LCD_limpa
  1136                           
  1137                           ;main.c: 78:                 switch (opConfig){
  1138  0B1C  2B27               	goto	l3131
  1139  0B1D                     l3127:
  1140                           
  1141                           ;main.c: 83:                         alteraSenhaUser(opConfig);
  1142  0B1D  0867               	movf	_opConfig+1,w
  1143  0B1E  00BF               	movwf	alteraSenhaUser@opConfig+1
  1144  0B1F  0866               	movf	_opConfig,w
  1145  0B20  00BE               	movwf	alteraSenhaUser@opConfig
  1146  0B21  120A  158A  2279  120A  158A  	fcall	_alteraSenhaUser
  1147                           
  1148                           ;main.c: 84:                         break;
  1149  0B26  2B42               	goto	l3133
  1150  0B27                     l3131:
  1151                           
  1152                           ; Switch on 2 bytes has been partitioned into a top level switch of size 1, and 1 sub-sw
      +                          itches
  1153                           ; Switch size 1, requested type "simple"
  1154                           ; Number of cases is 1, Range of values is 0 to 0
  1155                           ; switch strategies available:
  1156                           ; Name         Instructions Cycles
  1157                           ; simple_byte            4     3 (average)
  1158                           ; direct_byte           11     8 (fixed)
  1159                           ; jumptable            260     6 (fixed)
  1160                           ;	Chosen strategy is simple_byte
  1161  0B27  1283               	bcf	3,5	;RP0=0, select bank0
  1162  0B28  1303               	bcf	3,6	;RP1=0, select bank0
  1163  0B29  0867               	movf	_opConfig+1,w
  1164  0B2A  3A00               	xorlw	0	; case 0
  1165  0B2B  1903               	skipnz
  1166  0B2C  2B2E               	goto	l3255
  1167  0B2D  2B42               	goto	l3133
  1168  0B2E                     l3255:
  1169                           
  1170                           ; Switch size 1, requested type "simple"
  1171                           ; Number of cases is 6, Range of values is 1 to 6
  1172                           ; switch strategies available:
  1173                           ; Name         Instructions Cycles
  1174                           ; simple_byte           19    10 (average)
  1175                           ; direct_byte           29    11 (fixed)
  1176                           ; jumptable            263     9 (fixed)
  1177                           ;	Chosen strategy is simple_byte
  1178  0B2E  0866               	movf	_opConfig,w
  1179  0B2F  3A01               	xorlw	1	; case 1
  1180  0B30  1903               	skipnz
  1181  0B31  2B42               	goto	l168
  1182  0B32  3A03               	xorlw	3	; case 2
  1183  0B33  1903               	skipnz
  1184  0B34  2B1D               	goto	l3127
  1185  0B35  3A01               	xorlw	1	; case 3
  1186  0B36  1903               	skipnz
  1187  0B37  2B42               	goto	l168
  1188  0B38  3A07               	xorlw	7	; case 4
  1189  0B39  1903               	skipnz
  1190  0B3A  2B42               	goto	l168
  1191  0B3B  3A01               	xorlw	1	; case 5
  1192  0B3C  1903               	skipnz
  1193  0B3D  2B42               	goto	l168
  1194  0B3E  3A03               	xorlw	3	; case 6
  1195  0B3F  1903               	skipnz
  1196  0B40  2B42               	goto	l168
  1197  0B41  2B42               	goto	l3133
  1198  0B42                     l168:	
  1199                           ;main.c: 99:             }
  1200                           
  1201  0B42                     l3133:
  1202                           
  1203                           ;main.c: 70:         while (menu){
  1204  0B42  1283               	bcf	3,5	;RP0=0, select bank0
  1205  0B43  1303               	bcf	3,6	;RP1=0, select bank0
  1206  0B44  084D               	movf	_menu,w
  1207  0B45  044E               	iorwf	_menu+1,w
  1208  0B46  1D03               	btfss	3,2
  1209  0B47  2B49               	goto	u3361
  1210  0B48  2B4A               	goto	u3360
  1211  0B49                     u3361:
  1212  0B49  2AE8               	goto	l3115
  1213  0B4A                     u3360:
  1214  0B4A  2AE3               	goto	l3113
  1215  0B4B  120A  118A  2800   	ljmp	start
  1216  0B4E                     __end_of_main:
  1217                           
  1218                           	psect	text1
  1219  0B4E                     __ptext1:	
  1220 ;; *************** function _listaZonas *****************
  1221 ;; Defined at:
  1222 ;;		line 398 in file "main.c"
  1223 ;; Parameters:    Size  Location     Type
  1224 ;;  valorSensor     2   27[BANK0 ] unsigned int 
  1225 ;; Auto vars:     Size  Location     Type
  1226 ;;		None
  1227 ;; Return value:  Size  Location     Type
  1228 ;;                  1    wreg      void 
  1229 ;; Registers used:
  1230 ;;		wreg, fsr0l, fsr0h, status,2, status,0, btemp+1, pclath, cstack
  1231 ;; Tracked objects:
  1232 ;;		On entry : 0/0
  1233 ;;		On exit  : 0/0
  1234 ;;		Unchanged: 0/0
  1235 ;; Data sizes:     COMMON   BANK0   BANK1   BANK3   BANK2
  1236 ;;      Params:         0       2       0       0       0
  1237 ;;      Locals:         0       0       0       0       0
  1238 ;;      Temps:          0       3       0       0       0
  1239 ;;      Totals:         0       5       0       0       0
  1240 ;;Total ram usage:        5 bytes
  1241 ;; Hardware stack levels used: 1
  1242 ;; Hardware stack levels required when called: 3
  1243 ;; This function calls:
  1244 ;;		_LCD_init
  1245 ;;		_LCD_limpa
  1246 ;;		_LCD_linha1
  1247 ;;		_LCD_linha2
  1248 ;;		_escreveMesagem
  1249 ;;		_liga_buzzer
  1250 ;; This function is called by:
  1251 ;;		_main
  1252 ;; This function uses a non-reentrant model
  1253 ;;
  1254                           
  1255                           
  1256                           ;psect for function _listaZonas
  1257  0B4E                     _listaZonas:
  1258  0B4E                     l2981:	
  1259                           ;incstack = 0
  1260                           ; Regs used in _listaZonas: [wreg-fsr0h+status,2+status,0+btemp+1+pclath+cstack]
  1261                           
  1262                           
  1263                           ;main.c: 399:     if (valorSensor <= auxSensor){
  1264  0B4E  3000               	movlw	0
  1265  0B4F  1283               	bcf	3,5	;RP0=0, select bank0
  1266  0B50  1303               	bcf	3,6	;RP1=0, select bank0
  1267  0B51  023C               	subwf	listaZonas@valorSensor+1,w
  1268  0B52  30CD               	movlw	205
  1269  0B53  1903               	skipnz
  1270  0B54  023B               	subwf	listaZonas@valorSensor,w
  1271  0B55  1803               	skipnc
  1272  0B56  2B58               	goto	u3201
  1273  0B57  2B59               	goto	u3200
  1274  0B58                     u3201:
  1275  0B58  2BAB               	goto	l2999
  1276  0B59                     u3200:
  1277  0B59                     l2983:
  1278                           
  1279                           ;main.c: 400:         LCD_init();
  1280  0B59  120A  158A  2132  120A  158A  	fcall	_LCD_init
  1281                           
  1282                           ;main.c: 401:         LCD_limpa();
  1283  0B5E  160A  118A  27F0  120A  158A  	fcall	_LCD_limpa
  1284                           
  1285                           ;main.c: 402:         LCD_linha1();
  1286  0B63  120A  158A  2016  120A  158A  	fcall	_LCD_linha1
  1287  0B68                     l2985:
  1288                           
  1289                           ;main.c: 403:         escreveMesagem(msgSenhaConfigActive);
  1290  0B68  30C8               	movlw	(low (_msgSenhaConfigActive| (0+256)))& (0+255)
  1291  0B69  00F3               	movwf	escreveMesagem@texto
  1292  0B6A  3001               	movlw	1
  1293  0B6B  00F4               	movwf	escreveMesagem@texto+1
  1294  0B6C  120A  158A  2165  120A  158A  	fcall	_escreveMesagem
  1295  0B71                     l2987:
  1296                           
  1297                           ;main.c: 404:         LCD_linha2();
  1298  0B71  120A  158A  2006  120A  158A  	fcall	_LCD_linha2
  1299                           
  1300                           ;main.c: 405:         escreveMesagem(msgSenhaUsuario);
  1301  0B76  30BA               	movlw	(low (_msgSenhaUsuario| (0+256)))& (0+255)
  1302  0B77  00F3               	movwf	escreveMesagem@texto
  1303  0B78  3001               	movlw	1
  1304  0B79  00F4               	movwf	escreveMesagem@texto+1
  1305  0B7A  120A  158A  2165  120A  158A  	fcall	_escreveMesagem
  1306  0B7F                     l2989:
  1307                           
  1308                           ;main.c: 406:         PORTB = 0b10111111;
  1309  0B7F  30BF               	movlw	191
  1310  0B80  1283               	bcf	3,5	;RP0=0, select bank0
  1311  0B81  1303               	bcf	3,6	;RP1=0, select bank0
  1312  0B82  0086               	movwf	6	;volatile
  1313  0B83                     l2991:
  1314                           
  1315                           ;main.c: 407:         if (RB2 == 0){
  1316  0B83  1906               	btfsc	6,2	;volatile
  1317  0B84  2B86               	goto	u3211
  1318  0B85  2B87               	goto	u3210
  1319  0B86                     u3211:
  1320  0B86  2D67               	goto	l288
  1321  0B87                     u3210:
  1322  0B87                     l2993:
  1323                           
  1324                           ;main.c: 408:             _delay((unsigned long)((200)*(20000000/4000.0)));
  1325  0B87  3006               	movlw	6
  1326  0B88  1283               	bcf	3,5	;RP0=0, select bank0
  1327  0B89  1303               	bcf	3,6	;RP1=0, select bank0
  1328  0B8A  00BF               	movwf	??_listaZonas+2
  1329  0B8B  3013               	movlw	19
  1330  0B8C  00BE               	movwf	??_listaZonas+1
  1331  0B8D  30AD               	movlw	173
  1332  0B8E  00BD               	movwf	??_listaZonas
  1333  0B8F                     u3447:
  1334  0B8F  0BBD               	decfsz	??_listaZonas,f
  1335  0B90  2B8F               	goto	u3447
  1336  0B91  0BBE               	decfsz	??_listaZonas+1,f
  1337  0B92  2B8F               	goto	u3447
  1338  0B93  0BBF               	decfsz	??_listaZonas+2,f
  1339  0B94  2B8F               	goto	u3447
  1340  0B95                     l2995:
  1341                           
  1342                           ;main.c: 409:             liga_buzzer(0.1);
  1343  0B95  303D               	movlw	61
  1344  0B96  1283               	bcf	3,5	;RP0=0, select bank0
  1345  0B97  1303               	bcf	3,6	;RP1=0, select bank0
  1346  0B98  00B8               	movwf	liga_buzzer@tempoSegundos+3
  1347  0B99  30CC               	movlw	204
  1348  0B9A  00B7               	movwf	liga_buzzer@tempoSegundos+2
  1349  0B9B  30CC               	movlw	204
  1350  0B9C  00B6               	movwf	liga_buzzer@tempoSegundos+1
  1351  0B9D  30CD               	movlw	205
  1352  0B9E  00B5               	movwf	liga_buzzer@tempoSegundos
  1353  0B9F  120A  118A  2040  120A  158A  	fcall	_liga_buzzer
  1354  0BA4                     l2997:
  1355                           
  1356                           ;main.c: 410:             opConfig = 1;
  1357  0BA4  3001               	movlw	1
  1358  0BA5  1283               	bcf	3,5	;RP0=0, select bank0
  1359  0BA6  1303               	bcf	3,6	;RP1=0, select bank0
  1360  0BA7  00E6               	movwf	_opConfig
  1361  0BA8  3000               	movlw	0
  1362  0BA9  00E7               	movwf	_opConfig+1
  1363  0BAA  2D67               	goto	l288
  1364  0BAB                     l2999:
  1365  0BAB  3001               	movlw	1
  1366  0BAC  023C               	subwf	listaZonas@valorSensor+1,w
  1367  0BAD  3099               	movlw	153
  1368  0BAE  1903               	skipnz
  1369  0BAF  023B               	subwf	listaZonas@valorSensor,w
  1370  0BB0  1803               	skipnc
  1371  0BB1  2BB3               	goto	u3221
  1372  0BB2  2BB4               	goto	u3220
  1373  0BB3                     u3221:
  1374  0BB3  2C04               	goto	l3015
  1375  0BB4                     u3220:
  1376  0BB4                     l3001:
  1377                           
  1378                           ;main.c: 414:         LCD_init();
  1379  0BB4  120A  158A  2132  120A  158A  	fcall	_LCD_init
  1380                           
  1381                           ;main.c: 415:         LCD_limpa();
  1382  0BB9  160A  118A  27F0  120A  158A  	fcall	_LCD_limpa
  1383                           
  1384                           ;main.c: 416:         LCD_linha1();
  1385  0BBE  120A  158A  2016  120A  158A  	fcall	_LCD_linha1
  1386  0BC3                     l3003:
  1387                           
  1388                           ;main.c: 417:         escreveMesagem(msgSenhaConfig);
  1389  0BC3  30C1               	movlw	(low (_msgSenhaConfig| 0))& (0+255)
  1390  0BC4  00F3               	movwf	escreveMesagem@texto
  1391  0BC5  3000               	movlw	0
  1392  0BC6  00F4               	movwf	escreveMesagem@texto+1
  1393  0BC7  120A  158A  2165  120A  158A  	fcall	_escreveMesagem
  1394  0BCC                     l3005:
  1395                           
  1396                           ;main.c: 418:         LCD_linha2();
  1397  0BCC  120A  158A  2006  120A  158A  	fcall	_LCD_linha2
  1398                           
  1399                           ;main.c: 419:         escreveMesagem(msgSenhaUsuarioActive);
  1400  0BD1  303E               	movlw	(low (_msgSenhaUsuarioActive| (0+256)))& (0+255)
  1401  0BD2  00F3               	movwf	escreveMesagem@texto
  1402  0BD3  3001               	movlw	1
  1403  0BD4  00F4               	movwf	escreveMesagem@texto+1
  1404  0BD5  120A  158A  2165  120A  158A  	fcall	_escreveMesagem
  1405  0BDA                     l3007:
  1406                           
  1407                           ;main.c: 420:         if (RB2 == 0){
  1408  0BDA  1283               	bcf	3,5	;RP0=0, select bank0
  1409  0BDB  1303               	bcf	3,6	;RP1=0, select bank0
  1410  0BDC  1906               	btfsc	6,2	;volatile
  1411  0BDD  2BDF               	goto	u3231
  1412  0BDE  2BE0               	goto	u3230
  1413  0BDF                     u3231:
  1414  0BDF  2D67               	goto	l288
  1415  0BE0                     u3230:
  1416  0BE0                     l3009:
  1417                           
  1418                           ;main.c: 421:             _delay((unsigned long)((200)*(20000000/4000.0)));
  1419  0BE0  3006               	movlw	6
  1420  0BE1  1283               	bcf	3,5	;RP0=0, select bank0
  1421  0BE2  1303               	bcf	3,6	;RP1=0, select bank0
  1422  0BE3  00BF               	movwf	??_listaZonas+2
  1423  0BE4  3013               	movlw	19
  1424  0BE5  00BE               	movwf	??_listaZonas+1
  1425  0BE6  30AD               	movlw	173
  1426  0BE7  00BD               	movwf	??_listaZonas
  1427  0BE8                     u3457:
  1428  0BE8  0BBD               	decfsz	??_listaZonas,f
  1429  0BE9  2BE8               	goto	u3457
  1430  0BEA  0BBE               	decfsz	??_listaZonas+1,f
  1431  0BEB  2BE8               	goto	u3457
  1432  0BEC  0BBF               	decfsz	??_listaZonas+2,f
  1433  0BED  2BE8               	goto	u3457
  1434  0BEE                     l3011:
  1435                           
  1436                           ;main.c: 422:             liga_buzzer(0.1);
  1437  0BEE  303D               	movlw	61
  1438  0BEF  1283               	bcf	3,5	;RP0=0, select bank0
  1439  0BF0  1303               	bcf	3,6	;RP1=0, select bank0
  1440  0BF1  00B8               	movwf	liga_buzzer@tempoSegundos+3
  1441  0BF2  30CC               	movlw	204
  1442  0BF3  00B7               	movwf	liga_buzzer@tempoSegundos+2
  1443  0BF4  30CC               	movlw	204
  1444  0BF5  00B6               	movwf	liga_buzzer@tempoSegundos+1
  1445  0BF6  30CD               	movlw	205
  1446  0BF7  00B5               	movwf	liga_buzzer@tempoSegundos
  1447  0BF8  120A  118A  2040  120A  158A  	fcall	_liga_buzzer
  1448  0BFD                     l3013:
  1449                           
  1450                           ;main.c: 423:             opConfig = 2;
  1451  0BFD  3002               	movlw	2
  1452  0BFE  1283               	bcf	3,5	;RP0=0, select bank0
  1453  0BFF  1303               	bcf	3,6	;RP1=0, select bank0
  1454  0C00  00E6               	movwf	_opConfig
  1455  0C01  3000               	movlw	0
  1456  0C02  00E7               	movwf	_opConfig+1
  1457  0C03  2D67               	goto	l288
  1458  0C04                     l3015:
  1459  0C04  3002               	movlw	2
  1460  0C05  023C               	subwf	listaZonas@valorSensor+1,w
  1461  0C06  3065               	movlw	101
  1462  0C07  1903               	skipnz
  1463  0C08  023B               	subwf	listaZonas@valorSensor,w
  1464  0C09  1803               	skipnc
  1465  0C0A  2C0C               	goto	u3241
  1466  0C0B  2C0D               	goto	u3240
  1467  0C0C                     u3241:
  1468  0C0C  2C5D               	goto	l3031
  1469  0C0D                     u3240:
  1470  0C0D                     l3017:
  1471                           
  1472                           ;main.c: 427:         LCD_init();
  1473  0C0D  120A  158A  2132  120A  158A  	fcall	_LCD_init
  1474                           
  1475                           ;main.c: 428:         LCD_limpa();
  1476  0C12  160A  118A  27F0  120A  158A  	fcall	_LCD_limpa
  1477                           
  1478                           ;main.c: 429:         LCD_linha1();
  1479  0C17  120A  158A  2016  120A  158A  	fcall	_LCD_linha1
  1480  0C1C                     l3019:
  1481                           
  1482                           ;main.c: 430:         escreveMesagem(msgSenhaCoacaoActive);
  1483  0C1C  30AC               	movlw	(low (_msgSenhaCoacaoActive| (0+256)))& (0+255)
  1484  0C1D  00F3               	movwf	escreveMesagem@texto
  1485  0C1E  3001               	movlw	1
  1486  0C1F  00F4               	movwf	escreveMesagem@texto+1
  1487  0C20  120A  158A  2165  120A  158A  	fcall	_escreveMesagem
  1488  0C25                     l3021:
  1489                           
  1490                           ;main.c: 431:         LCD_linha2();
  1491  0C25  120A  158A  2006  120A  158A  	fcall	_LCD_linha2
  1492                           
  1493                           ;main.c: 432:         escreveMesagem(msgSenhaDisparo);
  1494  0C2A  309E               	movlw	(low (_msgSenhaDisparo| (0+256)))& (0+255)
  1495  0C2B  00F3               	movwf	escreveMesagem@texto
  1496  0C2C  3001               	movlw	1
  1497  0C2D  00F4               	movwf	escreveMesagem@texto+1
  1498  0C2E  120A  158A  2165  120A  158A  	fcall	_escreveMesagem
  1499  0C33                     l3023:
  1500                           
  1501                           ;main.c: 433:         if (RB2 == 0){
  1502  0C33  1283               	bcf	3,5	;RP0=0, select bank0
  1503  0C34  1303               	bcf	3,6	;RP1=0, select bank0
  1504  0C35  1906               	btfsc	6,2	;volatile
  1505  0C36  2C38               	goto	u3251
  1506  0C37  2C39               	goto	u3250
  1507  0C38                     u3251:
  1508  0C38  2D67               	goto	l288
  1509  0C39                     u3250:
  1510  0C39                     l3025:
  1511                           
  1512                           ;main.c: 434:             _delay((unsigned long)((200)*(20000000/4000.0)));
  1513  0C39  3006               	movlw	6
  1514  0C3A  1283               	bcf	3,5	;RP0=0, select bank0
  1515  0C3B  1303               	bcf	3,6	;RP1=0, select bank0
  1516  0C3C  00BF               	movwf	??_listaZonas+2
  1517  0C3D  3013               	movlw	19
  1518  0C3E  00BE               	movwf	??_listaZonas+1
  1519  0C3F  30AD               	movlw	173
  1520  0C40  00BD               	movwf	??_listaZonas
  1521  0C41                     u3467:
  1522  0C41  0BBD               	decfsz	??_listaZonas,f
  1523  0C42  2C41               	goto	u3467
  1524  0C43  0BBE               	decfsz	??_listaZonas+1,f
  1525  0C44  2C41               	goto	u3467
  1526  0C45  0BBF               	decfsz	??_listaZonas+2,f
  1527  0C46  2C41               	goto	u3467
  1528  0C47                     l3027:
  1529                           
  1530                           ;main.c: 435:             liga_buzzer(0.1);
  1531  0C47  303D               	movlw	61
  1532  0C48  1283               	bcf	3,5	;RP0=0, select bank0
  1533  0C49  1303               	bcf	3,6	;RP1=0, select bank0
  1534  0C4A  00B8               	movwf	liga_buzzer@tempoSegundos+3
  1535  0C4B  30CC               	movlw	204
  1536  0C4C  00B7               	movwf	liga_buzzer@tempoSegundos+2
  1537  0C4D  30CC               	movlw	204
  1538  0C4E  00B6               	movwf	liga_buzzer@tempoSegundos+1
  1539  0C4F  30CD               	movlw	205
  1540  0C50  00B5               	movwf	liga_buzzer@tempoSegundos
  1541  0C51  120A  118A  2040  120A  158A  	fcall	_liga_buzzer
  1542  0C56                     l3029:
  1543                           
  1544                           ;main.c: 436:             opConfig = 3;
  1545  0C56  3003               	movlw	3
  1546  0C57  1283               	bcf	3,5	;RP0=0, select bank0
  1547  0C58  1303               	bcf	3,6	;RP1=0, select bank0
  1548  0C59  00E6               	movwf	_opConfig
  1549  0C5A  3000               	movlw	0
  1550  0C5B  00E7               	movwf	_opConfig+1
  1551  0C5C  2D67               	goto	l288
  1552  0C5D                     l3031:
  1553  0C5D  3003               	movlw	3
  1554  0C5E  023C               	subwf	listaZonas@valorSensor+1,w
  1555  0C5F  3031               	movlw	49
  1556  0C60  1903               	skipnz
  1557  0C61  023B               	subwf	listaZonas@valorSensor,w
  1558  0C62  1803               	skipnc
  1559  0C63  2C65               	goto	u3261
  1560  0C64  2C66               	goto	u3260
  1561  0C65                     u3261:
  1562  0C65  2CB6               	goto	l3047
  1563  0C66                     u3260:
  1564  0C66                     l3033:
  1565                           
  1566                           ;main.c: 440:         LCD_init();
  1567  0C66  120A  158A  2132  120A  158A  	fcall	_LCD_init
  1568                           
  1569                           ;main.c: 441:         LCD_limpa();
  1570  0C6B  160A  118A  27F0  120A  158A  	fcall	_LCD_limpa
  1571                           
  1572                           ;main.c: 442:         LCD_linha1();
  1573  0C70  120A  158A  2016  120A  158A  	fcall	_LCD_linha1
  1574  0C75                     l3035:
  1575                           
  1576                           ;main.c: 443:         escreveMesagem(msgSenhaCoacao);
  1577  0C75  30B4               	movlw	(low (_msgSenhaCoacao| 0))& (0+255)
  1578  0C76  00F3               	movwf	escreveMesagem@texto
  1579  0C77  3000               	movlw	0
  1580  0C78  00F4               	movwf	escreveMesagem@texto+1
  1581  0C79  120A  158A  2165  120A  158A  	fcall	_escreveMesagem
  1582  0C7E                     l3037:
  1583                           
  1584                           ;main.c: 444:         LCD_linha2();
  1585  0C7E  120A  158A  2006  120A  158A  	fcall	_LCD_linha2
  1586                           
  1587                           ;main.c: 445:         escreveMesagem(msgSenhaDisparoActive);
  1588  0C83  302F               	movlw	(low (_msgSenhaDisparoActive| (0+256)))& (0+255)
  1589  0C84  00F3               	movwf	escreveMesagem@texto
  1590  0C85  3001               	movlw	1
  1591  0C86  00F4               	movwf	escreveMesagem@texto+1
  1592  0C87  120A  158A  2165  120A  158A  	fcall	_escreveMesagem
  1593  0C8C                     l3039:
  1594                           
  1595                           ;main.c: 446:         if (RB2 == 0){
  1596  0C8C  1283               	bcf	3,5	;RP0=0, select bank0
  1597  0C8D  1303               	bcf	3,6	;RP1=0, select bank0
  1598  0C8E  1906               	btfsc	6,2	;volatile
  1599  0C8F  2C91               	goto	u3271
  1600  0C90  2C92               	goto	u3270
  1601  0C91                     u3271:
  1602  0C91  2D67               	goto	l288
  1603  0C92                     u3270:
  1604  0C92                     l3041:
  1605                           
  1606                           ;main.c: 447:             _delay((unsigned long)((200)*(20000000/4000.0)));
  1607  0C92  3006               	movlw	6
  1608  0C93  1283               	bcf	3,5	;RP0=0, select bank0
  1609  0C94  1303               	bcf	3,6	;RP1=0, select bank0
  1610  0C95  00BF               	movwf	??_listaZonas+2
  1611  0C96  3013               	movlw	19
  1612  0C97  00BE               	movwf	??_listaZonas+1
  1613  0C98  30AD               	movlw	173
  1614  0C99  00BD               	movwf	??_listaZonas
  1615  0C9A                     u3477:
  1616  0C9A  0BBD               	decfsz	??_listaZonas,f
  1617  0C9B  2C9A               	goto	u3477
  1618  0C9C  0BBE               	decfsz	??_listaZonas+1,f
  1619  0C9D  2C9A               	goto	u3477
  1620  0C9E  0BBF               	decfsz	??_listaZonas+2,f
  1621  0C9F  2C9A               	goto	u3477
  1622  0CA0                     l3043:
  1623                           
  1624                           ;main.c: 448:             liga_buzzer(0.1);
  1625  0CA0  303D               	movlw	61
  1626  0CA1  1283               	bcf	3,5	;RP0=0, select bank0
  1627  0CA2  1303               	bcf	3,6	;RP1=0, select bank0
  1628  0CA3  00B8               	movwf	liga_buzzer@tempoSegundos+3
  1629  0CA4  30CC               	movlw	204
  1630  0CA5  00B7               	movwf	liga_buzzer@tempoSegundos+2
  1631  0CA6  30CC               	movlw	204
  1632  0CA7  00B6               	movwf	liga_buzzer@tempoSegundos+1
  1633  0CA8  30CD               	movlw	205
  1634  0CA9  00B5               	movwf	liga_buzzer@tempoSegundos
  1635  0CAA  120A  118A  2040  120A  158A  	fcall	_liga_buzzer
  1636  0CAF                     l3045:
  1637                           
  1638                           ;main.c: 449:             opConfig = 4;
  1639  0CAF  3004               	movlw	4
  1640  0CB0  1283               	bcf	3,5	;RP0=0, select bank0
  1641  0CB1  1303               	bcf	3,6	;RP1=0, select bank0
  1642  0CB2  00E6               	movwf	_opConfig
  1643  0CB3  3000               	movlw	0
  1644  0CB4  00E7               	movwf	_opConfig+1
  1645  0CB5  2D67               	goto	l288
  1646  0CB6                     l3047:
  1647  0CB6  3003               	movlw	3
  1648  0CB7  023C               	subwf	listaZonas@valorSensor+1,w
  1649  0CB8  30FD               	movlw	253
  1650  0CB9  1903               	skipnz
  1651  0CBA  023B               	subwf	listaZonas@valorSensor,w
  1652  0CBB  1803               	skipnc
  1653  0CBC  2CBE               	goto	u3281
  1654  0CBD  2CBF               	goto	u3280
  1655  0CBE                     u3281:
  1656  0CBE  2D0F               	goto	l3063
  1657  0CBF                     u3280:
  1658  0CBF                     l3049:
  1659                           
  1660                           ;main.c: 453:         LCD_init();
  1661  0CBF  120A  158A  2132  120A  158A  	fcall	_LCD_init
  1662                           
  1663                           ;main.c: 454:         LCD_limpa();
  1664  0CC4  160A  118A  27F0  120A  158A  	fcall	_LCD_limpa
  1665                           
  1666                           ;main.c: 455:         LCD_linha1();
  1667  0CC9  120A  158A  2016  120A  158A  	fcall	_LCD_linha1
  1668  0CCE                     l3051:
  1669                           
  1670                           ;main.c: 456:         escreveMesagem(msgDesativarZonaActive);
  1671  0CCE  3010               	movlw	(low (_msgDesativarZonaActive| (0+256)))& (0+255)
  1672  0CCF  00F3               	movwf	escreveMesagem@texto
  1673  0CD0  3001               	movlw	1
  1674  0CD1  00F4               	movwf	escreveMesagem@texto+1
  1675  0CD2  120A  158A  2165  120A  158A  	fcall	_escreveMesagem
  1676  0CD7                     l3053:
  1677                           
  1678                           ;main.c: 457:         LCD_linha2();
  1679  0CD7  120A  158A  2006  120A  158A  	fcall	_LCD_linha2
  1680                           
  1681                           ;main.c: 458:         escreveMesagem(msgReativar);
  1682  0CDC  30E5               	movlw	(low (_msgReativar| 0))& (0+255)
  1683  0CDD  00F3               	movwf	escreveMesagem@texto
  1684  0CDE  3000               	movlw	0
  1685  0CDF  00F4               	movwf	escreveMesagem@texto+1
  1686  0CE0  120A  158A  2165  120A  158A  	fcall	_escreveMesagem
  1687  0CE5                     l3055:
  1688                           
  1689                           ;main.c: 459:         if (RB2 == 0){
  1690  0CE5  1283               	bcf	3,5	;RP0=0, select bank0
  1691  0CE6  1303               	bcf	3,6	;RP1=0, select bank0
  1692  0CE7  1906               	btfsc	6,2	;volatile
  1693  0CE8  2CEA               	goto	u3291
  1694  0CE9  2CEB               	goto	u3290
  1695  0CEA                     u3291:
  1696  0CEA  2D67               	goto	l288
  1697  0CEB                     u3290:
  1698  0CEB                     l3057:
  1699                           
  1700                           ;main.c: 460:             _delay((unsigned long)((200)*(20000000/4000.0)));
  1701  0CEB  3006               	movlw	6
  1702  0CEC  1283               	bcf	3,5	;RP0=0, select bank0
  1703  0CED  1303               	bcf	3,6	;RP1=0, select bank0
  1704  0CEE  00BF               	movwf	??_listaZonas+2
  1705  0CEF  3013               	movlw	19
  1706  0CF0  00BE               	movwf	??_listaZonas+1
  1707  0CF1  30AD               	movlw	173
  1708  0CF2  00BD               	movwf	??_listaZonas
  1709  0CF3                     u3487:
  1710  0CF3  0BBD               	decfsz	??_listaZonas,f
  1711  0CF4  2CF3               	goto	u3487
  1712  0CF5  0BBE               	decfsz	??_listaZonas+1,f
  1713  0CF6  2CF3               	goto	u3487
  1714  0CF7  0BBF               	decfsz	??_listaZonas+2,f
  1715  0CF8  2CF3               	goto	u3487
  1716  0CF9                     l3059:
  1717                           
  1718                           ;main.c: 461:             liga_buzzer(0.1);
  1719  0CF9  303D               	movlw	61
  1720  0CFA  1283               	bcf	3,5	;RP0=0, select bank0
  1721  0CFB  1303               	bcf	3,6	;RP1=0, select bank0
  1722  0CFC  00B8               	movwf	liga_buzzer@tempoSegundos+3
  1723  0CFD  30CC               	movlw	204
  1724  0CFE  00B7               	movwf	liga_buzzer@tempoSegundos+2
  1725  0CFF  30CC               	movlw	204
  1726  0D00  00B6               	movwf	liga_buzzer@tempoSegundos+1
  1727  0D01  30CD               	movlw	205
  1728  0D02  00B5               	movwf	liga_buzzer@tempoSegundos
  1729  0D03  120A  118A  2040  120A  158A  	fcall	_liga_buzzer
  1730  0D08                     l3061:
  1731                           
  1732                           ;main.c: 462:             opConfig = 5;
  1733  0D08  3005               	movlw	5
  1734  0D09  1283               	bcf	3,5	;RP0=0, select bank0
  1735  0D0A  1303               	bcf	3,6	;RP1=0, select bank0
  1736  0D0B  00E6               	movwf	_opConfig
  1737  0D0C  3000               	movlw	0
  1738  0D0D  00E7               	movwf	_opConfig+1
  1739  0D0E  2D67               	goto	l288
  1740  0D0F                     l3063:
  1741  0D0F  3004               	movlw	4
  1742  0D10  023C               	subwf	listaZonas@valorSensor+1,w
  1743  0D11  30C9               	movlw	201
  1744  0D12  1903               	skipnz
  1745  0D13  023B               	subwf	listaZonas@valorSensor,w
  1746  0D14  1803               	skipnc
  1747  0D15  2D17               	goto	u3301
  1748  0D16  2D18               	goto	u3300
  1749  0D17                     u3301:
  1750  0D17  2D67               	goto	l288
  1751  0D18                     u3300:
  1752  0D18                     l3065:
  1753                           
  1754                           ;main.c: 466:         LCD_init();
  1755  0D18  120A  158A  2132  120A  158A  	fcall	_LCD_init
  1756                           
  1757                           ;main.c: 467:         LCD_limpa();
  1758  0D1D  160A  118A  27F0  120A  158A  	fcall	_LCD_limpa
  1759                           
  1760                           ;main.c: 468:         LCD_linha1();
  1761  0D22  120A  158A  2016  120A  158A  	fcall	_LCD_linha1
  1762  0D27                     l3067:
  1763                           
  1764                           ;main.c: 469:         escreveMesagem(msgDesativarZona);
  1765  0D27  3020               	movlw	(low (_msgDesativarZona| (0+256)))& (0+255)
  1766  0D28  00F3               	movwf	escreveMesagem@texto
  1767  0D29  3001               	movlw	1
  1768  0D2A  00F4               	movwf	escreveMesagem@texto+1
  1769  0D2B  120A  158A  2165  120A  158A  	fcall	_escreveMesagem
  1770  0D30                     l3069:
  1771                           
  1772                           ;main.c: 470:         LCD_linha2();
  1773  0D30  120A  158A  2006  120A  158A  	fcall	_LCD_linha2
  1774                           
  1775                           ;main.c: 471:         escreveMesagem(msgReativarActive);
  1776  0D35  30DB               	movlw	(low (_msgReativarActive| 0))& (0+255)
  1777  0D36  00F3               	movwf	escreveMesagem@texto
  1778  0D37  3000               	movlw	0
  1779  0D38  00F4               	movwf	escreveMesagem@texto+1
  1780  0D39  120A  158A  2165  120A  158A  	fcall	_escreveMesagem
  1781  0D3E                     l3071:
  1782                           
  1783                           ;main.c: 472:         if (RB2 == 0){
  1784  0D3E  1283               	bcf	3,5	;RP0=0, select bank0
  1785  0D3F  1303               	bcf	3,6	;RP1=0, select bank0
  1786  0D40  1906               	btfsc	6,2	;volatile
  1787  0D41  2D43               	goto	u3311
  1788  0D42  2D44               	goto	u3310
  1789  0D43                     u3311:
  1790  0D43  2D67               	goto	l288
  1791  0D44                     u3310:
  1792  0D44                     l3073:
  1793                           
  1794                           ;main.c: 473:             _delay((unsigned long)((200)*(20000000/4000.0)));
  1795  0D44  3006               	movlw	6
  1796  0D45  1283               	bcf	3,5	;RP0=0, select bank0
  1797  0D46  1303               	bcf	3,6	;RP1=0, select bank0
  1798  0D47  00BF               	movwf	??_listaZonas+2
  1799  0D48  3013               	movlw	19
  1800  0D49  00BE               	movwf	??_listaZonas+1
  1801  0D4A  30AD               	movlw	173
  1802  0D4B  00BD               	movwf	??_listaZonas
  1803  0D4C                     u3497:
  1804  0D4C  0BBD               	decfsz	??_listaZonas,f
  1805  0D4D  2D4C               	goto	u3497
  1806  0D4E  0BBE               	decfsz	??_listaZonas+1,f
  1807  0D4F  2D4C               	goto	u3497
  1808  0D50  0BBF               	decfsz	??_listaZonas+2,f
  1809  0D51  2D4C               	goto	u3497
  1810  0D52                     l3075:
  1811                           
  1812                           ;main.c: 474:             liga_buzzer(0.1);
  1813  0D52  303D               	movlw	61
  1814  0D53  1283               	bcf	3,5	;RP0=0, select bank0
  1815  0D54  1303               	bcf	3,6	;RP1=0, select bank0
  1816  0D55  00B8               	movwf	liga_buzzer@tempoSegundos+3
  1817  0D56  30CC               	movlw	204
  1818  0D57  00B7               	movwf	liga_buzzer@tempoSegundos+2
  1819  0D58  30CC               	movlw	204
  1820  0D59  00B6               	movwf	liga_buzzer@tempoSegundos+1
  1821  0D5A  30CD               	movlw	205
  1822  0D5B  00B5               	movwf	liga_buzzer@tempoSegundos
  1823  0D5C  120A  118A  2040  120A  158A  	fcall	_liga_buzzer
  1824  0D61                     l3077:
  1825                           
  1826                           ;main.c: 475:             opConfig = 6;
  1827  0D61  3006               	movlw	6
  1828  0D62  1283               	bcf	3,5	;RP0=0, select bank0
  1829  0D63  1303               	bcf	3,6	;RP1=0, select bank0
  1830  0D64  00E6               	movwf	_opConfig
  1831  0D65  3000               	movlw	0
  1832  0D66  00E7               	movwf	_opConfig+1
  1833  0D67                     l288:
  1834  0D67  0008               	return
  1835  0D68                     __end_of_listaZonas:
  1836                           
  1837                           	psect	text2
  1838  0816                     __ptext2:	
  1839 ;; *************** function _LCD_linha1 *****************
  1840 ;; Defined at:
  1841 ;;		line 65 in file "./lcd.h"
  1842 ;; Parameters:    Size  Location     Type
  1843 ;;		None
  1844 ;; Auto vars:     Size  Location     Type
  1845 ;;		None
  1846 ;; Return value:  Size  Location     Type
  1847 ;;                  1    wreg      void 
  1848 ;; Registers used:
  1849 ;;		wreg, status,2, status,0, btemp+1, pclath, cstack
  1850 ;; Tracked objects:
  1851 ;;		On entry : 0/0
  1852 ;;		On exit  : 0/0
  1853 ;;		Unchanged: 0/0
  1854 ;; Data sizes:     COMMON   BANK0   BANK1   BANK3   BANK2
  1855 ;;      Params:         0       0       0       0       0
  1856 ;;      Locals:         0       0       0       0       0
  1857 ;;      Temps:          0       0       0       0       0
  1858 ;;      Totals:         0       0       0       0       0
  1859 ;;Total ram usage:        0 bytes
  1860 ;; Hardware stack levels used: 1
  1861 ;; Hardware stack levels required when called: 1
  1862 ;; This function calls:
  1863 ;;		_delay
  1864 ;; This function is called by:
  1865 ;;		_listaZonas
  1866 ;;		_telaInicial
  1867 ;;		_validaUser
  1868 ;; This function uses a non-reentrant model
  1869 ;;
  1870                           
  1871                           
  1872                           ;psect for function _LCD_linha1
  1873  0816                     _LCD_linha1:
  1874  0816                     l2435:	
  1875                           ;incstack = 0
  1876                           ; Regs used in _LCD_linha1: [wreg+status,2+status,0+btemp+1+pclath+cstack]
  1877                           
  1878                           
  1879                           ;./lcd.h: 66:     PORTD = 0x02;
  1880  0816  3002               	movlw	2
  1881  0817  1283               	bcf	3,5	;RP0=0, select bank0
  1882  0818  1303               	bcf	3,6	;RP1=0, select bank0
  1883  0819  0088               	movwf	8	;volatile
  1884  081A                     l2437:
  1885                           
  1886                           ;./lcd.h: 67:     RA5 = 0;
  1887  081A  1285               	bcf	5,5	;volatile
  1888  081B                     l2439:
  1889                           
  1890                           ;./lcd.h: 68:     RA4 = 0;
  1891  081B  1205               	bcf	5,4	;volatile
  1892  081C                     l2441:
  1893                           
  1894                           ;./lcd.h: 69:     RA3=0;
  1895  081C  1185               	bcf	5,3	;volatile
  1896  081D                     l2443:
  1897                           
  1898                           ;./lcd.h: 70:     delay();
  1899  081D  120A  158A  204A  120A  158A  	fcall	_delay
  1900  0822                     l2445:
  1901                           
  1902                           ;./lcd.h: 71:  RA3 = 1;
  1903  0822  1283               	bcf	3,5	;RP0=0, select bank0
  1904  0823  1303               	bcf	3,6	;RP1=0, select bank0
  1905  0824  1585               	bsf	5,3	;volatile
  1906  0825                     l81:
  1907  0825  0008               	return
  1908  0826                     __end_of_LCD_linha1:
  1909                           
  1910                           	psect	text3
  1911  0903                     __ptext3:	
  1912 ;; *************** function _leituraADC *****************
  1913 ;; Defined at:
  1914 ;;		line 493 in file "main.c"
  1915 ;; Parameters:    Size  Location     Type
  1916 ;;  canal           1    wreg     unsigned char 
  1917 ;; Auto vars:     Size  Location     Type
  1918 ;;  canal           1    6[COMMON] unsigned char 
  1919 ;;  leitura         2    4[COMMON] unsigned int 
  1920 ;; Return value:  Size  Location     Type
  1921 ;;                  2    0[COMMON] unsigned int 
  1922 ;; Registers used:
  1923 ;;		wreg, status,2, status,0
  1924 ;; Tracked objects:
  1925 ;;		On entry : 0/0
  1926 ;;		On exit  : 0/0
  1927 ;;		Unchanged: 0/0
  1928 ;; Data sizes:     COMMON   BANK0   BANK1   BANK3   BANK2
  1929 ;;      Params:         2       0       0       0       0
  1930 ;;      Locals:         3       0       0       0       0
  1931 ;;      Temps:          2       0       0       0       0
  1932 ;;      Totals:         7       0       0       0       0
  1933 ;;Total ram usage:        7 bytes
  1934 ;; Hardware stack levels used: 1
  1935 ;; This function calls:
  1936 ;;		Nothing
  1937 ;; This function is called by:
  1938 ;;		_main
  1939 ;; This function uses a non-reentrant model
  1940 ;;
  1941                           
  1942                           
  1943                           ;psect for function _leituraADC
  1944  0903                     _leituraADC:
  1945                           
  1946                           ;incstack = 0
  1947                           ; Regs used in _leituraADC: [wreg+status,2+status,0]
  1948                           ;leituraADC@canal stored from wreg
  1949  0903  00F6               	movwf	leituraADC@canal
  1950  0904                     l2641:
  1951                           
  1952                           ;main.c: 494:     unsigned int leitura;;main.c: 496:     ADCON0 &= 0xC5;
  1953  0904  30C5               	movlw	197
  1954  0905  00F2               	movwf	??_leituraADC
  1955  0906  0872               	movf	??_leituraADC,w
  1956  0907  1283               	bcf	3,5	;RP0=0, select bank0
  1957  0908  1303               	bcf	3,6	;RP1=0, select bank0
  1958  0909  059F               	andwf	31,f	;volatile
  1959                           
  1960                           ;main.c: 497:     ADCON0 |= (canal<<3);
  1961  090A  0876               	movf	leituraADC@canal,w	;volatile
  1962  090B  00F2               	movwf	??_leituraADC
  1963  090C  3002               	movlw	2
  1964  090D                     u2845:
  1965  090D  1003               	clrc
  1966  090E  0DF2               	rlf	??_leituraADC,f
  1967  090F  3EFF               	addlw	-1
  1968  0910  1D03               	skipz
  1969  0911  290D               	goto	u2845
  1970  0912  1003               	clrc
  1971  0913  0D72               	rlf	??_leituraADC,w
  1972  0914  00F3               	movwf	??_leituraADC+1
  1973  0915  0873               	movf	??_leituraADC+1,w
  1974  0916  049F               	iorwf	31,f	;volatile
  1975  0917                     l2643:
  1976                           
  1977                           ;main.c: 498:     _delay((unsigned long)((2)*(20000000/4000.0)));
  1978  0917  300D               	movlw	13
  1979  0918  00F3               	movwf	??_leituraADC+1
  1980  0919  30FB               	movlw	251
  1981  091A  00F2               	movwf	??_leituraADC
  1982  091B                     u3507:
  1983  091B  0BF2               	decfsz	??_leituraADC,f
  1984  091C  291B               	goto	u3507
  1985  091D  0BF3               	decfsz	??_leituraADC+1,f
  1986  091E  291B               	goto	u3507
  1987  091F  2920               	nop2
  1988  0920                     l2645:
  1989                           
  1990                           ;main.c: 501:     GO_nDONE = 1;
  1991  0920  1283               	bcf	3,5	;RP0=0, select bank0
  1992  0921  1303               	bcf	3,6	;RP1=0, select bank0
  1993  0922  151F               	bsf	31,2	;volatile
  1994  0923                     l300:	
  1995                           ;main.c: 504:     while (GO_nDONE);
  1996                           
  1997  0923  191F               	btfsc	31,2	;volatile
  1998  0924  2926               	goto	u2851
  1999  0925  2927               	goto	u2850
  2000  0926                     u2851:
  2001  0926  2923               	goto	l300
  2002  0927                     u2850:
  2003  0927                     l2647:
  2004                           
  2005                           ;main.c: 506:     leitura = (ADRESH<<8) + ADRESL;
  2006  0927  081E               	movf	30,w	;volatile
  2007  0928  00F5               	movwf	leituraADC@leitura+1
  2008  0929  1683               	bsf	3,5	;RP0=1, select bank1
  2009  092A  1303               	bcf	3,6	;RP1=0, select bank1
  2010  092B  081E               	movf	30,w	;volatile
  2011  092C  00F4               	movwf	leituraADC@leitura
  2012                           
  2013                           ;main.c: 507:     return leitura;
  2014  092D  0875               	movf	leituraADC@leitura+1,w
  2015  092E  00F1               	movwf	?_leituraADC+1
  2016  092F  0874               	movf	leituraADC@leitura,w
  2017  0930  00F0               	movwf	?_leituraADC
  2018  0931                     l303:
  2019  0931  0008               	return
  2020  0932                     __end_of_leituraADC:
  2021                           
  2022                           	psect	text4
  2023  17D5                     __ptext4:	
  2024 ;; *************** function _inicioADC *****************
  2025 ;; Defined at:
  2026 ;;		line 484 in file "main.c"
  2027 ;; Parameters:    Size  Location     Type
  2028 ;;		None
  2029 ;; Auto vars:     Size  Location     Type
  2030 ;;		None
  2031 ;; Return value:  Size  Location     Type
  2032 ;;                  1    wreg      void 
  2033 ;; Registers used:
  2034 ;;		wreg
  2035 ;; Tracked objects:
  2036 ;;		On entry : 0/0
  2037 ;;		On exit  : 0/0
  2038 ;;		Unchanged: 0/0
  2039 ;; Data sizes:     COMMON   BANK0   BANK1   BANK3   BANK2
  2040 ;;      Params:         0       0       0       0       0
  2041 ;;      Locals:         0       0       0       0       0
  2042 ;;      Temps:          0       0       0       0       0
  2043 ;;      Totals:         0       0       0       0       0
  2044 ;;Total ram usage:        0 bytes
  2045 ;; Hardware stack levels used: 1
  2046 ;; This function calls:
  2047 ;;		Nothing
  2048 ;; This function is called by:
  2049 ;;		_main
  2050 ;; This function uses a non-reentrant model
  2051 ;;
  2052                           
  2053                           
  2054                           ;psect for function _inicioADC
  2055  17D5                     _inicioADC:
  2056  17D5                     l2639:	
  2057                           ;incstack = 0
  2058                           ; Regs used in _inicioADC: [wreg]
  2059                           
  2060                           
  2061                           ;main.c: 485:     TRISA = 0xFF;
  2062  17D5  30FF               	movlw	255
  2063  17D6  1683               	bsf	3,5	;RP0=1, select bank1
  2064  17D7  1303               	bcf	3,6	;RP1=0, select bank1
  2065  17D8  0085               	movwf	5	;volatile
  2066                           
  2067                           ;main.c: 487:     ADCON0 = 0x81;
  2068  17D9  3081               	movlw	129
  2069  17DA  1283               	bcf	3,5	;RP0=0, select bank0
  2070  17DB  1303               	bcf	3,6	;RP1=0, select bank0
  2071  17DC  009F               	movwf	31	;volatile
  2072                           
  2073                           ;main.c: 491:     ADCON1 = 0x80;
  2074  17DD  3080               	movlw	128
  2075  17DE  1683               	bsf	3,5	;RP0=1, select bank1
  2076  17DF  1303               	bcf	3,6	;RP1=0, select bank1
  2077  17E0  009F               	movwf	31	;volatile
  2078  17E1                     l297:
  2079  17E1  0008               	return
  2080  17E2                     __end_of_inicioADC:
  2081                           
  2082                           	psect	text5
  2083  0A79                     __ptext5:	
  2084 ;; *************** function _alteraSenhaUser *****************
  2085 ;; Defined at:
  2086 ;;		line 104 in file "main.c"
  2087 ;; Parameters:    Size  Location     Type
  2088 ;;  opConfig        2   30[BANK0 ] unsigned int 
  2089 ;; Auto vars:     Size  Location     Type
  2090 ;;  i               2   35[BANK0 ] int 
  2091 ;; Return value:  Size  Location     Type
  2092 ;;                  1    wreg      void 
  2093 ;; Registers used:
  2094 ;;		wreg, fsr0l, fsr0h, status,2, status,0, btemp+1, pclath, cstack
  2095 ;; Tracked objects:
  2096 ;;		On entry : 0/0
  2097 ;;		On exit  : 0/0
  2098 ;;		Unchanged: 0/0
  2099 ;; Data sizes:     COMMON   BANK0   BANK1   BANK3   BANK2
  2100 ;;      Params:         0       2       0       0       0
  2101 ;;      Locals:         0       2       0       0       0
  2102 ;;      Temps:          0       3       0       0       0
  2103 ;;      Totals:         0       7       0       0       0
  2104 ;;Total ram usage:        7 bytes
  2105 ;; Hardware stack levels used: 1
  2106 ;; Hardware stack levels required when called: 4
  2107 ;; This function calls:
  2108 ;;		_LCD_init
  2109 ;;		_LCD_limpa
  2110 ;;		_Linha2
  2111 ;;		_escreveMesagem
  2112 ;;		_teclado
  2113 ;; This function is called by:
  2114 ;;		_main
  2115 ;; This function uses a non-reentrant model
  2116 ;;
  2117                           
  2118                           
  2119                           ;psect for function _alteraSenhaUser
  2120  0A79                     _alteraSenhaUser:
  2121  0A79                     l3079:	
  2122                           ;incstack = 0
  2123                           ; Regs used in _alteraSenhaUser: [wreg-fsr0h+status,2+status,0+btemp+1+pclath+cstack]
  2124                           
  2125                           
  2126                           ;main.c: 105:     LCD_init();
  2127  0A79  120A  158A  2132  120A  158A  	fcall	_LCD_init
  2128                           
  2129                           ;main.c: 106:     LCD_limpa();
  2130  0A7E  160A  118A  27F0  120A  158A  	fcall	_LCD_limpa
  2131  0A83                     l3081:
  2132                           
  2133                           ;main.c: 107:     escreveMesagem(msgDigiteNovaSenha);
  2134  0A83  3090               	movlw	(low (_msgDigiteNovaSenha| (0+256)))& (0+255)
  2135  0A84  00F3               	movwf	escreveMesagem@texto
  2136  0A85  3001               	movlw	1
  2137  0A86  00F4               	movwf	escreveMesagem@texto+1
  2138  0A87  120A  158A  2165  120A  158A  	fcall	_escreveMesagem
  2139  0A8C                     l3083:
  2140                           
  2141                           ;main.c: 108:     Linha2();
  2142  0A8C  120A  158A  219C  120A  158A  	fcall	_Linha2
  2143  0A91                     l3085:
  2144                           
  2145                           ;main.c: 109:     _delay((unsigned long)((3000)*(20000000/4000.0)));
  2146  0A91  304D               	movlw	77
  2147  0A92  1283               	bcf	3,5	;RP0=0, select bank0
  2148  0A93  1303               	bcf	3,6	;RP1=0, select bank0
  2149  0A94  00C2               	movwf	??_alteraSenhaUser+2
  2150  0A95  3019               	movlw	25
  2151  0A96  00C1               	movwf	??_alteraSenhaUser+1
  2152  0A97  304F               	movlw	79
  2153  0A98  00C0               	movwf	??_alteraSenhaUser
  2154  0A99                     u3517:
  2155  0A99  0BC0               	decfsz	??_alteraSenhaUser,f
  2156  0A9A  2A99               	goto	u3517
  2157  0A9B  0BC1               	decfsz	??_alteraSenhaUser+1,f
  2158  0A9C  2A99               	goto	u3517
  2159  0A9D  0BC2               	decfsz	??_alteraSenhaUser+2,f
  2160  0A9E  2A99               	goto	u3517
  2161  0A9F                     l3087:
  2162                           
  2163                           ;main.c: 110:     if (opConfig == 1){
  2164  0A9F  1283               	bcf	3,5	;RP0=0, select bank0
  2165  0AA0  1303               	bcf	3,6	;RP1=0, select bank0
  2166  0AA1  033E               	decf	alteraSenhaUser@opConfig,w
  2167  0AA2  043F               	iorwf	alteraSenhaUser@opConfig+1,w
  2168  0AA3  1D03               	btfss	3,2
  2169  0AA4  2AA6               	goto	u3321
  2170  0AA5  2AA7               	goto	u3320
  2171  0AA6                     u3321:
  2172  0AA6  2AD3               	goto	l189
  2173  0AA7                     u3320:
  2174  0AA7                     l3089:
  2175                           
  2176                           ;main.c: 111:         for (int i = 0; i <= 4; i++){
  2177  0AA7  01C3               	clrf	alteraSenhaUser@i
  2178  0AA8  01C4               	clrf	alteraSenhaUser@i+1
  2179  0AA9  2AAF               	goto	l3097
  2180  0AAA                     l3095:
  2181  0AAA  120A  118A  215E  120A  158A  	fcall	_teclado
  2182  0AAF                     l3097:
  2183  0AAF  300A               	movlw	10
  2184  0AB0  1283               	bcf	3,5	;RP0=0, select bank0
  2185  0AB1  1303               	bcf	3,6	;RP1=0, select bank0
  2186  0AB2  0653               	xorwf	_input,w
  2187  0AB3  0454               	iorwf	_input+1,w
  2188  0AB4  1903               	btfsc	3,2
  2189  0AB5  2AB7               	goto	u3331
  2190  0AB6  2AB8               	goto	u3330
  2191  0AB7                     u3331:
  2192  0AB7  2AAA               	goto	l3095
  2193  0AB8                     u3330:
  2194  0AB8                     l3099:
  2195                           
  2196                           ;main.c: 113:             senhaUser[i] = aux;
  2197  0AB8  0868               	movf	_aux,w
  2198  0AB9  00C0               	movwf	??_alteraSenhaUser
  2199  0ABA  0843               	movf	alteraSenhaUser@i,w
  2200  0ABB  3E61               	addlw	(low (_senhaUser| 0))& (0+255)
  2201  0ABC  0084               	movwf	4
  2202  0ABD  0840               	movf	??_alteraSenhaUser,w
  2203  0ABE  1383               	bcf	3,7	;select IRP bank0
  2204  0ABF  0080               	movwf	0
  2205  0AC0                     l3101:
  2206                           
  2207                           ;main.c: 114:         }
  2208  0AC0  3001               	movlw	1
  2209  0AC1  07C3               	addwf	alteraSenhaUser@i,f
  2210  0AC2  1803               	skipnc
  2211  0AC3  0AC4               	incf	alteraSenhaUser@i+1,f
  2212  0AC4  3000               	movlw	0
  2213  0AC5  07C4               	addwf	alteraSenhaUser@i+1,f
  2214  0AC6                     l3103:
  2215  0AC6  0844               	movf	alteraSenhaUser@i+1,w
  2216  0AC7  3A80               	xorlw	128
  2217  0AC8  00FF               	movwf	btemp+1
  2218  0AC9  3080               	movlw	128
  2219  0ACA  027F               	subwf	btemp+1,w
  2220  0ACB  1D03               	skipz
  2221  0ACC  2ACF               	goto	u3345
  2222  0ACD  3005               	movlw	5
  2223  0ACE  0243               	subwf	alteraSenhaUser@i,w
  2224  0ACF                     u3345:
  2225  0ACF  1C03               	skipc
  2226  0AD0  2AD2               	goto	u3341
  2227  0AD1  2AD3               	goto	u3340
  2228  0AD2                     u3341:
  2229  0AD2  2AAF               	goto	l3097
  2230  0AD3                     u3340:
  2231  0AD3                     l189:
  2232  0AD3  0008               	return
  2233  0AD4                     __end_of_alteraSenhaUser:
  2234                           
  2235                           	psect	text6
  2236  015E                     __ptext6:	
  2237 ;; *************** function _teclado *****************
  2238 ;; Defined at:
  2239 ;;		line 134 in file "main.c"
  2240 ;; Parameters:    Size  Location     Type
  2241 ;;		None
  2242 ;; Auto vars:     Size  Location     Type
  2243 ;;		None
  2244 ;; Return value:  Size  Location     Type
  2245 ;;                  1    wreg      void 
  2246 ;; Registers used:
  2247 ;;		wreg, status,2, status,0, btemp+1, pclath, cstack
  2248 ;; Tracked objects:
  2249 ;;		On entry : 0/0
  2250 ;;		On exit  : 0/0
  2251 ;;		Unchanged: 0/0
  2252 ;; Data sizes:     COMMON   BANK0   BANK1   BANK3   BANK2
  2253 ;;      Params:         0       0       0       0       0
  2254 ;;      Locals:         0       0       0       0       0
  2255 ;;      Temps:          0       3       0       0       0
  2256 ;;      Totals:         0       3       0       0       0
  2257 ;;Total ram usage:        3 bytes
  2258 ;; Hardware stack levels used: 1
  2259 ;; Hardware stack levels required when called: 3
  2260 ;; This function calls:
  2261 ;;		_LCD_escreve
  2262 ;;		_liga_buzzer
  2263 ;; This function is called by:
  2264 ;;		_alteraSenhaUser
  2265 ;;		_validaUser
  2266 ;; This function uses a non-reentrant model
  2267 ;;
  2268                           
  2269                           
  2270                           ;psect for function _teclado
  2271  015E                     _teclado:
  2272  015E                     l2467:	
  2273                           ;incstack = 0
  2274                           ; Regs used in _teclado: [wreg+status,2+status,0+btemp+1+pclath+cstack]
  2275                           
  2276                           
  2277                           ;main.c: 135:     PORTE = 0x01;
  2278  015E  3001               	movlw	1
  2279  015F  1283               	bcf	3,5	;RP0=0, select bank0
  2280  0160  1303               	bcf	3,6	;RP1=0, select bank0
  2281  0161  0089               	movwf	9	;volatile
  2282                           
  2283                           ;main.c: 139:     PORTB = 0b11101111;
  2284  0162  30EF               	movlw	239
  2285  0163  0086               	movwf	6	;volatile
  2286  0164                     l2469:
  2287                           
  2288                           ;main.c: 143:     if (RB0 == 0){
  2289  0164  1806               	btfsc	6,0	;volatile
  2290  0165  2967               	goto	u2581
  2291  0166  2968               	goto	u2580
  2292  0167                     u2581:
  2293  0167  2995               	goto	l2483
  2294  0168                     u2580:
  2295  0168                     l2471:
  2296                           
  2297                           ;main.c: 144:         _delay((unsigned long)((200)*(20000000/4000.0)));
  2298  0168  3006               	movlw	6
  2299  0169  1283               	bcf	3,5	;RP0=0, select bank0
  2300  016A  1303               	bcf	3,6	;RP1=0, select bank0
  2301  016B  00BD               	movwf	??_teclado+2
  2302  016C  3013               	movlw	19
  2303  016D  00BC               	movwf	??_teclado+1
  2304  016E  30AD               	movlw	173
  2305  016F  00BB               	movwf	??_teclado
  2306  0170                     u3527:
  2307  0170  0BBB               	decfsz	??_teclado,f
  2308  0171  2970               	goto	u3527
  2309  0172  0BBC               	decfsz	??_teclado+1,f
  2310  0173  2970               	goto	u3527
  2311  0174  0BBD               	decfsz	??_teclado+2,f
  2312  0175  2970               	goto	u3527
  2313  0176                     l2473:
  2314                           
  2315                           ;main.c: 145:         liga_buzzer(0.1);
  2316  0176  303D               	movlw	61
  2317  0177  1283               	bcf	3,5	;RP0=0, select bank0
  2318  0178  1303               	bcf	3,6	;RP1=0, select bank0
  2319  0179  00B8               	movwf	liga_buzzer@tempoSegundos+3
  2320  017A  30CC               	movlw	204
  2321  017B  00B7               	movwf	liga_buzzer@tempoSegundos+2
  2322  017C  30CC               	movlw	204
  2323  017D  00B6               	movwf	liga_buzzer@tempoSegundos+1
  2324  017E  30CD               	movlw	205
  2325  017F  00B5               	movwf	liga_buzzer@tempoSegundos
  2326  0180  120A  118A  2040  120A  118A  	fcall	_liga_buzzer
  2327  0185                     l2475:
  2328                           
  2329                           ;main.c: 146:         LCD_escreve('0');
  2330  0185  3030               	movlw	48
  2331  0186  120A  158A  2026  120A  118A  	fcall	_LCD_escreve
  2332  018B                     l2477:
  2333                           
  2334                           ;main.c: 147:         if(userFalse){
  2335  018B  1283               	bcf	3,5	;RP0=0, select bank0
  2336  018C  1303               	bcf	3,6	;RP1=0, select bank0
  2337  018D  084F               	movf	_userFalse,w
  2338  018E  0450               	iorwf	_userFalse+1,w
  2339  018F  1903               	btfsc	3,2
  2340  0190  2992               	goto	u2591
  2341  0191  2993               	goto	u2590
  2342  0192                     u2591:
  2343  0192  2995               	goto	l2483
  2344  0193                     u2590:
  2345  0193                     l2479:
  2346                           
  2347                           ;main.c: 148:             input = 0;
  2348  0193  01D3               	clrf	_input
  2349  0194  01D4               	clrf	_input+1
  2350  0195                     l2483:
  2351                           
  2352                           ;main.c: 157:     if (RB1 == 0){
  2353  0195  1886               	btfsc	6,1	;volatile
  2354  0196  2998               	goto	u2601
  2355  0197  2999               	goto	u2600
  2356  0198                     u2601:
  2357  0198  29C8               	goto	l2495
  2358  0199                     u2600:
  2359  0199                     l2485:
  2360                           
  2361                           ;main.c: 158:         _delay((unsigned long)((200)*(20000000/4000.0)));
  2362  0199  3006               	movlw	6
  2363  019A  1283               	bcf	3,5	;RP0=0, select bank0
  2364  019B  1303               	bcf	3,6	;RP1=0, select bank0
  2365  019C  00BD               	movwf	??_teclado+2
  2366  019D  3013               	movlw	19
  2367  019E  00BC               	movwf	??_teclado+1
  2368  019F  30AD               	movlw	173
  2369  01A0  00BB               	movwf	??_teclado
  2370  01A1                     u3537:
  2371  01A1  0BBB               	decfsz	??_teclado,f
  2372  01A2  29A1               	goto	u3537
  2373  01A3  0BBC               	decfsz	??_teclado+1,f
  2374  01A4  29A1               	goto	u3537
  2375  01A5  0BBD               	decfsz	??_teclado+2,f
  2376  01A6  29A1               	goto	u3537
  2377  01A7                     l2487:
  2378                           
  2379                           ;main.c: 159:         liga_buzzer(0.1);
  2380  01A7  303D               	movlw	61
  2381  01A8  1283               	bcf	3,5	;RP0=0, select bank0
  2382  01A9  1303               	bcf	3,6	;RP1=0, select bank0
  2383  01AA  00B8               	movwf	liga_buzzer@tempoSegundos+3
  2384  01AB  30CC               	movlw	204
  2385  01AC  00B7               	movwf	liga_buzzer@tempoSegundos+2
  2386  01AD  30CC               	movlw	204
  2387  01AE  00B6               	movwf	liga_buzzer@tempoSegundos+1
  2388  01AF  30CD               	movlw	205
  2389  01B0  00B5               	movwf	liga_buzzer@tempoSegundos
  2390  01B1  120A  118A  2040  120A  118A  	fcall	_liga_buzzer
  2391  01B6                     l2489:
  2392                           
  2393                           ;main.c: 160:         LCD_escreve('1');
  2394  01B6  3031               	movlw	49
  2395  01B7  120A  158A  2026  120A  118A  	fcall	_LCD_escreve
  2396  01BC                     l2491:
  2397                           
  2398                           ;main.c: 161:         if(userFalse){
  2399  01BC  1283               	bcf	3,5	;RP0=0, select bank0
  2400  01BD  1303               	bcf	3,6	;RP1=0, select bank0
  2401  01BE  084F               	movf	_userFalse,w
  2402  01BF  0450               	iorwf	_userFalse+1,w
  2403  01C0  1903               	btfsc	3,2
  2404  01C1  29C3               	goto	u2611
  2405  01C2  29C4               	goto	u2610
  2406  01C3                     u2611:
  2407  01C3  29C8               	goto	l2495
  2408  01C4                     u2610:
  2409  01C4                     l2493:
  2410                           
  2411                           ;main.c: 162:             input = 1;
  2412  01C4  3001               	movlw	1
  2413  01C5  00D3               	movwf	_input
  2414  01C6  3000               	movlw	0
  2415  01C7  00D4               	movwf	_input+1
  2416  01C8                     l2495:
  2417                           
  2418                           ;main.c: 168:     if (RB2 == 0){
  2419  01C8  1906               	btfsc	6,2	;volatile
  2420  01C9  29CB               	goto	u2621
  2421  01CA  29CC               	goto	u2620
  2422  01CB                     u2621:
  2423  01CB  29FB               	goto	l2507
  2424  01CC                     u2620:
  2425  01CC                     l2497:
  2426                           
  2427                           ;main.c: 169:         _delay((unsigned long)((200)*(20000000/4000.0)));
  2428  01CC  3006               	movlw	6
  2429  01CD  1283               	bcf	3,5	;RP0=0, select bank0
  2430  01CE  1303               	bcf	3,6	;RP1=0, select bank0
  2431  01CF  00BD               	movwf	??_teclado+2
  2432  01D0  3013               	movlw	19
  2433  01D1  00BC               	movwf	??_teclado+1
  2434  01D2  30AD               	movlw	173
  2435  01D3  00BB               	movwf	??_teclado
  2436  01D4                     u3547:
  2437  01D4  0BBB               	decfsz	??_teclado,f
  2438  01D5  29D4               	goto	u3547
  2439  01D6  0BBC               	decfsz	??_teclado+1,f
  2440  01D7  29D4               	goto	u3547
  2441  01D8  0BBD               	decfsz	??_teclado+2,f
  2442  01D9  29D4               	goto	u3547
  2443  01DA                     l2499:
  2444                           
  2445                           ;main.c: 170:         liga_buzzer(0.1);
  2446  01DA  303D               	movlw	61
  2447  01DB  1283               	bcf	3,5	;RP0=0, select bank0
  2448  01DC  1303               	bcf	3,6	;RP1=0, select bank0
  2449  01DD  00B8               	movwf	liga_buzzer@tempoSegundos+3
  2450  01DE  30CC               	movlw	204
  2451  01DF  00B7               	movwf	liga_buzzer@tempoSegundos+2
  2452  01E0  30CC               	movlw	204
  2453  01E1  00B6               	movwf	liga_buzzer@tempoSegundos+1
  2454  01E2  30CD               	movlw	205
  2455  01E3  00B5               	movwf	liga_buzzer@tempoSegundos
  2456  01E4  120A  118A  2040  120A  118A  	fcall	_liga_buzzer
  2457  01E9                     l2501:
  2458                           
  2459                           ;main.c: 171:         LCD_escreve('2');
  2460  01E9  3032               	movlw	50
  2461  01EA  120A  158A  2026  120A  118A  	fcall	_LCD_escreve
  2462  01EF                     l2503:
  2463                           
  2464                           ;main.c: 172:         if(userFalse){
  2465  01EF  1283               	bcf	3,5	;RP0=0, select bank0
  2466  01F0  1303               	bcf	3,6	;RP1=0, select bank0
  2467  01F1  084F               	movf	_userFalse,w
  2468  01F2  0450               	iorwf	_userFalse+1,w
  2469  01F3  1903               	btfsc	3,2
  2470  01F4  29F6               	goto	u2631
  2471  01F5  29F7               	goto	u2630
  2472  01F6                     u2631:
  2473  01F6  29FB               	goto	l2507
  2474  01F7                     u2630:
  2475  01F7                     l2505:
  2476                           
  2477                           ;main.c: 173:             input = 2;
  2478  01F7  3002               	movlw	2
  2479  01F8  00D3               	movwf	_input
  2480  01F9  3000               	movlw	0
  2481  01FA  00D4               	movwf	_input+1
  2482  01FB                     l2507:
  2483                           
  2484                           ;main.c: 179:     if (RB3 == 0){
  2485  01FB  1986               	btfsc	6,3	;volatile
  2486  01FC  29FE               	goto	u2641
  2487  01FD  29FF               	goto	u2640
  2488  01FE                     u2641:
  2489  01FE  2A2E               	goto	l205
  2490  01FF                     u2640:
  2491  01FF                     l2509:
  2492                           
  2493                           ;main.c: 180:         _delay((unsigned long)((200)*(20000000/4000.0)));
  2494  01FF  3006               	movlw	6
  2495  0200  1283               	bcf	3,5	;RP0=0, select bank0
  2496  0201  1303               	bcf	3,6	;RP1=0, select bank0
  2497  0202  00BD               	movwf	??_teclado+2
  2498  0203  3013               	movlw	19
  2499  0204  00BC               	movwf	??_teclado+1
  2500  0205  30AD               	movlw	173
  2501  0206  00BB               	movwf	??_teclado
  2502  0207                     u3557:
  2503  0207  0BBB               	decfsz	??_teclado,f
  2504  0208  2A07               	goto	u3557
  2505  0209  0BBC               	decfsz	??_teclado+1,f
  2506  020A  2A07               	goto	u3557
  2507  020B  0BBD               	decfsz	??_teclado+2,f
  2508  020C  2A07               	goto	u3557
  2509  020D                     l2511:
  2510                           
  2511                           ;main.c: 181:         liga_buzzer(0.1);
  2512  020D  303D               	movlw	61
  2513  020E  1283               	bcf	3,5	;RP0=0, select bank0
  2514  020F  1303               	bcf	3,6	;RP1=0, select bank0
  2515  0210  00B8               	movwf	liga_buzzer@tempoSegundos+3
  2516  0211  30CC               	movlw	204
  2517  0212  00B7               	movwf	liga_buzzer@tempoSegundos+2
  2518  0213  30CC               	movlw	204
  2519  0214  00B6               	movwf	liga_buzzer@tempoSegundos+1
  2520  0215  30CD               	movlw	205
  2521  0216  00B5               	movwf	liga_buzzer@tempoSegundos
  2522  0217  120A  118A  2040  120A  118A  	fcall	_liga_buzzer
  2523  021C                     l2513:
  2524                           
  2525                           ;main.c: 182:         LCD_escreve('3');
  2526  021C  3033               	movlw	51
  2527  021D  120A  158A  2026  120A  118A  	fcall	_LCD_escreve
  2528  0222                     l2515:
  2529                           
  2530                           ;main.c: 183:         if(userFalse){
  2531  0222  1283               	bcf	3,5	;RP0=0, select bank0
  2532  0223  1303               	bcf	3,6	;RP1=0, select bank0
  2533  0224  084F               	movf	_userFalse,w
  2534  0225  0450               	iorwf	_userFalse+1,w
  2535  0226  1903               	btfsc	3,2
  2536  0227  2A29               	goto	u2651
  2537  0228  2A2A               	goto	u2650
  2538  0229                     u2651:
  2539  0229  2A2E               	goto	l205
  2540  022A                     u2650:
  2541  022A                     l2517:
  2542                           
  2543                           ;main.c: 184:             input = 3;
  2544  022A  3003               	movlw	3
  2545  022B  00D3               	movwf	_input
  2546  022C  3000               	movlw	0
  2547  022D  00D4               	movwf	_input+1
  2548  022E                     l205:	
  2549                           ;main.c: 186:     }
  2550                           
  2551                           
  2552                           ;main.c: 190:     PORTB = 0b11011111;
  2553  022E  30DF               	movlw	223
  2554  022F  0086               	movwf	6	;volatile
  2555  0230                     l2519:
  2556                           
  2557                           ;main.c: 194:     if (RB0 == 0){
  2558  0230  1806               	btfsc	6,0	;volatile
  2559  0231  2A33               	goto	u2661
  2560  0232  2A34               	goto	u2660
  2561  0233                     u2661:
  2562  0233  2A63               	goto	l2531
  2563  0234                     u2660:
  2564  0234                     l2521:
  2565                           
  2566                           ;main.c: 195:         _delay((unsigned long)((200)*(20000000/4000.0)));
  2567  0234  3006               	movlw	6
  2568  0235  1283               	bcf	3,5	;RP0=0, select bank0
  2569  0236  1303               	bcf	3,6	;RP1=0, select bank0
  2570  0237  00BD               	movwf	??_teclado+2
  2571  0238  3013               	movlw	19
  2572  0239  00BC               	movwf	??_teclado+1
  2573  023A  30AD               	movlw	173
  2574  023B  00BB               	movwf	??_teclado
  2575  023C                     u3567:
  2576  023C  0BBB               	decfsz	??_teclado,f
  2577  023D  2A3C               	goto	u3567
  2578  023E  0BBC               	decfsz	??_teclado+1,f
  2579  023F  2A3C               	goto	u3567
  2580  0240  0BBD               	decfsz	??_teclado+2,f
  2581  0241  2A3C               	goto	u3567
  2582  0242                     l2523:
  2583                           
  2584                           ;main.c: 196:         liga_buzzer(0.1);
  2585  0242  303D               	movlw	61
  2586  0243  1283               	bcf	3,5	;RP0=0, select bank0
  2587  0244  1303               	bcf	3,6	;RP1=0, select bank0
  2588  0245  00B8               	movwf	liga_buzzer@tempoSegundos+3
  2589  0246  30CC               	movlw	204
  2590  0247  00B7               	movwf	liga_buzzer@tempoSegundos+2
  2591  0248  30CC               	movlw	204
  2592  0249  00B6               	movwf	liga_buzzer@tempoSegundos+1
  2593  024A  30CD               	movlw	205
  2594  024B  00B5               	movwf	liga_buzzer@tempoSegundos
  2595  024C  120A  118A  2040  120A  118A  	fcall	_liga_buzzer
  2596  0251                     l2525:
  2597                           
  2598                           ;main.c: 197:         LCD_escreve('4');
  2599  0251  3034               	movlw	52
  2600  0252  120A  158A  2026  120A  118A  	fcall	_LCD_escreve
  2601  0257                     l2527:
  2602                           
  2603                           ;main.c: 198:         if(userFalse){
  2604  0257  1283               	bcf	3,5	;RP0=0, select bank0
  2605  0258  1303               	bcf	3,6	;RP1=0, select bank0
  2606  0259  084F               	movf	_userFalse,w
  2607  025A  0450               	iorwf	_userFalse+1,w
  2608  025B  1903               	btfsc	3,2
  2609  025C  2A5E               	goto	u2671
  2610  025D  2A5F               	goto	u2670
  2611  025E                     u2671:
  2612  025E  2A63               	goto	l2531
  2613  025F                     u2670:
  2614  025F                     l2529:
  2615                           
  2616                           ;main.c: 199:             input = 4;
  2617  025F  3004               	movlw	4
  2618  0260  00D3               	movwf	_input
  2619  0261  3000               	movlw	0
  2620  0262  00D4               	movwf	_input+1
  2621  0263                     l2531:
  2622                           
  2623                           ;main.c: 205:     if (RB1 == 0){
  2624  0263  1886               	btfsc	6,1	;volatile
  2625  0264  2A66               	goto	u2681
  2626  0265  2A67               	goto	u2680
  2627  0266                     u2681:
  2628  0266  2A96               	goto	l2543
  2629  0267                     u2680:
  2630  0267                     l2533:
  2631                           
  2632                           ;main.c: 206:         _delay((unsigned long)((200)*(20000000/4000.0)));
  2633  0267  3006               	movlw	6
  2634  0268  1283               	bcf	3,5	;RP0=0, select bank0
  2635  0269  1303               	bcf	3,6	;RP1=0, select bank0
  2636  026A  00BD               	movwf	??_teclado+2
  2637  026B  3013               	movlw	19
  2638  026C  00BC               	movwf	??_teclado+1
  2639  026D  30AD               	movlw	173
  2640  026E  00BB               	movwf	??_teclado
  2641  026F                     u3577:
  2642  026F  0BBB               	decfsz	??_teclado,f
  2643  0270  2A6F               	goto	u3577
  2644  0271  0BBC               	decfsz	??_teclado+1,f
  2645  0272  2A6F               	goto	u3577
  2646  0273  0BBD               	decfsz	??_teclado+2,f
  2647  0274  2A6F               	goto	u3577
  2648  0275                     l2535:
  2649                           
  2650                           ;main.c: 207:         liga_buzzer(0.1);
  2651  0275  303D               	movlw	61
  2652  0276  1283               	bcf	3,5	;RP0=0, select bank0
  2653  0277  1303               	bcf	3,6	;RP1=0, select bank0
  2654  0278  00B8               	movwf	liga_buzzer@tempoSegundos+3
  2655  0279  30CC               	movlw	204
  2656  027A  00B7               	movwf	liga_buzzer@tempoSegundos+2
  2657  027B  30CC               	movlw	204
  2658  027C  00B6               	movwf	liga_buzzer@tempoSegundos+1
  2659  027D  30CD               	movlw	205
  2660  027E  00B5               	movwf	liga_buzzer@tempoSegundos
  2661  027F  120A  118A  2040  120A  118A  	fcall	_liga_buzzer
  2662  0284                     l2537:
  2663                           
  2664                           ;main.c: 208:         LCD_escreve('5');
  2665  0284  3035               	movlw	53
  2666  0285  120A  158A  2026  120A  118A  	fcall	_LCD_escreve
  2667  028A                     l2539:
  2668                           
  2669                           ;main.c: 209:         if(userFalse){
  2670  028A  1283               	bcf	3,5	;RP0=0, select bank0
  2671  028B  1303               	bcf	3,6	;RP1=0, select bank0
  2672  028C  084F               	movf	_userFalse,w
  2673  028D  0450               	iorwf	_userFalse+1,w
  2674  028E  1903               	btfsc	3,2
  2675  028F  2A91               	goto	u2691
  2676  0290  2A92               	goto	u2690
  2677  0291                     u2691:
  2678  0291  2A96               	goto	l2543
  2679  0292                     u2690:
  2680  0292                     l2541:
  2681                           
  2682                           ;main.c: 210:             input = 5;
  2683  0292  3005               	movlw	5
  2684  0293  00D3               	movwf	_input
  2685  0294  3000               	movlw	0
  2686  0295  00D4               	movwf	_input+1
  2687  0296                     l2543:
  2688                           
  2689                           ;main.c: 216:     if (RB2 == 0){
  2690  0296  1906               	btfsc	6,2	;volatile
  2691  0297  2A99               	goto	u2701
  2692  0298  2A9A               	goto	u2700
  2693  0299                     u2701:
  2694  0299  2AC9               	goto	l2555
  2695  029A                     u2700:
  2696  029A                     l2545:
  2697                           
  2698                           ;main.c: 217:         _delay((unsigned long)((200)*(20000000/4000.0)));
  2699  029A  3006               	movlw	6
  2700  029B  1283               	bcf	3,5	;RP0=0, select bank0
  2701  029C  1303               	bcf	3,6	;RP1=0, select bank0
  2702  029D  00BD               	movwf	??_teclado+2
  2703  029E  3013               	movlw	19
  2704  029F  00BC               	movwf	??_teclado+1
  2705  02A0  30AD               	movlw	173
  2706  02A1  00BB               	movwf	??_teclado
  2707  02A2                     u3587:
  2708  02A2  0BBB               	decfsz	??_teclado,f
  2709  02A3  2AA2               	goto	u3587
  2710  02A4  0BBC               	decfsz	??_teclado+1,f
  2711  02A5  2AA2               	goto	u3587
  2712  02A6  0BBD               	decfsz	??_teclado+2,f
  2713  02A7  2AA2               	goto	u3587
  2714  02A8                     l2547:
  2715                           
  2716                           ;main.c: 218:         liga_buzzer(0.1);
  2717  02A8  303D               	movlw	61
  2718  02A9  1283               	bcf	3,5	;RP0=0, select bank0
  2719  02AA  1303               	bcf	3,6	;RP1=0, select bank0
  2720  02AB  00B8               	movwf	liga_buzzer@tempoSegundos+3
  2721  02AC  30CC               	movlw	204
  2722  02AD  00B7               	movwf	liga_buzzer@tempoSegundos+2
  2723  02AE  30CC               	movlw	204
  2724  02AF  00B6               	movwf	liga_buzzer@tempoSegundos+1
  2725  02B0  30CD               	movlw	205
  2726  02B1  00B5               	movwf	liga_buzzer@tempoSegundos
  2727  02B2  120A  118A  2040  120A  118A  	fcall	_liga_buzzer
  2728  02B7                     l2549:
  2729                           
  2730                           ;main.c: 219:         LCD_escreve('6');
  2731  02B7  3036               	movlw	54
  2732  02B8  120A  158A  2026  120A  118A  	fcall	_LCD_escreve
  2733  02BD                     l2551:
  2734                           
  2735                           ;main.c: 220:         if(userFalse){
  2736  02BD  1283               	bcf	3,5	;RP0=0, select bank0
  2737  02BE  1303               	bcf	3,6	;RP1=0, select bank0
  2738  02BF  084F               	movf	_userFalse,w
  2739  02C0  0450               	iorwf	_userFalse+1,w
  2740  02C1  1903               	btfsc	3,2
  2741  02C2  2AC4               	goto	u2711
  2742  02C3  2AC5               	goto	u2710
  2743  02C4                     u2711:
  2744  02C4  2AC9               	goto	l2555
  2745  02C5                     u2710:
  2746  02C5                     l2553:
  2747                           
  2748                           ;main.c: 221:             input = 6;
  2749  02C5  3006               	movlw	6
  2750  02C6  00D3               	movwf	_input
  2751  02C7  3000               	movlw	0
  2752  02C8  00D4               	movwf	_input+1
  2753  02C9                     l2555:
  2754                           
  2755                           ;main.c: 227:     if (RB3 == 0){
  2756  02C9  1986               	btfsc	6,3	;volatile
  2757  02CA  2ACC               	goto	u2721
  2758  02CB  2ACD               	goto	u2720
  2759  02CC                     u2721:
  2760  02CC  2AFC               	goto	l213
  2761  02CD                     u2720:
  2762  02CD                     l2557:
  2763                           
  2764                           ;main.c: 228:         _delay((unsigned long)((200)*(20000000/4000.0)));
  2765  02CD  3006               	movlw	6
  2766  02CE  1283               	bcf	3,5	;RP0=0, select bank0
  2767  02CF  1303               	bcf	3,6	;RP1=0, select bank0
  2768  02D0  00BD               	movwf	??_teclado+2
  2769  02D1  3013               	movlw	19
  2770  02D2  00BC               	movwf	??_teclado+1
  2771  02D3  30AD               	movlw	173
  2772  02D4  00BB               	movwf	??_teclado
  2773  02D5                     u3597:
  2774  02D5  0BBB               	decfsz	??_teclado,f
  2775  02D6  2AD5               	goto	u3597
  2776  02D7  0BBC               	decfsz	??_teclado+1,f
  2777  02D8  2AD5               	goto	u3597
  2778  02D9  0BBD               	decfsz	??_teclado+2,f
  2779  02DA  2AD5               	goto	u3597
  2780  02DB                     l2559:
  2781                           
  2782                           ;main.c: 229:         liga_buzzer(0.1);
  2783  02DB  303D               	movlw	61
  2784  02DC  1283               	bcf	3,5	;RP0=0, select bank0
  2785  02DD  1303               	bcf	3,6	;RP1=0, select bank0
  2786  02DE  00B8               	movwf	liga_buzzer@tempoSegundos+3
  2787  02DF  30CC               	movlw	204
  2788  02E0  00B7               	movwf	liga_buzzer@tempoSegundos+2
  2789  02E1  30CC               	movlw	204
  2790  02E2  00B6               	movwf	liga_buzzer@tempoSegundos+1
  2791  02E3  30CD               	movlw	205
  2792  02E4  00B5               	movwf	liga_buzzer@tempoSegundos
  2793  02E5  120A  118A  2040  120A  118A  	fcall	_liga_buzzer
  2794  02EA                     l2561:
  2795                           
  2796                           ;main.c: 230:         LCD_escreve('7');
  2797  02EA  3037               	movlw	55
  2798  02EB  120A  158A  2026  120A  118A  	fcall	_LCD_escreve
  2799  02F0                     l2563:
  2800                           
  2801                           ;main.c: 231:         if(userFalse){
  2802  02F0  1283               	bcf	3,5	;RP0=0, select bank0
  2803  02F1  1303               	bcf	3,6	;RP1=0, select bank0
  2804  02F2  084F               	movf	_userFalse,w
  2805  02F3  0450               	iorwf	_userFalse+1,w
  2806  02F4  1903               	btfsc	3,2
  2807  02F5  2AF7               	goto	u2731
  2808  02F6  2AF8               	goto	u2730
  2809  02F7                     u2731:
  2810  02F7  2AFC               	goto	l213
  2811  02F8                     u2730:
  2812  02F8                     l2565:
  2813                           
  2814                           ;main.c: 232:             input = 7;
  2815  02F8  3007               	movlw	7
  2816  02F9  00D3               	movwf	_input
  2817  02FA  3000               	movlw	0
  2818  02FB  00D4               	movwf	_input+1
  2819  02FC                     l213:	
  2820                           ;main.c: 234:     }
  2821                           
  2822                           
  2823                           ;main.c: 238:     PORTB = 0b10111111;
  2824  02FC  30BF               	movlw	191
  2825  02FD  0086               	movwf	6	;volatile
  2826  02FE                     l2567:
  2827                           
  2828                           ;main.c: 242:     if (RB0 == 0){
  2829  02FE  1806               	btfsc	6,0	;volatile
  2830  02FF  2B01               	goto	u2741
  2831  0300  2B02               	goto	u2740
  2832  0301                     u2741:
  2833  0301  2B31               	goto	l2579
  2834  0302                     u2740:
  2835  0302                     l2569:
  2836                           
  2837                           ;main.c: 243:         _delay((unsigned long)((200)*(20000000/4000.0)));
  2838  0302  3006               	movlw	6
  2839  0303  1283               	bcf	3,5	;RP0=0, select bank0
  2840  0304  1303               	bcf	3,6	;RP1=0, select bank0
  2841  0305  00BD               	movwf	??_teclado+2
  2842  0306  3013               	movlw	19
  2843  0307  00BC               	movwf	??_teclado+1
  2844  0308  30AD               	movlw	173
  2845  0309  00BB               	movwf	??_teclado
  2846  030A                     u3607:
  2847  030A  0BBB               	decfsz	??_teclado,f
  2848  030B  2B0A               	goto	u3607
  2849  030C  0BBC               	decfsz	??_teclado+1,f
  2850  030D  2B0A               	goto	u3607
  2851  030E  0BBD               	decfsz	??_teclado+2,f
  2852  030F  2B0A               	goto	u3607
  2853  0310                     l2571:
  2854                           
  2855                           ;main.c: 244:         liga_buzzer(0.1);
  2856  0310  303D               	movlw	61
  2857  0311  1283               	bcf	3,5	;RP0=0, select bank0
  2858  0312  1303               	bcf	3,6	;RP1=0, select bank0
  2859  0313  00B8               	movwf	liga_buzzer@tempoSegundos+3
  2860  0314  30CC               	movlw	204
  2861  0315  00B7               	movwf	liga_buzzer@tempoSegundos+2
  2862  0316  30CC               	movlw	204
  2863  0317  00B6               	movwf	liga_buzzer@tempoSegundos+1
  2864  0318  30CD               	movlw	205
  2865  0319  00B5               	movwf	liga_buzzer@tempoSegundos
  2866  031A  120A  118A  2040  120A  118A  	fcall	_liga_buzzer
  2867  031F                     l2573:
  2868                           
  2869                           ;main.c: 245:         LCD_escreve('8');
  2870  031F  3038               	movlw	56
  2871  0320  120A  158A  2026  120A  118A  	fcall	_LCD_escreve
  2872  0325                     l2575:
  2873                           
  2874                           ;main.c: 246:         if(userFalse){
  2875  0325  1283               	bcf	3,5	;RP0=0, select bank0
  2876  0326  1303               	bcf	3,6	;RP1=0, select bank0
  2877  0327  084F               	movf	_userFalse,w
  2878  0328  0450               	iorwf	_userFalse+1,w
  2879  0329  1903               	btfsc	3,2
  2880  032A  2B2C               	goto	u2751
  2881  032B  2B2D               	goto	u2750
  2882  032C                     u2751:
  2883  032C  2B31               	goto	l2579
  2884  032D                     u2750:
  2885  032D                     l2577:
  2886                           
  2887                           ;main.c: 247:             input = 8;
  2888  032D  3008               	movlw	8
  2889  032E  00D3               	movwf	_input
  2890  032F  3000               	movlw	0
  2891  0330  00D4               	movwf	_input+1
  2892  0331                     l2579:
  2893                           
  2894                           ;main.c: 253:     if (RB1 == 0){
  2895  0331  1886               	btfsc	6,1	;volatile
  2896  0332  2B34               	goto	u2761
  2897  0333  2B35               	goto	u2760
  2898  0334                     u2761:
  2899  0334  2B64               	goto	l2591
  2900  0335                     u2760:
  2901  0335                     l2581:
  2902                           
  2903                           ;main.c: 254:         _delay((unsigned long)((200)*(20000000/4000.0)));
  2904  0335  3006               	movlw	6
  2905  0336  1283               	bcf	3,5	;RP0=0, select bank0
  2906  0337  1303               	bcf	3,6	;RP1=0, select bank0
  2907  0338  00BD               	movwf	??_teclado+2
  2908  0339  3013               	movlw	19
  2909  033A  00BC               	movwf	??_teclado+1
  2910  033B  30AD               	movlw	173
  2911  033C  00BB               	movwf	??_teclado
  2912  033D                     u3617:
  2913  033D  0BBB               	decfsz	??_teclado,f
  2914  033E  2B3D               	goto	u3617
  2915  033F  0BBC               	decfsz	??_teclado+1,f
  2916  0340  2B3D               	goto	u3617
  2917  0341  0BBD               	decfsz	??_teclado+2,f
  2918  0342  2B3D               	goto	u3617
  2919  0343                     l2583:
  2920                           
  2921                           ;main.c: 255:         liga_buzzer(0.1);
  2922  0343  303D               	movlw	61
  2923  0344  1283               	bcf	3,5	;RP0=0, select bank0
  2924  0345  1303               	bcf	3,6	;RP1=0, select bank0
  2925  0346  00B8               	movwf	liga_buzzer@tempoSegundos+3
  2926  0347  30CC               	movlw	204
  2927  0348  00B7               	movwf	liga_buzzer@tempoSegundos+2
  2928  0349  30CC               	movlw	204
  2929  034A  00B6               	movwf	liga_buzzer@tempoSegundos+1
  2930  034B  30CD               	movlw	205
  2931  034C  00B5               	movwf	liga_buzzer@tempoSegundos
  2932  034D  120A  118A  2040  120A  118A  	fcall	_liga_buzzer
  2933  0352                     l2585:
  2934                           
  2935                           ;main.c: 256:         LCD_escreve('9');
  2936  0352  3039               	movlw	57
  2937  0353  120A  158A  2026  120A  118A  	fcall	_LCD_escreve
  2938  0358                     l2587:
  2939                           
  2940                           ;main.c: 257:         if(userFalse){
  2941  0358  1283               	bcf	3,5	;RP0=0, select bank0
  2942  0359  1303               	bcf	3,6	;RP1=0, select bank0
  2943  035A  084F               	movf	_userFalse,w
  2944  035B  0450               	iorwf	_userFalse+1,w
  2945  035C  1903               	btfsc	3,2
  2946  035D  2B5F               	goto	u2771
  2947  035E  2B60               	goto	u2770
  2948  035F                     u2771:
  2949  035F  2B64               	goto	l2591
  2950  0360                     u2770:
  2951  0360                     l2589:
  2952                           
  2953                           ;main.c: 258:             input = 9;
  2954  0360  3009               	movlw	9
  2955  0361  00D3               	movwf	_input
  2956  0362  3000               	movlw	0
  2957  0363  00D4               	movwf	_input+1
  2958  0364                     l2591:
  2959                           
  2960                           ;main.c: 264:     if (RB2 == 0){
  2961  0364  1906               	btfsc	6,2	;volatile
  2962  0365  2B67               	goto	u2781
  2963  0366  2B68               	goto	u2780
  2964  0367                     u2781:
  2965  0367  2B8B               	goto	l2599
  2966  0368                     u2780:
  2967  0368                     l2593:
  2968                           
  2969                           ;main.c: 265:         _delay((unsigned long)((200)*(20000000/4000.0)));
  2970  0368  3006               	movlw	6
  2971  0369  1283               	bcf	3,5	;RP0=0, select bank0
  2972  036A  1303               	bcf	3,6	;RP1=0, select bank0
  2973  036B  00BD               	movwf	??_teclado+2
  2974  036C  3013               	movlw	19
  2975  036D  00BC               	movwf	??_teclado+1
  2976  036E  30AD               	movlw	173
  2977  036F  00BB               	movwf	??_teclado
  2978  0370                     u3627:
  2979  0370  0BBB               	decfsz	??_teclado,f
  2980  0371  2B70               	goto	u3627
  2981  0372  0BBC               	decfsz	??_teclado+1,f
  2982  0373  2B70               	goto	u3627
  2983  0374  0BBD               	decfsz	??_teclado+2,f
  2984  0375  2B70               	goto	u3627
  2985  0376                     l2595:
  2986                           
  2987                           ;main.c: 266:         liga_buzzer(0.1);
  2988  0376  303D               	movlw	61
  2989  0377  1283               	bcf	3,5	;RP0=0, select bank0
  2990  0378  1303               	bcf	3,6	;RP1=0, select bank0
  2991  0379  00B8               	movwf	liga_buzzer@tempoSegundos+3
  2992  037A  30CC               	movlw	204
  2993  037B  00B7               	movwf	liga_buzzer@tempoSegundos+2
  2994  037C  30CC               	movlw	204
  2995  037D  00B6               	movwf	liga_buzzer@tempoSegundos+1
  2996  037E  30CD               	movlw	205
  2997  037F  00B5               	movwf	liga_buzzer@tempoSegundos
  2998  0380  120A  118A  2040  120A  118A  	fcall	_liga_buzzer
  2999  0385                     l2597:
  3000                           
  3001                           ;main.c: 267:         LCD_escreve('A');
  3002  0385  3041               	movlw	65
  3003  0386  120A  158A  2026  120A  118A  	fcall	_LCD_escreve
  3004  038B                     l2599:
  3005                           
  3006                           ;main.c: 272:     if (RB3 == 0){
  3007  038B  1283               	bcf	3,5	;RP0=0, select bank0
  3008  038C  1303               	bcf	3,6	;RP1=0, select bank0
  3009  038D  1986               	btfsc	6,3	;volatile
  3010  038E  2B90               	goto	u2791
  3011  038F  2B91               	goto	u2790
  3012  0390                     u2791:
  3013  0390  2BB4               	goto	l220
  3014  0391                     u2790:
  3015  0391                     l2601:
  3016                           
  3017                           ;main.c: 273:         _delay((unsigned long)((200)*(20000000/4000.0)));
  3018  0391  3006               	movlw	6
  3019  0392  1283               	bcf	3,5	;RP0=0, select bank0
  3020  0393  1303               	bcf	3,6	;RP1=0, select bank0
  3021  0394  00BD               	movwf	??_teclado+2
  3022  0395  3013               	movlw	19
  3023  0396  00BC               	movwf	??_teclado+1
  3024  0397  30AD               	movlw	173
  3025  0398  00BB               	movwf	??_teclado
  3026  0399                     u3637:
  3027  0399  0BBB               	decfsz	??_teclado,f
  3028  039A  2B99               	goto	u3637
  3029  039B  0BBC               	decfsz	??_teclado+1,f
  3030  039C  2B99               	goto	u3637
  3031  039D  0BBD               	decfsz	??_teclado+2,f
  3032  039E  2B99               	goto	u3637
  3033  039F                     l2603:
  3034                           
  3035                           ;main.c: 274:         liga_buzzer(0.1);
  3036  039F  303D               	movlw	61
  3037  03A0  1283               	bcf	3,5	;RP0=0, select bank0
  3038  03A1  1303               	bcf	3,6	;RP1=0, select bank0
  3039  03A2  00B8               	movwf	liga_buzzer@tempoSegundos+3
  3040  03A3  30CC               	movlw	204
  3041  03A4  00B7               	movwf	liga_buzzer@tempoSegundos+2
  3042  03A5  30CC               	movlw	204
  3043  03A6  00B6               	movwf	liga_buzzer@tempoSegundos+1
  3044  03A7  30CD               	movlw	205
  3045  03A8  00B5               	movwf	liga_buzzer@tempoSegundos
  3046  03A9  120A  118A  2040  120A  118A  	fcall	_liga_buzzer
  3047  03AE                     l2605:
  3048                           
  3049                           ;main.c: 275:         LCD_escreve('B');
  3050  03AE  3042               	movlw	66
  3051  03AF  120A  158A  2026  120A  118A  	fcall	_LCD_escreve
  3052  03B4                     l220:	
  3053                           ;main.c: 276:     }
  3054                           
  3055                           
  3056                           ;main.c: 280:     PORTB = 0b01111111;
  3057  03B4  307F               	movlw	127
  3058  03B5  1283               	bcf	3,5	;RP0=0, select bank0
  3059  03B6  1303               	bcf	3,6	;RP1=0, select bank0
  3060  03B7  0086               	movwf	6	;volatile
  3061  03B8                     l2607:
  3062                           
  3063                           ;main.c: 284:     if (RB0 == 0){
  3064  03B8  1806               	btfsc	6,0	;volatile
  3065  03B9  2BBB               	goto	u2801
  3066  03BA  2BBC               	goto	u2800
  3067  03BB                     u2801:
  3068  03BB  2BDF               	goto	l2615
  3069  03BC                     u2800:
  3070  03BC                     l2609:
  3071                           
  3072                           ;main.c: 285:         _delay((unsigned long)((200)*(20000000/4000.0)));
  3073  03BC  3006               	movlw	6
  3074  03BD  1283               	bcf	3,5	;RP0=0, select bank0
  3075  03BE  1303               	bcf	3,6	;RP1=0, select bank0
  3076  03BF  00BD               	movwf	??_teclado+2
  3077  03C0  3013               	movlw	19
  3078  03C1  00BC               	movwf	??_teclado+1
  3079  03C2  30AD               	movlw	173
  3080  03C3  00BB               	movwf	??_teclado
  3081  03C4                     u3647:
  3082  03C4  0BBB               	decfsz	??_teclado,f
  3083  03C5  2BC4               	goto	u3647
  3084  03C6  0BBC               	decfsz	??_teclado+1,f
  3085  03C7  2BC4               	goto	u3647
  3086  03C8  0BBD               	decfsz	??_teclado+2,f
  3087  03C9  2BC4               	goto	u3647
  3088  03CA                     l2611:
  3089                           
  3090                           ;main.c: 286:         liga_buzzer(0.1);
  3091  03CA  303D               	movlw	61
  3092  03CB  1283               	bcf	3,5	;RP0=0, select bank0
  3093  03CC  1303               	bcf	3,6	;RP1=0, select bank0
  3094  03CD  00B8               	movwf	liga_buzzer@tempoSegundos+3
  3095  03CE  30CC               	movlw	204
  3096  03CF  00B7               	movwf	liga_buzzer@tempoSegundos+2
  3097  03D0  30CC               	movlw	204
  3098  03D1  00B6               	movwf	liga_buzzer@tempoSegundos+1
  3099  03D2  30CD               	movlw	205
  3100  03D3  00B5               	movwf	liga_buzzer@tempoSegundos
  3101  03D4  120A  118A  2040  120A  118A  	fcall	_liga_buzzer
  3102  03D9                     l2613:
  3103                           
  3104                           ;main.c: 287:         LCD_escreve('C');
  3105  03D9  3043               	movlw	67
  3106  03DA  120A  158A  2026  120A  118A  	fcall	_LCD_escreve
  3107  03DF                     l2615:
  3108                           
  3109                           ;main.c: 292:     if (RB1 == 0){
  3110  03DF  1283               	bcf	3,5	;RP0=0, select bank0
  3111  03E0  1303               	bcf	3,6	;RP1=0, select bank0
  3112  03E1  1886               	btfsc	6,1	;volatile
  3113  03E2  2BE4               	goto	u2811
  3114  03E3  2BE5               	goto	u2810
  3115  03E4                     u2811:
  3116  03E4  2C08               	goto	l2623
  3117  03E5                     u2810:
  3118  03E5                     l2617:
  3119                           
  3120                           ;main.c: 293:         _delay((unsigned long)((200)*(20000000/4000.0)));
  3121  03E5  3006               	movlw	6
  3122  03E6  1283               	bcf	3,5	;RP0=0, select bank0
  3123  03E7  1303               	bcf	3,6	;RP1=0, select bank0
  3124  03E8  00BD               	movwf	??_teclado+2
  3125  03E9  3013               	movlw	19
  3126  03EA  00BC               	movwf	??_teclado+1
  3127  03EB  30AD               	movlw	173
  3128  03EC  00BB               	movwf	??_teclado
  3129  03ED                     u3657:
  3130  03ED  0BBB               	decfsz	??_teclado,f
  3131  03EE  2BED               	goto	u3657
  3132  03EF  0BBC               	decfsz	??_teclado+1,f
  3133  03F0  2BED               	goto	u3657
  3134  03F1  0BBD               	decfsz	??_teclado+2,f
  3135  03F2  2BED               	goto	u3657
  3136  03F3                     l2619:
  3137                           
  3138                           ;main.c: 294:         liga_buzzer(0.1);
  3139  03F3  303D               	movlw	61
  3140  03F4  1283               	bcf	3,5	;RP0=0, select bank0
  3141  03F5  1303               	bcf	3,6	;RP1=0, select bank0
  3142  03F6  00B8               	movwf	liga_buzzer@tempoSegundos+3
  3143  03F7  30CC               	movlw	204
  3144  03F8  00B7               	movwf	liga_buzzer@tempoSegundos+2
  3145  03F9  30CC               	movlw	204
  3146  03FA  00B6               	movwf	liga_buzzer@tempoSegundos+1
  3147  03FB  30CD               	movlw	205
  3148  03FC  00B5               	movwf	liga_buzzer@tempoSegundos
  3149  03FD  120A  118A  2040  120A  118A  	fcall	_liga_buzzer
  3150  0402                     l2621:
  3151                           
  3152                           ;main.c: 295:         LCD_escreve('D');
  3153  0402  3044               	movlw	68
  3154  0403  120A  158A  2026  120A  118A  	fcall	_LCD_escreve
  3155  0408                     l2623:
  3156                           
  3157                           ;main.c: 300:     if (RB2 == 0){
  3158  0408  1283               	bcf	3,5	;RP0=0, select bank0
  3159  0409  1303               	bcf	3,6	;RP1=0, select bank0
  3160  040A  1906               	btfsc	6,2	;volatile
  3161  040B  2C0D               	goto	u2821
  3162  040C  2C0E               	goto	u2820
  3163  040D                     u2821:
  3164  040D  2C31               	goto	l2631
  3165  040E                     u2820:
  3166  040E                     l2625:
  3167                           
  3168                           ;main.c: 301:         _delay((unsigned long)((200)*(20000000/4000.0)));
  3169  040E  3006               	movlw	6
  3170  040F  1283               	bcf	3,5	;RP0=0, select bank0
  3171  0410  1303               	bcf	3,6	;RP1=0, select bank0
  3172  0411  00BD               	movwf	??_teclado+2
  3173  0412  3013               	movlw	19
  3174  0413  00BC               	movwf	??_teclado+1
  3175  0414  30AD               	movlw	173
  3176  0415  00BB               	movwf	??_teclado
  3177  0416                     u3667:
  3178  0416  0BBB               	decfsz	??_teclado,f
  3179  0417  2C16               	goto	u3667
  3180  0418  0BBC               	decfsz	??_teclado+1,f
  3181  0419  2C16               	goto	u3667
  3182  041A  0BBD               	decfsz	??_teclado+2,f
  3183  041B  2C16               	goto	u3667
  3184  041C                     l2627:
  3185                           
  3186                           ;main.c: 302:         liga_buzzer(0.1);
  3187  041C  303D               	movlw	61
  3188  041D  1283               	bcf	3,5	;RP0=0, select bank0
  3189  041E  1303               	bcf	3,6	;RP1=0, select bank0
  3190  041F  00B8               	movwf	liga_buzzer@tempoSegundos+3
  3191  0420  30CC               	movlw	204
  3192  0421  00B7               	movwf	liga_buzzer@tempoSegundos+2
  3193  0422  30CC               	movlw	204
  3194  0423  00B6               	movwf	liga_buzzer@tempoSegundos+1
  3195  0424  30CD               	movlw	205
  3196  0425  00B5               	movwf	liga_buzzer@tempoSegundos
  3197  0426  120A  118A  2040  120A  118A  	fcall	_liga_buzzer
  3198  042B                     l2629:
  3199                           
  3200                           ;main.c: 303:         LCD_escreve('E');
  3201  042B  3045               	movlw	69
  3202  042C  120A  158A  2026  120A  118A  	fcall	_LCD_escreve
  3203  0431                     l2631:
  3204                           
  3205                           ;main.c: 308:     if (RB3 == 0){
  3206  0431  1283               	bcf	3,5	;RP0=0, select bank0
  3207  0432  1303               	bcf	3,6	;RP1=0, select bank0
  3208  0433  1986               	btfsc	6,3	;volatile
  3209  0434  2C36               	goto	u2831
  3210  0435  2C37               	goto	u2830
  3211  0436                     u2831:
  3212  0436  2C5A               	goto	l225
  3213  0437                     u2830:
  3214  0437                     l2633:
  3215                           
  3216                           ;main.c: 309:         _delay((unsigned long)((200)*(20000000/4000.0)));
  3217  0437  3006               	movlw	6
  3218  0438  1283               	bcf	3,5	;RP0=0, select bank0
  3219  0439  1303               	bcf	3,6	;RP1=0, select bank0
  3220  043A  00BD               	movwf	??_teclado+2
  3221  043B  3013               	movlw	19
  3222  043C  00BC               	movwf	??_teclado+1
  3223  043D  30AD               	movlw	173
  3224  043E  00BB               	movwf	??_teclado
  3225  043F                     u3677:
  3226  043F  0BBB               	decfsz	??_teclado,f
  3227  0440  2C3F               	goto	u3677
  3228  0441  0BBC               	decfsz	??_teclado+1,f
  3229  0442  2C3F               	goto	u3677
  3230  0443  0BBD               	decfsz	??_teclado+2,f
  3231  0444  2C3F               	goto	u3677
  3232  0445                     l2635:
  3233                           
  3234                           ;main.c: 310:         liga_buzzer(0.1);
  3235  0445  303D               	movlw	61
  3236  0446  1283               	bcf	3,5	;RP0=0, select bank0
  3237  0447  1303               	bcf	3,6	;RP1=0, select bank0
  3238  0448  00B8               	movwf	liga_buzzer@tempoSegundos+3
  3239  0449  30CC               	movlw	204
  3240  044A  00B7               	movwf	liga_buzzer@tempoSegundos+2
  3241  044B  30CC               	movlw	204
  3242  044C  00B6               	movwf	liga_buzzer@tempoSegundos+1
  3243  044D  30CD               	movlw	205
  3244  044E  00B5               	movwf	liga_buzzer@tempoSegundos
  3245  044F  120A  118A  2040  120A  118A  	fcall	_liga_buzzer
  3246  0454                     l2637:
  3247                           
  3248                           ;main.c: 311:         LCD_escreve('F');
  3249  0454  3046               	movlw	70
  3250  0455  120A  158A  2026  120A  118A  	fcall	_LCD_escreve
  3251  045A                     l225:
  3252  045A  0008               	return
  3253  045B                     __end_of_teclado:
  3254                           
  3255                           	psect	text7
  3256  0040                     __ptext7:	
  3257 ;; *************** function _liga_buzzer *****************
  3258 ;; Defined at:
  3259 ;;		line 124 in file "main.c"
  3260 ;; Parameters:    Size  Location     Type
  3261 ;;  tempoSegundo    4   21[BANK0 ] float 
  3262 ;; Auto vars:     Size  Location     Type
  3263 ;;		None
  3264 ;; Return value:  Size  Location     Type
  3265 ;;                  1    wreg      void 
  3266 ;; Registers used:
  3267 ;;		wreg, status,2, status,0, btemp+1, pclath, cstack
  3268 ;; Tracked objects:
  3269 ;;		On entry : 0/0
  3270 ;;		On exit  : 0/0
  3271 ;;		Unchanged: 0/0
  3272 ;; Data sizes:     COMMON   BANK0   BANK1   BANK3   BANK2
  3273 ;;      Params:         0       4       0       0       0
  3274 ;;      Locals:         0       0       0       0       0
  3275 ;;      Temps:          0       2       0       0       0
  3276 ;;      Totals:         0       6       0       0       0
  3277 ;;Total ram usage:        6 bytes
  3278 ;; Hardware stack levels used: 1
  3279 ;; Hardware stack levels required when called: 2
  3280 ;; This function calls:
  3281 ;;		___flge
  3282 ;;		___flmul
  3283 ;;		___flsub
  3284 ;; This function is called by:
  3285 ;;		_teclado
  3286 ;;		_listaZonas
  3287 ;; This function uses a non-reentrant model
  3288 ;;
  3289                           
  3290                           
  3291                           ;psect for function _liga_buzzer
  3292  0040                     _liga_buzzer:
  3293  0040                     l2363:	
  3294                           ;incstack = 0
  3295                           ; Regs used in _liga_buzzer: [wreg+status,2+status,0+btemp+1+pclath+cstack]
  3296                           
  3297                           
  3298                           ;main.c: 125:     tempoSegundos = tempoSegundos * 1000;
  3299  0040  3044               	movlw	68
  3300  0041  1283               	bcf	3,5	;RP0=0, select bank0
  3301  0042  1303               	bcf	3,6	;RP1=0, select bank0
  3302  0043  00A3               	movwf	___flmul@b+3
  3303  0044  307A               	movlw	122
  3304  0045  00A2               	movwf	___flmul@b+2
  3305  0046  3000               	movlw	0
  3306  0047  00A1               	movwf	___flmul@b+1
  3307  0048  3000               	movlw	0
  3308  0049  00A0               	movwf	___flmul@b
  3309  004A  0838               	movf	liga_buzzer@tempoSegundos+3,w
  3310  004B  00A7               	movwf	___flmul@a+3
  3311  004C  0837               	movf	liga_buzzer@tempoSegundos+2,w
  3312  004D  00A6               	movwf	___flmul@a+2
  3313  004E  0836               	movf	liga_buzzer@tempoSegundos+1,w
  3314  004F  00A5               	movwf	___flmul@a+1
  3315  0050  0835               	movf	liga_buzzer@tempoSegundos,w
  3316  0051  00A4               	movwf	___flmul@a
  3317  0052  120A  118A  245B  120A  118A  	fcall	___flmul
  3318  0057  1283               	bcf	3,5	;RP0=0, select bank0
  3319  0058  1303               	bcf	3,6	;RP1=0, select bank0
  3320  0059  0823               	movf	?___flmul+3,w
  3321  005A  00B8               	movwf	liga_buzzer@tempoSegundos+3
  3322  005B  0822               	movf	?___flmul+2,w
  3323  005C  00B7               	movwf	liga_buzzer@tempoSegundos+2
  3324  005D  0821               	movf	?___flmul+1,w
  3325  005E  00B6               	movwf	liga_buzzer@tempoSegundos+1
  3326  005F  0820               	movf	?___flmul,w
  3327  0060  00B5               	movwf	liga_buzzer@tempoSegundos
  3328  0061                     l2365:
  3329                           
  3330                           ;main.c: 126:     _delay((unsigned long)((10)*(20000000/4000.0)));
  3331  0061  3041               	movlw	65
  3332  0062  1283               	bcf	3,5	;RP0=0, select bank0
  3333  0063  1303               	bcf	3,6	;RP1=0, select bank0
  3334  0064  00BA               	movwf	??_liga_buzzer+1
  3335  0065  30ED               	movlw	237
  3336  0066  00B9               	movwf	??_liga_buzzer
  3337  0067                     u3687:
  3338  0067  0BB9               	decfsz	??_liga_buzzer,f
  3339  0068  2867               	goto	u3687
  3340  0069  0BBA               	decfsz	??_liga_buzzer+1,f
  3341  006A  2867               	goto	u3687
  3342  006B  286C               	nop2
  3343                           
  3344                           ;main.c: 127:     while(tempoSegundos > 0){
  3345  006C  289C               	goto	l2373
  3346  006D                     l2367:
  3347                           
  3348                           ;main.c: 128:        PORTE = 0;
  3349  006D  1283               	bcf	3,5	;RP0=0, select bank0
  3350  006E  1303               	bcf	3,6	;RP1=0, select bank0
  3351  006F  0189               	clrf	9	;volatile
  3352  0070                     l2369:
  3353                           
  3354                           ;main.c: 129:         _delay((unsigned long)((1)*(20000000/4000.0)));
  3355  0070  3007               	movlw	7
  3356  0071  1283               	bcf	3,5	;RP0=0, select bank0
  3357  0072  1303               	bcf	3,6	;RP1=0, select bank0
  3358  0073  00BA               	movwf	??_liga_buzzer+1
  3359  0074  307C               	movlw	124
  3360  0075  00B9               	movwf	??_liga_buzzer
  3361  0076                     u3697:
  3362  0076  0BB9               	decfsz	??_liga_buzzer,f
  3363  0077  2876               	goto	u3697
  3364  0078  0BBA               	decfsz	??_liga_buzzer+1,f
  3365  0079  2876               	goto	u3697
  3366  007A  0000               	nop
  3367  007B                     l2371:
  3368                           
  3369                           ;main.c: 130:         tempoSegundos--;
  3370  007B  303F               	movlw	63
  3371  007C  1283               	bcf	3,5	;RP0=0, select bank0
  3372  007D  1303               	bcf	3,6	;RP1=0, select bank0
  3373  007E  00AB               	movwf	___flsub@a+3
  3374  007F  3080               	movlw	128
  3375  0080  00AA               	movwf	___flsub@a+2
  3376  0081  3000               	movlw	0
  3377  0082  00A9               	movwf	___flsub@a+1
  3378  0083  3000               	movlw	0
  3379  0084  00A8               	movwf	___flsub@a
  3380  0085  0838               	movf	liga_buzzer@tempoSegundos+3,w
  3381  0086  00AF               	movwf	___flsub@b+3
  3382  0087  0837               	movf	liga_buzzer@tempoSegundos+2,w
  3383  0088  00AE               	movwf	___flsub@b+2
  3384  0089  0836               	movf	liga_buzzer@tempoSegundos+1,w
  3385  008A  00AD               	movwf	___flsub@b+1
  3386  008B  0835               	movf	liga_buzzer@tempoSegundos,w
  3387  008C  00AC               	movwf	___flsub@b
  3388  008D  120A  158A  20B8  120A  118A  	fcall	___flsub
  3389  0092  1283               	bcf	3,5	;RP0=0, select bank0
  3390  0093  1303               	bcf	3,6	;RP1=0, select bank0
  3391  0094  082B               	movf	?___flsub+3,w
  3392  0095  00B8               	movwf	liga_buzzer@tempoSegundos+3
  3393  0096  082A               	movf	?___flsub+2,w
  3394  0097  00B7               	movwf	liga_buzzer@tempoSegundos+2
  3395  0098  0829               	movf	?___flsub+1,w
  3396  0099  00B6               	movwf	liga_buzzer@tempoSegundos+1
  3397  009A  0828               	movf	?___flsub,w
  3398  009B  00B5               	movwf	liga_buzzer@tempoSegundos
  3399  009C                     l2373:
  3400                           
  3401                           ;main.c: 127:     while(tempoSegundos > 0){
  3402  009C  3000               	movlw	0
  3403  009D  00F3               	movwf	___flge@ff1+3
  3404  009E  3000               	movlw	0
  3405  009F  00F2               	movwf	___flge@ff1+2
  3406  00A0  3000               	movlw	0
  3407  00A1  00F1               	movwf	___flge@ff1+1
  3408  00A2  3000               	movlw	0
  3409  00A3  00F0               	movwf	___flge@ff1
  3410  00A4  1283               	bcf	3,5	;RP0=0, select bank0
  3411  00A5  1303               	bcf	3,6	;RP1=0, select bank0
  3412  00A6  0838               	movf	liga_buzzer@tempoSegundos+3,w
  3413  00A7  00F7               	movwf	___flge@ff2+3
  3414  00A8  0837               	movf	liga_buzzer@tempoSegundos+2,w
  3415  00A9  00F6               	movwf	___flge@ff2+2
  3416  00AA  0836               	movf	liga_buzzer@tempoSegundos+1,w
  3417  00AB  00F5               	movwf	___flge@ff2+1
  3418  00AC  0835               	movf	liga_buzzer@tempoSegundos,w
  3419  00AD  00F4               	movwf	___flge@ff2
  3420  00AE  120A  118A  20BC  120A  118A  	fcall	___flge
  3421  00B3  1C03               	btfss	3,0
  3422  00B4  28B6               	goto	u2511
  3423  00B5  28B7               	goto	u2510
  3424  00B6                     u2511:
  3425  00B6  286D               	goto	l2367
  3426  00B7                     u2510:
  3427  00B7                     l2375:
  3428                           
  3429                           ;main.c: 132:     PORTE = 0x0F;
  3430  00B7  300F               	movlw	15
  3431  00B8  1283               	bcf	3,5	;RP0=0, select bank0
  3432  00B9  1303               	bcf	3,6	;RP1=0, select bank0
  3433  00BA  0089               	movwf	9	;volatile
  3434  00BB                     l195:
  3435  00BB  0008               	return
  3436  00BC                     __end_of_liga_buzzer:
  3437                           
  3438                           	psect	text8
  3439  08B8                     __ptext8:	
  3440 ;; *************** function ___flsub *****************
  3441 ;; Defined at:
  3442 ;;		line 242 in file "C:\Program Files\Microchip\xc8\v2.32\pic\sources\c90\common\sprcadd.c"
  3443 ;; Parameters:    Size  Location     Type
  3444 ;;  a               4    8[BANK0 ] void 
  3445 ;;  b               4   12[BANK0 ] void 
  3446 ;; Auto vars:     Size  Location     Type
  3447 ;;		None
  3448 ;; Return value:  Size  Location     Type
  3449 ;;                  4    8[BANK0 ] void 
  3450 ;; Registers used:
  3451 ;;		wreg, status,2, status,0, btemp+1, pclath, cstack
  3452 ;; Tracked objects:
  3453 ;;		On entry : 0/0
  3454 ;;		On exit  : 0/0
  3455 ;;		Unchanged: 0/0
  3456 ;; Data sizes:     COMMON   BANK0   BANK1   BANK3   BANK2
  3457 ;;      Params:         0       8       0       0       0
  3458 ;;      Locals:         0       0       0       0       0
  3459 ;;      Temps:          0       0       0       0       0
  3460 ;;      Totals:         0       8       0       0       0
  3461 ;;Total ram usage:        8 bytes
  3462 ;; Hardware stack levels used: 1
  3463 ;; Hardware stack levels required when called: 1
  3464 ;; This function calls:
  3465 ;;		___fladd
  3466 ;; This function is called by:
  3467 ;;		_liga_buzzer
  3468 ;; This function uses a non-reentrant model
  3469 ;;
  3470                           
  3471                           
  3472                           ;psect for function ___flsub
  3473  08B8                     ___flsub:
  3474  08B8                     l2203:	
  3475                           ;incstack = 0
  3476                           ; Regs used in ___flsub: [wreg+status,2+status,0+btemp+1+pclath+cstack]
  3477                           
  3478  08B8  3080               	movlw	128
  3479  08B9  1283               	bcf	3,5	;RP0=0, select bank0
  3480  08BA  1303               	bcf	3,6	;RP1=0, select bank0
  3481  08BB  06AB               	xorwf	___flsub@a+3,f
  3482  08BC                     l2205:
  3483  08BC  082F               	movf	___flsub@b+3,w
  3484  08BD  00F3               	movwf	___fladd@b+3
  3485  08BE  082E               	movf	___flsub@b+2,w
  3486  08BF  00F2               	movwf	___fladd@b+2
  3487  08C0  082D               	movf	___flsub@b+1,w
  3488  08C1  00F1               	movwf	___fladd@b+1
  3489  08C2  082C               	movf	___flsub@b,w
  3490  08C3  00F0               	movwf	___fladd@b
  3491  08C4  082B               	movf	___flsub@a+3,w
  3492  08C5  00F7               	movwf	___fladd@a+3
  3493  08C6  082A               	movf	___flsub@a+2,w
  3494  08C7  00F6               	movwf	___fladd@a+2
  3495  08C8  0829               	movf	___flsub@a+1,w
  3496  08C9  00F5               	movwf	___fladd@a+1
  3497  08CA  0828               	movf	___flsub@a,w
  3498  08CB  00F4               	movwf	___fladd@a
  3499  08CC  120A  158A  2568  120A  158A  	fcall	___fladd
  3500  08D1  0873               	movf	?___fladd+3,w
  3501  08D2  1283               	bcf	3,5	;RP0=0, select bank0
  3502  08D3  1303               	bcf	3,6	;RP1=0, select bank0
  3503  08D4  00AB               	movwf	?___flsub+3
  3504  08D5  0872               	movf	?___fladd+2,w
  3505  08D6  00AA               	movwf	?___flsub+2
  3506  08D7  0871               	movf	?___fladd+1,w
  3507  08D8  00A9               	movwf	?___flsub+1
  3508  08D9  0870               	movf	?___fladd,w
  3509  08DA  00A8               	movwf	?___flsub
  3510  08DB                     l728:
  3511  08DB  0008               	return
  3512  08DC                     __end_of___flsub:
  3513                           
  3514                           	psect	text9
  3515  0D68                     __ptext9:	
  3516 ;; *************** function ___fladd *****************
  3517 ;; Defined at:
  3518 ;;		line 10 in file "C:\Program Files\Microchip\xc8\v2.32\pic\sources\c90\common\sprcadd.c"
  3519 ;; Parameters:    Size  Location     Type
  3520 ;;  b               4    0[COMMON] void 
  3521 ;;  a               4    4[COMMON] void 
  3522 ;; Auto vars:     Size  Location     Type
  3523 ;;  grs             1   11[COMMON] unsigned char 
  3524 ;;  bexp            1   10[COMMON] unsigned char 
  3525 ;;  aexp            1    9[COMMON] unsigned char 
  3526 ;;  signs           1    8[COMMON] unsigned char 
  3527 ;; Return value:  Size  Location     Type
  3528 ;;                  4    0[COMMON] unsigned char 
  3529 ;; Registers used:
  3530 ;;		wreg, status,2, status,0, btemp+1
  3531 ;; Tracked objects:
  3532 ;;		On entry : 0/0
  3533 ;;		On exit  : 0/0
  3534 ;;		Unchanged: 0/0
  3535 ;; Data sizes:     COMMON   BANK0   BANK1   BANK3   BANK2
  3536 ;;      Params:         8       0       0       0       0
  3537 ;;      Locals:         4       0       0       0       0
  3538 ;;      Temps:          0       8       0       0       0
  3539 ;;      Totals:        12       8       0       0       0
  3540 ;;Total ram usage:       20 bytes
  3541 ;; Hardware stack levels used: 1
  3542 ;; This function calls:
  3543 ;;		Nothing
  3544 ;; This function is called by:
  3545 ;;		___flsub
  3546 ;; This function uses a non-reentrant model
  3547 ;;
  3548                           
  3549                           
  3550                           ;psect for function ___fladd
  3551  0D68                     ___fladd:
  3552  0D68                     l1951:	
  3553                           ;incstack = 0
  3554                           ; Regs used in ___fladd: [wreg+status,2+status,0+btemp+1]
  3555                           
  3556  0D68  0873               	movf	___fladd@b+3,w
  3557  0D69  3980               	andlw	128
  3558  0D6A  1283               	bcf	3,5	;RP0=0, select bank0
  3559  0D6B  1303               	bcf	3,6	;RP1=0, select bank0
  3560  0D6C  00A0               	movwf	??___fladd
  3561  0D6D  0820               	movf	??___fladd,w
  3562  0D6E  00F8               	movwf	___fladd@signs
  3563  0D6F                     l1953:
  3564  0D6F  0873               	movf	___fladd@b+3,w
  3565  0D70  00A0               	movwf	??___fladd
  3566  0D71  0720               	addwf	??___fladd,w
  3567  0D72  00A1               	movwf	??___fladd+1
  3568  0D73  0821               	movf	??___fladd+1,w
  3569  0D74  00FA               	movwf	___fladd@bexp
  3570  0D75                     l1955:
  3571  0D75  1FF2               	btfss	___fladd@b+2,7
  3572  0D76  2D78               	goto	u1581
  3573  0D77  2D79               	goto	u1580
  3574  0D78                     u1581:
  3575  0D78  2D7A               	goto	l1959
  3576  0D79                     u1580:
  3577  0D79                     l1957:
  3578  0D79  147A               	bsf	___fladd@bexp,0
  3579  0D7A                     l1959:
  3580  0D7A  087A               	movf	___fladd@bexp,w
  3581  0D7B  1903               	btfsc	3,2
  3582  0D7C  2D7E               	goto	u1591
  3583  0D7D  2D7F               	goto	u1590
  3584  0D7E                     u1591:
  3585  0D7E  2D8F               	goto	l1969
  3586  0D7F                     u1590:
  3587  0D7F                     l1961:
  3588  0D7F  0A7A               	incf	___fladd@bexp,w
  3589  0D80  1D03               	btfss	3,2
  3590  0D81  2D83               	goto	u1601
  3591  0D82  2D84               	goto	u1600
  3592  0D83                     u1601:
  3593  0D83  2D8C               	goto	l1965
  3594  0D84                     u1600:
  3595  0D84                     l1963:
  3596  0D84  3000               	movlw	0
  3597  0D85  00F3               	movwf	___fladd@b+3
  3598  0D86  3000               	movlw	0
  3599  0D87  00F2               	movwf	___fladd@b+2
  3600  0D88  3000               	movlw	0
  3601  0D89  00F1               	movwf	___fladd@b+1
  3602  0D8A  3000               	movlw	0
  3603  0D8B  00F0               	movwf	___fladd@b
  3604  0D8C                     l1965:
  3605  0D8C  17F2               	bsf	___fladd@b+2,7
  3606  0D8D                     l1967:
  3607  0D8D  01F3               	clrf	___fladd@b+3
  3608  0D8E  2D97               	goto	l1971
  3609  0D8F                     l1969:
  3610  0D8F  3000               	movlw	0
  3611  0D90  00F3               	movwf	___fladd@b+3
  3612  0D91  3000               	movlw	0
  3613  0D92  00F2               	movwf	___fladd@b+2
  3614  0D93  3000               	movlw	0
  3615  0D94  00F1               	movwf	___fladd@b+1
  3616  0D95  3000               	movlw	0
  3617  0D96  00F0               	movwf	___fladd@b
  3618  0D97                     l1971:
  3619  0D97  0877               	movf	___fladd@a+3,w
  3620  0D98  3980               	andlw	128
  3621  0D99  00A0               	movwf	??___fladd
  3622  0D9A  0820               	movf	??___fladd,w
  3623  0D9B  00F9               	movwf	___fladd@aexp
  3624  0D9C                     l1973:
  3625  0D9C  0879               	movf	___fladd@aexp,w
  3626  0D9D  0678               	xorwf	___fladd@signs,w
  3627  0D9E  1903               	skipnz
  3628  0D9F  2DA1               	goto	u1611
  3629  0DA0  2DA2               	goto	u1610
  3630  0DA1                     u1611:
  3631  0DA1  2DA3               	goto	l1977
  3632  0DA2                     u1610:
  3633  0DA2                     l1975:
  3634  0DA2  1778               	bsf	___fladd@signs,6
  3635  0DA3                     l1977:
  3636  0DA3  0877               	movf	___fladd@a+3,w
  3637  0DA4  00A0               	movwf	??___fladd
  3638  0DA5  0720               	addwf	??___fladd,w
  3639  0DA6  00A1               	movwf	??___fladd+1
  3640  0DA7  0821               	movf	??___fladd+1,w
  3641  0DA8  00F9               	movwf	___fladd@aexp
  3642  0DA9                     l1979:
  3643  0DA9  1FF6               	btfss	___fladd@a+2,7
  3644  0DAA  2DAC               	goto	u1621
  3645  0DAB  2DAD               	goto	u1620
  3646  0DAC                     u1621:
  3647  0DAC  2DAE               	goto	l1983
  3648  0DAD                     u1620:
  3649  0DAD                     l1981:
  3650  0DAD  1479               	bsf	___fladd@aexp,0
  3651  0DAE                     l1983:
  3652  0DAE  0879               	movf	___fladd@aexp,w
  3653  0DAF  1903               	btfsc	3,2
  3654  0DB0  2DB2               	goto	u1631
  3655  0DB1  2DB3               	goto	u1630
  3656  0DB2                     u1631:
  3657  0DB2  2DC3               	goto	l1993
  3658  0DB3                     u1630:
  3659  0DB3                     l1985:
  3660  0DB3  0A79               	incf	___fladd@aexp,w
  3661  0DB4  1D03               	btfss	3,2
  3662  0DB5  2DB7               	goto	u1641
  3663  0DB6  2DB8               	goto	u1640
  3664  0DB7                     u1641:
  3665  0DB7  2DC0               	goto	l1989
  3666  0DB8                     u1640:
  3667  0DB8                     l1987:
  3668  0DB8  3000               	movlw	0
  3669  0DB9  00F7               	movwf	___fladd@a+3
  3670  0DBA  3000               	movlw	0
  3671  0DBB  00F6               	movwf	___fladd@a+2
  3672  0DBC  3000               	movlw	0
  3673  0DBD  00F5               	movwf	___fladd@a+1
  3674  0DBE  3000               	movlw	0
  3675  0DBF  00F4               	movwf	___fladd@a
  3676  0DC0                     l1989:
  3677  0DC0  17F6               	bsf	___fladd@a+2,7
  3678  0DC1                     l1991:
  3679  0DC1  01F7               	clrf	___fladd@a+3
  3680  0DC2  2DCB               	goto	l682
  3681  0DC3                     l1993:
  3682  0DC3  3000               	movlw	0
  3683  0DC4  00F7               	movwf	___fladd@a+3
  3684  0DC5  3000               	movlw	0
  3685  0DC6  00F6               	movwf	___fladd@a+2
  3686  0DC7  3000               	movlw	0
  3687  0DC8  00F5               	movwf	___fladd@a+1
  3688  0DC9  3000               	movlw	0
  3689  0DCA  00F4               	movwf	___fladd@a
  3690  0DCB                     l682:
  3691  0DCB  087A               	movf	___fladd@bexp,w
  3692  0DCC  0279               	subwf	___fladd@aexp,w
  3693  0DCD  1803               	skipnc
  3694  0DCE  2DD0               	goto	u1651
  3695  0DCF  2DD1               	goto	u1650
  3696  0DD0                     u1651:
  3697  0DD0  2E15               	goto	l2029
  3698  0DD1                     u1650:
  3699  0DD1                     l1995:
  3700  0DD1  1F78               	btfss	___fladd@signs,6
  3701  0DD2  2DD4               	goto	u1661
  3702  0DD3  2DD5               	goto	u1660
  3703  0DD4                     u1661:
  3704  0DD4  2DD9               	goto	l1999
  3705  0DD5                     u1660:
  3706  0DD5                     l1997:
  3707  0DD5  3080               	movlw	128
  3708  0DD6  00A0               	movwf	??___fladd
  3709  0DD7  0820               	movf	??___fladd,w
  3710  0DD8  06F8               	xorwf	___fladd@signs,f
  3711  0DD9                     l1999:
  3712  0DD9  087A               	movf	___fladd@bexp,w
  3713  0DDA  00A0               	movwf	??___fladd
  3714  0DDB  0820               	movf	??___fladd,w
  3715  0DDC  00FB               	movwf	___fladd@grs
  3716  0DDD                     l2001:
  3717  0DDD  0879               	movf	___fladd@aexp,w
  3718  0DDE  00A0               	movwf	??___fladd
  3719  0DDF  0820               	movf	??___fladd,w
  3720  0DE0  00FA               	movwf	___fladd@bexp
  3721  0DE1                     l2003:
  3722  0DE1  087B               	movf	___fladd@grs,w
  3723  0DE2  00A0               	movwf	??___fladd
  3724  0DE3  0820               	movf	??___fladd,w
  3725  0DE4  00F9               	movwf	___fladd@aexp
  3726  0DE5                     l2005:
  3727  0DE5  0870               	movf	___fladd@b,w
  3728  0DE6  00A0               	movwf	??___fladd
  3729  0DE7  0820               	movf	??___fladd,w
  3730  0DE8  00FB               	movwf	___fladd@grs
  3731  0DE9                     l2007:
  3732  0DE9  0874               	movf	___fladd@a,w
  3733  0DEA  00A0               	movwf	??___fladd
  3734  0DEB  0820               	movf	??___fladd,w
  3735  0DEC  00F0               	movwf	___fladd@b
  3736  0DED                     l2009:
  3737  0DED  087B               	movf	___fladd@grs,w
  3738  0DEE  00A0               	movwf	??___fladd
  3739  0DEF  0820               	movf	??___fladd,w
  3740  0DF0  00F4               	movwf	___fladd@a
  3741  0DF1                     l2011:
  3742  0DF1  0871               	movf	___fladd@b+1,w
  3743  0DF2  00A0               	movwf	??___fladd
  3744  0DF3  0820               	movf	??___fladd,w
  3745  0DF4  00FB               	movwf	___fladd@grs
  3746  0DF5                     l2013:
  3747  0DF5  0875               	movf	___fladd@a+1,w
  3748  0DF6  00A0               	movwf	??___fladd
  3749  0DF7  0820               	movf	??___fladd,w
  3750  0DF8  00F1               	movwf	___fladd@b+1
  3751  0DF9                     l2015:
  3752  0DF9  087B               	movf	___fladd@grs,w
  3753  0DFA  00A0               	movwf	??___fladd
  3754  0DFB  0820               	movf	??___fladd,w
  3755  0DFC  00F5               	movwf	___fladd@a+1
  3756  0DFD                     l2017:
  3757  0DFD  0872               	movf	___fladd@b+2,w
  3758  0DFE  00A0               	movwf	??___fladd
  3759  0DFF  0820               	movf	??___fladd,w
  3760  0E00  00FB               	movwf	___fladd@grs
  3761  0E01                     l2019:
  3762  0E01  0876               	movf	___fladd@a+2,w
  3763  0E02  00A0               	movwf	??___fladd
  3764  0E03  0820               	movf	??___fladd,w
  3765  0E04  00F2               	movwf	___fladd@b+2
  3766  0E05                     l2021:
  3767  0E05  087B               	movf	___fladd@grs,w
  3768  0E06  00A0               	movwf	??___fladd
  3769  0E07  0820               	movf	??___fladd,w
  3770  0E08  00F6               	movwf	___fladd@a+2
  3771  0E09                     l2023:
  3772  0E09  0873               	movf	___fladd@b+3,w
  3773  0E0A  00A0               	movwf	??___fladd
  3774  0E0B  0820               	movf	??___fladd,w
  3775  0E0C  00FB               	movwf	___fladd@grs
  3776  0E0D                     l2025:
  3777  0E0D  0877               	movf	___fladd@a+3,w
  3778  0E0E  00A0               	movwf	??___fladd
  3779  0E0F  0820               	movf	??___fladd,w
  3780  0E10  00F3               	movwf	___fladd@b+3
  3781  0E11                     l2027:
  3782  0E11  087B               	movf	___fladd@grs,w
  3783  0E12  00A0               	movwf	??___fladd
  3784  0E13  0820               	movf	??___fladd,w
  3785  0E14  00F7               	movwf	___fladd@a+3
  3786  0E15                     l2029:
  3787  0E15  01FB               	clrf	___fladd@grs
  3788  0E16                     l2031:
  3789  0E16  0879               	movf	___fladd@aexp,w
  3790  0E17  00A0               	movwf	??___fladd
  3791  0E18  01A1               	clrf	??___fladd+1
  3792  0E19  0821               	movf	??___fladd+1,w
  3793  0E1A  00A3               	movwf	??___fladd+3
  3794  0E1B  087A               	movf	___fladd@bexp,w
  3795  0E1C  0220               	subwf	??___fladd,w
  3796  0E1D  00A2               	movwf	??___fladd+2
  3797  0E1E  1C03               	skipc
  3798  0E1F  03A3               	decf	??___fladd+3,f
  3799  0E20  0823               	movf	??___fladd+3,w
  3800  0E21  3A80               	xorlw	128
  3801  0E22  00FF               	movwf	btemp+1
  3802  0E23  3080               	movlw	128
  3803  0E24  027F               	subwf	btemp+1,w
  3804  0E25  1D03               	skipz
  3805  0E26  2E29               	goto	u1675
  3806  0E27  301A               	movlw	26
  3807  0E28  0222               	subwf	??___fladd+2,w
  3808  0E29                     u1675:
  3809  0E29  1C03               	skipc
  3810  0E2A  2E2C               	goto	u1671
  3811  0E2B  2E2D               	goto	u1670
  3812  0E2C                     u1671:
  3813  0E2C  2E6E               	goto	l2047
  3814  0E2D                     u1670:
  3815  0E2D                     l2033:
  3816  0E2D  0873               	movf	___fladd@b+3,w
  3817  0E2E  0472               	iorwf	___fladd@b+2,w
  3818  0E2F  0471               	iorwf	___fladd@b+1,w
  3819  0E30  0470               	iorwf	___fladd@b,w
  3820  0E31  1D03               	skipz
  3821  0E32  2E34               	goto	u1681
  3822  0E33  2E36               	goto	u1680
  3823  0E34                     u1681:
  3824  0E34  3001               	movlw	1
  3825  0E35  2E37               	goto	u1690
  3826  0E36                     u1680:
  3827  0E36  3000               	movlw	0
  3828  0E37                     u1690:
  3829  0E37  1283               	bcf	3,5	;RP0=0, select bank0
  3830  0E38  1303               	bcf	3,6	;RP1=0, select bank0
  3831  0E39  00A0               	movwf	??___fladd
  3832  0E3A  0820               	movf	??___fladd,w
  3833  0E3B  00FB               	movwf	___fladd@grs
  3834  0E3C  3000               	movlw	0
  3835  0E3D  00F3               	movwf	___fladd@b+3
  3836  0E3E  3000               	movlw	0
  3837  0E3F  00F2               	movwf	___fladd@b+2
  3838  0E40  3000               	movlw	0
  3839  0E41  00F1               	movwf	___fladd@b+1
  3840  0E42  3000               	movlw	0
  3841  0E43  00F0               	movwf	___fladd@b
  3842  0E44  0879               	movf	___fladd@aexp,w
  3843  0E45  00A0               	movwf	??___fladd
  3844  0E46  0820               	movf	??___fladd,w
  3845  0E47  00FA               	movwf	___fladd@bexp
  3846  0E48  2E74               	goto	l686
  3847  0E49                     l688:
  3848  0E49  1C7B               	btfss	___fladd@grs,0
  3849  0E4A  2E4C               	goto	u1701
  3850  0E4B  2E4D               	goto	u1700
  3851  0E4C                     u1701:
  3852  0E4C  2E58               	goto	l2037
  3853  0E4D                     u1700:
  3854  0E4D                     l2035:
  3855  0E4D  087B               	movf	___fladd@grs,w
  3856  0E4E  1283               	bcf	3,5	;RP0=0, select bank0
  3857  0E4F  1303               	bcf	3,6	;RP1=0, select bank0
  3858  0E50  00A0               	movwf	??___fladd
  3859  0E51  1003               	clrc
  3860  0E52  0C20               	rrf	??___fladd,w
  3861  0E53  3801               	iorlw	1
  3862  0E54  00A1               	movwf	??___fladd+1
  3863  0E55  0821               	movf	??___fladd+1,w
  3864  0E56  00FB               	movwf	___fladd@grs
  3865  0E57  2E5A               	goto	l2039
  3866  0E58                     l2037:
  3867  0E58  1003               	clrc
  3868  0E59  0CFB               	rrf	___fladd@grs,f
  3869  0E5A                     l2039:
  3870  0E5A  1C70               	btfss	___fladd@b,0
  3871  0E5B  2E5D               	goto	u1711
  3872  0E5C  2E5E               	goto	u1710
  3873  0E5D                     u1711:
  3874  0E5D  2E5F               	goto	l2043
  3875  0E5E                     u1710:
  3876  0E5E                     l2041:
  3877  0E5E  17FB               	bsf	___fladd@grs,7
  3878  0E5F                     l2043:
  3879  0E5F  3001               	movlw	1
  3880  0E60  1283               	bcf	3,5	;RP0=0, select bank0
  3881  0E61  1303               	bcf	3,6	;RP1=0, select bank0
  3882  0E62  00A0               	movwf	??___fladd
  3883  0E63                     u1725:
  3884  0E63  0D73               	rlf	___fladd@b+3,w
  3885  0E64  0CF3               	rrf	___fladd@b+3,f
  3886  0E65  0CF2               	rrf	___fladd@b+2,f
  3887  0E66  0CF1               	rrf	___fladd@b+1,f
  3888  0E67  0CF0               	rrf	___fladd@b,f
  3889  0E68  0BA0               	decfsz	??___fladd& (0+127),f
  3890  0E69  2E63               	goto	u1725
  3891  0E6A                     l2045:
  3892  0E6A  3001               	movlw	1
  3893  0E6B  00A0               	movwf	??___fladd
  3894  0E6C  0820               	movf	??___fladd,w
  3895  0E6D  07FA               	addwf	___fladd@bexp,f
  3896  0E6E                     l2047:
  3897  0E6E  0879               	movf	___fladd@aexp,w
  3898  0E6F  027A               	subwf	___fladd@bexp,w
  3899  0E70  1C03               	skipc
  3900  0E71  2E73               	goto	u1731
  3901  0E72  2E74               	goto	u1730
  3902  0E73                     u1731:
  3903  0E73  2E49               	goto	l688
  3904  0E74                     u1730:
  3905  0E74                     l686:
  3906  0E74  1B78               	btfsc	___fladd@signs,6
  3907  0E75  2E77               	goto	u1741
  3908  0E76  2E78               	goto	u1740
  3909  0E77                     u1741:
  3910  0E77  2EC7               	goto	l2073
  3911  0E78                     u1740:
  3912  0E78                     l2049:
  3913  0E78  087A               	movf	___fladd@bexp,w
  3914  0E79  1D03               	btfss	3,2
  3915  0E7A  2E7C               	goto	u1751
  3916  0E7B  2E7D               	goto	u1750
  3917  0E7C                     u1751:
  3918  0E7C  2E86               	goto	l2055
  3919  0E7D                     u1750:
  3920  0E7D                     l2051:
  3921  0E7D  3000               	movlw	0
  3922  0E7E  00F3               	movwf	?___fladd+3
  3923  0E7F  3000               	movlw	0
  3924  0E80  00F2               	movwf	?___fladd+2
  3925  0E81  3000               	movlw	0
  3926  0E82  00F1               	movwf	?___fladd+1
  3927  0E83  3000               	movlw	0
  3928  0E84  00F0               	movwf	?___fladd
  3929  0E85  2FFF               	goto	l695
  3930  0E86                     l2055:
  3931  0E86  0874               	movf	___fladd@a,w
  3932  0E87  07F0               	addwf	___fladd@b,f
  3933  0E88  0875               	movf	___fladd@a+1,w
  3934  0E89  1103               	clrz
  3935  0E8A  1803               	skipnc
  3936  0E8B  3E01               	addlw	1
  3937  0E8C  1903               	skipnz
  3938  0E8D  2E8F               	goto	u1761
  3939  0E8E  07F1               	addwf	___fladd@b+1,f
  3940  0E8F                     u1761:
  3941  0E8F  0876               	movf	___fladd@a+2,w
  3942  0E90  1103               	clrz
  3943  0E91  1803               	skipnc
  3944  0E92  3E01               	addlw	1
  3945  0E93  1903               	skipnz
  3946  0E94  2E96               	goto	u1762
  3947  0E95  07F2               	addwf	___fladd@b+2,f
  3948  0E96                     u1762:
  3949  0E96  0877               	movf	___fladd@a+3,w
  3950  0E97  1103               	clrz
  3951  0E98  1803               	skipnc
  3952  0E99  3E01               	addlw	1
  3953  0E9A  1903               	skipnz
  3954  0E9B  2E9D               	goto	u1763
  3955  0E9C  07F3               	addwf	___fladd@b+3,f
  3956  0E9D                     u1763:
  3957  0E9D                     l2057:
  3958  0E9D  1C73               	btfss	___fladd@b+3,0
  3959  0E9E  2EA0               	goto	u1771
  3960  0E9F  2EA1               	goto	u1770
  3961  0EA0                     u1771:
  3962  0EA0  2F7F               	goto	l2107
  3963  0EA1                     u1770:
  3964  0EA1                     l2059:
  3965  0EA1  1C7B               	btfss	___fladd@grs,0
  3966  0EA2  2EA4               	goto	u1781
  3967  0EA3  2EA5               	goto	u1780
  3968  0EA4                     u1781:
  3969  0EA4  2EB0               	goto	l2063
  3970  0EA5                     u1780:
  3971  0EA5                     l2061:
  3972  0EA5  087B               	movf	___fladd@grs,w
  3973  0EA6  1283               	bcf	3,5	;RP0=0, select bank0
  3974  0EA7  1303               	bcf	3,6	;RP1=0, select bank0
  3975  0EA8  00A0               	movwf	??___fladd
  3976  0EA9  1003               	clrc
  3977  0EAA  0C20               	rrf	??___fladd,w
  3978  0EAB  3801               	iorlw	1
  3979  0EAC  00A1               	movwf	??___fladd+1
  3980  0EAD  0821               	movf	??___fladd+1,w
  3981  0EAE  00FB               	movwf	___fladd@grs
  3982  0EAF  2EB2               	goto	l2065
  3983  0EB0                     l2063:
  3984  0EB0  1003               	clrc
  3985  0EB1  0CFB               	rrf	___fladd@grs,f
  3986  0EB2                     l2065:
  3987  0EB2  1C70               	btfss	___fladd@b,0
  3988  0EB3  2EB5               	goto	u1791
  3989  0EB4  2EB6               	goto	u1790
  3990  0EB5                     u1791:
  3991  0EB5  2EB7               	goto	l2069
  3992  0EB6                     u1790:
  3993  0EB6                     l2067:
  3994  0EB6  17FB               	bsf	___fladd@grs,7
  3995  0EB7                     l2069:
  3996  0EB7  3001               	movlw	1
  3997  0EB8  1283               	bcf	3,5	;RP0=0, select bank0
  3998  0EB9  1303               	bcf	3,6	;RP1=0, select bank0
  3999  0EBA  00A0               	movwf	??___fladd
  4000  0EBB                     u1805:
  4001  0EBB  0D73               	rlf	___fladd@b+3,w
  4002  0EBC  0CF3               	rrf	___fladd@b+3,f
  4003  0EBD  0CF2               	rrf	___fladd@b+2,f
  4004  0EBE  0CF1               	rrf	___fladd@b+1,f
  4005  0EBF  0CF0               	rrf	___fladd@b,f
  4006  0EC0  0BA0               	decfsz	??___fladd& (0+127),f
  4007  0EC1  2EBB               	goto	u1805
  4008  0EC2                     l2071:
  4009  0EC2  3001               	movlw	1
  4010  0EC3  00A0               	movwf	??___fladd
  4011  0EC4  0820               	movf	??___fladd,w
  4012  0EC5  07FA               	addwf	___fladd@bexp,f
  4013  0EC6  2F7F               	goto	l2107
  4014  0EC7                     l2073:
  4015  0EC7  0873               	movf	___fladd@b+3,w
  4016  0EC8  3A80               	xorlw	128
  4017  0EC9  00FF               	movwf	btemp+1
  4018  0ECA  0877               	movf	___fladd@a+3,w
  4019  0ECB  3A80               	xorlw	128
  4020  0ECC  027F               	subwf	btemp+1,w
  4021  0ECD  1D03               	skipz
  4022  0ECE  2ED9               	goto	u1813
  4023  0ECF  0876               	movf	___fladd@a+2,w
  4024  0ED0  0272               	subwf	___fladd@b+2,w
  4025  0ED1  1D03               	skipz
  4026  0ED2  2ED9               	goto	u1813
  4027  0ED3  0875               	movf	___fladd@a+1,w
  4028  0ED4  0271               	subwf	___fladd@b+1,w
  4029  0ED5  1D03               	skipz
  4030  0ED6  2ED9               	goto	u1813
  4031  0ED7  0874               	movf	___fladd@a,w
  4032  0ED8  0270               	subwf	___fladd@b,w
  4033  0ED9                     u1813:
  4034  0ED9  1803               	skipnc
  4035  0EDA  2EDC               	goto	u1811
  4036  0EDB  2EDD               	goto	u1810
  4037  0EDC                     u1811:
  4038  0EDC  2F37               	goto	l2083
  4039  0EDD                     u1810:
  4040  0EDD                     l2075:
  4041  0EDD  30FF               	movlw	255
  4042  0EDE  1283               	bcf	3,5	;RP0=0, select bank0
  4043  0EDF  1303               	bcf	3,6	;RP1=0, select bank0
  4044  0EE0  00A0               	movwf	??___fladd
  4045  0EE1  30FF               	movlw	255
  4046  0EE2  00A1               	movwf	??___fladd+1
  4047  0EE3  30FF               	movlw	255
  4048  0EE4  00A2               	movwf	??___fladd+2
  4049  0EE5  30FF               	movlw	255
  4050  0EE6  00A3               	movwf	??___fladd+3
  4051  0EE7  0874               	movf	___fladd@a,w
  4052  0EE8  00A4               	movwf	??___fladd+4
  4053  0EE9  0875               	movf	___fladd@a+1,w
  4054  0EEA  00A5               	movwf	??___fladd+5
  4055  0EEB  0876               	movf	___fladd@a+2,w
  4056  0EEC  00A6               	movwf	??___fladd+6
  4057  0EED  0877               	movf	___fladd@a+3,w
  4058  0EEE  00A7               	movwf	??___fladd+7
  4059  0EEF  0870               	movf	___fladd@b,w
  4060  0EF0  02A4               	subwf	??___fladd+4,f
  4061  0EF1  0871               	movf	___fladd@b+1,w
  4062  0EF2  1C03               	skipc
  4063  0EF3  0F71               	incfsz	___fladd@b+1,w
  4064  0EF4  2EF6               	goto	u1821
  4065  0EF5  2EF7               	goto	u1822
  4066  0EF6                     u1821:
  4067  0EF6  02A5               	subwf	??___fladd+5,f
  4068  0EF7                     u1822:
  4069  0EF7  0872               	movf	___fladd@b+2,w
  4070  0EF8  1C03               	skipc
  4071  0EF9  0F72               	incfsz	___fladd@b+2,w
  4072  0EFA  2EFC               	goto	u1823
  4073  0EFB  2EFD               	goto	u1824
  4074  0EFC                     u1823:
  4075  0EFC  02A6               	subwf	??___fladd+6,f
  4076  0EFD                     u1824:
  4077  0EFD  0873               	movf	___fladd@b+3,w
  4078  0EFE  1C03               	skipc
  4079  0EFF  0F73               	incfsz	___fladd@b+3,w
  4080  0F00  2F02               	goto	u1825
  4081  0F01  2F03               	goto	u1826
  4082  0F02                     u1825:
  4083  0F02  02A7               	subwf	??___fladd+7,f
  4084  0F03                     u1826:
  4085  0F03  0824               	movf	??___fladd+4,w
  4086  0F04  07A0               	addwf	??___fladd,f
  4087  0F05  0825               	movf	??___fladd+5,w
  4088  0F06  1803               	skipnc
  4089  0F07  0F25               	incfsz	??___fladd+5,w
  4090  0F08  2F0A               	goto	u1830
  4091  0F09  2F0B               	goto	u1831
  4092  0F0A                     u1830:
  4093  0F0A  07A1               	addwf	??___fladd+1,f
  4094  0F0B                     u1831:
  4095  0F0B  0826               	movf	??___fladd+6,w
  4096  0F0C  1803               	skipnc
  4097  0F0D  0F26               	incfsz	??___fladd+6,w
  4098  0F0E  2F10               	goto	u1832
  4099  0F0F  2F11               	goto	u1833
  4100  0F10                     u1832:
  4101  0F10  07A2               	addwf	??___fladd+2,f
  4102  0F11                     u1833:
  4103  0F11  0827               	movf	??___fladd+7,w
  4104  0F12  1803               	skipnc
  4105  0F13  0A27               	incf	??___fladd+7,w
  4106  0F14  07A3               	addwf	??___fladd+3,f
  4107  0F15  0823               	movf	??___fladd+3,w
  4108  0F16  00F3               	movwf	___fladd@b+3
  4109  0F17  0822               	movf	??___fladd+2,w
  4110  0F18  00F2               	movwf	___fladd@b+2
  4111  0F19  0821               	movf	??___fladd+1,w
  4112  0F1A  00F1               	movwf	___fladd@b+1
  4113  0F1B  0820               	movf	??___fladd,w
  4114  0F1C  00F0               	movwf	___fladd@b
  4115  0F1D                     l2077:
  4116  0F1D  3080               	movlw	128
  4117  0F1E  00A0               	movwf	??___fladd
  4118  0F1F  0820               	movf	??___fladd,w
  4119  0F20  06F8               	xorwf	___fladd@signs,f
  4120  0F21  09FB               	comf	___fladd@grs,f
  4121  0F22  0AFB               	incf	___fladd@grs,f
  4122  0F23                     l2079:
  4123  0F23  087B               	movf	___fladd@grs,w
  4124  0F24  1D03               	btfss	3,2
  4125  0F25  2F27               	goto	u1841
  4126  0F26  2F28               	goto	u1840
  4127  0F27                     u1841:
  4128  0F27  2F45               	goto	l703
  4129  0F28                     u1840:
  4130  0F28                     l2081:
  4131  0F28  3001               	movlw	1
  4132  0F29  07F0               	addwf	___fladd@b,f
  4133  0F2A  3000               	movlw	0
  4134  0F2B  1803               	skipnc
  4135  0F2C  3001               	movlw	1
  4136  0F2D  07F1               	addwf	___fladd@b+1,f
  4137  0F2E  3000               	movlw	0
  4138  0F2F  1803               	skipnc
  4139  0F30  3001               	movlw	1
  4140  0F31  07F2               	addwf	___fladd@b+2,f
  4141  0F32  3000               	movlw	0
  4142  0F33  1803               	skipnc
  4143  0F34  3001               	movlw	1
  4144  0F35  07F3               	addwf	___fladd@b+3,f
  4145  0F36  2F45               	goto	l703
  4146  0F37                     l2083:
  4147  0F37  0874               	movf	___fladd@a,w
  4148  0F38  02F0               	subwf	___fladd@b,f
  4149  0F39  0875               	movf	___fladd@a+1,w
  4150  0F3A  1C03               	skipc
  4151  0F3B  0F75               	incfsz	___fladd@a+1,w
  4152  0F3C  02F1               	subwf	___fladd@b+1,f
  4153  0F3D  0876               	movf	___fladd@a+2,w
  4154  0F3E  1C03               	skipc
  4155  0F3F  0F76               	incfsz	___fladd@a+2,w
  4156  0F40  02F2               	subwf	___fladd@b+2,f
  4157  0F41  0877               	movf	___fladd@a+3,w
  4158  0F42  1C03               	skipc
  4159  0F43  0F77               	incfsz	___fladd@a+3,w
  4160  0F44  02F3               	subwf	___fladd@b+3,f
  4161  0F45                     l703:
  4162  0F45  0873               	movf	___fladd@b+3,w
  4163  0F46  0472               	iorwf	___fladd@b+2,w
  4164  0F47  0471               	iorwf	___fladd@b+1,w
  4165  0F48  0470               	iorwf	___fladd@b,w
  4166  0F49  1D03               	skipz
  4167  0F4A  2F4C               	goto	u1851
  4168  0F4B  2F4D               	goto	u1850
  4169  0F4C                     u1851:
  4170  0F4C  2F7B               	goto	l2105
  4171  0F4D                     u1850:
  4172  0F4D                     l2085:
  4173  0F4D  087B               	movf	___fladd@grs,w
  4174  0F4E  1D03               	btfss	3,2
  4175  0F4F  2F51               	goto	u1861
  4176  0F50  2F52               	goto	u1860
  4177  0F51                     u1861:
  4178  0F51  2F7B               	goto	l2105
  4179  0F52                     u1860:
  4180  0F52                     l2087:
  4181  0F52  3000               	movlw	0
  4182  0F53  00F3               	movwf	?___fladd+3
  4183  0F54  3000               	movlw	0
  4184  0F55  00F2               	movwf	?___fladd+2
  4185  0F56  3000               	movlw	0
  4186  0F57  00F1               	movwf	?___fladd+1
  4187  0F58  3000               	movlw	0
  4188  0F59  00F0               	movwf	?___fladd
  4189  0F5A  2FFF               	goto	l695
  4190  0F5B                     l2091:
  4191  0F5B  3001               	movlw	1
  4192  0F5C  1283               	bcf	3,5	;RP0=0, select bank0
  4193  0F5D  1303               	bcf	3,6	;RP1=0, select bank0
  4194  0F5E  00A0               	movwf	??___fladd
  4195  0F5F                     u1875:
  4196  0F5F  1003               	clrc
  4197  0F60  0DF0               	rlf	___fladd@b,f
  4198  0F61  0DF1               	rlf	___fladd@b+1,f
  4199  0F62  0DF2               	rlf	___fladd@b+2,f
  4200  0F63  0DF3               	rlf	___fladd@b+3,f
  4201  0F64  0BA0               	decfsz	??___fladd,f
  4202  0F65  2F5F               	goto	u1875
  4203  0F66                     l2093:
  4204  0F66  1FFB               	btfss	___fladd@grs,7
  4205  0F67  2F69               	goto	u1881
  4206  0F68  2F6A               	goto	u1880
  4207  0F69                     u1881:
  4208  0F69  2F6B               	goto	l707
  4209  0F6A                     u1880:
  4210  0F6A                     l2095:
  4211  0F6A  1470               	bsf	___fladd@b,0
  4212  0F6B                     l707:
  4213  0F6B  1C7B               	btfss	___fladd@grs,0
  4214  0F6C  2F6E               	goto	u1891
  4215  0F6D  2F6F               	goto	u1890
  4216  0F6E                     u1891:
  4217  0F6E  2F72               	goto	l2099
  4218  0F6F                     u1890:
  4219  0F6F                     l2097:
  4220  0F6F  1403               	setc
  4221  0F70  0DFB               	rlf	___fladd@grs,f
  4222  0F71  2F74               	goto	l2101
  4223  0F72                     l2099:
  4224  0F72  1003               	clrc
  4225  0F73  0DFB               	rlf	___fladd@grs,f
  4226  0F74                     l2101:
  4227  0F74  087A               	movf	___fladd@bexp,w
  4228  0F75  1903               	btfsc	3,2
  4229  0F76  2F78               	goto	u1901
  4230  0F77  2F79               	goto	u1900
  4231  0F78                     u1901:
  4232  0F78  2F7B               	goto	l2105
  4233  0F79                     u1900:
  4234  0F79                     l2103:
  4235  0F79  3001               	movlw	1
  4236  0F7A  02FA               	subwf	___fladd@bexp,f
  4237  0F7B                     l2105:
  4238  0F7B  1FF2               	btfss	___fladd@b+2,7
  4239  0F7C  2F7E               	goto	u1911
  4240  0F7D  2F7F               	goto	u1910
  4241  0F7E                     u1911:
  4242  0F7E  2F5B               	goto	l2091
  4243  0F7F                     u1910:
  4244  0F7F                     l2107:
  4245  0F7F  01F9               	clrf	___fladd@aexp
  4246  0F80                     l2109:
  4247  0F80  1FFB               	btfss	___fladd@grs,7
  4248  0F81  2F83               	goto	u1921
  4249  0F82  2F84               	goto	u1920
  4250  0F83                     u1921:
  4251  0F83  2F92               	goto	l2117
  4252  0F84                     u1920:
  4253  0F84                     l2111:
  4254  0F84  087B               	movf	___fladd@grs,w
  4255  0F85  397F               	andlw	127
  4256  0F86  1903               	btfsc	3,2
  4257  0F87  2F89               	goto	u1931
  4258  0F88  2F8A               	goto	u1930
  4259  0F89                     u1931:
  4260  0F89  2F8D               	goto	l713
  4261  0F8A                     u1930:
  4262  0F8A                     l2113:
  4263  0F8A  01F9               	clrf	___fladd@aexp
  4264  0F8B  0AF9               	incf	___fladd@aexp,f
  4265  0F8C  2F92               	goto	l2117
  4266  0F8D                     l713:
  4267  0F8D  1C70               	btfss	___fladd@b,0
  4268  0F8E  2F90               	goto	u1941
  4269  0F8F  2F91               	goto	u1940
  4270  0F90                     u1941:
  4271  0F90  2F92               	goto	l2117
  4272  0F91                     u1940:
  4273  0F91  2F8A               	goto	l2113
  4274  0F92                     l2117:
  4275  0F92  0879               	movf	___fladd@aexp,w
  4276  0F93  1903               	btfsc	3,2
  4277  0F94  2F96               	goto	u1951
  4278  0F95  2F97               	goto	u1950
  4279  0F96                     u1951:
  4280  0F96  2FCD               	goto	l716
  4281  0F97                     u1950:
  4282  0F97                     l2119:
  4283  0F97  3001               	movlw	1
  4284  0F98  07F0               	addwf	___fladd@b,f
  4285  0F99  3000               	movlw	0
  4286  0F9A  1803               	skipnc
  4287  0F9B  3001               	movlw	1
  4288  0F9C  07F1               	addwf	___fladd@b+1,f
  4289  0F9D  3000               	movlw	0
  4290  0F9E  1803               	skipnc
  4291  0F9F  3001               	movlw	1
  4292  0FA0  07F2               	addwf	___fladd@b+2,f
  4293  0FA1  3000               	movlw	0
  4294  0FA2  1803               	skipnc
  4295  0FA3  3001               	movlw	1
  4296  0FA4  07F3               	addwf	___fladd@b+3,f
  4297  0FA5                     l2121:
  4298  0FA5  1C73               	btfss	___fladd@b+3,0
  4299  0FA6  2FA8               	goto	u1961
  4300  0FA7  2FA9               	goto	u1960
  4301  0FA8                     u1961:
  4302  0FA8  2FCD               	goto	l716
  4303  0FA9                     u1960:
  4304  0FA9                     l2123:
  4305  0FA9  0870               	movf	___fladd@b,w
  4306  0FAA  1283               	bcf	3,5	;RP0=0, select bank0
  4307  0FAB  1303               	bcf	3,6	;RP1=0, select bank0
  4308  0FAC  00A0               	movwf	??___fladd
  4309  0FAD  0871               	movf	___fladd@b+1,w
  4310  0FAE  00A1               	movwf	??___fladd+1
  4311  0FAF  0872               	movf	___fladd@b+2,w
  4312  0FB0  00A2               	movwf	??___fladd+2
  4313  0FB1  0873               	movf	___fladd@b+3,w
  4314  0FB2  00A3               	movwf	??___fladd+3
  4315  0FB3  3001               	movlw	1
  4316  0FB4  00A4               	movwf	??___fladd+4
  4317  0FB5                     u1975:
  4318  0FB5  0D23               	rlf	??___fladd+3,w
  4319  0FB6  0CA3               	rrf	??___fladd+3,f
  4320  0FB7  0CA2               	rrf	??___fladd+2,f
  4321  0FB8  0CA1               	rrf	??___fladd+1,f
  4322  0FB9  0CA0               	rrf	??___fladd,f
  4323  0FBA                     u1970:
  4324  0FBA  0BA4               	decfsz	??___fladd+4,f
  4325  0FBB  2FB5               	goto	u1975
  4326  0FBC  0823               	movf	??___fladd+3,w
  4327  0FBD  00F3               	movwf	___fladd@b+3
  4328  0FBE  0822               	movf	??___fladd+2,w
  4329  0FBF  00F2               	movwf	___fladd@b+2
  4330  0FC0  0821               	movf	??___fladd+1,w
  4331  0FC1  00F1               	movwf	___fladd@b+1
  4332  0FC2  0820               	movf	??___fladd,w
  4333  0FC3  00F0               	movwf	___fladd@b
  4334  0FC4  0A7A               	incf	___fladd@bexp,w
  4335  0FC5  1903               	btfsc	3,2
  4336  0FC6  2FC8               	goto	u1981
  4337  0FC7  2FC9               	goto	u1980
  4338  0FC8                     u1981:
  4339  0FC8  2FCD               	goto	l716
  4340  0FC9                     u1980:
  4341  0FC9                     l2125:
  4342  0FC9  3001               	movlw	1
  4343  0FCA  00A0               	movwf	??___fladd
  4344  0FCB  0820               	movf	??___fladd,w
  4345  0FCC  07FA               	addwf	___fladd@bexp,f
  4346  0FCD                     l716:
  4347  0FCD  0A7A               	incf	___fladd@bexp,w
  4348  0FCE  1903               	btfsc	3,2
  4349  0FCF  2FD1               	goto	u1991
  4350  0FD0  2FD2               	goto	u1990
  4351  0FD1                     u1991:
  4352  0FD1  2FD7               	goto	l2129
  4353  0FD2                     u1990:
  4354  0FD2                     l2127:
  4355  0FD2  087A               	movf	___fladd@bexp,w
  4356  0FD3  1D03               	btfss	3,2
  4357  0FD4  2FD6               	goto	u2001
  4358  0FD5  2FD7               	goto	u2000
  4359  0FD6                     u2001:
  4360  0FD6  2FE5               	goto	l2135
  4361  0FD7                     u2000:
  4362  0FD7                     l2129:
  4363  0FD7  3000               	movlw	0
  4364  0FD8  00F3               	movwf	___fladd@b+3
  4365  0FD9  3000               	movlw	0
  4366  0FDA  00F2               	movwf	___fladd@b+2
  4367  0FDB  3000               	movlw	0
  4368  0FDC  00F1               	movwf	___fladd@b+1
  4369  0FDD  3000               	movlw	0
  4370  0FDE  00F0               	movwf	___fladd@b
  4371  0FDF                     l2131:
  4372  0FDF  087A               	movf	___fladd@bexp,w
  4373  0FE0  1D03               	btfss	3,2
  4374  0FE1  2FE3               	goto	u2011
  4375  0FE2  2FE4               	goto	u2010
  4376  0FE3                     u2011:
  4377  0FE3  2FE5               	goto	l2135
  4378  0FE4                     u2010:
  4379  0FE4                     l2133:
  4380  0FE4  01F8               	clrf	___fladd@signs
  4381  0FE5                     l2135:
  4382  0FE5  1C7A               	btfss	___fladd@bexp,0
  4383  0FE6  2FE8               	goto	u2021
  4384  0FE7  2FE9               	goto	u2020
  4385  0FE8                     u2021:
  4386  0FE8  2FEB               	goto	l2139
  4387  0FE9                     u2020:
  4388  0FE9                     l2137:
  4389  0FE9  17F2               	bsf	___fladd@b+2,7
  4390  0FEA  2FF1               	goto	l724
  4391  0FEB                     l2139:
  4392  0FEB  307F               	movlw	127
  4393  0FEC  1283               	bcf	3,5	;RP0=0, select bank0
  4394  0FED  1303               	bcf	3,6	;RP1=0, select bank0
  4395  0FEE  00A0               	movwf	??___fladd
  4396  0FEF  0820               	movf	??___fladd,w
  4397  0FF0  05F2               	andwf	___fladd@b+2,f
  4398  0FF1                     l724:
  4399  0FF1  087A               	movf	___fladd@bexp,w
  4400  0FF2  1283               	bcf	3,5	;RP0=0, select bank0
  4401  0FF3  1303               	bcf	3,6	;RP1=0, select bank0
  4402  0FF4  00A0               	movwf	??___fladd
  4403  0FF5  1003               	clrc
  4404  0FF6  0C20               	rrf	??___fladd,w
  4405  0FF7  00A1               	movwf	??___fladd+1
  4406  0FF8  0821               	movf	??___fladd+1,w
  4407  0FF9  00F3               	movwf	___fladd@b+3
  4408  0FFA                     l2141:
  4409  0FFA  1FF8               	btfss	___fladd@signs,7
  4410  0FFB  2FFD               	goto	u2031
  4411  0FFC  2FFE               	goto	u2030
  4412  0FFD                     u2031:
  4413  0FFD  2FFF               	goto	l725
  4414  0FFE                     u2030:
  4415  0FFE                     l2143:
  4416  0FFE  17F3               	bsf	___fladd@b+3,7
  4417  0FFF                     l725:
  4418  0FFF                     l695:
  4419  0FFF  0008               	return
  4420  1000                     __end_of___fladd:
  4421                           
  4422                           	psect	text10
  4423  045B                     __ptext10:	
  4424 ;; *************** function ___flmul *****************
  4425 ;; Defined at:
  4426 ;;		line 8 in file "C:\Program Files\Microchip\xc8\v2.32\pic\sources\c90\common\sprcmul.c"
  4427 ;; Parameters:    Size  Location     Type
  4428 ;;  b               4    0[BANK0 ] unsigned char 
  4429 ;;  a               4    4[BANK0 ] unsigned char 
  4430 ;; Auto vars:     Size  Location     Type
  4431 ;;  prod            4   15[BANK0 ] struct .
  4432 ;;  grs             4    9[BANK0 ] unsigned long 
  4433 ;;  temp            2   19[BANK0 ] struct .
  4434 ;;  bexp            1   14[BANK0 ] unsigned char 
  4435 ;;  aexp            1   13[BANK0 ] unsigned char 
  4436 ;;  sign            1    8[BANK0 ] unsigned char 
  4437 ;; Return value:  Size  Location     Type
  4438 ;;                  4    0[BANK0 ] unsigned char 
  4439 ;; Registers used:
  4440 ;;		wreg, status,2, status,0, btemp+1, pclath, cstack
  4441 ;; Tracked objects:
  4442 ;;		On entry : 0/0
  4443 ;;		On exit  : 0/0
  4444 ;;		Unchanged: 0/0
  4445 ;; Data sizes:     COMMON   BANK0   BANK1   BANK3   BANK2
  4446 ;;      Params:         0       8       0       0       0
  4447 ;;      Locals:         0      13       0       0       0
  4448 ;;      Temps:          5       0       0       0       0
  4449 ;;      Totals:         5      21       0       0       0
  4450 ;;Total ram usage:       26 bytes
  4451 ;; Hardware stack levels used: 1
  4452 ;; Hardware stack levels required when called: 1
  4453 ;; This function calls:
  4454 ;;		__Umul8_16
  4455 ;; This function is called by:
  4456 ;;		_liga_buzzer
  4457 ;; This function uses a non-reentrant model
  4458 ;;
  4459                           
  4460                           
  4461                           ;psect for function ___flmul
  4462  045B                     ___flmul:
  4463  045B                     l2209:	
  4464                           ;incstack = 0
  4465                           ; Regs used in ___flmul: [wreg+status,2+status,0+btemp+1+pclath+cstack]
  4466                           
  4467  045B  1283               	bcf	3,5	;RP0=0, select bank0
  4468  045C  1303               	bcf	3,6	;RP1=0, select bank0
  4469  045D  0823               	movf	___flmul@b+3,w
  4470  045E  3980               	andlw	128
  4471  045F  00F9               	movwf	??___flmul
  4472  0460  0879               	movf	??___flmul,w
  4473  0461  00A8               	movwf	___flmul@sign
  4474  0462                     l2211:
  4475  0462  0823               	movf	___flmul@b+3,w
  4476  0463  00F9               	movwf	??___flmul
  4477  0464  0779               	addwf	??___flmul,w
  4478  0465  00FA               	movwf	??___flmul+1
  4479  0466  087A               	movf	??___flmul+1,w
  4480  0467  00AE               	movwf	___flmul@bexp
  4481  0468                     l2213:
  4482  0468  1FA2               	btfss	___flmul@b+2,7
  4483  0469  2C6B               	goto	u2141
  4484  046A  2C6C               	goto	u2140
  4485  046B                     u2141:
  4486  046B  2C6D               	goto	l2217
  4487  046C                     u2140:
  4488  046C                     l2215:
  4489  046C  142E               	bsf	___flmul@bexp,0
  4490  046D                     l2217:
  4491  046D  082E               	movf	___flmul@bexp,w
  4492  046E  1903               	btfsc	3,2
  4493  046F  2C71               	goto	u2151
  4494  0470  2C72               	goto	u2150
  4495  0471                     u2151:
  4496  0471  2C81               	goto	l2225
  4497  0472                     u2150:
  4498  0472                     l2219:
  4499  0472  0A2E               	incf	___flmul@bexp,w
  4500  0473  1D03               	btfss	3,2
  4501  0474  2C76               	goto	u2161
  4502  0475  2C77               	goto	u2160
  4503  0476                     u2161:
  4504  0476  2C7F               	goto	l2223
  4505  0477                     u2160:
  4506  0477                     l2221:
  4507  0477  3000               	movlw	0
  4508  0478  00A3               	movwf	___flmul@b+3
  4509  0479  3000               	movlw	0
  4510  047A  00A2               	movwf	___flmul@b+2
  4511  047B  3000               	movlw	0
  4512  047C  00A1               	movwf	___flmul@b+1
  4513  047D  3000               	movlw	0
  4514  047E  00A0               	movwf	___flmul@b
  4515  047F                     l2223:
  4516  047F  17A2               	bsf	___flmul@b+2,7
  4517  0480  2C89               	goto	l2227
  4518  0481                     l2225:
  4519  0481  3000               	movlw	0
  4520  0482  00A3               	movwf	___flmul@b+3
  4521  0483  3000               	movlw	0
  4522  0484  00A2               	movwf	___flmul@b+2
  4523  0485  3000               	movlw	0
  4524  0486  00A1               	movwf	___flmul@b+1
  4525  0487  3000               	movlw	0
  4526  0488  00A0               	movwf	___flmul@b
  4527  0489                     l2227:
  4528  0489  0827               	movf	___flmul@a+3,w
  4529  048A  3980               	andlw	128
  4530  048B  00F9               	movwf	??___flmul
  4531  048C  0879               	movf	??___flmul,w
  4532  048D  06A8               	xorwf	___flmul@sign,f
  4533  048E                     l2229:
  4534  048E  0827               	movf	___flmul@a+3,w
  4535  048F  00F9               	movwf	??___flmul
  4536  0490  0779               	addwf	??___flmul,w
  4537  0491  00FA               	movwf	??___flmul+1
  4538  0492  087A               	movf	??___flmul+1,w
  4539  0493  00AD               	movwf	___flmul@aexp
  4540  0494                     l2231:
  4541  0494  1FA6               	btfss	___flmul@a+2,7
  4542  0495  2C97               	goto	u2171
  4543  0496  2C98               	goto	u2170
  4544  0497                     u2171:
  4545  0497  2C99               	goto	l2235
  4546  0498                     u2170:
  4547  0498                     l2233:
  4548  0498  142D               	bsf	___flmul@aexp,0
  4549  0499                     l2235:
  4550  0499  082D               	movf	___flmul@aexp,w
  4551  049A  1903               	btfsc	3,2
  4552  049B  2C9D               	goto	u2181
  4553  049C  2C9E               	goto	u2180
  4554  049D                     u2181:
  4555  049D  2CAD               	goto	l2243
  4556  049E                     u2180:
  4557  049E                     l2237:
  4558  049E  0A2D               	incf	___flmul@aexp,w
  4559  049F  1D03               	btfss	3,2
  4560  04A0  2CA2               	goto	u2191
  4561  04A1  2CA3               	goto	u2190
  4562  04A2                     u2191:
  4563  04A2  2CAB               	goto	l2241
  4564  04A3                     u2190:
  4565  04A3                     l2239:
  4566  04A3  3000               	movlw	0
  4567  04A4  00A7               	movwf	___flmul@a+3
  4568  04A5  3000               	movlw	0
  4569  04A6  00A6               	movwf	___flmul@a+2
  4570  04A7  3000               	movlw	0
  4571  04A8  00A5               	movwf	___flmul@a+1
  4572  04A9  3000               	movlw	0
  4573  04AA  00A4               	movwf	___flmul@a
  4574  04AB                     l2241:
  4575  04AB  17A6               	bsf	___flmul@a+2,7
  4576  04AC  2CB5               	goto	l2245
  4577  04AD                     l2243:
  4578  04AD  3000               	movlw	0
  4579  04AE  00A7               	movwf	___flmul@a+3
  4580  04AF  3000               	movlw	0
  4581  04B0  00A6               	movwf	___flmul@a+2
  4582  04B1  3000               	movlw	0
  4583  04B2  00A5               	movwf	___flmul@a+1
  4584  04B3  3000               	movlw	0
  4585  04B4  00A4               	movwf	___flmul@a
  4586  04B5                     l2245:
  4587  04B5  082D               	movf	___flmul@aexp,w
  4588  04B6  1903               	btfsc	3,2
  4589  04B7  2CB9               	goto	u2201
  4590  04B8  2CBA               	goto	u2200
  4591  04B9                     u2201:
  4592  04B9  2CBF               	goto	l2249
  4593  04BA                     u2200:
  4594  04BA                     l2247:
  4595  04BA  082E               	movf	___flmul@bexp,w
  4596  04BB  1D03               	btfss	3,2
  4597  04BC  2CBE               	goto	u2211
  4598  04BD  2CBF               	goto	u2210
  4599  04BE                     u2211:
  4600  04BE  2CC8               	goto	l2253
  4601  04BF                     u2210:
  4602  04BF                     l2249:
  4603  04BF  3000               	movlw	0
  4604  04C0  00A3               	movwf	?___flmul+3
  4605  04C1  3000               	movlw	0
  4606  04C2  00A2               	movwf	?___flmul+2
  4607  04C3  3000               	movlw	0
  4608  04C4  00A1               	movwf	?___flmul+1
  4609  04C5  3000               	movlw	0
  4610  04C6  00A0               	movwf	?___flmul
  4611  04C7  2FBB               	goto	l778
  4612  04C8                     l2253:
  4613  04C8  0820               	movf	___flmul@b,w
  4614  04C9  00F9               	movwf	??___flmul
  4615  04CA  0879               	movf	??___flmul,w
  4616  04CB  00F0               	movwf	__Umul8_16@multiplicand
  4617  04CC  0826               	movf	___flmul@a+2,w
  4618  04CD  120A  158A  20DC  120A  118A  	fcall	__Umul8_16
  4619  04D2  0871               	movf	?__Umul8_16+1,w
  4620  04D3  1283               	bcf	3,5	;RP0=0, select bank0
  4621  04D4  1303               	bcf	3,6	;RP1=0, select bank0
  4622  04D5  00B4               	movwf	___flmul@temp+1
  4623  04D6  0870               	movf	?__Umul8_16,w
  4624  04D7  00B3               	movwf	___flmul@temp
  4625  04D8                     l2255:
  4626  04D8  0833               	movf	___flmul@temp,w
  4627  04D9  00F9               	movwf	??___flmul
  4628  04DA  01FA               	clrf	??___flmul+1
  4629  04DB  01FB               	clrf	??___flmul+2
  4630  04DC  01FC               	clrf	??___flmul+3
  4631  04DD  087C               	movf	??___flmul+3,w
  4632  04DE  00AC               	movwf	___flmul@grs+3
  4633  04DF  087B               	movf	??___flmul+2,w
  4634  04E0  00AB               	movwf	___flmul@grs+2
  4635  04E1  087A               	movf	??___flmul+1,w
  4636  04E2  00AA               	movwf	___flmul@grs+1
  4637  04E3  0879               	movf	??___flmul,w
  4638  04E4  00A9               	movwf	___flmul@grs
  4639  04E5                     l2257:
  4640  04E5  0834               	movf	___flmul@temp+1,w
  4641  04E6  00F9               	movwf	??___flmul
  4642  04E7  01FA               	clrf	??___flmul+1
  4643  04E8  01FB               	clrf	??___flmul+2
  4644  04E9  01FC               	clrf	??___flmul+3
  4645  04EA  087C               	movf	??___flmul+3,w
  4646  04EB  00B2               	movwf	___flmul@prod+3
  4647  04EC  087B               	movf	??___flmul+2,w
  4648  04ED  00B1               	movwf	___flmul@prod+2
  4649  04EE  087A               	movf	??___flmul+1,w
  4650  04EF  00B0               	movwf	___flmul@prod+1
  4651  04F0  0879               	movf	??___flmul,w
  4652  04F1  00AF               	movwf	___flmul@prod
  4653  04F2  0821               	movf	___flmul@b+1,w
  4654  04F3  00F9               	movwf	??___flmul
  4655  04F4  0879               	movf	??___flmul,w
  4656  04F5  00F0               	movwf	__Umul8_16@multiplicand
  4657  04F6  0825               	movf	___flmul@a+1,w
  4658  04F7  120A  158A  20DC  120A  118A  	fcall	__Umul8_16
  4659  04FC  0871               	movf	?__Umul8_16+1,w
  4660  04FD  1283               	bcf	3,5	;RP0=0, select bank0
  4661  04FE  1303               	bcf	3,6	;RP1=0, select bank0
  4662  04FF  00B4               	movwf	___flmul@temp+1
  4663  0500  0870               	movf	?__Umul8_16,w
  4664  0501  00B3               	movwf	___flmul@temp
  4665  0502                     l2259:
  4666  0502  0833               	movf	___flmul@temp,w
  4667  0503  00F9               	movwf	??___flmul
  4668  0504  01FA               	clrf	??___flmul+1
  4669  0505  01FB               	clrf	??___flmul+2
  4670  0506  01FC               	clrf	??___flmul+3
  4671  0507  0879               	movf	??___flmul,w
  4672  0508  07A9               	addwf	___flmul@grs,f
  4673  0509  087A               	movf	??___flmul+1,w
  4674  050A  1103               	clrz
  4675  050B  1803               	skipnc
  4676  050C  3E01               	addlw	1
  4677  050D  1903               	skipnz
  4678  050E  2D10               	goto	u2221
  4679  050F  07AA               	addwf	___flmul@grs+1,f
  4680  0510                     u2221:
  4681  0510  087B               	movf	??___flmul+2,w
  4682  0511  1103               	clrz
  4683  0512  1803               	skipnc
  4684  0513  3E01               	addlw	1
  4685  0514  1903               	skipnz
  4686  0515  2D17               	goto	u2222
  4687  0516  07AB               	addwf	___flmul@grs+2,f
  4688  0517                     u2222:
  4689  0517  087C               	movf	??___flmul+3,w
  4690  0518  1103               	clrz
  4691  0519  1803               	skipnc
  4692  051A  3E01               	addlw	1
  4693  051B  1903               	skipnz
  4694  051C  2D1E               	goto	u2223
  4695  051D  07AC               	addwf	___flmul@grs+3,f
  4696  051E                     u2223:
  4697  051E                     l2261:
  4698  051E  0834               	movf	___flmul@temp+1,w
  4699  051F  00F9               	movwf	??___flmul
  4700  0520  01FA               	clrf	??___flmul+1
  4701  0521  01FB               	clrf	??___flmul+2
  4702  0522  01FC               	clrf	??___flmul+3
  4703  0523  0879               	movf	??___flmul,w
  4704  0524  07AF               	addwf	___flmul@prod,f
  4705  0525  087A               	movf	??___flmul+1,w
  4706  0526  1103               	clrz
  4707  0527  1803               	skipnc
  4708  0528  3E01               	addlw	1
  4709  0529  1903               	skipnz
  4710  052A  2D2C               	goto	u2231
  4711  052B  07B0               	addwf	___flmul@prod+1,f
  4712  052C                     u2231:
  4713  052C  087B               	movf	??___flmul+2,w
  4714  052D  1103               	clrz
  4715  052E  1803               	skipnc
  4716  052F  3E01               	addlw	1
  4717  0530  1903               	skipnz
  4718  0531  2D33               	goto	u2232
  4719  0532  07B1               	addwf	___flmul@prod+2,f
  4720  0533                     u2232:
  4721  0533  087C               	movf	??___flmul+3,w
  4722  0534  1103               	clrz
  4723  0535  1803               	skipnc
  4724  0536  3E01               	addlw	1
  4725  0537  1903               	skipnz
  4726  0538  2D3A               	goto	u2233
  4727  0539  07B2               	addwf	___flmul@prod+3,f
  4728  053A                     u2233:
  4729  053A  0822               	movf	___flmul@b+2,w
  4730  053B  00F9               	movwf	??___flmul
  4731  053C  0879               	movf	??___flmul,w
  4732  053D  00F0               	movwf	__Umul8_16@multiplicand
  4733  053E  0824               	movf	___flmul@a,w
  4734  053F  120A  158A  20DC  120A  118A  	fcall	__Umul8_16
  4735  0544  0871               	movf	?__Umul8_16+1,w
  4736  0545  1283               	bcf	3,5	;RP0=0, select bank0
  4737  0546  1303               	bcf	3,6	;RP1=0, select bank0
  4738  0547  00B4               	movwf	___flmul@temp+1
  4739  0548  0870               	movf	?__Umul8_16,w
  4740  0549  00B3               	movwf	___flmul@temp
  4741  054A                     l2263:
  4742  054A  0833               	movf	___flmul@temp,w
  4743  054B  00F9               	movwf	??___flmul
  4744  054C  01FA               	clrf	??___flmul+1
  4745  054D  01FB               	clrf	??___flmul+2
  4746  054E  01FC               	clrf	??___flmul+3
  4747  054F  0879               	movf	??___flmul,w
  4748  0550  07A9               	addwf	___flmul@grs,f
  4749  0551  087A               	movf	??___flmul+1,w
  4750  0552  1103               	clrz
  4751  0553  1803               	skipnc
  4752  0554  3E01               	addlw	1
  4753  0555  1903               	skipnz
  4754  0556  2D58               	goto	u2241
  4755  0557  07AA               	addwf	___flmul@grs+1,f
  4756  0558                     u2241:
  4757  0558  087B               	movf	??___flmul+2,w
  4758  0559  1103               	clrz
  4759  055A  1803               	skipnc
  4760  055B  3E01               	addlw	1
  4761  055C  1903               	skipnz
  4762  055D  2D5F               	goto	u2242
  4763  055E  07AB               	addwf	___flmul@grs+2,f
  4764  055F                     u2242:
  4765  055F  087C               	movf	??___flmul+3,w
  4766  0560  1103               	clrz
  4767  0561  1803               	skipnc
  4768  0562  3E01               	addlw	1
  4769  0563  1903               	skipnz
  4770  0564  2D66               	goto	u2243
  4771  0565  07AC               	addwf	___flmul@grs+3,f
  4772  0566                     u2243:
  4773  0566                     l2265:
  4774  0566  0834               	movf	___flmul@temp+1,w
  4775  0567  00F9               	movwf	??___flmul
  4776  0568  01FA               	clrf	??___flmul+1
  4777  0569  01FB               	clrf	??___flmul+2
  4778  056A  01FC               	clrf	??___flmul+3
  4779  056B  0879               	movf	??___flmul,w
  4780  056C  07AF               	addwf	___flmul@prod,f
  4781  056D  087A               	movf	??___flmul+1,w
  4782  056E  1103               	clrz
  4783  056F  1803               	skipnc
  4784  0570  3E01               	addlw	1
  4785  0571  1903               	skipnz
  4786  0572  2D74               	goto	u2251
  4787  0573  07B0               	addwf	___flmul@prod+1,f
  4788  0574                     u2251:
  4789  0574  087B               	movf	??___flmul+2,w
  4790  0575  1103               	clrz
  4791  0576  1803               	skipnc
  4792  0577  3E01               	addlw	1
  4793  0578  1903               	skipnz
  4794  0579  2D7B               	goto	u2252
  4795  057A  07B1               	addwf	___flmul@prod+2,f
  4796  057B                     u2252:
  4797  057B  087C               	movf	??___flmul+3,w
  4798  057C  1103               	clrz
  4799  057D  1803               	skipnc
  4800  057E  3E01               	addlw	1
  4801  057F  1903               	skipnz
  4802  0580  2D82               	goto	u2253
  4803  0581  07B2               	addwf	___flmul@prod+3,f
  4804  0582                     u2253:
  4805  0582                     l2267:
  4806  0582  3008               	movlw	8
  4807  0583  00F9               	movwf	??___flmul
  4808  0584                     u2265:
  4809  0584  1003               	clrc
  4810  0585  0DA9               	rlf	___flmul@grs,f
  4811  0586  0DAA               	rlf	___flmul@grs+1,f
  4812  0587  0DAB               	rlf	___flmul@grs+2,f
  4813  0588  0DAC               	rlf	___flmul@grs+3,f
  4814  0589  0BF9               	decfsz	??___flmul,f
  4815  058A  2D84               	goto	u2265
  4816  058B                     l2269:
  4817  058B  0821               	movf	___flmul@b+1,w
  4818  058C  00F9               	movwf	??___flmul
  4819  058D  0879               	movf	??___flmul,w
  4820  058E  00F0               	movwf	__Umul8_16@multiplicand
  4821  058F  0824               	movf	___flmul@a,w
  4822  0590  120A  158A  20DC  120A  118A  	fcall	__Umul8_16
  4823  0595  0871               	movf	?__Umul8_16+1,w
  4824  0596  1283               	bcf	3,5	;RP0=0, select bank0
  4825  0597  1303               	bcf	3,6	;RP1=0, select bank0
  4826  0598  00B4               	movwf	___flmul@temp+1
  4827  0599  0870               	movf	?__Umul8_16,w
  4828  059A  00B3               	movwf	___flmul@temp
  4829  059B                     l2271:
  4830  059B  0833               	movf	___flmul@temp,w
  4831  059C  00F9               	movwf	??___flmul
  4832  059D  0834               	movf	___flmul@temp+1,w
  4833  059E  00FA               	movwf	??___flmul+1
  4834  059F  01FB               	clrf	??___flmul+2
  4835  05A0  01FC               	clrf	??___flmul+3
  4836  05A1  0879               	movf	??___flmul,w
  4837  05A2  07A9               	addwf	___flmul@grs,f
  4838  05A3  087A               	movf	??___flmul+1,w
  4839  05A4  1103               	clrz
  4840  05A5  1803               	skipnc
  4841  05A6  3E01               	addlw	1
  4842  05A7  1903               	skipnz
  4843  05A8  2DAA               	goto	u2271
  4844  05A9  07AA               	addwf	___flmul@grs+1,f
  4845  05AA                     u2271:
  4846  05AA  087B               	movf	??___flmul+2,w
  4847  05AB  1103               	clrz
  4848  05AC  1803               	skipnc
  4849  05AD  3E01               	addlw	1
  4850  05AE  1903               	skipnz
  4851  05AF  2DB1               	goto	u2272
  4852  05B0  07AB               	addwf	___flmul@grs+2,f
  4853  05B1                     u2272:
  4854  05B1  087C               	movf	??___flmul+3,w
  4855  05B2  1103               	clrz
  4856  05B3  1803               	skipnc
  4857  05B4  3E01               	addlw	1
  4858  05B5  1903               	skipnz
  4859  05B6  2DB8               	goto	u2273
  4860  05B7  07AC               	addwf	___flmul@grs+3,f
  4861  05B8                     u2273:
  4862  05B8                     l2273:
  4863  05B8  0820               	movf	___flmul@b,w
  4864  05B9  00F9               	movwf	??___flmul
  4865  05BA  0879               	movf	??___flmul,w
  4866  05BB  00F0               	movwf	__Umul8_16@multiplicand
  4867  05BC  0825               	movf	___flmul@a+1,w
  4868  05BD  120A  158A  20DC  120A  118A  	fcall	__Umul8_16
  4869  05C2  0871               	movf	?__Umul8_16+1,w
  4870  05C3  1283               	bcf	3,5	;RP0=0, select bank0
  4871  05C4  1303               	bcf	3,6	;RP1=0, select bank0
  4872  05C5  00B4               	movwf	___flmul@temp+1
  4873  05C6  0870               	movf	?__Umul8_16,w
  4874  05C7  00B3               	movwf	___flmul@temp
  4875  05C8                     l2275:
  4876  05C8  0833               	movf	___flmul@temp,w
  4877  05C9  00F9               	movwf	??___flmul
  4878  05CA  0834               	movf	___flmul@temp+1,w
  4879  05CB  00FA               	movwf	??___flmul+1
  4880  05CC  01FB               	clrf	??___flmul+2
  4881  05CD  01FC               	clrf	??___flmul+3
  4882  05CE  0879               	movf	??___flmul,w
  4883  05CF  07A9               	addwf	___flmul@grs,f
  4884  05D0  087A               	movf	??___flmul+1,w
  4885  05D1  1103               	clrz
  4886  05D2  1803               	skipnc
  4887  05D3  3E01               	addlw	1
  4888  05D4  1903               	skipnz
  4889  05D5  2DD7               	goto	u2281
  4890  05D6  07AA               	addwf	___flmul@grs+1,f
  4891  05D7                     u2281:
  4892  05D7  087B               	movf	??___flmul+2,w
  4893  05D8  1103               	clrz
  4894  05D9  1803               	skipnc
  4895  05DA  3E01               	addlw	1
  4896  05DB  1903               	skipnz
  4897  05DC  2DDE               	goto	u2282
  4898  05DD  07AB               	addwf	___flmul@grs+2,f
  4899  05DE                     u2282:
  4900  05DE  087C               	movf	??___flmul+3,w
  4901  05DF  1103               	clrz
  4902  05E0  1803               	skipnc
  4903  05E1  3E01               	addlw	1
  4904  05E2  1903               	skipnz
  4905  05E3  2DE5               	goto	u2283
  4906  05E4  07AC               	addwf	___flmul@grs+3,f
  4907  05E5                     u2283:
  4908  05E5                     l2277:
  4909  05E5  3008               	movlw	8
  4910  05E6  00F9               	movwf	??___flmul
  4911  05E7                     u2295:
  4912  05E7  1003               	clrc
  4913  05E8  0DA9               	rlf	___flmul@grs,f
  4914  05E9  0DAA               	rlf	___flmul@grs+1,f
  4915  05EA  0DAB               	rlf	___flmul@grs+2,f
  4916  05EB  0DAC               	rlf	___flmul@grs+3,f
  4917  05EC  0BF9               	decfsz	??___flmul,f
  4918  05ED  2DE7               	goto	u2295
  4919  05EE  0820               	movf	___flmul@b,w
  4920  05EF  00F9               	movwf	??___flmul
  4921  05F0  0879               	movf	??___flmul,w
  4922  05F1  00F0               	movwf	__Umul8_16@multiplicand
  4923  05F2  0824               	movf	___flmul@a,w
  4924  05F3  120A  158A  20DC  120A  118A  	fcall	__Umul8_16
  4925  05F8  0871               	movf	?__Umul8_16+1,w
  4926  05F9  1283               	bcf	3,5	;RP0=0, select bank0
  4927  05FA  1303               	bcf	3,6	;RP1=0, select bank0
  4928  05FB  00B4               	movwf	___flmul@temp+1
  4929  05FC  0870               	movf	?__Umul8_16,w
  4930  05FD  00B3               	movwf	___flmul@temp
  4931  05FE                     l2279:
  4932  05FE  0833               	movf	___flmul@temp,w
  4933  05FF  00F9               	movwf	??___flmul
  4934  0600  0834               	movf	___flmul@temp+1,w
  4935  0601  00FA               	movwf	??___flmul+1
  4936  0602  01FB               	clrf	??___flmul+2
  4937  0603  01FC               	clrf	??___flmul+3
  4938  0604  0879               	movf	??___flmul,w
  4939  0605  07A9               	addwf	___flmul@grs,f
  4940  0606  087A               	movf	??___flmul+1,w
  4941  0607  1103               	clrz
  4942  0608  1803               	skipnc
  4943  0609  3E01               	addlw	1
  4944  060A  1903               	skipnz
  4945  060B  2E0D               	goto	u2301
  4946  060C  07AA               	addwf	___flmul@grs+1,f
  4947  060D                     u2301:
  4948  060D  087B               	movf	??___flmul+2,w
  4949  060E  1103               	clrz
  4950  060F  1803               	skipnc
  4951  0610  3E01               	addlw	1
  4952  0611  1903               	skipnz
  4953  0612  2E14               	goto	u2302
  4954  0613  07AB               	addwf	___flmul@grs+2,f
  4955  0614                     u2302:
  4956  0614  087C               	movf	??___flmul+3,w
  4957  0615  1103               	clrz
  4958  0616  1803               	skipnc
  4959  0617  3E01               	addlw	1
  4960  0618  1903               	skipnz
  4961  0619  2E1B               	goto	u2303
  4962  061A  07AC               	addwf	___flmul@grs+3,f
  4963  061B                     u2303:
  4964  061B                     l2281:
  4965  061B  0821               	movf	___flmul@b+1,w
  4966  061C  00F9               	movwf	??___flmul
  4967  061D  0879               	movf	??___flmul,w
  4968  061E  00F0               	movwf	__Umul8_16@multiplicand
  4969  061F  0826               	movf	___flmul@a+2,w
  4970  0620  120A  158A  20DC  120A  118A  	fcall	__Umul8_16
  4971  0625  0871               	movf	?__Umul8_16+1,w
  4972  0626  1283               	bcf	3,5	;RP0=0, select bank0
  4973  0627  1303               	bcf	3,6	;RP1=0, select bank0
  4974  0628  00B4               	movwf	___flmul@temp+1
  4975  0629  0870               	movf	?__Umul8_16,w
  4976  062A  00B3               	movwf	___flmul@temp
  4977  062B  0833               	movf	___flmul@temp,w
  4978  062C  00F9               	movwf	??___flmul
  4979  062D  0834               	movf	___flmul@temp+1,w
  4980  062E  00FA               	movwf	??___flmul+1
  4981  062F  01FB               	clrf	??___flmul+2
  4982  0630  01FC               	clrf	??___flmul+3
  4983  0631  0879               	movf	??___flmul,w
  4984  0632  07AF               	addwf	___flmul@prod,f
  4985  0633  087A               	movf	??___flmul+1,w
  4986  0634  1103               	clrz
  4987  0635  1803               	skipnc
  4988  0636  3E01               	addlw	1
  4989  0637  1903               	skipnz
  4990  0638  2E3A               	goto	u2311
  4991  0639  07B0               	addwf	___flmul@prod+1,f
  4992  063A                     u2311:
  4993  063A  087B               	movf	??___flmul+2,w
  4994  063B  1103               	clrz
  4995  063C  1803               	skipnc
  4996  063D  3E01               	addlw	1
  4997  063E  1903               	skipnz
  4998  063F  2E41               	goto	u2312
  4999  0640  07B1               	addwf	___flmul@prod+2,f
  5000  0641                     u2312:
  5001  0641  087C               	movf	??___flmul+3,w
  5002  0642  1103               	clrz
  5003  0643  1803               	skipnc
  5004  0644  3E01               	addlw	1
  5005  0645  1903               	skipnz
  5006  0646  2E48               	goto	u2313
  5007  0647  07B2               	addwf	___flmul@prod+3,f
  5008  0648                     u2313:
  5009  0648                     l2283:
  5010  0648  0822               	movf	___flmul@b+2,w
  5011  0649  00F9               	movwf	??___flmul
  5012  064A  0879               	movf	??___flmul,w
  5013  064B  00F0               	movwf	__Umul8_16@multiplicand
  5014  064C  0825               	movf	___flmul@a+1,w
  5015  064D  120A  158A  20DC  120A  118A  	fcall	__Umul8_16
  5016  0652  0871               	movf	?__Umul8_16+1,w
  5017  0653  1283               	bcf	3,5	;RP0=0, select bank0
  5018  0654  1303               	bcf	3,6	;RP1=0, select bank0
  5019  0655  00B4               	movwf	___flmul@temp+1
  5020  0656  0870               	movf	?__Umul8_16,w
  5021  0657  00B3               	movwf	___flmul@temp
  5022  0658                     l2285:
  5023  0658  0833               	movf	___flmul@temp,w
  5024  0659  00F9               	movwf	??___flmul
  5025  065A  0834               	movf	___flmul@temp+1,w
  5026  065B  00FA               	movwf	??___flmul+1
  5027  065C  01FB               	clrf	??___flmul+2
  5028  065D  01FC               	clrf	??___flmul+3
  5029  065E  0879               	movf	??___flmul,w
  5030  065F  07AF               	addwf	___flmul@prod,f
  5031  0660  087A               	movf	??___flmul+1,w
  5032  0661  1103               	clrz
  5033  0662  1803               	skipnc
  5034  0663  3E01               	addlw	1
  5035  0664  1903               	skipnz
  5036  0665  2E67               	goto	u2321
  5037  0666  07B0               	addwf	___flmul@prod+1,f
  5038  0667                     u2321:
  5039  0667  087B               	movf	??___flmul+2,w
  5040  0668  1103               	clrz
  5041  0669  1803               	skipnc
  5042  066A  3E01               	addlw	1
  5043  066B  1903               	skipnz
  5044  066C  2E6E               	goto	u2322
  5045  066D  07B1               	addwf	___flmul@prod+2,f
  5046  066E                     u2322:
  5047  066E  087C               	movf	??___flmul+3,w
  5048  066F  1103               	clrz
  5049  0670  1803               	skipnc
  5050  0671  3E01               	addlw	1
  5051  0672  1903               	skipnz
  5052  0673  2E75               	goto	u2323
  5053  0674  07B2               	addwf	___flmul@prod+3,f
  5054  0675                     u2323:
  5055  0675  0822               	movf	___flmul@b+2,w
  5056  0676  00F9               	movwf	??___flmul
  5057  0677  0879               	movf	??___flmul,w
  5058  0678  00F0               	movwf	__Umul8_16@multiplicand
  5059  0679  0826               	movf	___flmul@a+2,w
  5060  067A  120A  158A  20DC  120A  118A  	fcall	__Umul8_16
  5061  067F  0871               	movf	?__Umul8_16+1,w
  5062  0680  1283               	bcf	3,5	;RP0=0, select bank0
  5063  0681  1303               	bcf	3,6	;RP1=0, select bank0
  5064  0682  00B4               	movwf	___flmul@temp+1
  5065  0683  0870               	movf	?__Umul8_16,w
  5066  0684  00B3               	movwf	___flmul@temp
  5067  0685                     l2287:
  5068  0685  0833               	movf	___flmul@temp,w
  5069  0686  00F9               	movwf	??___flmul
  5070  0687  0834               	movf	___flmul@temp+1,w
  5071  0688  00FA               	movwf	??___flmul+1
  5072  0689  01FB               	clrf	??___flmul+2
  5073  068A  01FC               	clrf	??___flmul+3
  5074  068B  3008               	movlw	8
  5075  068C                     u2335:
  5076  068C  1003               	clrc
  5077  068D  0DF9               	rlf	??___flmul,f
  5078  068E  0DFA               	rlf	??___flmul+1,f
  5079  068F  0DFB               	rlf	??___flmul+2,f
  5080  0690  0DFC               	rlf	??___flmul+3,f
  5081  0691                     u2330:
  5082  0691  3EFF               	addlw	-1
  5083  0692  1D03               	skipz
  5084  0693  2E8C               	goto	u2335
  5085  0694  0879               	movf	??___flmul,w
  5086  0695  07AF               	addwf	___flmul@prod,f
  5087  0696  087A               	movf	??___flmul+1,w
  5088  0697  1103               	clrz
  5089  0698  1803               	skipnc
  5090  0699  3E01               	addlw	1
  5091  069A  1903               	skipnz
  5092  069B  2E9D               	goto	u2341
  5093  069C  07B0               	addwf	___flmul@prod+1,f
  5094  069D                     u2341:
  5095  069D  087B               	movf	??___flmul+2,w
  5096  069E  1103               	clrz
  5097  069F  1803               	skipnc
  5098  06A0  3E01               	addlw	1
  5099  06A1  1903               	skipnz
  5100  06A2  2EA4               	goto	u2342
  5101  06A3  07B1               	addwf	___flmul@prod+2,f
  5102  06A4                     u2342:
  5103  06A4  087C               	movf	??___flmul+3,w
  5104  06A5  1103               	clrz
  5105  06A6  1803               	skipnc
  5106  06A7  3E01               	addlw	1
  5107  06A8  1903               	skipnz
  5108  06A9  2EAB               	goto	u2343
  5109  06AA  07B2               	addwf	___flmul@prod+3,f
  5110  06AB                     u2343:
  5111  06AB                     l2289:
  5112  06AB  0829               	movf	___flmul@grs,w
  5113  06AC  00F9               	movwf	??___flmul
  5114  06AD  082A               	movf	___flmul@grs+1,w
  5115  06AE  00FA               	movwf	??___flmul+1
  5116  06AF  082B               	movf	___flmul@grs+2,w
  5117  06B0  00FB               	movwf	??___flmul+2
  5118  06B1  082C               	movf	___flmul@grs+3,w
  5119  06B2  00FC               	movwf	??___flmul+3
  5120  06B3  3018               	movlw	24
  5121  06B4                     u2355:
  5122  06B4  1003               	clrc
  5123  06B5  0CFC               	rrf	??___flmul+3,f
  5124  06B6  0CFB               	rrf	??___flmul+2,f
  5125  06B7  0CFA               	rrf	??___flmul+1,f
  5126  06B8  0CF9               	rrf	??___flmul,f
  5127  06B9                     u2350:
  5128  06B9  3EFF               	addlw	-1
  5129  06BA  1D03               	skipz
  5130  06BB  2EB4               	goto	u2355
  5131  06BC  0879               	movf	??___flmul,w
  5132  06BD  07AF               	addwf	___flmul@prod,f
  5133  06BE  087A               	movf	??___flmul+1,w
  5134  06BF  1103               	clrz
  5135  06C0  1803               	skipnc
  5136  06C1  3E01               	addlw	1
  5137  06C2  1903               	skipnz
  5138  06C3  2EC5               	goto	u2361
  5139  06C4  07B0               	addwf	___flmul@prod+1,f
  5140  06C5                     u2361:
  5141  06C5  087B               	movf	??___flmul+2,w
  5142  06C6  1103               	clrz
  5143  06C7  1803               	skipnc
  5144  06C8  3E01               	addlw	1
  5145  06C9  1903               	skipnz
  5146  06CA  2ECC               	goto	u2362
  5147  06CB  07B1               	addwf	___flmul@prod+2,f
  5148  06CC                     u2362:
  5149  06CC  087C               	movf	??___flmul+3,w
  5150  06CD  1103               	clrz
  5151  06CE  1803               	skipnc
  5152  06CF  3E01               	addlw	1
  5153  06D0  1903               	skipnz
  5154  06D1  2ED3               	goto	u2363
  5155  06D2  07B2               	addwf	___flmul@prod+3,f
  5156  06D3                     u2363:
  5157  06D3                     l2291:
  5158  06D3  3008               	movlw	8
  5159  06D4  00F9               	movwf	??___flmul
  5160  06D5                     u2375:
  5161  06D5  1003               	clrc
  5162  06D6  0DA9               	rlf	___flmul@grs,f
  5163  06D7  0DAA               	rlf	___flmul@grs+1,f
  5164  06D8  0DAB               	rlf	___flmul@grs+2,f
  5165  06D9  0DAC               	rlf	___flmul@grs+3,f
  5166  06DA  0BF9               	decfsz	??___flmul,f
  5167  06DB  2ED5               	goto	u2375
  5168  06DC                     l2293:
  5169  06DC  082E               	movf	___flmul@bexp,w
  5170  06DD  072D               	addwf	___flmul@aexp,w
  5171  06DE  00F9               	movwf	??___flmul
  5172  06DF  01FA               	clrf	??___flmul+1
  5173  06E0  0DFA               	rlf	??___flmul+1,f
  5174  06E1  0879               	movf	??___flmul,w
  5175  06E2  3E82               	addlw	130
  5176  06E3  00B3               	movwf	___flmul@temp
  5177  06E4  087A               	movf	??___flmul+1,w
  5178  06E5  1803               	skipnc
  5179  06E6  3E01               	addlw	1
  5180  06E7  3EFF               	addlw	255
  5181  06E8  00B4               	movwf	___flmul@temp+1
  5182  06E9  2F07               	goto	l2305
  5183  06EA                     l2295:
  5184  06EA  3001               	movlw	1
  5185  06EB  00F9               	movwf	??___flmul
  5186  06EC                     u2385:
  5187  06EC  1003               	clrc
  5188  06ED  0DAF               	rlf	___flmul@prod,f
  5189  06EE  0DB0               	rlf	___flmul@prod+1,f
  5190  06EF  0DB1               	rlf	___flmul@prod+2,f
  5191  06F0  0DB2               	rlf	___flmul@prod+3,f
  5192  06F1  0BF9               	decfsz	??___flmul,f
  5193  06F2  2EEC               	goto	u2385
  5194  06F3                     l2297:
  5195  06F3  1FAC               	btfss	___flmul@grs+3,7
  5196  06F4  2EF6               	goto	u2391
  5197  06F5  2EF7               	goto	u2390
  5198  06F6                     u2391:
  5199  06F6  2EF8               	goto	l2301
  5200  06F7                     u2390:
  5201  06F7                     l2299:
  5202  06F7  142F               	bsf	___flmul@prod,0
  5203  06F8                     l2301:
  5204  06F8  3001               	movlw	1
  5205  06F9  00F9               	movwf	??___flmul
  5206  06FA                     u2405:
  5207  06FA  1003               	clrc
  5208  06FB  0DA9               	rlf	___flmul@grs,f
  5209  06FC  0DAA               	rlf	___flmul@grs+1,f
  5210  06FD  0DAB               	rlf	___flmul@grs+2,f
  5211  06FE  0DAC               	rlf	___flmul@grs+3,f
  5212  06FF  0BF9               	decfsz	??___flmul,f
  5213  0700  2EFA               	goto	u2405
  5214  0701                     l2303:
  5215  0701  30FF               	movlw	255
  5216  0702  07B3               	addwf	___flmul@temp,f
  5217  0703  1803               	skipnc
  5218  0704  0AB4               	incf	___flmul@temp+1,f
  5219  0705  30FF               	movlw	255
  5220  0706  07B4               	addwf	___flmul@temp+1,f
  5221  0707                     l2305:
  5222  0707  1FB1               	btfss	___flmul@prod+2,7
  5223  0708  2F0A               	goto	u2411
  5224  0709  2F0B               	goto	u2410
  5225  070A                     u2411:
  5226  070A  2EEA               	goto	l2295
  5227  070B                     u2410:
  5228  070B                     l2307:
  5229  070B  01AD               	clrf	___flmul@aexp
  5230  070C                     l2309:
  5231  070C  1FAC               	btfss	___flmul@grs+3,7
  5232  070D  2F0F               	goto	u2421
  5233  070E  2F10               	goto	u2420
  5234  070F                     u2421:
  5235  070F  2F2C               	goto	l2317
  5236  0710                     u2420:
  5237  0710                     l2311:
  5238  0710  30FF               	movlw	255
  5239  0711  0529               	andwf	___flmul@grs,w
  5240  0712  00F9               	movwf	??___flmul
  5241  0713  30FF               	movlw	255
  5242  0714  052A               	andwf	___flmul@grs+1,w
  5243  0715  00FA               	movwf	??___flmul+1
  5244  0716  30FF               	movlw	255
  5245  0717  052B               	andwf	___flmul@grs+2,w
  5246  0718  00FB               	movwf	??___flmul+2
  5247  0719  307F               	movlw	127
  5248  071A  052C               	andwf	___flmul@grs+3,w
  5249  071B  00FC               	movwf	??___flmul+3
  5250  071C  087C               	movf	??___flmul+3,w
  5251  071D  047B               	iorwf	??___flmul+2,w
  5252  071E  047A               	iorwf	??___flmul+1,w
  5253  071F  0479               	iorwf	??___flmul,w
  5254  0720  1903               	skipnz
  5255  0721  2F23               	goto	u2431
  5256  0722  2F24               	goto	u2430
  5257  0723                     u2431:
  5258  0723  2F27               	goto	l784
  5259  0724                     u2430:
  5260  0724                     l2313:
  5261  0724  01AD               	clrf	___flmul@aexp
  5262  0725  0AAD               	incf	___flmul@aexp,f
  5263  0726  2F2C               	goto	l2317
  5264  0727                     l784:
  5265  0727  1C2F               	btfss	___flmul@prod,0
  5266  0728  2F2A               	goto	u2441
  5267  0729  2F2B               	goto	u2440
  5268  072A                     u2441:
  5269  072A  2F2C               	goto	l2317
  5270  072B                     u2440:
  5271  072B  2F24               	goto	l2313
  5272  072C                     l2317:
  5273  072C  082D               	movf	___flmul@aexp,w
  5274  072D  1903               	btfsc	3,2
  5275  072E  2F30               	goto	u2451
  5276  072F  2F31               	goto	u2450
  5277  0730                     u2451:
  5278  0730  2F62               	goto	l2327
  5279  0731                     u2450:
  5280  0731                     l2319:
  5281  0731  3001               	movlw	1
  5282  0732  07AF               	addwf	___flmul@prod,f
  5283  0733  3000               	movlw	0
  5284  0734  1803               	skipnc
  5285  0735  3001               	movlw	1
  5286  0736  07B0               	addwf	___flmul@prod+1,f
  5287  0737  3000               	movlw	0
  5288  0738  1803               	skipnc
  5289  0739  3001               	movlw	1
  5290  073A  07B1               	addwf	___flmul@prod+2,f
  5291  073B  3000               	movlw	0
  5292  073C  1803               	skipnc
  5293  073D  3001               	movlw	1
  5294  073E  07B2               	addwf	___flmul@prod+3,f
  5295  073F                     l2321:
  5296  073F  1C32               	btfss	___flmul@prod+3,0
  5297  0740  2F42               	goto	u2461
  5298  0741  2F43               	goto	u2460
  5299  0742                     u2461:
  5300  0742  2F62               	goto	l2327
  5301  0743                     u2460:
  5302  0743                     l2323:
  5303  0743  082F               	movf	___flmul@prod,w
  5304  0744  00F9               	movwf	??___flmul
  5305  0745  0830               	movf	___flmul@prod+1,w
  5306  0746  00FA               	movwf	??___flmul+1
  5307  0747  0831               	movf	___flmul@prod+2,w
  5308  0748  00FB               	movwf	??___flmul+2
  5309  0749  0832               	movf	___flmul@prod+3,w
  5310  074A  00FC               	movwf	??___flmul+3
  5311  074B  3001               	movlw	1
  5312  074C  00FD               	movwf	??___flmul+4
  5313  074D                     u2475:
  5314  074D  0D7C               	rlf	??___flmul+3,w
  5315  074E  0CFC               	rrf	??___flmul+3,f
  5316  074F  0CFB               	rrf	??___flmul+2,f
  5317  0750  0CFA               	rrf	??___flmul+1,f
  5318  0751  0CF9               	rrf	??___flmul,f
  5319  0752                     u2470:
  5320  0752  0BFD               	decfsz	??___flmul+4,f
  5321  0753  2F4D               	goto	u2475
  5322  0754  087C               	movf	??___flmul+3,w
  5323  0755  00B2               	movwf	___flmul@prod+3
  5324  0756  087B               	movf	??___flmul+2,w
  5325  0757  00B1               	movwf	___flmul@prod+2
  5326  0758  087A               	movf	??___flmul+1,w
  5327  0759  00B0               	movwf	___flmul@prod+1
  5328  075A  0879               	movf	??___flmul,w
  5329  075B  00AF               	movwf	___flmul@prod
  5330  075C                     l2325:
  5331  075C  3001               	movlw	1
  5332  075D  07B3               	addwf	___flmul@temp,f
  5333  075E  1803               	skipnc
  5334  075F  0AB4               	incf	___flmul@temp+1,f
  5335  0760  3000               	movlw	0
  5336  0761  07B4               	addwf	___flmul@temp+1,f
  5337  0762                     l2327:
  5338  0762  0834               	movf	___flmul@temp+1,w
  5339  0763  3A80               	xorlw	128
  5340  0764  00FF               	movwf	btemp+1
  5341  0765  3080               	movlw	128
  5342  0766  027F               	subwf	btemp+1,w
  5343  0767  1D03               	skipz
  5344  0768  2F6B               	goto	u2485
  5345  0769  30FF               	movlw	255
  5346  076A  0233               	subwf	___flmul@temp,w
  5347  076B                     u2485:
  5348  076B  1C03               	skipc
  5349  076C  2F6E               	goto	u2481
  5350  076D  2F6F               	goto	u2480
  5351  076E                     u2481:
  5352  076E  2F7A               	goto	l2331
  5353  076F                     u2480:
  5354  076F                     l2329:
  5355  076F  307F               	movlw	127
  5356  0770  1283               	bcf	3,5	;RP0=0, select bank0
  5357  0771  1303               	bcf	3,6	;RP1=0, select bank0
  5358  0772  00B2               	movwf	___flmul@prod+3
  5359  0773  3080               	movlw	128
  5360  0774  00B1               	movwf	___flmul@prod+2
  5361  0775  3000               	movlw	0
  5362  0776  00B0               	movwf	___flmul@prod+1
  5363  0777  3000               	movlw	0
  5364  0778  00AF               	movwf	___flmul@prod
  5365  0779  2FAF               	goto	l790
  5366  077A                     l2331:
  5367  077A  1283               	bcf	3,5	;RP0=0, select bank0
  5368  077B  1303               	bcf	3,6	;RP1=0, select bank0
  5369  077C  0834               	movf	___flmul@temp+1,w
  5370  077D  3A80               	xorlw	128
  5371  077E  00FF               	movwf	btemp+1
  5372  077F  3080               	movlw	128
  5373  0780  027F               	subwf	btemp+1,w
  5374  0781  1D03               	skipz
  5375  0782  2F85               	goto	u2495
  5376  0783  3001               	movlw	1
  5377  0784  0233               	subwf	___flmul@temp,w
  5378  0785                     u2495:
  5379  0785  1803               	skipnc
  5380  0786  2F88               	goto	u2491
  5381  0787  2F89               	goto	u2490
  5382  0788                     u2491:
  5383  0788  2F95               	goto	l2337
  5384  0789                     u2490:
  5385  0789                     l2333:
  5386  0789  3000               	movlw	0
  5387  078A  1283               	bcf	3,5	;RP0=0, select bank0
  5388  078B  1303               	bcf	3,6	;RP1=0, select bank0
  5389  078C  00B2               	movwf	___flmul@prod+3
  5390  078D  3000               	movlw	0
  5391  078E  00B1               	movwf	___flmul@prod+2
  5392  078F  3000               	movlw	0
  5393  0790  00B0               	movwf	___flmul@prod+1
  5394  0791  3000               	movlw	0
  5395  0792  00AF               	movwf	___flmul@prod
  5396  0793                     l2335:
  5397  0793  01A8               	clrf	___flmul@sign
  5398  0794  2FAF               	goto	l790
  5399  0795                     l2337:
  5400  0795  1283               	bcf	3,5	;RP0=0, select bank0
  5401  0796  1303               	bcf	3,6	;RP1=0, select bank0
  5402  0797  0833               	movf	___flmul@temp,w
  5403  0798  00F9               	movwf	??___flmul
  5404  0799  0879               	movf	??___flmul,w
  5405  079A  00AE               	movwf	___flmul@bexp
  5406  079B  30FF               	movlw	255
  5407  079C  05AF               	andwf	___flmul@prod,f
  5408  079D  30FF               	movlw	255
  5409  079E  05B0               	andwf	___flmul@prod+1,f
  5410  079F  307F               	movlw	127
  5411  07A0  05B1               	andwf	___flmul@prod+2,f
  5412  07A1  3000               	movlw	0
  5413  07A2  05B2               	andwf	___flmul@prod+3,f
  5414  07A3                     l2339:
  5415  07A3  1C2E               	btfss	___flmul@bexp,0
  5416  07A4  2FA6               	goto	u2501
  5417  07A5  2FA7               	goto	u2500
  5418  07A6                     u2501:
  5419  07A6  2FA8               	goto	l2343
  5420  07A7                     u2500:
  5421  07A7                     l2341:
  5422  07A7  17B1               	bsf	___flmul@prod+2,7
  5423  07A8                     l2343:
  5424  07A8  082E               	movf	___flmul@bexp,w
  5425  07A9  00F9               	movwf	??___flmul
  5426  07AA  1003               	clrc
  5427  07AB  0C79               	rrf	??___flmul,w
  5428  07AC  00FA               	movwf	??___flmul+1
  5429  07AD  087A               	movf	??___flmul+1,w
  5430  07AE  00B2               	movwf	___flmul@prod+3
  5431  07AF                     l790:
  5432  07AF  0828               	movf	___flmul@sign,w
  5433  07B0  00F9               	movwf	??___flmul
  5434  07B1  0879               	movf	??___flmul,w
  5435  07B2  04B2               	iorwf	___flmul@prod+3,f
  5436  07B3                     l2345:
  5437  07B3  0832               	movf	___flmul@prod+3,w
  5438  07B4  00A3               	movwf	?___flmul+3
  5439  07B5  0831               	movf	___flmul@prod+2,w
  5440  07B6  00A2               	movwf	?___flmul+2
  5441  07B7  0830               	movf	___flmul@prod+1,w
  5442  07B8  00A1               	movwf	?___flmul+1
  5443  07B9  082F               	movf	___flmul@prod,w
  5444  07BA  00A0               	movwf	?___flmul
  5445  07BB                     l778:
  5446  07BB  0008               	return
  5447  07BC                     __end_of___flmul:
  5448                           
  5449                           	psect	text11
  5450  08DC                     __ptext11:	
  5451 ;; *************** function __Umul8_16 *****************
  5452 ;; Defined at:
  5453 ;;		line 4 in file "C:\Program Files\Microchip\xc8\v2.32\pic\sources\c90\common\Umul8_16.c"
  5454 ;; Parameters:    Size  Location     Type
  5455 ;;  multiplier      1    wreg     unsigned char 
  5456 ;;  multiplicand    1    0[COMMON] unsigned char 
  5457 ;; Auto vars:     Size  Location     Type
  5458 ;;  multiplier      1    8[COMMON] unsigned char 
  5459 ;;  word_mpld       2    6[COMMON] unsigned int 
  5460 ;;  product         2    4[COMMON] unsigned int 
  5461 ;; Return value:  Size  Location     Type
  5462 ;;                  2    0[COMMON] unsigned int 
  5463 ;; Registers used:
  5464 ;;		wreg, status,2, status,0
  5465 ;; Tracked objects:
  5466 ;;		On entry : 0/0
  5467 ;;		On exit  : 0/0
  5468 ;;		Unchanged: 0/0
  5469 ;; Data sizes:     COMMON   BANK0   BANK1   BANK3   BANK2
  5470 ;;      Params:         2       0       0       0       0
  5471 ;;      Locals:         5       0       0       0       0
  5472 ;;      Temps:          2       0       0       0       0
  5473 ;;      Totals:         9       0       0       0       0
  5474 ;;Total ram usage:        9 bytes
  5475 ;; Hardware stack levels used: 1
  5476 ;; This function calls:
  5477 ;;		Nothing
  5478 ;; This function is called by:
  5479 ;;		___flmul
  5480 ;; This function uses a non-reentrant model
  5481 ;;
  5482                           
  5483                           
  5484                           ;psect for function __Umul8_16
  5485  08DC                     __Umul8_16:
  5486                           
  5487                           ;incstack = 0
  5488                           ; Regs used in __Umul8_16: [wreg+status,2+status,0]
  5489                           ;__Umul8_16@multiplier stored from wreg
  5490  08DC  00F8               	movwf	__Umul8_16@multiplier
  5491  08DD                     l2145:
  5492  08DD  01F4               	clrf	__Umul8_16@product
  5493  08DE  01F5               	clrf	__Umul8_16@product+1
  5494  08DF                     l2147:
  5495  08DF  0870               	movf	__Umul8_16@multiplicand,w
  5496  08E0  00F2               	movwf	??__Umul8_16
  5497  08E1  01F3               	clrf	??__Umul8_16+1
  5498  08E2  0872               	movf	??__Umul8_16,w
  5499  08E3  00F6               	movwf	__Umul8_16@word_mpld
  5500  08E4  0873               	movf	??__Umul8_16+1,w
  5501  08E5  00F7               	movwf	__Umul8_16@word_mpld+1
  5502  08E6                     l2149:
  5503  08E6  1C78               	btfss	__Umul8_16@multiplier,0
  5504  08E7  28E9               	goto	u2041
  5505  08E8  28EA               	goto	u2040
  5506  08E9                     u2041:
  5507  08E9  28F0               	goto	l797
  5508  08EA                     u2040:
  5509  08EA                     l2151:
  5510  08EA  0876               	movf	__Umul8_16@word_mpld,w
  5511  08EB  07F4               	addwf	__Umul8_16@product,f
  5512  08EC  1803               	skipnc
  5513  08ED  0AF5               	incf	__Umul8_16@product+1,f
  5514  08EE  0877               	movf	__Umul8_16@word_mpld+1,w
  5515  08EF  07F5               	addwf	__Umul8_16@product+1,f
  5516  08F0                     l797:
  5517  08F0  3001               	movlw	1
  5518  08F1                     u2055:
  5519  08F1  1003               	clrc
  5520  08F2  0DF6               	rlf	__Umul8_16@word_mpld,f
  5521  08F3  0DF7               	rlf	__Umul8_16@word_mpld+1,f
  5522  08F4  3EFF               	addlw	-1
  5523  08F5  1D03               	skipz
  5524  08F6  28F1               	goto	u2055
  5525  08F7  1003               	clrc
  5526  08F8  0CF8               	rrf	__Umul8_16@multiplier,f
  5527  08F9                     l2153:
  5528  08F9  0878               	movf	__Umul8_16@multiplier,w
  5529  08FA  1D03               	btfss	3,2
  5530  08FB  28FD               	goto	u2061
  5531  08FC  28FE               	goto	u2060
  5532  08FD                     u2061:
  5533  08FD  28E6               	goto	l2149
  5534  08FE                     u2060:
  5535  08FE                     l2155:
  5536  08FE  0875               	movf	__Umul8_16@product+1,w
  5537  08FF  00F1               	movwf	?__Umul8_16+1
  5538  0900  0874               	movf	__Umul8_16@product,w
  5539  0901  00F0               	movwf	?__Umul8_16
  5540  0902                     l799:
  5541  0902  0008               	return
  5542  0903                     __end_of__Umul8_16:
  5543                           
  5544                           	psect	text12
  5545  00BC                     __ptext12:	
  5546 ;; *************** function ___flge *****************
  5547 ;; Defined at:
  5548 ;;		line 4 in file "C:\Program Files\Microchip\xc8\v2.32\pic\sources\c90\common\flge.c"
  5549 ;; Parameters:    Size  Location     Type
  5550 ;;  ff1             4    0[COMMON] unsigned int 
  5551 ;;  ff2             4    4[COMMON] unsigned int 
  5552 ;; Auto vars:     Size  Location     Type
  5553 ;;		None
  5554 ;; Return value:  Size  Location     Type
  5555 ;;		None               void
  5556 ;; Registers used:
  5557 ;;		wreg, status,2, status,0
  5558 ;; Tracked objects:
  5559 ;;		On entry : 0/0
  5560 ;;		On exit  : 0/0
  5561 ;;		Unchanged: 0/0
  5562 ;; Data sizes:     COMMON   BANK0   BANK1   BANK3   BANK2
  5563 ;;      Params:         8       0       0       0       0
  5564 ;;      Locals:         0       0       0       0       0
  5565 ;;      Temps:          4       0       0       0       0
  5566 ;;      Totals:        12       0       0       0       0
  5567 ;;Total ram usage:       12 bytes
  5568 ;; Hardware stack levels used: 1
  5569 ;; This function calls:
  5570 ;;		Nothing
  5571 ;; This function is called by:
  5572 ;;		_liga_buzzer
  5573 ;; This function uses a non-reentrant model
  5574 ;;
  5575                           
  5576                           
  5577                           ;psect for function ___flge
  5578  00BC                     ___flge:
  5579  00BC                     l2183:	
  5580                           ;incstack = 0
  5581                           ; Regs used in ___flge: [wreg+status,2+status,0]
  5582                           
  5583  00BC  3000               	movlw	0
  5584  00BD  0570               	andwf	___flge@ff1,w
  5585  00BE  00F8               	movwf	??___flge
  5586  00BF  3000               	movlw	0
  5587  00C0  0571               	andwf	___flge@ff1+1,w
  5588  00C1  00F9               	movwf	??___flge+1
  5589  00C2  3080               	movlw	128
  5590  00C3  0572               	andwf	___flge@ff1+2,w
  5591  00C4  00FA               	movwf	??___flge+2
  5592  00C5  307F               	movlw	127
  5593  00C6  0573               	andwf	___flge@ff1+3,w
  5594  00C7  00FB               	movwf	??___flge+3
  5595  00C8  087B               	movf	??___flge+3,w
  5596  00C9  047A               	iorwf	??___flge+2,w
  5597  00CA  0479               	iorwf	??___flge+1,w
  5598  00CB  0478               	iorwf	??___flge,w
  5599  00CC  1D03               	skipz
  5600  00CD  28CF               	goto	u2071
  5601  00CE  28D0               	goto	u2070
  5602  00CF                     u2071:
  5603  00CF  28D8               	goto	l563
  5604  00D0                     u2070:
  5605  00D0                     l2185:
  5606  00D0  3000               	movlw	0
  5607  00D1  00F3               	movwf	___flge@ff1+3
  5608  00D2  3000               	movlw	0
  5609  00D3  00F2               	movwf	___flge@ff1+2
  5610  00D4  3000               	movlw	0
  5611  00D5  00F1               	movwf	___flge@ff1+1
  5612  00D6  3000               	movlw	0
  5613  00D7  00F0               	movwf	___flge@ff1
  5614  00D8                     l563:
  5615  00D8  3000               	movlw	0
  5616  00D9  0574               	andwf	___flge@ff2,w
  5617  00DA  00F8               	movwf	??___flge
  5618  00DB  3000               	movlw	0
  5619  00DC  0575               	andwf	___flge@ff2+1,w
  5620  00DD  00F9               	movwf	??___flge+1
  5621  00DE  3080               	movlw	128
  5622  00DF  0576               	andwf	___flge@ff2+2,w
  5623  00E0  00FA               	movwf	??___flge+2
  5624  00E1  307F               	movlw	127
  5625  00E2  0577               	andwf	___flge@ff2+3,w
  5626  00E3  00FB               	movwf	??___flge+3
  5627  00E4  087B               	movf	??___flge+3,w
  5628  00E5  047A               	iorwf	??___flge+2,w
  5629  00E6  0479               	iorwf	??___flge+1,w
  5630  00E7  0478               	iorwf	??___flge,w
  5631  00E8  1D03               	skipz
  5632  00E9  28EB               	goto	u2081
  5633  00EA  28EC               	goto	u2080
  5634  00EB                     u2081:
  5635  00EB  28F4               	goto	l2189
  5636  00EC                     u2080:
  5637  00EC                     l2187:
  5638  00EC  3000               	movlw	0
  5639  00ED  00F7               	movwf	___flge@ff2+3
  5640  00EE  3000               	movlw	0
  5641  00EF  00F6               	movwf	___flge@ff2+2
  5642  00F0  3000               	movlw	0
  5643  00F1  00F5               	movwf	___flge@ff2+1
  5644  00F2  3000               	movlw	0
  5645  00F3  00F4               	movwf	___flge@ff2
  5646  00F4                     l2189:
  5647  00F4  1FF3               	btfss	___flge@ff1+3,7
  5648  00F5  28F7               	goto	u2091
  5649  00F6  28F8               	goto	u2090
  5650  00F7                     u2091:
  5651  00F7  291C               	goto	l2193
  5652  00F8                     u2090:
  5653  00F8                     l2191:
  5654  00F8  3000               	movlw	0
  5655  00F9  00F8               	movwf	??___flge
  5656  00FA  3000               	movlw	0
  5657  00FB  00F9               	movwf	??___flge+1
  5658  00FC  3000               	movlw	0
  5659  00FD  00FA               	movwf	??___flge+2
  5660  00FE  3080               	movlw	128
  5661  00FF  00FB               	movwf	??___flge+3
  5662  0100  0870               	movf	___flge@ff1,w
  5663  0101  02F8               	subwf	??___flge,f
  5664  0102  0871               	movf	___flge@ff1+1,w
  5665  0103  1C03               	skipc
  5666  0104  0F71               	incfsz	___flge@ff1+1,w
  5667  0105  2907               	goto	u2101
  5668  0106  2908               	goto	u2102
  5669  0107                     u2101:
  5670  0107  02F9               	subwf	??___flge+1,f
  5671  0108                     u2102:
  5672  0108  0872               	movf	___flge@ff1+2,w
  5673  0109  1C03               	skipc
  5674  010A  0F72               	incfsz	___flge@ff1+2,w
  5675  010B  290D               	goto	u2103
  5676  010C  290E               	goto	u2104
  5677  010D                     u2103:
  5678  010D  02FA               	subwf	??___flge+2,f
  5679  010E                     u2104:
  5680  010E  0873               	movf	___flge@ff1+3,w
  5681  010F  1C03               	skipc
  5682  0110  0F73               	incfsz	___flge@ff1+3,w
  5683  0111  2913               	goto	u2105
  5684  0112  2914               	goto	u2106
  5685  0113                     u2105:
  5686  0113  02FB               	subwf	??___flge+3,f
  5687  0114                     u2106:
  5688  0114  087B               	movf	??___flge+3,w
  5689  0115  00F3               	movwf	___flge@ff1+3
  5690  0116  087A               	movf	??___flge+2,w
  5691  0117  00F2               	movwf	___flge@ff1+2
  5692  0118  0879               	movf	??___flge+1,w
  5693  0119  00F1               	movwf	___flge@ff1+1
  5694  011A  0878               	movf	??___flge,w
  5695  011B  00F0               	movwf	___flge@ff1
  5696  011C                     l2193:
  5697  011C  1FF7               	btfss	___flge@ff2+3,7
  5698  011D  291F               	goto	u2111
  5699  011E  2920               	goto	u2110
  5700  011F                     u2111:
  5701  011F  2944               	goto	l566
  5702  0120                     u2110:
  5703  0120                     l2195:
  5704  0120  3000               	movlw	0
  5705  0121  00F8               	movwf	??___flge
  5706  0122  3000               	movlw	0
  5707  0123  00F9               	movwf	??___flge+1
  5708  0124  3000               	movlw	0
  5709  0125  00FA               	movwf	??___flge+2
  5710  0126  3080               	movlw	128
  5711  0127  00FB               	movwf	??___flge+3
  5712  0128  0874               	movf	___flge@ff2,w
  5713  0129  02F8               	subwf	??___flge,f
  5714  012A  0875               	movf	___flge@ff2+1,w
  5715  012B  1C03               	skipc
  5716  012C  0F75               	incfsz	___flge@ff2+1,w
  5717  012D  292F               	goto	u2121
  5718  012E  2930               	goto	u2122
  5719  012F                     u2121:
  5720  012F  02F9               	subwf	??___flge+1,f
  5721  0130                     u2122:
  5722  0130  0876               	movf	___flge@ff2+2,w
  5723  0131  1C03               	skipc
  5724  0132  0F76               	incfsz	___flge@ff2+2,w
  5725  0133  2935               	goto	u2123
  5726  0134  2936               	goto	u2124
  5727  0135                     u2123:
  5728  0135  02FA               	subwf	??___flge+2,f
  5729  0136                     u2124:
  5730  0136  0877               	movf	___flge@ff2+3,w
  5731  0137  1C03               	skipc
  5732  0138  0F77               	incfsz	___flge@ff2+3,w
  5733  0139  293B               	goto	u2125
  5734  013A  293C               	goto	u2126
  5735  013B                     u2125:
  5736  013B  02FB               	subwf	??___flge+3,f
  5737  013C                     u2126:
  5738  013C  087B               	movf	??___flge+3,w
  5739  013D  00F7               	movwf	___flge@ff2+3
  5740  013E  087A               	movf	??___flge+2,w
  5741  013F  00F6               	movwf	___flge@ff2+2
  5742  0140  0879               	movf	??___flge+1,w
  5743  0141  00F5               	movwf	___flge@ff2+1
  5744  0142  0878               	movf	??___flge,w
  5745  0143  00F4               	movwf	___flge@ff2
  5746  0144                     l566:
  5747  0144  3080               	movlw	128
  5748  0145  06F3               	xorwf	___flge@ff1+3,f
  5749  0146  3080               	movlw	128
  5750  0147  06F7               	xorwf	___flge@ff2+3,f
  5751  0148  0877               	movf	___flge@ff2+3,w
  5752  0149  0273               	subwf	___flge@ff1+3,w
  5753  014A  1D03               	skipz
  5754  014B  2956               	goto	u2135
  5755  014C  0876               	movf	___flge@ff2+2,w
  5756  014D  0272               	subwf	___flge@ff1+2,w
  5757  014E  1D03               	skipz
  5758  014F  2956               	goto	u2135
  5759  0150  0875               	movf	___flge@ff2+1,w
  5760  0151  0271               	subwf	___flge@ff1+1,w
  5761  0152  1D03               	skipz
  5762  0153  2956               	goto	u2135
  5763  0154  0874               	movf	___flge@ff2,w
  5764  0155  0270               	subwf	___flge@ff1,w
  5765  0156                     u2135:
  5766  0156  1803               	skipnc
  5767  0157  2959               	goto	u2131
  5768  0158  295A               	goto	u2130
  5769  0159                     u2131:
  5770  0159  295C               	goto	l2199
  5771  015A                     u2130:
  5772  015A                     l2197:
  5773  015A  1003               	clrc
  5774  015B  295D               	goto	l567
  5775  015C                     l2199:
  5776  015C  1403               	setc
  5777  015D                     l567:
  5778  015D  0008               	return
  5779  015E                     __end_of___flge:
  5780                           
  5781                           	psect	text13
  5782  0965                     __ptext13:	
  5783 ;; *************** function _escreveMesagem *****************
  5784 ;; Defined at:
  5785 ;;		line 479 in file "main.c"
  5786 ;; Parameters:    Size  Location     Type
  5787 ;;  texto           2    3[COMMON] PTR unsigned char 
  5788 ;;		 -> msgReativarActive(10), msgDesativarZona(15), msgReativar(9), msgDesativarZonaActive(16), 
  5789 ;;		 -> msgSenhaDisparoActive(15), msgSenhaCoacao(13), msgSenhaDisparo(14), msgSenhaCoacaoActive(14), 
  5790 ;;		 -> msgSenhaUsuarioActive(15), msgSenhaConfig(13), msgSenhaUsuario(14), msgSenhaConfigActive(14), 
  5791 ;;		 -> msgSenhaCorreta(14), msgSenhaErrada(13), msgDigiteNovaSenha(14), 
  5792 ;; Auto vars:     Size  Location     Type
  5793 ;;  i               2    8[COMMON] int 
  5794 ;; Return value:  Size  Location     Type
  5795 ;;                  1    wreg      void 
  5796 ;; Registers used:
  5797 ;;		wreg, fsr0l, fsr0h, status,2, status,0, btemp+1, pclath, cstack
  5798 ;; Tracked objects:
  5799 ;;		On entry : 0/0
  5800 ;;		On exit  : 0/0
  5801 ;;		Unchanged: 0/0
  5802 ;; Data sizes:     COMMON   BANK0   BANK1   BANK3   BANK2
  5803 ;;      Params:         2       0       0       0       0
  5804 ;;      Locals:         2       0       0       0       0
  5805 ;;      Temps:          3       0       0       0       0
  5806 ;;      Totals:         7       0       0       0       0
  5807 ;;Total ram usage:        7 bytes
  5808 ;; Hardware stack levels used: 1
  5809 ;; Hardware stack levels required when called: 2
  5810 ;; This function calls:
  5811 ;;		_LCD_escreve
  5812 ;; This function is called by:
  5813 ;;		_alteraSenhaUser
  5814 ;;		_listaZonas
  5815 ;;		_validaUser
  5816 ;; This function uses a non-reentrant model
  5817 ;;
  5818                           
  5819                           
  5820                           ;psect for function _escreveMesagem
  5821  0965                     _escreveMesagem:
  5822  0965                     l2973:	
  5823                           ;incstack = 0
  5824                           ; Regs used in _escreveMesagem: [wreg-fsr0h+status,2+status,0+btemp+1+pclath+cstack]
  5825                           
  5826                           
  5827                           ;main.c: 480:     for (int i = 0; texto[i] != '\0'; i++){
  5828  0965  01F8               	clrf	escreveMesagem@i
  5829  0966  01F9               	clrf	escreveMesagem@i+1
  5830  0967  2985               	goto	l2979
  5831  0968                     l2975:
  5832                           
  5833                           ;main.c: 481:         LCD_escreve(texto[i]);
  5834  0968  0878               	movf	escreveMesagem@i,w
  5835  0969  0773               	addwf	escreveMesagem@texto,w
  5836  096A  00F6               	movwf	??_escreveMesagem+1
  5837  096B  0874               	movf	escreveMesagem@texto+1,w
  5838  096C  00F5               	movwf	??_escreveMesagem
  5839  096D  1803               	skipnc
  5840  096E  0AF5               	incf	??_escreveMesagem,f
  5841  096F  1FF8               	btfss	escreveMesagem@i,7
  5842  0970  2972               	goto	u3170
  5843  0971  03F5               	decf	??_escreveMesagem,f
  5844  0972                     u3170:
  5845  0972  0875               	movf	??_escreveMesagem,w
  5846  0973  00F7               	movwf	??_escreveMesagem+2
  5847  0974  0876               	movf	??_escreveMesagem+1,w
  5848  0975  0084               	movwf	4
  5849  0976  1783               	bsf	3,7
  5850  0977  1C77               	btfss	??_escreveMesagem+2,0
  5851  0978  1383               	bcf	3,7
  5852  0979  0800               	movf	0,w
  5853  097A  120A  158A  2026  120A  158A  	fcall	_LCD_escreve
  5854  097F                     l2977:
  5855                           
  5856                           ;main.c: 482:     }
  5857  097F  3001               	movlw	1
  5858  0980  07F8               	addwf	escreveMesagem@i,f
  5859  0981  1803               	skipnc
  5860  0982  0AF9               	incf	escreveMesagem@i+1,f
  5861  0983  3000               	movlw	0
  5862  0984  07F9               	addwf	escreveMesagem@i+1,f
  5863  0985                     l2979:
  5864  0985  0878               	movf	escreveMesagem@i,w
  5865  0986  0773               	addwf	escreveMesagem@texto,w
  5866  0987  00F6               	movwf	??_escreveMesagem+1
  5867  0988  0874               	movf	escreveMesagem@texto+1,w
  5868  0989  00F5               	movwf	??_escreveMesagem
  5869  098A  1803               	skipnc
  5870  098B  0AF5               	incf	??_escreveMesagem,f
  5871  098C  1FF8               	btfss	escreveMesagem@i,7
  5872  098D  298F               	goto	u3180
  5873  098E  03F5               	decf	??_escreveMesagem,f
  5874  098F                     u3180:
  5875  098F  0875               	movf	??_escreveMesagem,w
  5876  0990  00F7               	movwf	??_escreveMesagem+2
  5877  0991  0876               	movf	??_escreveMesagem+1,w
  5878  0992  0084               	movwf	4
  5879  0993  1783               	bsf	3,7
  5880  0994  1C77               	btfss	??_escreveMesagem+2,0
  5881  0995  1383               	bcf	3,7
  5882  0996  0800               	movf	0,w
  5883  0997  1D03               	btfss	3,2
  5884  0998  299A               	goto	u3191
  5885  0999  299B               	goto	u3190
  5886  099A                     u3191:
  5887  099A  2968               	goto	l2975
  5888  099B                     u3190:
  5889  099B                     l294:
  5890  099B  0008               	return
  5891  099C                     __end_of_escreveMesagem:
  5892                           
  5893                           	psect	text14
  5894  099C                     __ptext14:	
  5895 ;; *************** function _Linha2 *****************
  5896 ;; Defined at:
  5897 ;;		line 322 in file "main.c"
  5898 ;; Parameters:    Size  Location     Type
  5899 ;;		None
  5900 ;; Auto vars:     Size  Location     Type
  5901 ;;  i               2    7[COMMON] int 
  5902 ;; Return value:  Size  Location     Type
  5903 ;;                  1    wreg      void 
  5904 ;; Registers used:
  5905 ;;		wreg, fsr0l, fsr0h, status,2, status,0, btemp+1, pclath, cstack
  5906 ;; Tracked objects:
  5907 ;;		On entry : 0/0
  5908 ;;		On exit  : 0/0
  5909 ;;		Unchanged: 0/0
  5910 ;; Data sizes:     COMMON   BANK0   BANK1   BANK3   BANK2
  5911 ;;      Params:         0       0       0       0       0
  5912 ;;      Locals:         2       0       0       0       0
  5913 ;;      Temps:          2       0       0       0       0
  5914 ;;      Totals:         4       0       0       0       0
  5915 ;;Total ram usage:        4 bytes
  5916 ;; Hardware stack levels used: 1
  5917 ;; Hardware stack levels required when called: 3
  5918 ;; This function calls:
  5919 ;;		_LCD_escreve
  5920 ;;		_LCD_linha2
  5921 ;;		_espacoLivre
  5922 ;;		_strlen
  5923 ;; This function is called by:
  5924 ;;		_alteraSenhaUser
  5925 ;; This function uses a non-reentrant model
  5926 ;;
  5927                           
  5928                           
  5929                           ;psect for function _Linha2
  5930  099C                     _Linha2:
  5931  099C                     l2455:	
  5932                           ;incstack = 0
  5933                           ; Regs used in _Linha2: [wreg-fsr0h+status,2+status,0+btemp+1+pclath+cstack]
  5934                           
  5935                           
  5936                           ;main.c: 323:     LCD_linha2();
  5937  099C  120A  158A  2006  120A  158A  	fcall	_LCD_linha2
  5938                           
  5939                           ;main.c: 324:     espacoLivre();
  5940  09A1  120A  158A  2097  120A  158A  	fcall	_espacoLivre
  5941  09A6                     l2457:
  5942                           
  5943                           ;main.c: 325:     for (int i = 0; i <= strlen(msgMascara)-1; i++){
  5944  09A6  01F7               	clrf	Linha2@i
  5945  09A7  01F8               	clrf	Linha2@i+1
  5946  09A8  29B9               	goto	l2463
  5947  09A9                     l2459:
  5948                           
  5949                           ;main.c: 326:         LCD_escreve(msgMascara[i]);
  5950  09A9  0877               	movf	Linha2@i,w
  5951  09AA  3E57               	addlw	(low (_msgMascara| 0))& (0+255)
  5952  09AB  0084               	movwf	4
  5953  09AC  1383               	bcf	3,7	;select IRP bank0
  5954  09AD  0800               	movf	0,w
  5955  09AE  120A  158A  2026  120A  158A  	fcall	_LCD_escreve
  5956  09B3                     l2461:
  5957                           
  5958                           ;main.c: 327:     }
  5959  09B3  3001               	movlw	1
  5960  09B4  07F7               	addwf	Linha2@i,f
  5961  09B5  1803               	skipnc
  5962  09B6  0AF8               	incf	Linha2@i+1,f
  5963  09B7  3000               	movlw	0
  5964  09B8  07F8               	addwf	Linha2@i+1,f
  5965  09B9                     l2463:
  5966  09B9  3057               	movlw	(low (_msgMascara| 0))& (0+255)
  5967  09BA  120A  158A  2060  120A  158A  	fcall	_strlen
  5968  09BF  0870               	movf	?_strlen,w
  5969  09C0  3EFF               	addlw	255
  5970  09C1  00F5               	movwf	??_Linha2
  5971  09C2  0871               	movf	?_strlen+1,w
  5972  09C3  1803               	skipnc
  5973  09C4  3E01               	addlw	1
  5974  09C5  3EFF               	addlw	255
  5975  09C6  00F6               	movwf	??_Linha2+1
  5976  09C7  0878               	movf	Linha2@i+1,w
  5977  09C8  0276               	subwf	??_Linha2+1,w
  5978  09C9  1D03               	skipz
  5979  09CA  29CD               	goto	u2575
  5980  09CB  0877               	movf	Linha2@i,w
  5981  09CC  0275               	subwf	??_Linha2,w
  5982  09CD                     u2575:
  5983  09CD  1803               	skipnc
  5984  09CE  29D0               	goto	u2571
  5985  09CF  29D1               	goto	u2570
  5986  09D0                     u2571:
  5987  09D0  29A9               	goto	l2459
  5988  09D1                     u2570:
  5989  09D1                     l2465:
  5990                           
  5991                           ;main.c: 328:     espacoLivre();
  5992  09D1  120A  158A  2097  120A  158A  	fcall	_espacoLivre
  5993  09D6                     l237:
  5994  09D6  0008               	return
  5995  09D7                     __end_of_Linha2:
  5996                           
  5997                           	psect	text15
  5998  0860                     __ptext15:	
  5999 ;; *************** function _strlen *****************
  6000 ;; Defined at:
  6001 ;;		line 4 in file "C:\Program Files\Microchip\xc8\v2.32\pic\sources\c90\common\strlen.c"
  6002 ;; Parameters:    Size  Location     Type
  6003 ;;  s               1    wreg     PTR const unsigned char 
  6004 ;;		 -> msgMascara(5), msgDigiteSenha(15), 
  6005 ;; Auto vars:     Size  Location     Type
  6006 ;;  s               1    4[COMMON] PTR const unsigned char 
  6007 ;;		 -> msgMascara(5), msgDigiteSenha(15), 
  6008 ;;  cp              1    3[COMMON] PTR const unsigned char 
  6009 ;;		 -> msgMascara(5), msgDigiteSenha(15), 
  6010 ;; Return value:  Size  Location     Type
  6011 ;;                  2    0[COMMON] unsigned int 
  6012 ;; Registers used:
  6013 ;;		wreg, fsr0l, fsr0h, status,2, status,0
  6014 ;; Tracked objects:
  6015 ;;		On entry : 0/0
  6016 ;;		On exit  : 0/0
  6017 ;;		Unchanged: 0/0
  6018 ;; Data sizes:     COMMON   BANK0   BANK1   BANK3   BANK2
  6019 ;;      Params:         2       0       0       0       0
  6020 ;;      Locals:         2       0       0       0       0
  6021 ;;      Temps:          1       0       0       0       0
  6022 ;;      Totals:         5       0       0       0       0
  6023 ;;Total ram usage:        5 bytes
  6024 ;; Hardware stack levels used: 1
  6025 ;; This function calls:
  6026 ;;		Nothing
  6027 ;; This function is called by:
  6028 ;;		_Linha2
  6029 ;;		_telaInicial
  6030 ;; This function uses a non-reentrant model
  6031 ;;
  6032                           
  6033                           
  6034                           ;psect for function _strlen
  6035  0860                     _strlen:
  6036                           
  6037                           ;incstack = 0
  6038                           ; Regs used in _strlen: [wreg-fsr0h+status,2+status,0]
  6039                           ;strlen@s stored from wreg
  6040  0860  00F4               	movwf	strlen@s
  6041  0861                     l2377:
  6042  0861  0874               	movf	strlen@s,w
  6043  0862  00F2               	movwf	??_strlen
  6044  0863  0872               	movf	??_strlen,w
  6045  0864  00F3               	movwf	strlen@cp
  6046  0865  286A               	goto	l2381
  6047  0866                     l2379:
  6048  0866  3001               	movlw	1
  6049  0867  00F2               	movwf	??_strlen
  6050  0868  0872               	movf	??_strlen,w
  6051  0869  07F3               	addwf	strlen@cp,f
  6052  086A                     l2381:
  6053  086A  0873               	movf	strlen@cp,w
  6054  086B  0084               	movwf	4
  6055  086C  1383               	bcf	3,7	;select IRP bank0
  6056  086D  0800               	movf	0,w
  6057  086E  1D03               	btfss	3,2
  6058  086F  2871               	goto	u2521
  6059  0870  2872               	goto	u2520
  6060  0871                     u2521:
  6061  0871  2866               	goto	l2379
  6062  0872                     u2520:
  6063  0872                     l2383:
  6064  0872  0874               	movf	strlen@s,w
  6065  0873  0273               	subwf	strlen@cp,w
  6066  0874  00F0               	movwf	?_strlen
  6067  0875  01F1               	clrf	?_strlen+1
  6068  0876  1BF0               	btfsc	?_strlen,7
  6069  0877  03F1               	decf	?_strlen+1,f
  6070  0878                     l851:
  6071  0878  0008               	return
  6072  0879                     __end_of_strlen:
  6073                           
  6074                           	psect	text16
  6075  0897                     __ptext16:	
  6076 ;; *************** function _espacoLivre *****************
  6077 ;; Defined at:
  6078 ;;		line 330 in file "main.c"
  6079 ;; Parameters:    Size  Location     Type
  6080 ;;		None
  6081 ;; Auto vars:     Size  Location     Type
  6082 ;;  i               2    3[COMMON] int 
  6083 ;; Return value:  Size  Location     Type
  6084 ;;                  1    wreg      void 
  6085 ;; Registers used:
  6086 ;;		wreg, status,2, status,0, btemp+1, pclath, cstack
  6087 ;; Tracked objects:
  6088 ;;		On entry : 0/0
  6089 ;;		On exit  : 0/0
  6090 ;;		Unchanged: 0/0
  6091 ;; Data sizes:     COMMON   BANK0   BANK1   BANK3   BANK2
  6092 ;;      Params:         0       0       0       0       0
  6093 ;;      Locals:         2       0       0       0       0
  6094 ;;      Temps:          0       0       0       0       0
  6095 ;;      Totals:         2       0       0       0       0
  6096 ;;Total ram usage:        2 bytes
  6097 ;; Hardware stack levels used: 1
  6098 ;; Hardware stack levels required when called: 2
  6099 ;; This function calls:
  6100 ;;		_LCD_escreve
  6101 ;;		_LCD_linha2
  6102 ;; This function is called by:
  6103 ;;		_Linha2
  6104 ;; This function uses a non-reentrant model
  6105 ;;
  6106                           
  6107                           
  6108                           ;psect for function _espacoLivre
  6109  0897                     _espacoLivre:
  6110  0897                     l2387:	
  6111                           ;incstack = 0
  6112                           ; Regs used in _espacoLivre: [wreg+status,2+status,0+btemp+1+pclath+cstack]
  6113                           
  6114                           
  6115                           ;main.c: 331:     LCD_linha2();
  6116  0897  120A  158A  2006  120A  158A  	fcall	_LCD_linha2
  6117  089C                     l2389:
  6118                           
  6119                           ;main.c: 332:     for (int i = 0; i < 6; i++){
  6120  089C  01F3               	clrf	espacoLivre@i
  6121  089D  01F4               	clrf	espacoLivre@i+1
  6122  089E                     l2395:
  6123                           
  6124                           ;main.c: 333:         LCD_escreve(' ');
  6125  089E  3020               	movlw	32
  6126  089F  120A  158A  2026  120A  158A  	fcall	_LCD_escreve
  6127  08A4                     l2397:
  6128                           
  6129                           ;main.c: 334:     }
  6130  08A4  3001               	movlw	1
  6131  08A5  07F3               	addwf	espacoLivre@i,f
  6132  08A6  1803               	skipnc
  6133  08A7  0AF4               	incf	espacoLivre@i+1,f
  6134  08A8  3000               	movlw	0
  6135  08A9  07F4               	addwf	espacoLivre@i+1,f
  6136  08AA                     l2399:
  6137  08AA  0874               	movf	espacoLivre@i+1,w
  6138  08AB  3A80               	xorlw	128
  6139  08AC  00FF               	movwf	btemp+1
  6140  08AD  3080               	movlw	128
  6141  08AE  027F               	subwf	btemp+1,w
  6142  08AF  1D03               	skipz
  6143  08B0  28B3               	goto	u2535
  6144  08B1  3006               	movlw	6
  6145  08B2  0273               	subwf	espacoLivre@i,w
  6146  08B3                     u2535:
  6147  08B3  1C03               	skipc
  6148  08B4  28B6               	goto	u2531
  6149  08B5  28B7               	goto	u2530
  6150  08B6                     u2531:
  6151  08B6  289E               	goto	l2395
  6152  08B7                     u2530:
  6153  08B7                     l242:
  6154  08B7  0008               	return
  6155  08B8                     __end_of_espacoLivre:
  6156                           
  6157                           	psect	text17
  6158  0806                     __ptext17:	
  6159 ;; *************** function _LCD_linha2 *****************
  6160 ;; Defined at:
  6161 ;;		line 73 in file "./lcd.h"
  6162 ;; Parameters:    Size  Location     Type
  6163 ;;		None
  6164 ;; Auto vars:     Size  Location     Type
  6165 ;;		None
  6166 ;; Return value:  Size  Location     Type
  6167 ;;                  1    wreg      void 
  6168 ;; Registers used:
  6169 ;;		wreg, status,2, status,0, btemp+1, pclath, cstack
  6170 ;; Tracked objects:
  6171 ;;		On entry : 0/0
  6172 ;;		On exit  : 0/0
  6173 ;;		Unchanged: 0/0
  6174 ;; Data sizes:     COMMON   BANK0   BANK1   BANK3   BANK2
  6175 ;;      Params:         0       0       0       0       0
  6176 ;;      Locals:         0       0       0       0       0
  6177 ;;      Temps:          0       0       0       0       0
  6178 ;;      Totals:         0       0       0       0       0
  6179 ;;Total ram usage:        0 bytes
  6180 ;; Hardware stack levels used: 1
  6181 ;; Hardware stack levels required when called: 1
  6182 ;; This function calls:
  6183 ;;		_delay
  6184 ;; This function is called by:
  6185 ;;		_Linha2
  6186 ;;		_espacoLivre
  6187 ;;		_listaZonas
  6188 ;; This function uses a non-reentrant model
  6189 ;;
  6190                           
  6191                           
  6192                           ;psect for function _LCD_linha2
  6193  0806                     _LCD_linha2:
  6194  0806                     l2171:	
  6195                           ;incstack = 0
  6196                           ; Regs used in _LCD_linha2: [wreg+status,2+status,0+btemp+1+pclath+cstack]
  6197                           
  6198                           
  6199                           ;./lcd.h: 74:     PORTD = 0xC0;
  6200  0806  30C0               	movlw	192
  6201  0807  1283               	bcf	3,5	;RP0=0, select bank0
  6202  0808  1303               	bcf	3,6	;RP1=0, select bank0
  6203  0809  0088               	movwf	8	;volatile
  6204  080A                     l2173:
  6205                           
  6206                           ;./lcd.h: 75:     RA5 = 0;
  6207  080A  1285               	bcf	5,5	;volatile
  6208  080B                     l2175:
  6209                           
  6210                           ;./lcd.h: 76:     RA4 = 0;
  6211  080B  1205               	bcf	5,4	;volatile
  6212  080C                     l2177:
  6213                           
  6214                           ;./lcd.h: 77:     RA3=0;
  6215  080C  1185               	bcf	5,3	;volatile
  6216  080D                     l2179:
  6217                           
  6218                           ;./lcd.h: 78:     delay();
  6219  080D  120A  158A  204A  120A  158A  	fcall	_delay
  6220  0812                     l2181:
  6221                           
  6222                           ;./lcd.h: 79:  RA3 = 1;
  6223  0812  1283               	bcf	3,5	;RP0=0, select bank0
  6224  0813  1303               	bcf	3,6	;RP1=0, select bank0
  6225  0814  1585               	bsf	5,3	;volatile
  6226  0815                     l84:
  6227  0815  0008               	return
  6228  0816                     __end_of_LCD_linha2:
  6229                           
  6230                           	psect	text18
  6231  0826                     __ptext18:	
  6232 ;; *************** function _LCD_escreve *****************
  6233 ;; Defined at:
  6234 ;;		line 46 in file "./lcd.h"
  6235 ;; Parameters:    Size  Location     Type
  6236 ;;  x               1    wreg     unsigned char 
  6237 ;; Auto vars:     Size  Location     Type
  6238 ;;  x               1    2[COMMON] unsigned char 
  6239 ;; Return value:  Size  Location     Type
  6240 ;;                  1    wreg      void 
  6241 ;; Registers used:
  6242 ;;		wreg, status,2, status,0, btemp+1, pclath, cstack
  6243 ;; Tracked objects:
  6244 ;;		On entry : 0/0
  6245 ;;		On exit  : 0/0
  6246 ;;		Unchanged: 0/0
  6247 ;; Data sizes:     COMMON   BANK0   BANK1   BANK3   BANK2
  6248 ;;      Params:         0       0       0       0       0
  6249 ;;      Locals:         1       0       0       0       0
  6250 ;;      Temps:          0       0       0       0       0
  6251 ;;      Totals:         1       0       0       0       0
  6252 ;;Total ram usage:        1 bytes
  6253 ;; Hardware stack levels used: 1
  6254 ;; Hardware stack levels required when called: 1
  6255 ;; This function calls:
  6256 ;;		_delay
  6257 ;; This function is called by:
  6258 ;;		_teclado
  6259 ;;		_Linha2
  6260 ;;		_espacoLivre
  6261 ;;		_escreveMesagem
  6262 ;;		_LCD_escreveFrase
  6263 ;;		_telaInicial
  6264 ;; This function uses a non-reentrant model
  6265 ;;
  6266                           
  6267                           
  6268                           ;psect for function _LCD_escreve
  6269  0826                     _LCD_escreve:
  6270                           
  6271                           ;incstack = 0
  6272                           ; Regs used in _LCD_escreve: [wreg+status,2+status,0+btemp+1+pclath+cstack]
  6273                           ;LCD_escreve@x stored from wreg
  6274  0826  00F2               	movwf	LCD_escreve@x
  6275  0827                     l2159:
  6276                           
  6277                           ;./lcd.h: 46: void LCD_escreve(char x);./lcd.h: 47: {;./lcd.h: 48:  PORTD = x;
  6278  0827  0872               	movf	LCD_escreve@x,w
  6279  0828  1283               	bcf	3,5	;RP0=0, select bank0
  6280  0829  1303               	bcf	3,6	;RP1=0, select bank0
  6281  082A  0088               	movwf	8	;volatile
  6282  082B                     l2161:
  6283                           
  6284                           ;./lcd.h: 49:  RA5 = 1;
  6285  082B  1685               	bsf	5,5	;volatile
  6286  082C                     l2163:
  6287                           
  6288                           ;./lcd.h: 50:  RA4 = 0;
  6289  082C  1205               	bcf	5,4	;volatile
  6290  082D                     l2165:
  6291                           
  6292                           ;./lcd.h: 51:  RA3 = 0;
  6293  082D  1185               	bcf	5,3	;volatile
  6294  082E                     l2167:
  6295                           
  6296                           ;./lcd.h: 52:  delay();
  6297  082E  120A  158A  204A  120A  158A  	fcall	_delay
  6298  0833                     l2169:
  6299                           
  6300                           ;./lcd.h: 53:  RA3 = 1;
  6301  0833  1283               	bcf	3,5	;RP0=0, select bank0
  6302  0834  1303               	bcf	3,6	;RP1=0, select bank0
  6303  0835  1585               	bsf	5,3	;volatile
  6304  0836                     l75:
  6305  0836  0008               	return
  6306  0837                     __end_of_LCD_escreve:
  6307                           
  6308                           	psect	text19
  6309  17F0                     __ptext19:	
  6310 ;; *************** function _LCD_limpa *****************
  6311 ;; Defined at:
  6312 ;;		line 56 in file "./lcd.h"
  6313 ;; Parameters:    Size  Location     Type
  6314 ;;		None
  6315 ;; Auto vars:     Size  Location     Type
  6316 ;;		None
  6317 ;; Return value:  Size  Location     Type
  6318 ;;                  1    wreg      void 
  6319 ;; Registers used:
  6320 ;;		wreg, status,2, status,0, btemp+1, pclath, cstack
  6321 ;; Tracked objects:
  6322 ;;		On entry : 0/0
  6323 ;;		On exit  : 0/0
  6324 ;;		Unchanged: 0/0
  6325 ;; Data sizes:     COMMON   BANK0   BANK1   BANK3   BANK2
  6326 ;;      Params:         0       0       0       0       0
  6327 ;;      Locals:         0       0       0       0       0
  6328 ;;      Temps:          0       0       0       0       0
  6329 ;;      Totals:         0       0       0       0       0
  6330 ;;Total ram usage:        0 bytes
  6331 ;; Hardware stack levels used: 1
  6332 ;; Hardware stack levels required when called: 1
  6333 ;; This function calls:
  6334 ;;		_delay
  6335 ;; This function is called by:
  6336 ;;		_main
  6337 ;;		_alteraSenhaUser
  6338 ;;		_listaZonas
  6339 ;;		_validaUser
  6340 ;; This function uses a non-reentrant model
  6341 ;;
  6342                           
  6343                           
  6344                           ;psect for function _LCD_limpa
  6345  17F0                     _LCD_limpa:
  6346  17F0                     l2423:	
  6347                           ;incstack = 0
  6348                           ; Regs used in _LCD_limpa: [wreg+status,2+status,0+btemp+1+pclath+cstack]
  6349                           
  6350                           
  6351                           ;./lcd.h: 57:     PORTD = 0x01;
  6352  17F0  3001               	movlw	1
  6353  17F1  1283               	bcf	3,5	;RP0=0, select bank0
  6354  17F2  1303               	bcf	3,6	;RP1=0, select bank0
  6355  17F3  0088               	movwf	8	;volatile
  6356  17F4                     l2425:
  6357                           
  6358                           ;./lcd.h: 58:     RA5 = 0;
  6359  17F4  1285               	bcf	5,5	;volatile
  6360  17F5                     l2427:
  6361                           
  6362                           ;./lcd.h: 59:     RA4 = 0;
  6363  17F5  1205               	bcf	5,4	;volatile
  6364  17F6                     l2429:
  6365                           
  6366                           ;./lcd.h: 60:     RA3=0;
  6367  17F6  1185               	bcf	5,3	;volatile
  6368  17F7                     l2431:
  6369                           
  6370                           ;./lcd.h: 61:     delay();
  6371  17F7  120A  158A  204A  160A  118A  	fcall	_delay
  6372  17FC                     l2433:
  6373                           
  6374                           ;./lcd.h: 62:  RA3 = 1;
  6375  17FC  1283               	bcf	3,5	;RP0=0, select bank0
  6376  17FD  1303               	bcf	3,6	;RP1=0, select bank0
  6377  17FE  1585               	bsf	5,3	;volatile
  6378  17FF                     l78:
  6379  17FF  0008               	return
  6380  1800                     __end_of_LCD_limpa:
  6381                           
  6382                           	psect	text20
  6383  0932                     __ptext20:	
  6384 ;; *************** function _LCD_init *****************
  6385 ;; Defined at:
  6386 ;;		line 31 in file "./lcd.h"
  6387 ;; Parameters:    Size  Location     Type
  6388 ;;		None
  6389 ;; Auto vars:     Size  Location     Type
  6390 ;;		None
  6391 ;; Return value:  Size  Location     Type
  6392 ;;                  1    wreg      void 
  6393 ;; Registers used:
  6394 ;;		wreg, status,2, status,0, btemp+1, pclath, cstack
  6395 ;; Tracked objects:
  6396 ;;		On entry : 0/0
  6397 ;;		On exit  : 0/0
  6398 ;;		Unchanged: 0/0
  6399 ;; Data sizes:     COMMON   BANK0   BANK1   BANK3   BANK2
  6400 ;;      Params:         0       0       0       0       0
  6401 ;;      Locals:         0       0       0       0       0
  6402 ;;      Temps:          0       0       0       0       0
  6403 ;;      Totals:         0       0       0       0       0
  6404 ;;Total ram usage:        0 bytes
  6405 ;; Hardware stack levels used: 1
  6406 ;; Hardware stack levels required when called: 2
  6407 ;; This function calls:
  6408 ;;		_LCD_enable
  6409 ;;		_init
  6410 ;; This function is called by:
  6411 ;;		_alteraSenhaUser
  6412 ;;		_listaZonas
  6413 ;; This function uses a non-reentrant model
  6414 ;;
  6415                           
  6416                           
  6417                           ;psect for function _LCD_init
  6418  0932                     _LCD_init:
  6419  0932                     l2401:	
  6420                           ;incstack = 0
  6421                           ; Regs used in _LCD_init: [wreg+status,2+status,0+btemp+1+pclath+cstack]
  6422                           
  6423                           
  6424                           ;./lcd.h: 33:     init();
  6425  0932  160A  118A  27C9  120A  158A  	fcall	_init
  6426  0937                     l2403:
  6427                           
  6428                           ;./lcd.h: 34:  PORTD = 0X1;
  6429  0937  3001               	movlw	1
  6430  0938  1283               	bcf	3,5	;RP0=0, select bank0
  6431  0939  1303               	bcf	3,6	;RP1=0, select bank0
  6432  093A  0088               	movwf	8	;volatile
  6433  093B                     l2405:
  6434                           
  6435                           ;./lcd.h: 35:  LCD_enable();
  6436  093B  160A  118A  27E2  120A  158A  	fcall	_LCD_enable
  6437  0940                     l2407:
  6438                           
  6439                           ;./lcd.h: 36:  PORTD = 0X38;
  6440  0940  3038               	movlw	56
  6441  0941  1283               	bcf	3,5	;RP0=0, select bank0
  6442  0942  1303               	bcf	3,6	;RP1=0, select bank0
  6443  0943  0088               	movwf	8	;volatile
  6444  0944                     l2409:
  6445                           
  6446                           ;./lcd.h: 37:  LCD_enable();
  6447  0944  160A  118A  27E2  120A  158A  	fcall	_LCD_enable
  6448  0949                     l2411:
  6449                           
  6450                           ;./lcd.h: 38:  PORTD = 0X0e;
  6451  0949  300E               	movlw	14
  6452  094A  1283               	bcf	3,5	;RP0=0, select bank0
  6453  094B  1303               	bcf	3,6	;RP1=0, select bank0
  6454  094C  0088               	movwf	8	;volatile
  6455  094D                     l2413:
  6456                           
  6457                           ;./lcd.h: 39:  LCD_enable();
  6458  094D  160A  118A  27E2  120A  158A  	fcall	_LCD_enable
  6459  0952                     l2415:
  6460                           
  6461                           ;./lcd.h: 40:  PORTD = 0X06;
  6462  0952  3006               	movlw	6
  6463  0953  1283               	bcf	3,5	;RP0=0, select bank0
  6464  0954  1303               	bcf	3,6	;RP1=0, select bank0
  6465  0955  0088               	movwf	8	;volatile
  6466  0956                     l2417:
  6467                           
  6468                           ;./lcd.h: 41:  LCD_enable();
  6469  0956  160A  118A  27E2  120A  158A  	fcall	_LCD_enable
  6470  095B                     l2419:
  6471                           
  6472                           ;./lcd.h: 42:  PORTD = 0X80;
  6473  095B  3080               	movlw	128
  6474  095C  1283               	bcf	3,5	;RP0=0, select bank0
  6475  095D  1303               	bcf	3,6	;RP1=0, select bank0
  6476  095E  0088               	movwf	8	;volatile
  6477  095F                     l2421:
  6478                           
  6479                           ;./lcd.h: 43:  LCD_enable();
  6480  095F  160A  118A  27E2  120A  158A  	fcall	_LCD_enable
  6481  0964                     l72:
  6482  0964  0008               	return
  6483  0965                     __end_of_LCD_init:
  6484                           
  6485                           	psect	text21
  6486  17C9                     __ptext21:	
  6487 ;; *************** function _init *****************
  6488 ;; Defined at:
  6489 ;;		line 23 in file "./lcd.h"
  6490 ;; Parameters:    Size  Location     Type
  6491 ;;		None
  6492 ;; Auto vars:     Size  Location     Type
  6493 ;;		None
  6494 ;; Return value:  Size  Location     Type
  6495 ;;                  1    wreg      void 
  6496 ;; Registers used:
  6497 ;;		wreg, status,2
  6498 ;; Tracked objects:
  6499 ;;		On entry : 0/0
  6500 ;;		On exit  : 0/0
  6501 ;;		Unchanged: 0/0
  6502 ;; Data sizes:     COMMON   BANK0   BANK1   BANK3   BANK2
  6503 ;;      Params:         0       0       0       0       0
  6504 ;;      Locals:         0       0       0       0       0
  6505 ;;      Temps:          0       0       0       0       0
  6506 ;;      Totals:         0       0       0       0       0
  6507 ;;Total ram usage:        0 bytes
  6508 ;; Hardware stack levels used: 1
  6509 ;; This function calls:
  6510 ;;		Nothing
  6511 ;; This function is called by:
  6512 ;;		_LCD_init
  6513 ;; This function uses a non-reentrant model
  6514 ;;
  6515                           
  6516                           
  6517                           ;psect for function _init
  6518  17C9                     _init:
  6519  17C9                     l2349:	
  6520                           ;incstack = 0
  6521                           ; Regs used in _init: [wreg+status,2]
  6522                           
  6523                           
  6524                           ;./lcd.h: 25:  ADCON1 = 0X07;
  6525  17C9  3007               	movlw	7
  6526  17CA  1683               	bsf	3,5	;RP0=1, select bank1
  6527  17CB  1303               	bcf	3,6	;RP1=0, select bank1
  6528  17CC  009F               	movwf	31	;volatile
  6529  17CD                     l2351:
  6530                           
  6531                           ;./lcd.h: 26:      RA1=1;
  6532  17CD  1283               	bcf	3,5	;RP0=0, select bank0
  6533  17CE  1303               	bcf	3,6	;RP1=0, select bank0
  6534  17CF  1485               	bsf	5,1	;volatile
  6535  17D0                     l2353:
  6536                           
  6537                           ;./lcd.h: 27:  TRISA = 0X00;
  6538  17D0  1683               	bsf	3,5	;RP0=1, select bank1
  6539  17D1  1303               	bcf	3,6	;RP1=0, select bank1
  6540  17D2  0185               	clrf	5	;volatile
  6541  17D3                     l2355:
  6542                           
  6543                           ;./lcd.h: 28:  TRISD = 0X00;
  6544  17D3  0188               	clrf	8	;volatile
  6545  17D4                     l69:
  6546  17D4  0008               	return
  6547  17D5                     __end_of_init:
  6548                           
  6549                           	psect	text22
  6550  17E2                     __ptext22:	
  6551 ;; *************** function _LCD_enable *****************
  6552 ;; Defined at:
  6553 ;;		line 85 in file "./lcd.h"
  6554 ;; Parameters:    Size  Location     Type
  6555 ;;		None
  6556 ;; Auto vars:     Size  Location     Type
  6557 ;;		None
  6558 ;; Return value:  Size  Location     Type
  6559 ;;                  1    wreg      void 
  6560 ;; Registers used:
  6561 ;;		wreg, status,2, status,0, btemp+1, pclath, cstack
  6562 ;; Tracked objects:
  6563 ;;		On entry : 0/0
  6564 ;;		On exit  : 0/0
  6565 ;;		Unchanged: 0/0
  6566 ;; Data sizes:     COMMON   BANK0   BANK1   BANK3   BANK2
  6567 ;;      Params:         0       0       0       0       0
  6568 ;;      Locals:         0       0       0       0       0
  6569 ;;      Temps:          0       0       0       0       0
  6570 ;;      Totals:         0       0       0       0       0
  6571 ;;Total ram usage:        0 bytes
  6572 ;; Hardware stack levels used: 1
  6573 ;; Hardware stack levels required when called: 1
  6574 ;; This function calls:
  6575 ;;		_delay
  6576 ;; This function is called by:
  6577 ;;		_LCD_init
  6578 ;; This function uses a non-reentrant model
  6579 ;;
  6580                           
  6581                           
  6582                           ;psect for function _LCD_enable
  6583  17E2                     _LCD_enable:
  6584  17E2                     l2357:	
  6585                           ;incstack = 0
  6586                           ; Regs used in _LCD_enable: [wreg+status,2+status,0+btemp+1+pclath+cstack]
  6587                           
  6588                           
  6589                           ;./lcd.h: 87:  RA5 = 0;
  6590  17E2  1283               	bcf	3,5	;RP0=0, select bank0
  6591  17E3  1303               	bcf	3,6	;RP1=0, select bank0
  6592  17E4  1285               	bcf	5,5	;volatile
  6593                           
  6594                           ;./lcd.h: 88:  RA4 = 0;
  6595  17E5  1205               	bcf	5,4	;volatile
  6596                           
  6597                           ;./lcd.h: 89:  RA3 = 0;
  6598  17E6  1185               	bcf	5,3	;volatile
  6599  17E7                     l2359:
  6600                           
  6601                           ;./lcd.h: 90:  delay();
  6602  17E7  120A  158A  204A  160A  118A  	fcall	_delay
  6603  17EC                     l2361:
  6604                           
  6605                           ;./lcd.h: 91:  RA3 = 1;
  6606  17EC  1283               	bcf	3,5	;RP0=0, select bank0
  6607  17ED  1303               	bcf	3,6	;RP1=0, select bank0
  6608  17EE  1585               	bsf	5,3	;volatile
  6609  17EF                     l87:
  6610  17EF  0008               	return
  6611  17F0                     __end_of_LCD_enable:
  6612                           
  6613                           	psect	text23
  6614  084A                     __ptext23:	
  6615 ;; *************** function _delay *****************
  6616 ;; Defined at:
  6617 ;;		line 94 in file "./lcd.h"
  6618 ;; Parameters:    Size  Location     Type
  6619 ;;		None
  6620 ;; Auto vars:     Size  Location     Type
  6621 ;;  i               2    0[COMMON] int 
  6622 ;; Return value:  Size  Location     Type
  6623 ;;                  1    wreg      void 
  6624 ;; Registers used:
  6625 ;;		wreg, status,2, btemp+1
  6626 ;; Tracked objects:
  6627 ;;		On entry : 0/0
  6628 ;;		On exit  : 0/0
  6629 ;;		Unchanged: 0/0
  6630 ;; Data sizes:     COMMON   BANK0   BANK1   BANK3   BANK2
  6631 ;;      Params:         0       0       0       0       0
  6632 ;;      Locals:         2       0       0       0       0
  6633 ;;      Temps:          0       0       0       0       0
  6634 ;;      Totals:         2       0       0       0       0
  6635 ;;Total ram usage:        2 bytes
  6636 ;; Hardware stack levels used: 1
  6637 ;; This function calls:
  6638 ;;		Nothing
  6639 ;; This function is called by:
  6640 ;;		_LCD_escreve
  6641 ;;		_LCD_limpa
  6642 ;;		_LCD_linha1
  6643 ;;		_LCD_linha2
  6644 ;;		_LCD_enable
  6645 ;; This function uses a non-reentrant model
  6646 ;;
  6647                           
  6648                           
  6649                           ;psect for function _delay
  6650  084A                     _delay:
  6651  084A                     l1941:	
  6652                           ;incstack = 0
  6653                           ; Regs used in _delay: [wreg+status,2+btemp+1]
  6654                           
  6655                           
  6656                           ;./lcd.h: 96:  int i;;./lcd.h: 97:  for (i = 0;i < 5000;i++);
  6657  084A  01F0               	clrf	delay@i
  6658  084B  01F1               	clrf	delay@i+1
  6659  084C                     l1947:
  6660  084C  3001               	movlw	1
  6661  084D  07F0               	addwf	delay@i,f
  6662  084E  1803               	skipnc
  6663  084F  0AF1               	incf	delay@i+1,f
  6664  0850  3000               	movlw	0
  6665  0851  07F1               	addwf	delay@i+1,f
  6666  0852                     l1949:
  6667  0852  0871               	movf	delay@i+1,w
  6668  0853  3A80               	xorlw	128
  6669  0854  00FF               	movwf	btemp+1
  6670  0855  3093               	movlw	147
  6671  0856  027F               	subwf	btemp+1,w
  6672  0857  1D03               	skipz
  6673  0858  285B               	goto	u1575
  6674  0859  3088               	movlw	136
  6675  085A  0270               	subwf	delay@i,w
  6676  085B                     u1575:
  6677  085B  1C03               	skipc
  6678  085C  285E               	goto	u1571
  6679  085D  285F               	goto	u1570
  6680  085E                     u1571:
  6681  085E  284C               	goto	l1947
  6682  085F                     u1570:
  6683  085F                     l92:
  6684  085F  0008               	return
  6685  0860                     __end_of_delay:
  6686  007E                     btemp	set	126	;btemp
  6687  007E                     wtemp0	set	126

Data Sizes:
    Strings     0
    Constant    0
    Data        253
    BSS         10
    Persistent  0
    Stack       0

Auto Spaces:
    Space          Size  Autos    Used
    COMMON           14     14      14
    BANK0            80     40      80
    BANK1            80      0      78
    BANK3            96      0      84
    BANK2            96      0      61

Pointer List with Targets:

    strlen@s	PTR const unsigned char  size(1) Largest target is 15
		 -> msgMascara(BANK0[5]), msgDigiteSenha(BANK1[15]), 

    strlen@cp	PTR const unsigned char  size(1) Largest target is 15
		 -> msgMascara(BANK0[5]), msgDigiteSenha(BANK1[15]), 

    escreveMesagem@texto	PTR unsigned char  size(2) Largest target is 16
		 -> msgReativarActive(BANK1[10]), msgDesativarZona(BANK2[15]), msgReativar(BANK1[9]), msgDesativarZonaActive(BANK2[16]), 
		 -> msgSenhaDisparoActive(BANK2[15]), msgSenhaCoacao(BANK1[13]), msgSenhaDisparo(BANK3[14]), msgSenhaCoacaoActive(BANK3[14]), 
		 -> msgSenhaUsuarioActive(BANK2[15]), msgSenhaConfig(BANK1[13]), msgSenhaUsuario(BANK3[14]), msgSenhaConfigActive(BANK3[14]), 
		 -> msgSenhaCorreta(BANK3[14]), msgSenhaErrada(BANK1[13]), msgDigiteNovaSenha(BANK3[14]), 

    aux	PTR unsigned char  size(2) Largest target is 512
		 -> RAM(DATA[512]), RAM(DATA[512]), RAM(DATA[512]), RAM(DATA[512]), 
		 -> RAM(DATA[512]), RAM(DATA[512]), RAM(DATA[512]), RAM(DATA[512]), 
		 -> RAM(DATA[512]), RAM(DATA[512]), NULL(NULL[0]), RAM(DATA[512]), 
		 -> RAM(DATA[512]), RAM(DATA[512]), 


Critical Paths under _main in COMMON

    _LCD_linha1->_delay
    _liga_buzzer->___flmul
    ___flsub->___fladd
    ___flmul->__Umul8_16
    _escreveMesagem->_LCD_escreve
    _Linha2->_espacoLivre
    _Linha2->_strlen
    _espacoLivre->_LCD_escreve
    _LCD_linha2->_delay
    _LCD_escreve->_delay
    _LCD_limpa->_delay
    _LCD_enable->_delay

Critical Paths under _main in BANK0

    _main->_alteraSenhaUser
    _listaZonas->_liga_buzzer
    _alteraSenhaUser->_teclado
    _teclado->_liga_buzzer
    _liga_buzzer->___flmul
    ___flsub->___fladd

Critical Paths under _main in BANK1

    None.

Critical Paths under _main in BANK3

    None.

Critical Paths under _main in BANK2

    None.

Call Graph Tables:

 ---------------------------------------------------------------------------------
 (Depth) Function   	        Calls       Base Space   Used Autos Params    Refs
 ---------------------------------------------------------------------------------
 (0) _main                                                 3     3      0   16651
                                             37 BANK0      3     3      0
                          _LCD_limpa
                    _alteraSenhaUser
                          _inicioADC
                         _leituraADC
                         _listaZonas
 ---------------------------------------------------------------------------------
 (1) _listaZonas                                           5     3      2    8082
                                             27 BANK0      5     3      2
                           _LCD_init
                          _LCD_limpa
                         _LCD_linha1
                         _LCD_linha2
                     _escreveMesagem
                        _liga_buzzer
 ---------------------------------------------------------------------------------
 (2) _LCD_linha1                                           0     0      0      46
                              _delay
 ---------------------------------------------------------------------------------
 (1) _leituraADC                                           7     5      2      45
                                              0 COMMON     7     5      2
 ---------------------------------------------------------------------------------
 (1) _inicioADC                                            0     0      0       0
 ---------------------------------------------------------------------------------
 (1) _alteraSenhaUser                                      7     5      2    8478
                                             30 BANK0      7     5      2
                           _LCD_init
                          _LCD_limpa
                             _Linha2
                     _escreveMesagem
                            _teclado
 ---------------------------------------------------------------------------------
 (2) _teclado                                              3     3      0    6892
                                             27 BANK0      3     3      0
                        _LCD_escreve
                        _liga_buzzer
 ---------------------------------------------------------------------------------
 (2) _liga_buzzer                                          6     2      4    6824
                                             21 BANK0      6     2      4
                             ___flge
                            ___flmul
                            ___flsub
 ---------------------------------------------------------------------------------
 (3) ___flsub                                              8     0      8    2333
                                              8 BANK0      8     0      8
                            ___fladd
 ---------------------------------------------------------------------------------
 (4) ___fladd                                             20    12      8    2136
                                              0 COMMON    12     4      8
                                              0 BANK0      8     8      0
 ---------------------------------------------------------------------------------
 (3) ___flmul                                             26    18      8    2417
                                              9 COMMON     5     5      0
                                              0 BANK0     21    13      8
                          __Umul8_16
 ---------------------------------------------------------------------------------
 (4) __Umul8_16                                            9     7      2     799
                                              0 COMMON     9     7      2
 ---------------------------------------------------------------------------------
 (3) ___flge                                              12     4      8     334
                                              0 COMMON    12     4      8
 ---------------------------------------------------------------------------------
 (2) _escreveMesagem                                       7     5      2     798
                                              3 COMMON     7     5      2
                        _LCD_escreve
 ---------------------------------------------------------------------------------
 (2) _Linha2                                               4     4      0     476
                                              5 COMMON     4     4      0
                        _LCD_escreve
                         _LCD_linha2
                        _espacoLivre
                             _strlen
 ---------------------------------------------------------------------------------
 (3) _strlen                                               5     3      2     156
                                              0 COMMON     5     3      2
 ---------------------------------------------------------------------------------
 (3) _espacoLivre                                          2     2      0     160
                                              3 COMMON     2     2      0
                        _LCD_escreve
                         _LCD_linha2
 ---------------------------------------------------------------------------------
 (2) _LCD_linha2                                           0     0      0      46
                              _delay
 ---------------------------------------------------------------------------------
 (3) _LCD_escreve                                          1     1      0      68
                                              2 COMMON     1     1      0
                              _delay
 ---------------------------------------------------------------------------------
 (2) _LCD_limpa                                            0     0      0      46
                              _delay
 ---------------------------------------------------------------------------------
 (2) _LCD_init                                             0     0      0      46
                         _LCD_enable
                               _init
 ---------------------------------------------------------------------------------
 (3) _init                                                 0     0      0       0
 ---------------------------------------------------------------------------------
 (3) _LCD_enable                                           0     0      0      46
                              _delay
 ---------------------------------------------------------------------------------
 (4) _delay                                                2     2      0      46
                                              0 COMMON     2     2      0
 ---------------------------------------------------------------------------------
 Estimated maximum stack depth 4
 ---------------------------------------------------------------------------------

 Call Graph Graphs:

 _main (ROOT)
   _LCD_limpa
     _delay
   _alteraSenhaUser
     _LCD_init
       _LCD_enable
         _delay
       _init
     _LCD_limpa
     _Linha2
       _LCD_escreve
         _delay
       _LCD_linha2
         _delay
       _espacoLivre
         _LCD_escreve
         _LCD_linha2
       _strlen
     _escreveMesagem
       _LCD_escreve
     _teclado
       _LCD_escreve
       _liga_buzzer
         ___flge
         ___flmul
           __Umul8_16
         ___flsub
           ___fladd
   _inicioADC
   _leituraADC
   _listaZonas
     _LCD_init
     _LCD_limpa
     _LCD_linha1
       _delay
     _LCD_linha2
     _escreveMesagem
     _liga_buzzer

 Address spaces:
Name               Size   Autos  Total    Cost      Usage
BANK3               60      0      54       9       87.5%
BITBANK3            60      0       0       8        0.0%
SFR3                 0      0       0       4        0.0%
BITSFR3              0      0       0       4        0.0%
BANK2               60      0      3D      11       63.5%
BITBANK2            60      0       0      10        0.0%
SFR2                 0      0       0       5        0.0%
BITSFR2              0      0       0       5        0.0%
BANK1               50      0      4E       7       97.5%
BITBANK1            50      0       0       6        0.0%
SFR1                 0      0       0       2        0.0%
BITSFR1              0      0       0       2        0.0%
BANK0               50     28      50       5      100.0%
BITBANK0            50      0       0       4        0.0%
SFR0                 0      0       0       1        0.0%
BITSFR0              0      0       0       1        0.0%
COMMON               E      E       E       1      100.0%
BITCOMMON            E      0       0       0        0.0%
CODE                 0      0       0       0        0.0%
DATA                 0      0     13D      12        0.0%
ABS                  0      0     13D       3        0.0%
NULL                 0      0       0       0        0.0%
STACK                0      0       0       2        0.0%
EEDATA             100      0       0       0        0.0%


Microchip Technology PIC Macro Assembler V2.32 build 20210201212658 
Symbol Table                                                                                   Sun Oct 03 20:18:26 2021

      _msgDigiteNovaSenha 0190                         pc 0002   alteraSenhaUser@opConfig 003E  
                      l72 0964                        l81 0825                        l75 0836  
                      l92 085F                        l84 0815                        l69 17D4  
                      l78 17FF                        l87 17EF                        fsr 0004  
     __Umul8_16@word_mpld 0076           escreveMesagem@i 0078               ?_LCD_enable 0070  
                     l220 03B4                       l300 0923                       l213 02FC  
                     l205 022E                       l303 0931                       l225 045A  
                     l242 08B7                       l237 09D6                       l168 0B42  
                     l195 00BB                       l189 0AD3                       l294 099B  
                     l703 0F45                       l288 0D67                       l713 0F8D  
                     l297 17E1                       l563 00D8                       l707 0F6B  
                     l724 0FF1                       l716 0FCD                       l725 0FFF  
                     l566 0144                       l567 015D                       l728 08DB  
                     l682 0DCB                       l851 0878                       l790 07AF  
                     l686 0E74                       l695 0FFF                       l784 0727  
                     l688 0E49                       l778 07BB                       l797 08F0  
                     l799 0902                       _RA1 0029                       _RB0 0030  
                     _RA3 002B                       _RB1 0031                       _RA4 002C  
                     _RB2 0032                       _RA5 002D                       _RB3 0033  
             ?_LCD_linha1 0070               ?_LCD_linha2 0070                       _aux 0068  
                     fsr0 0004                       indf 0000              ___flmul@aexp 002D  
            ___flmul@bexp 002E              ___flmul@sign 0028              ___flmul@temp 0033  
            ___flmul@prod 002F   __size_of_escreveMesagem 0037                      l2001 0DDD  
                    l2011 0DF1                      l2003 0DE1                      l2101 0F74  
                    l2021 0E05                      l2013 0DF5                      l2005 0DE5  
                    l2111 0F84                      l2103 0F79                      l2031 0E16  
                    l2023 0E09                      l2015 0DF9                      l2007 0DE9  
                    l2121 0FA5                      l2113 0F8A                      l2105 0F7B  
                    l2041 0E5E                      l2033 0E2D                      l2025 0E0D  
                    l2017 0DFD                      l2009 0DED                      l3001 0BB4  
                    l2211 0462                      l2131 0FDF                      l2123 0FA9  
                    l2107 0F7F                      l2051 0E7D                      l2043 0E5F  
                    l2035 0E4D                      l2027 0E11                      l2019 0E01  
                    l2203 08B8                      l3011 0BEE                      l3003 0BC3  
                    l2301 06F8                      l2221 0477                      l2213 0468  
                    l2141 0FFA                      l2133 0FE4                      l2125 0FC9  
                    l2117 0F92                      l2109 0F80                      l2061 0EA5  
                    l2045 0E6A                      l2037 0E58                      l2029 0E15  
                    l2205 08BC                      l3101 0AC0                      l3021 0C25  
                    l3013 0BFD                      l3005 0BCC                      l2151 08EA  
                    l2311 0710                      l2303 0701                      l2231 0494  
                    l2223 047F                      l2215 046C                      l2143 0FFE  
                    l2135 0FE5                      l2127 0FD2                      l2119 0F97  
                    l2071 0EC2                      l2063 0EB0                      l2055 0E86  
                    l2039 0E5A                      l2047 0E6E                      l3103 0AC6  
                    l3023 0C33                      l3031 0C5D                      l3007 0BDA  
                    l3015 0C04                      l3111 0ADE                      l2401 0932  
                    l2161 082B                      l2153 08F9                      l2145 08DD  
                    l2321 073F                      l2313 0724                      l2305 0707  
                    l2241 04AB                      l2233 0498                      l2225 0481  
                    l2217 046D                      l2209 045B                      l2137 0FE9  
                    l2129 0FD7                      l2081 0F28                      l2065 0EB2  
                    l2057 0E9D                      l2049 0E78                      l2073 0EC7  
                    l3041 0C92                      l3033 0C66                      l3025 0C39  
                    l3017 0C0D                      l3009 0BE0                      l3121 0B0B  
                    l3113 0AE3                      l3105 0AD4                      l2411 0949  
                    l2403 0937                      l2163 082C                      l2171 0806  
                    l2155 08FE                      l2147 08DF                      l2331 077A  
                    l2323 0743                      l2307 070B                      l2243 04AD  
                    l2235 0499                      l2227 0489                      l2219 0472  
                    l2139 0FEB                      l2091 0F5B                      l2075 0EDD  
                    l2083 0F37                      l2067 0EB6                      l2059 0EA1  
                    l3051 0CCE                      l3043 0CA0                      l3035 0C75  
                    l3027 0C47                      l3019 0C1C                      l3131 0B27  
                    l3123 0B11                      l3115 0AE8                      l3107 0AD8  
                    l2421 095F                      l2413 094D                      l2405 093B  
                    l2165 082D                      l2181 0812                      l2173 080A  
                    l2149 08E6                      l2341 07A7                      l2333 0789  
                    l2325 075C                      l2317 072C                      l2309 070C  
                    l2261 051E                      l2253 04C8                      l2245 04B5  
                    l2237 049E                      l2229 048E                      l2093 0F66  
                    l2085 0F4D                      l2077 0F1D                      l2069 0EB7  
                    l2501 01E9                      l3061 0D08                      l3053 0CD7  
                    l3045 0CAF                      l3037 0C7E                      l3029 0C56  
                    l3125 0B17                      l3117 0AF4                      l3133 0B42  
                    l3109 0ADA                      l2351 17CD                      l2415 0952  
                    l2407 0940                      l2431 17F7                      l2423 17F0  
                    l2167 082E                      l2159 0827                      l2175 080B  
                    l2191 00F8                      l2183 00BC                      l2343 07A8  
                    l2335 0793                      l2319 0731                      l2327 0762  
                    l2271 059B                      l2263 054A                      l2255 04D8  
                    l2247 04BA                      l2239 04A3                      l2095 0F6A  
                    l2087 0F52                      l2079 0F23                      l2511 020D  
                    l2503 01EF                      l3071 0D3E                      l3055 0CE5  
                    l3063 0D0F                      l3039 0C8C                      l3047 0CB6  
                    l3127 0B1D                      l3119 0AFD                      l2361 17EC  
                    l2353 17D0                      l2417 0956                      l2409 0944  
                    l2433 17FC                      l2425 17F4                      l2169 0833  
                    l2177 080C                      l2193 011C                      l2185 00D0  
                    l2345 07B3                      l2337 0795                      l2329 076F  
                    l2281 061B                      l2273 05B8                      l2265 0566  
                    l2257 04E5                      l2249 04BF                      l2097 0F6F  
                    l2601 0391                      l2521 0234                      l2513 021C  
                    l2505 01F7                      l3081 0A83                      l2441 081C  
                    l3073 0D44                      l3065 0D18                      l3057 0CEB  
                    l3049 0CBF                      l2355 17D3                      l2419 095B  
                    l2427 17F5                      l2179 080D                      l2195 0120  
                    l2187 00EC                      l2339 07A3                      l2291 06D3  
                    l2283 0648                      l2275 05C8                      l2267 0582  
                    l2259 0502                      l2099 0F72                      l2371 007B  
                    l2363 0040                      l2611 03CA                      l2603 039F  
                    l2523 0242                      l2531 0263                      l2515 0222  
                    l2507 01FB                      l3083 0A8C                      l2443 081D  
                    l2435 0816                      l3075 0D52                      l3067 0D27  
                    l3059 0CF9                      l2357 17E2                      l2349 17C9  
                    l2429 17F6                      l2381 086A                      l2461 09B3  
                    l2197 015A                      l2189 00F4                      l2293 06DC  
                    l2285 0658                      l2277 05E5                      l2269 058B  
                    l2373 009C                      l2365 0061                      l2621 0402  
                    l2613 03D9                      l2605 03AE                      l2541 0292  
                    l2533 0267                      l2525 0251                      l2517 022A  
                    l2509 01FF                      l3085 0A91                      l2445 0822  
                    l2437 081A                      l3077 0D61                      l3069 0D30  
                    l2359 17E7                      l2383 0872                      l2463 09B9  
                    l2455 099C                      l2199 015C                      l2295 06EA  
                    l2287 0685                      l2279 05FE                      l2375 00B7  
                    l2367 006D                      l2631 0431                      l2623 0408  
                    l2615 03DF                      l2607 03B8                      l2551 02BD  
                    l2535 0275                      l2543 0296                      l2527 0257  
                    l2519 0230                      l2471 0168                      l3095 0AAA  
                    l3087 0A9F                      l3079 0A79                      l2439 081B  
                    l3255 0B2E                      l2377 0861                      l2465 09D1  
                    l2457 09A6                      l2297 06F3                      l2289 06AB  
                    l2369 0070                      l2633 0437                      l2625 040E  
                    l2617 03E5                      l2609 03BC                      l2561 02EA  
                    l2553 02C5                      l2545 029A                      l2537 0284  
                    l2529 025F                      l2473 0176                      l3097 0AAF  
                    l3089 0AA7                      l2641 0904                      l2395 089E  
                    l2387 0897                      l2379 0866                      l2459 09A9  
                    l2299 06F7                      l2635 0445                      l2627 041C  
                    l2619 03F3                      l2571 0310                      l2563 02F0  
                    l2547 02A8                      l2555 02C9                      l2539 028A  
                    l2491 01BC                      l2475 0185                      l2483 0195  
                    l2467 015E                      l3099 0AB8                      l2643 0917  
                    l1941 084A                      l2397 08A4                      l2389 089C  
                    l2637 0454                      l2629 042B                      l2581 0335  
                    l2573 031F                      l2565 02F8                      l2557 02CD  
                    l2549 02B7                      l2493 01C4                      l2485 0199  
                    l2477 018B                      l2469 0164                      l2645 0920  
                    l2399 08AA                      l1951 0D68                      l2583 0343  
                    l2591 0364                      l2575 0325                      l2567 02FE  
                    l2559 02DB                      l2487 01A7                      l2495 01C8  
                    l2479 0193                      l2639 17D5                      l2647 0927  
                    l1961 0D7F                      l1953 0D6F                      l2593 0368  
                    l2585 0352                      l2577 032D                      l2569 0302  
                    l2497 01CC                      l2489 01B6                      l1947 084C  
                    l1971 0D97                      l1963 0D84                      l1955 0D75  
                    l2595 0376                      l2587 0358                      l2579 0331  
                    l2499 01DA                      l1949 0852                      l1981 0DAD  
                    l1973 0D9C                      l1965 0D8C                      l1957 0D79  
                    l2597 0385                      l2589 0360                      l1991 0DC1  
                    l1983 0DAE                      l1975 0DA2                      l1967 0D8D  
                    l1959 0D7A                      l2599 038B                      l1985 0DB3  
                    l1993 0DC3                      l1977 0DA3                      l1969 0D8F  
                    l1995 0DD1                      l1987 0DB8                      l1979 0DA9  
                    l2973 0965                      l1997 0DD5                      l1989 0DC0  
                    l2981 0B4E                      l2975 0968                      l1999 0DD9  
                    l2991 0B83                      l2983 0B59                      l2977 097F  
                    l2993 0B87                      l2985 0B68                      l2979 0985  
                    l2995 0B95                      l2987 0B71                      l2997 0BA4  
                    l2989 0B7F                      l2999 0BAB                      u2000 0FD7  
                    u2001 0FD6                      u2010 0FE4                      u2011 0FE3  
                    u2020 0FE9                      u2101 0107                      u2021 0FE8  
                    u2110 0120                      u2102 0108                      u2030 0FFE  
                    u2111 011F                      u2103 010D                      u2031 0FFD  
                    u2104 010E                      u2040 08EA                      u2200 04BA  
                    u2121 012F                      u2105 0113                      u2041 08E9  
                    u2201 04B9                      u2130 015A                      u2122 0130  
                    u2106 0114                      u2210 04BF                      u2131 0159  
                    u2123 0135                      u2211 04BE                      u2124 0136  
                    u2060 08FE                      u2140 046C                      u2125 013B  
                    u2061 08FD                      u2301 060D                      u2221 0510  
                    u2141 046B                      u2126 013C                      u2070 00D0  
                    u2302 0614                      u2222 0517                      u2150 0472  
                    u2135 0156                      u2071 00CF                      u2055 08F1  
                    u2311 063A                      u2303 061B                      u2231 052C  
                    u2223 051E                      u2151 0471                      u2080 00EC  
                    u2312 0641                      u2232 0533                      u2160 0477  
                    u1600 0D84                      u3200 0B59                      u2081 00EB  
                    u2321 0667                      u2313 0648                      u2241 0558  
                    u2233 053A                      u2161 0476                      u1601 0D83  
                    u3201 0B58                      u2090 00F8                      u2410 070B  
                    u2330 0691                      u2322 066E                      u2242 055F  
                    u2170 0498                      u1610 0DA2                      u3210 0B87  
                    u2091 00F7                      u2411 070A                      u2323 0675  
                    u2251 0574                      u2243 0566                      u2171 0497  
                    u1611 0DA1                      u3211 0B86                      u2500 07A7  
                    u2420 0710                      u2252 057B                      u2180 049E  
                    u1700 0E4D                      u1620 0DAD                      u3300 0D18  
                    u3220 0BB4                      u2501 07A6                      u2421 070F  
                    u2405 06FA                      u2341 069D                      u2253 0582  
                    u2181 049D                      u1701 0E4C                      u1621 0DAC  
                    u3301 0D17                      u3221 0BB3                      u2430 0724  
                    u2350 06B9                      u2342 06A4                      u2190 04A3  
                    u1710 0E5E                      u1630 0DB3                      u2510 00B7  
                    u3310 0D44                      u3230 0BE0                      u2431 0723  
                    u2343 06AB                      u2335 068C                      u2271 05AA  
                    u2191 04A2                      u1711 0E5D                      u1631 0DB2  
                    u2511 00B6                      u3311 0D43                      u3231 0BDF  
                    u2520 0872                      u2440 072B                      u2272 05B1  
                    u1640 0DB8                      u2600 0199                      u3320 0AA7  
                    u3240 0C0D                      u2521 0871                      u2441 072A  
                    u2361 06C5                      u2281 05D7                      u2273 05B8  
                    u2265 0584                      u1641 0DB7                      u2601 0198  
                    u3321 0AA6                      u3241 0C0C                      u1570 085F  
                    u2530 08B7                      u3170 0972                      u2450 0731  
                    u2362 06CC                      u2282 05DE                      u1810 0EDD  
                    u1730 0E74                      u1650 0DD1                      u2610 01C4  
                    u3330 0AB8                      u3250 0C39                      u1571 085E  
                    u2531 08B6                      u2451 0730                      u2363 06D3  
                    u2355 06B4                      u2283 05E5                      u1811 0EDC  
                    u1731 0E73                      u1651 0DD0                      u2611 01C3  
                    u3331 0AB7                      u3251 0C38                      u3180 098F  
                    u2460 0743                      u1900 0F79                      u1740 0E78  
                    u1660 0DD5                      u1580 0D79                      u2700 029A  
                    u2620 01CC                      u3340 0AD3                      u3260 0C66  
                    u2461 0742                      u1901 0F78                      u1821 0EF6  
                    u1813 0ED9                      u1805 0EBB                      u1741 0E77  
                    u1725 0E63                      u1661 0DD4                      u1581 0D78  
                    u2701 0299                      u2621 01CB                      u3341 0AD2  
                    u3261 0C65                      u3190 099B                      u2470 0752  
                    u2390 06F7                      u1910 0F7F                      u1830 0F0A  
                    u1822 0EF7                      u1750 0E7D                      u1670 0E2D  
                    u1590 0D7F                      u2710 02C5                      u2630 01F7  
                    u3270 0C92                      u3350 0B17                      u1575 085B  
                    u2535 08B3                      u3191 099A                      u2391 06F6  
                    u2375 06D5                      u2295 05E7                      u1911 0F7E  
                    u1831 0F0B                      u1823 0EFC                      u1751 0E7C  
                    u1671 0E2C                      u1591 0D7E                      u2711 02C4  
                    u2631 01F6                      u3271 0C91                      u3351 0B16  
                    u2480 076F                      u1920 0F84                      u1840 0F28  
                    u1832 0F10                      u1824 0EFD                      u1680 0E36  
                    u2800 03BC                      u2720 02CD                      u2640 01FF  
                    u3280 0CBF                      u3360 0B4A                      u2481 076E  
                    u2385 06EC                      u1921 0F83                      u1841 0F27  
                    u1833 0F11                      u1825 0F02                      u1761 0E8F  
                    u1681 0E34                      u2801 03BB                      u2721 02CC  
                    u2641 01FE                      u3345 0ACF                      u3281 0CBE  
                    u3361 0B49                      u2570 09D1                      u2490 0789  
                    u1930 0F8A                      u1850 0F4D                      u1826 0F03  
                    u1770 0EA1                      u1762 0E96                      u1690 0E37  
                    u2810 03E5                      u2730 02F8                      u2650 022A  
                    u3290 0CEB                      u2571 09D0                      u2491 0788  
                    u2475 074D                      u1931 0F89                      u1851 0F4C  
                    u1771 0EA0                      u1763 0E9D                      u1675 0E29  
                    u2811 03E4                      u2731 02F7                      u2651 0229  
                    u3507 091B                      u3291 0CEA                      u1940 0F91  
                    u1860 0F52                      u1780 0EA5                      u2820 040E  
                    u2740 0302                      u2660 0234                      u2580 0168  
                    u2485 076B                      u1941 0F90                      u1861 0F51  
                    u1781 0EA4                      u2821 040D                      u2741 0301  
                    u2661 0233                      u2581 0167                      u3517 0A99  
                    u3437 0B05                      u1950 0F97                      u1790 0EB6  
                    u2830 0437                      u2750 032D                      u2670 025F  
                    u2590 0193                      u2575 09CD                      u2495 0785  
                    u1951 0F96                      u1791 0EB5                      u2831 0436  
                    u2751 032C                      u3607 030A                      u2671 025E  
                    u2591 0192                      u3527 0170                      u3447 0B8F  
                    u1960 0FA9                      u1880 0F6A                      u2760 0335  
                    u2680 0267                      u1961 0FA8                      u1881 0F69  
                    u3617 033D                      u2761 0334                      u2681 0266  
                    u3537 01A1                      u3457 0BE8                      u1970 0FBA  
                    u1890 0F6F                      u2770 0360                      u2690 0292  
                    u2850 0927                      u1891 0F6E                      u1875 0F5F  
                    u3627 0370                      u2771 035F                      u2691 0291  
                    u3547 01D4                      u2851 0926                      u3467 0C41  
                    u1980 0FC9                      u2780 0368                      u1981 0FC8  
                    u3637 0399                      u2781 0367                      u3557 0207  
                    u2845 090D                      u3477 0C9A                      u1990 0FD2  
                    u2790 0391                      u1991 0FD1                      u1975 0FB5  
                    u3647 03C4                      u2791 0390                      u3567 023C  
                    u3487 0CF3                      u3657 03ED                      u3577 026F  
                    u3497 0D4C                      u3667 0416                      u3587 02A2  
                    u3677 043F                      u3597 02D5                      u3687 0067  
                    u3697 0076              ?_LCD_escreve 0070                      _main 0AD4  
                    _init 17C9                      _menu 004D              ?_liga_buzzer 0035  
                    btemp 007E              ?_espacoLivre 0070          _senhaUserConfere 005C  
                    start 0000        __size_of_LCD_limpa 0010          __end_of_LCD_init 0965  
         __end_of___fladd 1000                     ?_main 0070                     ?_init 0070  
         __end_of___flmul 07BC           __end_of___flsub 08DC                     _PORTB 0006  
                   _PORTD 0008                     _PORTE 0009                     _TRISA 0085  
                   _TRISB 0086                     _TRISD 0088                     _TRISE 0089  
                   _delay 084A                     _input 0053           __end_of_teclado 045B  
       _msgReativarActive 00DB                     pclath 000A                     status 0003  
                   wtemp0 007E       __size_of_LCD_enable 000E       __size_of_LCD_linha1 0010  
     __size_of_LCD_linha2 0010           __initialization 07BC              __end_of_main 0B4E  
            __end_of_init 17D5                    ??_main 0045                    ??_init 0070  
       __end_of_LCD_limpa 1800           _alteraSenhaUser 0A79                    ?_delay 0070  
                  _ADCON0 001F                    _ADCON1 009F                    _ADRESH 001E  
                  _ADRESL 009E                    _Linha2 099C                    ___flge 00BC  
               ??___fladd 0020                 ??___flmul 0079                 ??___flsub 007C  
                  _painel 0051                    delay@i 0070           leituraADC@canal 0076  
                  _strlen 0860        __size_of__Umul8_16 0027                 ??_teclado 003B  
          _escreveMesagem 0965                ___flge@ff1 0070                ___flge@ff2 0074  
 __end_of__initialization 07FC                 ?_LCD_init 0070      __size_of_LCD_escreve 0011  
            LCD_escreve@x 0072      __size_of_liga_buzzer 007C      __size_of_espacoLivre 0021  
          __pcstackCOMMON 0070              __pidataBANK0 0879              __pidataBANK1 09D7  
            __pidataBANK2 0003              __pidataBANK3 0A25             __end_of_delay 0860  
 __end_of_alteraSenhaUser 0AD4              ??_LCD_enable 0072              ??_LCD_linha1 0072  
            ??_LCD_linha2 0072    __end_of_escreveMesagem 099C              espacoLivre@i 0073  
                 ??_delay 0070                __pbssBANK0 0066        __size_of_inicioADC 000D  
     escreveMesagem@texto 0073                ??_LCD_init 0072                   ?_Linha2 0070  
      __end_of_LCD_enable 17F0         __end_of__Umul8_16 0903        __end_of_LCD_linha1 0826  
      __end_of_LCD_linha2 0816                __pmaintext 0AD4                   ?___flge 0070  
                 ?_strlen 0070           ?_escreveMesagem 0073     _msgSenhaUsuarioActive 013E  
                 Linha2@i 0077  liga_buzzer@tempoSegundos 0035           __size_of_Linha2 003B  
         __size_of___flge 00A2                   ___fladd 0D68                   ___flmul 045B  
                 ___flsub 08B8                _leituraADC 0903         __end_of_inicioADC 17E2  
                 __ptext1 0B4E                   __ptext2 0816                   __ptext3 0903  
                 __ptext4 17D5                   __ptext5 0A79                   __ptext6 015E  
                 __ptext7 0040                   __ptext8 08B8                   __ptext9 0D68  
        ?_alteraSenhaUser 003E           __size_of_strlen 0019                _msgMascara 0057  
                 _teclado 015E                _listaZonas 0B4E      end_of_initialization 07FC  
               _LCD_limpa 17F0                   strlen@s 0074               ___fladd@grs 007B  
              ?_LCD_limpa 0070               ___flmul@grs 0029         __size_of_LCD_init 0033  
          __end_of_Linha2 09D7               ?_leituraADC 0070            __end_of___flge 015E  
          __end_of_strlen 0879       start_initialization 07BC               ?_listaZonas 003B  
          _valorSensorAux 006C             ??_LCD_escreve 0072             ??_liga_buzzer 0039  
           ??_espacoLivre 0073                  ??_Linha2 0075                  ??___flge 0078  
              init_fetch0 0837                 __Umul8_16 08DC               __pdataBANK0 0048  
             __pdataBANK1 00A0               __pdataBANK2 0110               __pdataBANK3 0190  
        ??_escreveMesagem 0075                  ??_strlen 0072                 ___fladd@a 0074  
               ___fladd@b 0070                 ___flmul@a 0024                 ___flmul@b 0020  
               ___flsub@a 0028                 ___flsub@b 002C                 ___latbits 0002  
           __pcstackBANK0 0020               ??_LCD_limpa 0072       __size_of_leituraADC 002F  
     __end_of_LCD_escreve 0837       __end_of_liga_buzzer 00BC                  ?___fladd 0070  
     __end_of_espacoLivre 08B8       __size_of_listaZonas 021A                  ?___flmul 0020  
                ?___flsub 0028                ?__Umul8_16 0070            _msgDigiteSenha 00A5  
               _auxSensor 0055                 _inicioADC 17D5                  ?_teclado 0070  
             _alteraSenha 006A            __size_of_delay 0016                  _LCD_init 0932  
               _senhaUser 0061                  _GO_nDONE 00FA                 _userFalse 004F  
              ?_inicioADC 0070  __size_of_alteraSenhaUser 005B               _LCD_escreve 0826  
             _liga_buzzer 0040               _espacoLivre 0897          _msgDesativarZona 0120  
    _msgSenhaCoacaoActive 01AC              ??_leituraADC 0072               ??__Umul8_16 0072  
        __size_of___fladd 0298           _msgSenhaDisparo 019E          __size_of___flmul 0361  
        __size_of___flsub 0024           _msgSenhaCorreta 01D6           _msgSenhaUsuario 01BA  
            ??_listaZonas 003D          __size_of_teclado 02FD          alteraSenhaUser@i 0043  
                __ptext10 045B                  __ptext11 08DC                  __ptext20 0932  
                __ptext12 00BC                  __ptext21 17C9                  __ptext13 0965  
                __ptext22 17E2                  __ptext14 099C                  __ptext23 084A  
                __ptext15 0860                  __ptext16 0897                  __ptext17 0806  
                __ptext18 0826                  __ptext19 17F0                  _opConfig 0066  
      __end_of_leituraADC 0932             __size_of_main 007A             __size_of_init 000C  
             _msgReativar 00E5                  _senhaCoa 0048    _msgDesativarZonaActive 0110  
      __end_of_listaZonas 0D68                _LCD_enable 17E2         leituraADC@leitura 0074  
              _LCD_linha1 0816                _LCD_linha2 0806               ??_inicioADC 0070  
             _senhaConfig 00A0                  init_ram0 083B            _msgSenhaCoacao 00B4  
          _msgSenhaConfig 00C1            _msgSenhaErrada 00CE     _msgSenhaDisparoActive 012F  
       ??_alteraSenhaUser 0040      _msgSenhaConfigActive 01C8               _valorSensor 006E  
  __Umul8_16@multiplicand 0070     listaZonas@valorSensor 003B                  strlen@cp 0073  
           ___fladd@signs 0078              ___fladd@aexp 0079              ___fladd@bexp 007A  
    __Umul8_16@multiplier 0078         __Umul8_16@product 0074  
