

Microchip MPLAB XC8 Assembler V2.32 build 20210201212658 
                                                                                               Wed Sep 29 20:56:04 2021

Microchip MPLAB XC8 C Compiler v2.32 (Free license) build 20210201212658 Og1 
     1                           	processor	16F877A
     2                           	pagewidth 120
     3                           	opt	flic
     4                           	psect	idataBANK0,global,class=CODE,delta=2,noexec
     5                           	psect	idataBANK1,global,class=CODE,delta=2,noexec
     6                           	psect	strings,global,class=STRING,delta=2,noexec
     7                           	psect	cinit,global,class=CODE,merge=1,delta=2
     8                           	psect	bssBANK0,global,class=BANK0,space=1,delta=1,noexec
     9                           	psect	dataBANK0,global,class=BANK0,space=1,delta=1,noexec
    10                           	psect	dataBANK1,global,class=BANK1,space=1,delta=1,noexec
    11                           	psect	inittext,global,class=CODE,delta=2
    12                           	psect	clrtext,global,class=CODE,delta=2
    13                           	psect	cstackCOMMON,global,class=COMMON,space=1,delta=1,noexec
    14                           	psect	cstackBANK0,global,class=BANK0,space=1,delta=1,noexec
    15                           	psect	maintext,global,class=CODE,split=1,delta=2
    16                           	psect	text1,local,class=CODE,merge=1,delta=2
    17                           	psect	text2,local,class=CODE,merge=1,delta=2
    18                           	psect	text3,local,class=CODE,merge=1,delta=2
    19                           	psect	text4,local,class=CODE,merge=1,delta=2,group=1
    20                           	psect	text5,local,class=CODE,merge=1,delta=2,group=1
    21                           	psect	text6,local,class=CODE,merge=1,delta=2,group=1
    22                           	psect	text7,local,class=CODE,merge=1,delta=2,group=1
    23                           	psect	text8,local,class=CODE,merge=1,delta=2,group=1
    24                           	psect	text9,local,class=CODE,merge=1,delta=2,group=2
    25                           	psect	text10,local,class=CODE,merge=1,delta=2,group=2
    26                           	psect	text11,local,class=CODE,merge=1,delta=2,group=2
    27                           	psect	text12,local,class=CODE,merge=1,delta=2
    28                           	psect	text13,local,class=CODE,merge=1,delta=2
    29                           	psect	text14,local,class=CODE,merge=1,delta=2
    30                           	psect	text15,local,class=CODE,merge=1,delta=2
    31                           	psect	text16,local,class=CODE,merge=1,delta=2,group=2
    32                           	psect	text17,local,class=CODE,merge=1,delta=2
    33                           	psect	text18,local,class=CODE,merge=1,delta=2
    34                           	psect	text19,local,class=CODE,merge=1,delta=2
    35                           	psect	text20,local,class=CODE,merge=1,delta=2
    36                           	psect	text21,local,class=CODE,merge=1,delta=2
    37                           	psect	text22,local,class=CODE,merge=1,delta=2
    38                           	psect	text23,local,class=CODE,merge=1,delta=2
    39                           	dabs	1,0x7E,2
    40  0000                     
    41                           ; Version 2.20
    42                           ; Generated 12/02/2020 GMT
    43                           ; 
    44                           ; Copyright © 2020, Microchip Technology Inc. and its subsidiaries ("Microchip")
    45                           ; All rights reserved.
    46                           ; 
    47                           ; This software is developed by Microchip Technology Inc. and its subsidiaries ("Microch
      +                          ip").
    48                           ; 
    49                           ; Redistribution and use in source and binary forms, with or without modification, are
    50                           ; permitted provided that the following conditions are met:
    51                           ; 
    52                           ;     1. Redistributions of source code must retain the above copyright notice, this lis
      +                          t of
    53                           ;        conditions and the following disclaimer.
    54                           ; 
    55                           ;     2. Redistributions in binary form must reproduce the above copyright notice, this 
      +                          list
    56                           ;        of conditions and the following disclaimer in the documentation and/or other
    57                           ;        materials provided with the distribution.
    58                           ; 
    59                           ;     3. Microchip's name may not be used to endorse or promote products derived from th
      +                          is
    60                           ;        software without specific prior written permission.
    61                           ; 
    62                           ; THIS SOFTWARE IS PROVIDED BY MICROCHIP "AS IS" AND ANY EXPRESS OR IMPLIED WARRANTIES,
    63                           ; INCLUDING, BUT NOT LIMITED TO, THE IMPLIED WARRANTIES OF MERCHANTABILITY AND FITNESS F
      +                          OR
    64                           ; PURPOSE ARE DISCLAIMED.  IN NO EVENT SHALL MICROCHIP BE LIABLE FOR ANY DIRECT, INDIREC
      +                          T,
    65                           ; INCIDENTAL, SPECIAL, EXEMPLARY, OR CONSEQUENTIAL DAMAGES (INCLUDING BUT NOT LIMITED TO
    66                           ; PROCUREMENT OF SUBSTITUTE GOODS OR SERVICES; LOSS OF USE, DATA OR PROFITS; OR BUSINESS
    67                           ; INTERRUPTION) HOWSOEVER CAUSED AND ON ANY THEORY OF LIABILITY, WHETHER IN CONTRACT, ST
      +                          RICT
    68                           ; LIABILITY, OR TORT (INCLUDING NEGLIGENCE OR OTHERWISE) ARISING IN ANY WAY OUT OF THE U
      +                          SE OF
    69                           ; THIS SOFTWARE, EVEN IF ADVISED OF THE POSSIBILITY OF SUCH DAMAGE.
    70                           ; 
    71                           ; 
    72                           ; Code-generator required, PIC16F877A Definitions
    73                           ; 
    74                           ; SFR Addresses
    75  0000                     	;# 
    76  0001                     	;# 
    77  0002                     	;# 
    78  0003                     	;# 
    79  0004                     	;# 
    80  0005                     	;# 
    81  0006                     	;# 
    82  0007                     	;# 
    83  0008                     	;# 
    84  0009                     	;# 
    85  000A                     	;# 
    86  000B                     	;# 
    87  000C                     	;# 
    88  000D                     	;# 
    89  000E                     	;# 
    90  000E                     	;# 
    91  000F                     	;# 
    92  0010                     	;# 
    93  0011                     	;# 
    94  0012                     	;# 
    95  0013                     	;# 
    96  0014                     	;# 
    97  0015                     	;# 
    98  0015                     	;# 
    99  0016                     	;# 
   100  0017                     	;# 
   101  0018                     	;# 
   102  0019                     	;# 
   103  001A                     	;# 
   104  001B                     	;# 
   105  001B                     	;# 
   106  001C                     	;# 
   107  001D                     	;# 
   108  001E                     	;# 
   109  001F                     	;# 
   110  0081                     	;# 
   111  0085                     	;# 
   112  0086                     	;# 
   113  0087                     	;# 
   114  0088                     	;# 
   115  0089                     	;# 
   116  008C                     	;# 
   117  008D                     	;# 
   118  008E                     	;# 
   119  0091                     	;# 
   120  0092                     	;# 
   121  0093                     	;# 
   122  0094                     	;# 
   123  0098                     	;# 
   124  0099                     	;# 
   125  009C                     	;# 
   126  009D                     	;# 
   127  009E                     	;# 
   128  009F                     	;# 
   129  010C                     	;# 
   130  010D                     	;# 
   131  010E                     	;# 
   132  010F                     	;# 
   133  018C                     	;# 
   134  018D                     	;# 
   135  0000                     	;# 
   136  0001                     	;# 
   137  0002                     	;# 
   138  0003                     	;# 
   139  0004                     	;# 
   140  0005                     	;# 
   141  0006                     	;# 
   142  0007                     	;# 
   143  0008                     	;# 
   144  0009                     	;# 
   145  000A                     	;# 
   146  000B                     	;# 
   147  000C                     	;# 
   148  000D                     	;# 
   149  000E                     	;# 
   150  000E                     	;# 
   151  000F                     	;# 
   152  0010                     	;# 
   153  0011                     	;# 
   154  0012                     	;# 
   155  0013                     	;# 
   156  0014                     	;# 
   157  0015                     	;# 
   158  0015                     	;# 
   159  0016                     	;# 
   160  0017                     	;# 
   161  0018                     	;# 
   162  0019                     	;# 
   163  001A                     	;# 
   164  001B                     	;# 
   165  001B                     	;# 
   166  001C                     	;# 
   167  001D                     	;# 
   168  001E                     	;# 
   169  001F                     	;# 
   170  0081                     	;# 
   171  0085                     	;# 
   172  0086                     	;# 
   173  0087                     	;# 
   174  0088                     	;# 
   175  0089                     	;# 
   176  008C                     	;# 
   177  008D                     	;# 
   178  008E                     	;# 
   179  0091                     	;# 
   180  0092                     	;# 
   181  0093                     	;# 
   182  0094                     	;# 
   183  0098                     	;# 
   184  0099                     	;# 
   185  009C                     	;# 
   186  009D                     	;# 
   187  009E                     	;# 
   188  009F                     	;# 
   189  010C                     	;# 
   190  010D                     	;# 
   191  010E                     	;# 
   192  010F                     	;# 
   193  018C                     	;# 
   194  018D                     	;# 
   195                           
   196                           	psect	idataBANK0
   197  0955                     __pidataBANK0:
   198                           
   199                           ;initializer for _userFalse
   200  0955  3401               	retlw	1
   201  0956  3400               	retlw	0
   202                           
   203                           ;initializer for _painel
   204  0957  3401               	retlw	1
   205  0958  3400               	retlw	0
   206                           
   207                           ;initializer for _input
   208  0959  340A               	retlw	10
   209  095A  3400               	retlw	0
   210                           
   211                           ;initializer for _msg2
   212  095B  345F               	retlw	95
   213  095C  345F               	retlw	95
   214  095D  345F               	retlw	95
   215  095E  345F               	retlw	95
   216  095F  3400               	retlw	0
   217                           
   218                           ;initializer for _senhaUser
   219  0960  3431               	retlw	49
   220  0961  3432               	retlw	50
   221  0962  3431               	retlw	49
   222  0963  3432               	retlw	50
   223  0964  3400               	retlw	0
   224                           
   225                           	psect	idataBANK1
   226  0916                     __pidataBANK1:
   227                           
   228                           ;initializer for _msg
   229  0916  3444               	retlw	68
   230  0917  3469               	retlw	105
   231  0918  3467               	retlw	103
   232  0919  3469               	retlw	105
   233  091A  3474               	retlw	116
   234  091B  3465               	retlw	101
   235  091C  3420               	retlw	32
   236  091D  3461               	retlw	97
   237  091E  3420               	retlw	32
   238  091F  3473               	retlw	115
   239  0920  3465               	retlw	101
   240  0921  346E               	retlw	110
   241  0922  3468               	retlw	104
   242  0923  3461               	retlw	97
   243  0924  3400               	retlw	0
   244  0006                     _PORTB	set	6
   245  0009                     _PORTE	set	9
   246  0008                     _PORTD	set	8
   247  0033                     _RB3	set	51
   248  0032                     _RB2	set	50
   249  0031                     _RB1	set	49
   250  0030                     _RB0	set	48
   251  002B                     _RA3	set	43
   252  002C                     _RA4	set	44
   253  002D                     _RA5	set	45
   254  0029                     _RA1	set	41
   255  0086                     _TRISB	set	134
   256  0089                     _TRISE	set	137
   257  0088                     _TRISD	set	136
   258  0085                     _TRISA	set	133
   259  009F                     _ADCON1	set	159
   260                           
   261                           	psect	strings
   262  0800                     __pstrings:
   263  0800                     stringtab:
   264  0800                     __stringtab:
   265  0800                     stringcode:	
   266                           ;	String table - string pointers are 1 byte each
   267                           
   268  0800                     stringdir:
   269  0800  3008               	movlw	high stringdir
   270  0801  008A               	movwf	10
   271  0802  0804               	movf	4,w
   272  0803  0A84               	incf	4,f
   273  0804  0782               	addwf	2,f
   274  0805                     __stringbase:
   275  0805  3400               	retlw	0
   276  0806                     __end_of__stringtab:
   277  0806                     STR_10:
   278  0806  3430               	retlw	48	;'0'
   279  0807  3400               	retlw	0
   280  0808                     STR_1:
   281  0808  3431               	retlw	49	;'1'
   282  0809  3400               	retlw	0
   283  080A                     STR_2:
   284  080A  3432               	retlw	50	;'2'
   285  080B  3400               	retlw	0
   286  080C                     STR_3:
   287  080C  3433               	retlw	51	;'3'
   288  080D  3400               	retlw	0
   289  080E                     STR_4:
   290  080E  3434               	retlw	52	;'4'
   291  080F  3400               	retlw	0
   292  0810                     STR_5:
   293  0810  3435               	retlw	53	;'5'
   294  0811  3400               	retlw	0
   295  0812                     STR_6:
   296  0812  3436               	retlw	54	;'6'
   297  0813  3400               	retlw	0
   298  0814                     STR_7:
   299  0814  3437               	retlw	55	;'7'
   300  0815  3400               	retlw	0
   301  0816                     STR_8:
   302  0816  3438               	retlw	56	;'8'
   303  0817  3400               	retlw	0
   304  0818                     STR_9:
   305  0818  3439               	retlw	57	;'9'
   306  0819  3400               	retlw	0
   307                           
   308                           	psect	cinit
   309  07D9                     start_initialization:	
   310                           ; #config settings
   311                           
   312  07D9                     __initialization:
   313                           
   314                           ; Initialize objects allocated to BANK1
   315  07D9  1383               	bcf	3,7	;select IRP bank0
   316  07DA  30AF               	movlw	low (__pdataBANK1+15)
   317  07DB  00FD               	movwf	btemp+-1
   318  07DC  3009               	movlw	high __pidataBANK1
   319  07DD  00FE               	movwf	btemp
   320  07DE  3016               	movlw	low __pidataBANK1
   321  07DF  00FF               	movwf	btemp+1
   322  07E0  30A0               	movlw	low __pdataBANK1
   323  07E1  0084               	movwf	4
   324  07E2  120A  158A  217A  120A  118A  	fcall	init_ram0
   325                           
   326                           ; Initialize objects allocated to BANK0
   327  07E7  3067               	movlw	low (__pdataBANK0+16)
   328  07E8  00FD               	movwf	btemp+-1
   329  07E9  3009               	movlw	high __pidataBANK0
   330  07EA  00FE               	movwf	btemp
   331  07EB  3055               	movlw	low __pidataBANK0
   332  07EC  00FF               	movwf	btemp+1
   333  07ED  3057               	movlw	low __pdataBANK0
   334  07EE  0084               	movwf	4
   335  07EF  120A  158A  217A  120A  118A  	fcall	init_ram0
   336                           
   337                           ; Clear objects allocated to BANK0
   338  07F4  3045               	movlw	low __pbssBANK0
   339  07F5  0084               	movwf	4
   340  07F6  3057               	movlw	low (__pbssBANK0+18)
   341  07F7  120A  158A  20F4  120A  118A  	fcall	clear_ram0
   342  07FC                     end_of_initialization:	
   343                           ;End of C runtime variable initialization code
   344                           
   345  07FC                     __end_of__initialization:
   346  07FC  0183               	clrf	3
   347  07FD  120A  158A  2B10   	ljmp	_main	;jump to C main() function
   348                           
   349                           	psect	bssBANK0
   350  0045                     __pbssBANK0:
   351  0045                     _senhaConfig:
   352  0045                     	ds	5
   353  004A                     _senhaCoa:
   354  004A                     	ds	5
   355  004F                     _config:
   356  004F                     	ds	2
   357  0051                     _aux:
   358  0051                     	ds	1
   359  0052                     _senhaUserConfere:
   360  0052                     	ds	5
   361                           
   362                           	psect	dataBANK0
   363  0057                     __pdataBANK0:
   364  0057                     _userFalse:
   365  0057                     	ds	2
   366  0059                     _painel:
   367  0059                     	ds	2
   368  005B                     _input:
   369  005B                     	ds	2
   370  005D                     _msg2:
   371  005D                     	ds	5
   372  0062                     _senhaUser:
   373  0062                     	ds	5
   374                           
   375                           	psect	dataBANK1
   376  00A0                     __pdataBANK1:
   377  00A0                     _msg:
   378  00A0                     	ds	15
   379                           
   380                           	psect	inittext
   381  0976                     init_fetch0:	
   382                           ;	Called with low address in FSR and high address in W
   383                           
   384  0976  087E               	movf	btemp,w
   385  0977  008A               	movwf	10
   386  0978  087F               	movf	btemp+1,w
   387  0979  0082               	movwf	2
   388  097A                     init_ram0:	
   389                           ;Called with:
   390                           ;	high address of idata address in btemp 
   391                           ;	low address of idata address in btemp+1 
   392                           ;	low address of data in FSR
   393                           ;	high address + 1 of data in btemp-1
   394                           
   395  097A  120A  158A  2176  120A  158A  	fcall	init_fetch0
   396  097F  0080               	movwf	0
   397  0980  0A84               	incf	4,f
   398  0981  0804               	movf	4,w
   399  0982  067D               	xorwf	btemp+-1,w
   400  0983  1903               	btfsc	3,2
   401  0984  3400               	retlw	0
   402  0985  0AFF               	incf	btemp+1,f
   403  0986  1903               	btfsc	3,2
   404  0987  0AFE               	incf	btemp,f
   405  0988  297A               	goto	init_ram0
   406                           
   407                           	psect	clrtext
   408  08F4                     clear_ram0:	
   409                           ;	Called with FSR containing the base address, and
   410                           ;	W with the last address+1
   411                           
   412  08F4  0064               	clrwdt	;clear the watchdog before getting into this loop
   413  08F5                     clrloop0:
   414  08F5  0180               	clrf	0	;clear RAM location pointed to by FSR
   415  08F6  0A84               	incf	4,f	;increment pointer
   416  08F7  0604               	xorwf	4,w	;XOR with final address
   417  08F8  1903               	btfsc	3,2	;have we reached the end yet?
   418  08F9  3400               	retlw	0	;all done for this memory range, return
   419  08FA  0604               	xorwf	4,w	;XOR again to restore value
   420  08FB  28F5               	goto	clrloop0	;do the next byte
   421                           
   422                           	psect	cstackCOMMON
   423  0070                     __pcstackCOMMON:
   424  0070                     ?___flge:
   425  0070                     ?_LCD_enable:	
   426                           ; 1 bit 
   427                           
   428  0070                     ?_delay:	
   429                           ; 1 bytes @ 0x0
   430                           
   431  0070                     ??_delay:	
   432                           ; 1 bytes @ 0x0
   433                           
   434  0070                     ?_telaInicial:	
   435                           ; 1 bytes @ 0x0
   436                           
   437  0070                     ?_Linha2:	
   438                           ; 1 bytes @ 0x0
   439                           
   440  0070                     ?_validaUser:	
   441                           ; 1 bytes @ 0x0
   442                           
   443  0070                     ?_espacoLivre:	
   444                           ; 1 bytes @ 0x0
   445                           
   446  0070                     ?_strcpy:	
   447                           ; 1 bytes @ 0x0
   448                           
   449  0070                     ?_init:	
   450                           ; 1 bytes @ 0x0
   451                           
   452  0070                     ??_init:	
   453                           ; 1 bytes @ 0x0
   454                           
   455  0070                     ?_LCD_init:	
   456                           ; 1 bytes @ 0x0
   457                           
   458  0070                     ?_LCD_escreve:	
   459                           ; 1 bytes @ 0x0
   460                           
   461  0070                     ?_LCD_limpa:	
   462                           ; 1 bytes @ 0x0
   463                           
   464  0070                     ?_LCD_linha1:	
   465                           ; 1 bytes @ 0x0
   466                           
   467  0070                     ?_LCD_linha2:	
   468                           ; 1 bytes @ 0x0
   469                           
   470  0070                     ?_main:	
   471                           ; 1 bytes @ 0x0
   472                           
   473  0070                     ?_teclado:	
   474                           ; 1 bytes @ 0x0
   475                           
   476  0070                     ?_strlen:	
   477                           ; 1 bytes @ 0x0
   478                           
   479  0070                     ?_strcmp:	
   480                           ; 2 bytes @ 0x0
   481                           
   482  0070                     ?__Umul8_16:	
   483                           ; 2 bytes @ 0x0
   484                           
   485  0070                     ?___fladd:	
   486                           ; 2 bytes @ 0x0
   487                           
   488  0070                     __Umul8_16@multiplicand:	
   489                           ; 4 bytes @ 0x0
   490                           
   491  0070                     strcmp@s2:	
   492                           ; 1 bytes @ 0x0
   493                           
   494  0070                     strcpy@from:	
   495                           ; 1 bytes @ 0x0
   496                           
   497  0070                     delay@i:	
   498                           ; 1 bytes @ 0x0
   499                           
   500  0070                     ___flge@ff1:	
   501                           ; 2 bytes @ 0x0
   502                           
   503  0070                     ___fladd@b:	
   504                           ; 4 bytes @ 0x0
   505                           
   506                           
   507                           ; 4 bytes @ 0x0
   508  0070                     	ds	1
   509  0071                     ??_strcpy:
   510                           
   511                           ; 1 bytes @ 0x1
   512  0071                     	ds	1
   513  0072                     ??_LCD_enable:
   514  0072                     ??_strlen:	
   515                           ; 1 bytes @ 0x2
   516                           
   517  0072                     ??_strcmp:	
   518                           ; 1 bytes @ 0x2
   519                           
   520  0072                     ??__Umul8_16:	
   521                           ; 1 bytes @ 0x2
   522                           
   523  0072                     ??_LCD_init:	
   524                           ; 1 bytes @ 0x2
   525                           
   526  0072                     ??_LCD_escreve:	
   527                           ; 1 bytes @ 0x2
   528                           
   529  0072                     ??_LCD_limpa:	
   530                           ; 1 bytes @ 0x2
   531                           
   532  0072                     ??_LCD_linha1:	
   533                           ; 1 bytes @ 0x2
   534                           
   535  0072                     ??_LCD_linha2:	
   536                           ; 1 bytes @ 0x2
   537                           
   538  0072                     LCD_escreve@x:	
   539                           ; 1 bytes @ 0x2
   540                           
   541  0072                     strcpy@cp:	
   542                           ; 1 bytes @ 0x2
   543                           
   544                           
   545                           ; 1 bytes @ 0x2
   546  0072                     	ds	1
   547  0073                     ??_espacoLivre:
   548  0073                     strcpy@to:	
   549                           ; 1 bytes @ 0x3
   550                           
   551  0073                     strlen@cp:	
   552                           ; 1 bytes @ 0x3
   553                           
   554                           
   555                           ; 1 bytes @ 0x3
   556  0073                     	ds	1
   557  0074                     ?_strcat:
   558  0074                     strcat@from:	
   559                           ; 1 bytes @ 0x4
   560                           
   561  0074                     strlen@s:	
   562                           ; 1 bytes @ 0x4
   563                           
   564  0074                     __Umul8_16@product:	
   565                           ; 1 bytes @ 0x4
   566                           
   567  0074                     ___flge@ff2:	
   568                           ; 2 bytes @ 0x4
   569                           
   570  0074                     ___fladd@a:	
   571                           ; 4 bytes @ 0x4
   572                           
   573                           
   574                           ; 4 bytes @ 0x4
   575  0074                     	ds	1
   576  0075                     ??_telaInicial:
   577  0075                     ??_Linha2:	
   578                           ; 1 bytes @ 0x5
   579                           
   580  0075                     ??_strcat:	
   581                           ; 1 bytes @ 0x5
   582                           
   583  0075                     strcmp@r:	
   584                           ; 1 bytes @ 0x5
   585                           
   586                           
   587                           ; 1 bytes @ 0x5
   588  0075                     	ds	1
   589  0076                     strcat@to:
   590  0076                     strcmp@s1:	
   591                           ; 1 bytes @ 0x6
   592                           
   593  0076                     __Umul8_16@word_mpld:	
   594                           ; 1 bytes @ 0x6
   595                           
   596                           
   597                           ; 2 bytes @ 0x6
   598  0076                     	ds	1
   599  0077                     strcat@cp:
   600  0077                     telaInicial@i:	
   601                           ; 1 bytes @ 0x7
   602                           
   603  0077                     Linha2@i:	
   604                           ; 2 bytes @ 0x7
   605                           
   606                           
   607                           ; 2 bytes @ 0x7
   608  0077                     	ds	1
   609  0078                     ??___flge:
   610  0078                     ___fladd@signs:	
   611                           ; 1 bytes @ 0x8
   612                           
   613  0078                     __Umul8_16@multiplier:	
   614                           ; 1 bytes @ 0x8
   615                           
   616                           
   617                           ; 1 bytes @ 0x8
   618  0078                     	ds	1
   619  0079                     ??___flmul:
   620  0079                     ___fladd@aexp:	
   621                           ; 1 bytes @ 0x9
   622                           
   623                           
   624                           ; 1 bytes @ 0x9
   625  0079                     	ds	1
   626  007A                     ___fladd@bexp:
   627                           
   628                           ; 1 bytes @ 0xA
   629  007A                     	ds	1
   630  007B                     ___fladd@grs:
   631                           
   632                           ; 1 bytes @ 0xB
   633  007B                     	ds	1
   634  007C                     ??___flsub:
   635                           
   636                           ; 1 bytes @ 0xC
   637  007C                     	ds	2
   638  007E                     ??_main:
   639                           
   640                           	psect	cstackBANK0
   641  0020                     __pcstackBANK0:	
   642                           ; 1 bytes @ 0xE
   643                           
   644  0020                     ??___fladd:
   645  0020                     ?___flmul:	
   646                           ; 1 bytes @ 0x0
   647                           
   648  0020                     ___flmul@b:	
   649                           ; 4 bytes @ 0x0
   650                           
   651                           
   652                           ; 4 bytes @ 0x0
   653  0020                     	ds	4
   654  0024                     ___flmul@a:
   655                           
   656                           ; 4 bytes @ 0x4
   657  0024                     	ds	4
   658  0028                     ?___flsub:
   659  0028                     ___flmul@sign:	
   660                           ; 4 bytes @ 0x8
   661                           
   662  0028                     ___flsub@a:	
   663                           ; 1 bytes @ 0x8
   664                           
   665                           
   666                           ; 4 bytes @ 0x8
   667  0028                     	ds	1
   668  0029                     ___flmul@grs:
   669                           
   670                           ; 4 bytes @ 0x9
   671  0029                     	ds	3
   672  002C                     ___flsub@b:
   673                           
   674                           ; 4 bytes @ 0xC
   675  002C                     	ds	1
   676  002D                     ___flmul@aexp:
   677                           
   678                           ; 1 bytes @ 0xD
   679  002D                     	ds	1
   680  002E                     ___flmul@bexp:
   681                           
   682                           ; 1 bytes @ 0xE
   683  002E                     	ds	1
   684  002F                     ___flmul@prod:
   685                           
   686                           ; 4 bytes @ 0xF
   687  002F                     	ds	4
   688  0033                     ___flmul@temp:
   689                           
   690                           ; 2 bytes @ 0x13
   691  0033                     	ds	2
   692  0035                     ?_liga_buzzer:
   693  0035                     liga_buzzer@tempoSegundos:	
   694                           ; 1 bytes @ 0x15
   695                           
   696                           
   697                           ; 4 bytes @ 0x15
   698  0035                     	ds	4
   699  0039                     ??_liga_buzzer:
   700                           
   701                           ; 1 bytes @ 0x19
   702  0039                     	ds	2
   703  003B                     ??_teclado:
   704                           
   705                           ; 1 bytes @ 0x1B
   706  003B                     	ds	3
   707  003E                     ??_validaUser:
   708                           
   709                           ; 1 bytes @ 0x1E
   710  003E                     	ds	3
   711  0041                     validaUser@n:
   712                           
   713                           ; 2 bytes @ 0x21
   714  0041                     	ds	2
   715  0043                     validaUser@i:
   716                           
   717                           ; 2 bytes @ 0x23
   718  0043                     	ds	2
   719                           
   720                           	psect	maintext
   721  0B10                     __pmaintext:	
   722 ;;
   723 ;;Main: autosize = 0, tempsize = 0, incstack = 0, save=0
   724 ;;
   725 ;; *************** function _main *****************
   726 ;; Defined at:
   727 ;;		line 39 in file "main.c"
   728 ;; Parameters:    Size  Location     Type
   729 ;;		None
   730 ;; Auto vars:     Size  Location     Type
   731 ;;		None
   732 ;; Return value:  Size  Location     Type
   733 ;;                  1    wreg      void 
   734 ;; Registers used:
   735 ;;		wreg, fsr0l, fsr0h, status,2, status,0, btemp+1, pclath, cstack
   736 ;; Tracked objects:
   737 ;;		On entry : B00/0
   738 ;;		On exit  : 0/0
   739 ;;		Unchanged: 0/0
   740 ;; Data sizes:     COMMON   BANK0   BANK1   BANK3   BANK2
   741 ;;      Params:         0       0       0       0       0
   742 ;;      Locals:         0       0       0       0       0
   743 ;;      Temps:          0       0       0       0       0
   744 ;;      Totals:         0       0       0       0       0
   745 ;;Total ram usage:        0 bytes
   746 ;; Hardware stack levels required when called: 5
   747 ;; This function calls:
   748 ;;		_LCD_init
   749 ;;		_LCD_limpa
   750 ;;		_Linha2
   751 ;;		_telaInicial
   752 ;;		_validaUser
   753 ;; This function is called by:
   754 ;;		Startup code after reset
   755 ;; This function uses a non-reentrant model
   756 ;;
   757                           
   758                           
   759                           ;psect for function _main
   760  0B10                     _main:
   761  0B10                     l2573:	
   762                           ;incstack = 0
   763                           ; Regs used in _main: [wreg-fsr0h+status,2+status,0+btemp+1+pclath+cstack]
   764                           
   765                           
   766                           ;main.c: 40:     TRISE = 0;
   767  0B10  1683               	bsf	3,5	;RP0=1, select bank1
   768  0B11  1303               	bcf	3,6	;RP1=0, select bank1
   769  0B12  0189               	clrf	9	;volatile
   770                           
   771                           ;main.c: 41:     TRISD = 0;
   772  0B13  0188               	clrf	8	;volatile
   773  0B14                     l2575:
   774                           
   775                           ;main.c: 42:     TRISB = 0x0F;
   776  0B14  300F               	movlw	15
   777  0B15  0086               	movwf	6	;volatile
   778  0B16                     l2577:
   779                           
   780                           ;main.c: 44:     PORTE = 0x01;
   781  0B16  3001               	movlw	1
   782  0B17  1283               	bcf	3,5	;RP0=0, select bank0
   783  0B18  1303               	bcf	3,6	;RP1=0, select bank0
   784  0B19  0089               	movwf	9	;volatile
   785  0B1A                     l2579:
   786                           
   787                           ;main.c: 47:     LCD_init();
   788  0B1A  120A  158A  22A2  120A  158A  	fcall	_LCD_init
   789  0B1F                     l2581:
   790                           
   791                           ;main.c: 48:     LCD_limpa();
   792  0B1F  120A  158A  2145  120A  158A  	fcall	_LCD_limpa
   793  0B24                     l2583:
   794                           
   795                           ;main.c: 53:         if (painel){
   796  0B24  1283               	bcf	3,5	;RP0=0, select bank0
   797  0B25  1303               	bcf	3,6	;RP1=0, select bank0
   798  0B26  0859               	movf	_painel,w
   799  0B27  045A               	iorwf	_painel+1,w
   800  0B28  1903               	btfsc	3,2
   801  0B29  2B2B               	goto	u2791
   802  0B2A  2B2C               	goto	u2790
   803  0B2B                     u2791:
   804  0B2B  2B40               	goto	l2591
   805  0B2C                     u2790:
   806  0B2C                     l2585:
   807                           
   808                           ;main.c: 54:             telaInicial();
   809  0B2C  120A  118A  2006  120A  158A  	fcall	_telaInicial
   810                           
   811                           ;main.c: 55:             Linha2();
   812  0B31  120A  158A  22D5  120A  158A  	fcall	_Linha2
   813  0B36                     l2587:
   814                           
   815                           ;main.c: 56:             painel = 0;
   816  0B36  1283               	bcf	3,5	;RP0=0, select bank0
   817  0B37  1303               	bcf	3,6	;RP1=0, select bank0
   818  0B38  01D9               	clrf	_painel
   819  0B39  01DA               	clrf	_painel+1
   820  0B3A  2B40               	goto	l2591
   821  0B3B                     l2589:
   822                           
   823                           ;main.c: 60:            validaUser();
   824  0B3B  120A  158A  236B  120A  158A  	fcall	_validaUser
   825  0B40                     l2591:
   826                           
   827                           ;main.c: 59:         while (userFalse){
   828  0B40  1283               	bcf	3,5	;RP0=0, select bank0
   829  0B41  1303               	bcf	3,6	;RP1=0, select bank0
   830  0B42  0857               	movf	_userFalse,w
   831  0B43  0458               	iorwf	_userFalse+1,w
   832  0B44  1D03               	btfss	3,2
   833  0B45  2B47               	goto	u2801
   834  0B46  2B48               	goto	u2800
   835  0B47                     u2801:
   836  0B47  2B3B               	goto	l2589
   837  0B48                     u2800:
   838  0B48  2B61               	goto	l2603
   839  0B49                     l2593:
   840                           
   841                           ;main.c: 65:             if (painel){
   842  0B49  0859               	movf	_painel,w
   843  0B4A  045A               	iorwf	_painel+1,w
   844  0B4B  1903               	btfsc	3,2
   845  0B4C  2B4E               	goto	u2811
   846  0B4D  2B4F               	goto	u2810
   847  0B4E                     u2811:
   848  0B4E  2B61               	goto	l2603
   849  0B4F                     u2810:
   850  0B4F                     l2595:
   851                           
   852                           ;main.c: 66:                 painel = 1;
   853  0B4F  3001               	movlw	1
   854  0B50  00D9               	movwf	_painel
   855  0B51  3000               	movlw	0
   856  0B52  00DA               	movwf	_painel+1
   857  0B53                     l2597:
   858                           
   859                           ;main.c: 67:                 telaInicial();
   860  0B53  120A  118A  2006  120A  158A  	fcall	_telaInicial
   861  0B58                     l2599:
   862                           
   863                           ;main.c: 68:                 Linha2();
   864  0B58  120A  158A  22D5  120A  158A  	fcall	_Linha2
   865  0B5D                     l2601:
   866                           
   867                           ;main.c: 69:                 painel = 0;
   868  0B5D  1283               	bcf	3,5	;RP0=0, select bank0
   869  0B5E  1303               	bcf	3,6	;RP1=0, select bank0
   870  0B5F  01D9               	clrf	_painel
   871  0B60  01DA               	clrf	_painel+1
   872  0B61                     l2603:
   873                           
   874                           ;main.c: 63:         while (!userFalse){
   875  0B61  0857               	movf	_userFalse,w
   876  0B62  0458               	iorwf	_userFalse+1,w
   877  0B63  1903               	btfsc	3,2
   878  0B64  2B66               	goto	u2821
   879  0B65  2B67               	goto	u2820
   880  0B66                     u2821:
   881  0B66  2B49               	goto	l2593
   882  0B67                     u2820:
   883  0B67  2B24               	goto	l2583
   884  0B68  120A  118A  2800   	ljmp	start
   885  0B6B                     __end_of_main:
   886                           
   887                           	psect	text1
   888  0B6B                     __ptext1:	
   889 ;; *************** function _validaUser *****************
   890 ;; Defined at:
   891 ;;		line 357 in file "main.c"
   892 ;; Parameters:    Size  Location     Type
   893 ;;		None
   894 ;; Auto vars:     Size  Location     Type
   895 ;;  i               2   35[BANK0 ] int 
   896 ;;  n               2   33[BANK0 ] int 
   897 ;; Return value:  Size  Location     Type
   898 ;;                  1    wreg      void 
   899 ;; Registers used:
   900 ;;		wreg, fsr0l, fsr0h, status,2, status,0, btemp+1, pclath, cstack
   901 ;; Tracked objects:
   902 ;;		On entry : 0/0
   903 ;;		On exit  : 0/0
   904 ;;		Unchanged: 0/0
   905 ;; Data sizes:     COMMON   BANK0   BANK1   BANK3   BANK2
   906 ;;      Params:         0       0       0       0       0
   907 ;;      Locals:         0       4       0       0       0
   908 ;;      Temps:          0       3       0       0       0
   909 ;;      Totals:         0       7       0       0       0
   910 ;;Total ram usage:        7 bytes
   911 ;; Hardware stack levels used: 1
   912 ;; Hardware stack levels required when called: 4
   913 ;; This function calls:
   914 ;;		_LCD_escreve
   915 ;;		_LCD_limpa
   916 ;;		_LCD_linha1
   917 ;;		_liga_buzzer
   918 ;;		_strcat
   919 ;;		_strcmp
   920 ;;		_strcpy
   921 ;;		_strlen
   922 ;;		_teclado
   923 ;; This function is called by:
   924 ;;		_main
   925 ;; This function uses a non-reentrant model
   926 ;;
   927                           
   928                           
   929                           ;psect for function _validaUser
   930  0B6B                     _validaUser:
   931  0B6B                     l2463:	
   932                           ;incstack = 0
   933                           ; Regs used in _validaUser: [wreg-fsr0h+status,2+status,0+btemp+1+pclath+cstack]
   934                           
   935                           
   936                           ;main.c: 358:     int n = 8;
   937  0B6B  3008               	movlw	8
   938  0B6C  1283               	bcf	3,5	;RP0=0, select bank0
   939  0B6D  1303               	bcf	3,6	;RP1=0, select bank0
   940  0B6E  00C1               	movwf	validaUser@n
   941  0B6F  3000               	movlw	0
   942  0B70  00C2               	movwf	validaUser@n+1
   943                           
   944                           ;main.c: 359:     while( userFalse ){
   945  0B71  2D5F               	goto	l2559
   946  0B72                     l2465:
   947                           
   948                           ;main.c: 362:             n--;
   949  0B72  30FF               	movlw	255
   950  0B73  1283               	bcf	3,5	;RP0=0, select bank0
   951  0B74  1303               	bcf	3,6	;RP1=0, select bank0
   952  0B75  07C1               	addwf	validaUser@n,f
   953  0B76  1803               	skipnc
   954  0B77  0AC2               	incf	validaUser@n+1,f
   955  0B78  30FF               	movlw	255
   956  0B79  07C2               	addwf	validaUser@n+1,f
   957                           
   958                           ;main.c: 363:             input = 10;
   959  0B7A  300A               	movlw	10
   960  0B7B  00DB               	movwf	_input
   961  0B7C  3000               	movlw	0
   962  0B7D  00DC               	movwf	_input+1
   963                           
   964                           ;main.c: 365:             while (input == 10){
   965  0B7E  2B93               	goto	l2471
   966  0B7F                     l2467:
   967                           
   968                           ;main.c: 366:                 teclado();
   969  0B7F  120A  118A  2161  120A  158A  	fcall	_teclado
   970  0B84                     l2469:
   971                           
   972                           ;main.c: 367:                 _delay((unsigned long)((60)*(20000000/4000.0)));
   973  0B84  3002               	movlw	2
   974  0B85  1283               	bcf	3,5	;RP0=0, select bank0
   975  0B86  1303               	bcf	3,6	;RP1=0, select bank0
   976  0B87  00C0               	movwf	??_validaUser+2
   977  0B88  3086               	movlw	134
   978  0B89  00BF               	movwf	??_validaUser+1
   979  0B8A  3098               	movlw	152
   980  0B8B  00BE               	movwf	??_validaUser
   981  0B8C                     u2837:
   982  0B8C  0BBE               	decfsz	??_validaUser,f
   983  0B8D  2B8C               	goto	u2837
   984  0B8E  0BBF               	decfsz	??_validaUser+1,f
   985  0B8F  2B8C               	goto	u2837
   986  0B90  0BC0               	decfsz	??_validaUser+2,f
   987  0B91  2B8C               	goto	u2837
   988  0B92  0000               	nop
   989  0B93                     l2471:
   990                           
   991                           ;main.c: 365:             while (input == 10){
   992  0B93  300A               	movlw	10
   993  0B94  1283               	bcf	3,5	;RP0=0, select bank0
   994  0B95  1303               	bcf	3,6	;RP1=0, select bank0
   995  0B96  065B               	xorwf	_input,w
   996  0B97  045C               	iorwf	_input+1,w
   997  0B98  1903               	btfsc	3,2
   998  0B99  2B9B               	goto	u2711
   999  0B9A  2B9C               	goto	u2710
  1000  0B9B                     u2711:
  1001  0B9B  2B7F               	goto	l2467
  1002  0B9C                     u2710:
  1003  0B9C  2BCF               	goto	l2495
  1004  0B9D                     l2473:
  1005                           
  1006                           ;main.c: 374:                     aux = "1";
  1007  0B9D  3003               	movlw	(low ((STR_1-__stringbase)| (0+32768)))& (0+255)
  1008  0B9E  00BE               	movwf	??_validaUser
  1009  0B9F  083E               	movf	??_validaUser,w
  1010  0BA0  00D1               	movwf	_aux
  1011                           
  1012                           ;main.c: 376:                 break;
  1013  0BA1  2BF4               	goto	l2497
  1014  0BA2                     l2475:
  1015                           
  1016                           ;main.c: 378:                     aux = "2";
  1017  0BA2  3005               	movlw	(low ((STR_2-__stringbase)| (0+32768)))& (0+255)
  1018  0BA3  00BE               	movwf	??_validaUser
  1019  0BA4  083E               	movf	??_validaUser,w
  1020  0BA5  00D1               	movwf	_aux
  1021                           
  1022                           ;main.c: 380:                 break;
  1023  0BA6  2BF4               	goto	l2497
  1024  0BA7                     l2477:
  1025                           
  1026                           ;main.c: 382:                     aux = "3";
  1027  0BA7  3007               	movlw	(low ((STR_3-__stringbase)| (0+32768)))& (0+255)
  1028  0BA8  00BE               	movwf	??_validaUser
  1029  0BA9  083E               	movf	??_validaUser,w
  1030  0BAA  00D1               	movwf	_aux
  1031                           
  1032                           ;main.c: 384:                 break;
  1033  0BAB  2BF4               	goto	l2497
  1034  0BAC                     l2479:
  1035                           
  1036                           ;main.c: 386:                     aux = "4";
  1037  0BAC  3009               	movlw	(low ((STR_4-__stringbase)| (0+32768)))& (0+255)
  1038  0BAD  00BE               	movwf	??_validaUser
  1039  0BAE  083E               	movf	??_validaUser,w
  1040  0BAF  00D1               	movwf	_aux
  1041                           
  1042                           ;main.c: 388:                 break;
  1043  0BB0  2BF4               	goto	l2497
  1044  0BB1                     l2481:
  1045                           
  1046                           ;main.c: 390:                     aux = "5";
  1047  0BB1  300B               	movlw	(low ((STR_5-__stringbase)| (0+32768)))& (0+255)
  1048  0BB2  00BE               	movwf	??_validaUser
  1049  0BB3  083E               	movf	??_validaUser,w
  1050  0BB4  00D1               	movwf	_aux
  1051                           
  1052                           ;main.c: 392:                 break;
  1053  0BB5  2BF4               	goto	l2497
  1054  0BB6                     l2483:
  1055                           
  1056                           ;main.c: 394:                     aux = "6";
  1057  0BB6  300D               	movlw	(low ((STR_6-__stringbase)| (0+32768)))& (0+255)
  1058  0BB7  00BE               	movwf	??_validaUser
  1059  0BB8  083E               	movf	??_validaUser,w
  1060  0BB9  00D1               	movwf	_aux
  1061                           
  1062                           ;main.c: 396:                 break;
  1063  0BBA  2BF4               	goto	l2497
  1064  0BBB                     l2485:
  1065                           
  1066                           ;main.c: 398:                     aux = "7";
  1067  0BBB  300F               	movlw	(low ((STR_7-__stringbase)| (0+32768)))& (0+255)
  1068  0BBC  00BE               	movwf	??_validaUser
  1069  0BBD  083E               	movf	??_validaUser,w
  1070  0BBE  00D1               	movwf	_aux
  1071                           
  1072                           ;main.c: 400:                 break;
  1073  0BBF  2BF4               	goto	l2497
  1074  0BC0                     l2487:
  1075                           
  1076                           ;main.c: 402:                     aux = "8";
  1077  0BC0  3011               	movlw	(low ((STR_8-__stringbase)| (0+32768)))& (0+255)
  1078  0BC1  00BE               	movwf	??_validaUser
  1079  0BC2  083E               	movf	??_validaUser,w
  1080  0BC3  00D1               	movwf	_aux
  1081                           
  1082                           ;main.c: 404:                 break;
  1083  0BC4  2BF4               	goto	l2497
  1084  0BC5                     l2489:
  1085                           
  1086                           ;main.c: 406:                     aux = "9";
  1087  0BC5  3013               	movlw	(low ((STR_9-__stringbase)| (0+32768)))& (0+255)
  1088  0BC6  00BE               	movwf	??_validaUser
  1089  0BC7  083E               	movf	??_validaUser,w
  1090  0BC8  00D1               	movwf	_aux
  1091                           
  1092                           ;main.c: 408:                 break;
  1093  0BC9  2BF4               	goto	l2497
  1094  0BCA                     l2491:
  1095                           
  1096                           ;main.c: 410:                     aux = "0";
  1097  0BCA  3001               	movlw	(low ((STR_10-__stringbase)| (0+32768)))& (0+255)
  1098  0BCB  00BE               	movwf	??_validaUser
  1099  0BCC  083E               	movf	??_validaUser,w
  1100  0BCD  00D1               	movwf	_aux
  1101                           
  1102                           ;main.c: 412:                 break;
  1103  0BCE  2BF4               	goto	l2497
  1104  0BCF                     l2495:
  1105                           
  1106                           ; Switch on 2 bytes has been partitioned into a top level switch of size 1, and 1 sub-sw
      +                          itches
  1107                           ; Switch size 1, requested type "simple"
  1108                           ; Number of cases is 1, Range of values is 0 to 0
  1109                           ; switch strategies available:
  1110                           ; Name         Instructions Cycles
  1111                           ; simple_byte            4     3 (average)
  1112                           ; direct_byte           11     8 (fixed)
  1113                           ; jumptable            260     6 (fixed)
  1114                           ;	Chosen strategy is simple_byte
  1115  0BCF  085C               	movf	_input+1,w
  1116  0BD0  3A00               	xorlw	0	; case 0
  1117  0BD1  1903               	skipnz
  1118  0BD2  2BD4               	goto	l2625
  1119  0BD3  2BF4               	goto	l2497
  1120  0BD4                     l2625:
  1121                           
  1122                           ; Switch size 1, requested type "simple"
  1123                           ; Number of cases is 10, Range of values is 0 to 9
  1124                           ; switch strategies available:
  1125                           ; Name         Instructions Cycles
  1126                           ; simple_byte           31    16 (average)
  1127                           ; direct_byte           38     8 (fixed)
  1128                           ; jumptable            260     6 (fixed)
  1129                           ;	Chosen strategy is simple_byte
  1130  0BD4  085B               	movf	_input,w
  1131  0BD5  3A00               	xorlw	0	; case 0
  1132  0BD6  1903               	skipnz
  1133  0BD7  2BCA               	goto	l2491
  1134  0BD8  3A01               	xorlw	1	; case 1
  1135  0BD9  1903               	skipnz
  1136  0BDA  2B9D               	goto	l2473
  1137  0BDB  3A03               	xorlw	3	; case 2
  1138  0BDC  1903               	skipnz
  1139  0BDD  2BA2               	goto	l2475
  1140  0BDE  3A01               	xorlw	1	; case 3
  1141  0BDF  1903               	skipnz
  1142  0BE0  2BA7               	goto	l2477
  1143  0BE1  3A07               	xorlw	7	; case 4
  1144  0BE2  1903               	skipnz
  1145  0BE3  2BAC               	goto	l2479
  1146  0BE4  3A01               	xorlw	1	; case 5
  1147  0BE5  1903               	skipnz
  1148  0BE6  2BB1               	goto	l2481
  1149  0BE7  3A03               	xorlw	3	; case 6
  1150  0BE8  1903               	skipnz
  1151  0BE9  2BB6               	goto	l2483
  1152  0BEA  3A01               	xorlw	1	; case 7
  1153  0BEB  1903               	skipnz
  1154  0BEC  2BBB               	goto	l2485
  1155  0BED  3A0F               	xorlw	15	; case 8
  1156  0BEE  1903               	skipnz
  1157  0BEF  2BC0               	goto	l2487
  1158  0BF0  3A01               	xorlw	1	; case 9
  1159  0BF1  1903               	skipnz
  1160  0BF2  2BC5               	goto	l2489
  1161  0BF3  2BF4               	goto	l2497
  1162  0BF4                     l2497:
  1163                           
  1164                           ;main.c: 418:             strcat(strcpy(senhaUserConfere, senhaUserConfere), aux);
  1165  0BF4  0851               	movf	_aux,w
  1166  0BF5  00BE               	movwf	??_validaUser
  1167  0BF6  083E               	movf	??_validaUser,w
  1168  0BF7  00F4               	movwf	strcat@from
  1169  0BF8  3052               	movlw	(low (_senhaUserConfere| 0))& (0+255)
  1170  0BF9  00BF               	movwf	??_validaUser+1
  1171  0BFA  083F               	movf	??_validaUser+1,w
  1172  0BFB  00F0               	movwf	strcpy@from
  1173  0BFC  3052               	movlw	(low (_senhaUserConfere| 0))& (0+255)
  1174  0BFD  120A  158A  21B8  120A  158A  	fcall	_strcpy
  1175  0C02  120A  158A  2275  120A  158A  	fcall	_strcat
  1176  0C07                     l2499:
  1177                           
  1178                           ;main.c: 420:             if (n == 4){
  1179  0C07  3004               	movlw	4
  1180  0C08  1283               	bcf	3,5	;RP0=0, select bank0
  1181  0C09  1303               	bcf	3,6	;RP1=0, select bank0
  1182  0C0A  0641               	xorwf	validaUser@n,w
  1183  0C0B  0442               	iorwf	validaUser@n+1,w
  1184  0C0C  1D03               	btfss	3,2
  1185  0C0D  2C0F               	goto	u2721
  1186  0C0E  2C10               	goto	u2720
  1187  0C0F                     u2721:
  1188  0C0F  2CCE               	goto	l2519
  1189  0C10                     u2720:
  1190  0C10                     l2501:
  1191                           
  1192                           ;main.c: 421:                 if (strcmp(senhaUser, senhaUserConfere) != 0){
  1193  0C10  3052               	movlw	(low (_senhaUserConfere| 0))& (0+255)
  1194  0C11  00BE               	movwf	??_validaUser
  1195  0C12  083E               	movf	??_validaUser,w
  1196  0C13  00F0               	movwf	strcmp@s2
  1197  0C14  3062               	movlw	(low (_senhaUser| 0))& (0+255)
  1198  0C15  120A  158A  224B  120A  158A  	fcall	_strcmp
  1199  0C1A  0870               	movf	?_strcmp,w
  1200  0C1B  0471               	iorwf	?_strcmp+1,w
  1201  0C1C  1903               	btfsc	3,2
  1202  0C1D  2C1F               	goto	u2731
  1203  0C1E  2C20               	goto	u2730
  1204  0C1F                     u2731:
  1205  0C1F  2CCE               	goto	l2519
  1206  0C20                     u2730:
  1207  0C20                     l2503:
  1208                           
  1209                           ;main.c: 422:                     LCD_limpa();
  1210  0C20  120A  158A  2145  120A  158A  	fcall	_LCD_limpa
  1211                           
  1212                           ;main.c: 423:                     LCD_linha1();
  1213  0C25  120A  158A  2135  120A  158A  	fcall	_LCD_linha1
  1214                           
  1215                           ;main.c: 424:                     LCD_escreve(' ');
  1216  0C2A  3020               	movlw	32
  1217  0C2B  120A  158A  2165  120A  158A  	fcall	_LCD_escreve
  1218                           
  1219                           ;main.c: 425:                     LCD_escreve('S');
  1220  0C30  3053               	movlw	83
  1221  0C31  120A  158A  2165  120A  158A  	fcall	_LCD_escreve
  1222                           
  1223                           ;main.c: 426:                     LCD_escreve('e');
  1224  0C36  3065               	movlw	101
  1225  0C37  120A  158A  2165  120A  158A  	fcall	_LCD_escreve
  1226                           
  1227                           ;main.c: 427:                     LCD_escreve('n');
  1228  0C3C  306E               	movlw	110
  1229  0C3D  120A  158A  2165  120A  158A  	fcall	_LCD_escreve
  1230                           
  1231                           ;main.c: 428:                     LCD_escreve('h');
  1232  0C42  3068               	movlw	104
  1233  0C43  120A  158A  2165  120A  158A  	fcall	_LCD_escreve
  1234                           
  1235                           ;main.c: 429:                     LCD_escreve('a');
  1236  0C48  3061               	movlw	97
  1237  0C49  120A  158A  2165  120A  158A  	fcall	_LCD_escreve
  1238                           
  1239                           ;main.c: 430:                     LCD_escreve(' ');
  1240  0C4E  3020               	movlw	32
  1241  0C4F  120A  158A  2165  120A  158A  	fcall	_LCD_escreve
  1242                           
  1243                           ;main.c: 431:                     LCD_escreve('e');
  1244  0C54  3065               	movlw	101
  1245  0C55  120A  158A  2165  120A  158A  	fcall	_LCD_escreve
  1246                           
  1247                           ;main.c: 432:                     LCD_escreve('r');
  1248  0C5A  3072               	movlw	114
  1249  0C5B  120A  158A  2165  120A  158A  	fcall	_LCD_escreve
  1250                           
  1251                           ;main.c: 433:                     LCD_escreve('r');
  1252  0C60  3072               	movlw	114
  1253  0C61  120A  158A  2165  120A  158A  	fcall	_LCD_escreve
  1254                           
  1255                           ;main.c: 434:                     LCD_escreve('a');
  1256  0C66  3061               	movlw	97
  1257  0C67  120A  158A  2165  120A  158A  	fcall	_LCD_escreve
  1258                           
  1259                           ;main.c: 435:                     LCD_escreve('d');
  1260  0C6C  3064               	movlw	100
  1261  0C6D  120A  158A  2165  120A  158A  	fcall	_LCD_escreve
  1262                           
  1263                           ;main.c: 436:                     LCD_escreve('a');
  1264  0C72  3061               	movlw	97
  1265  0C73  120A  158A  2165  120A  158A  	fcall	_LCD_escreve
  1266  0C78                     l2505:
  1267                           
  1268                           ;main.c: 437:                     _delay((unsigned long)((2500)*(20000000/4000.0)));
  1269  0C78  3040               	movlw	64
  1270  0C79  1283               	bcf	3,5	;RP0=0, select bank0
  1271  0C7A  1303               	bcf	3,6	;RP1=0, select bank0
  1272  0C7B  00C0               	movwf	??_validaUser+2
  1273  0C7C  306A               	movlw	106
  1274  0C7D  00BF               	movwf	??_validaUser+1
  1275  0C7E  3097               	movlw	151
  1276  0C7F  00BE               	movwf	??_validaUser
  1277  0C80                     u2847:
  1278  0C80  0BBE               	decfsz	??_validaUser,f
  1279  0C81  2C80               	goto	u2847
  1280  0C82  0BBF               	decfsz	??_validaUser+1,f
  1281  0C83  2C80               	goto	u2847
  1282  0C84  0BC0               	decfsz	??_validaUser+2,f
  1283  0C85  2C80               	goto	u2847
  1284  0C86                     l2507:
  1285                           
  1286                           ;main.c: 438:                     liga_buzzer(0.5);
  1287  0C86  303F               	movlw	63
  1288  0C87  1283               	bcf	3,5	;RP0=0, select bank0
  1289  0C88  1303               	bcf	3,6	;RP1=0, select bank0
  1290  0C89  00B8               	movwf	liga_buzzer@tempoSegundos+3
  1291  0C8A  3000               	movlw	0
  1292  0C8B  00B7               	movwf	liga_buzzer@tempoSegundos+2
  1293  0C8C  3000               	movlw	0
  1294  0C8D  00B6               	movwf	liga_buzzer@tempoSegundos+1
  1295  0C8E  3000               	movlw	0
  1296  0C8F  00B5               	movwf	liga_buzzer@tempoSegundos
  1297  0C90  120A  118A  2043  120A  158A  	fcall	_liga_buzzer
  1298  0C95                     l2509:
  1299                           
  1300                           ;main.c: 439:                     liga_buzzer(0.5);
  1301  0C95  303F               	movlw	63
  1302  0C96  1283               	bcf	3,5	;RP0=0, select bank0
  1303  0C97  1303               	bcf	3,6	;RP1=0, select bank0
  1304  0C98  00B8               	movwf	liga_buzzer@tempoSegundos+3
  1305  0C99  3000               	movlw	0
  1306  0C9A  00B7               	movwf	liga_buzzer@tempoSegundos+2
  1307  0C9B  3000               	movlw	0
  1308  0C9C  00B6               	movwf	liga_buzzer@tempoSegundos+1
  1309  0C9D  3000               	movlw	0
  1310  0C9E  00B5               	movwf	liga_buzzer@tempoSegundos
  1311  0C9F  120A  118A  2043  120A  158A  	fcall	_liga_buzzer
  1312  0CA4                     l2511:
  1313                           
  1314                           ;main.c: 441:                     for (int i = 0; i <= strlen(senhaUserConfere) -1; i++)
      +                          {
  1315  0CA4  1283               	bcf	3,5	;RP0=0, select bank0
  1316  0CA5  1303               	bcf	3,6	;RP1=0, select bank0
  1317  0CA6  01C3               	clrf	validaUser@i
  1318  0CA7  01C4               	clrf	validaUser@i+1
  1319  0CA8  2CB4               	goto	l2517
  1320  0CA9                     l2513:
  1321                           
  1322                           ;main.c: 442:                         senhaUserConfere[i] = '\0';
  1323  0CA9  0843               	movf	validaUser@i,w
  1324  0CAA  3E52               	addlw	(low (_senhaUserConfere| 0))& (0+255)
  1325  0CAB  0084               	movwf	4
  1326  0CAC  1383               	bcf	3,7	;select IRP bank0
  1327  0CAD  0180               	clrf	0
  1328  0CAE                     l2515:
  1329                           
  1330                           ;main.c: 443:                     }
  1331  0CAE  3001               	movlw	1
  1332  0CAF  07C3               	addwf	validaUser@i,f
  1333  0CB0  1803               	skipnc
  1334  0CB1  0AC4               	incf	validaUser@i+1,f
  1335  0CB2  3000               	movlw	0
  1336  0CB3  07C4               	addwf	validaUser@i+1,f
  1337  0CB4                     l2517:
  1338  0CB4  3052               	movlw	(low (_senhaUserConfere| 0))& (0+255)
  1339  0CB5  120A  158A  219F  120A  158A  	fcall	_strlen
  1340  0CBA  0870               	movf	?_strlen,w
  1341  0CBB  3EFF               	addlw	255
  1342  0CBC  1283               	bcf	3,5	;RP0=0, select bank0
  1343  0CBD  1303               	bcf	3,6	;RP1=0, select bank0
  1344  0CBE  00BE               	movwf	??_validaUser
  1345  0CBF  0871               	movf	?_strlen+1,w
  1346  0CC0  1803               	skipnc
  1347  0CC1  3E01               	addlw	1
  1348  0CC2  3EFF               	addlw	255
  1349  0CC3  00BF               	movwf	??_validaUser+1
  1350  0CC4  0844               	movf	validaUser@i+1,w
  1351  0CC5  023F               	subwf	??_validaUser+1,w
  1352  0CC6  1D03               	skipz
  1353  0CC7  2CCA               	goto	u2745
  1354  0CC8  0843               	movf	validaUser@i,w
  1355  0CC9  023E               	subwf	??_validaUser,w
  1356  0CCA                     u2745:
  1357  0CCA  1803               	skipnc
  1358  0CCB  2CCD               	goto	u2741
  1359  0CCC  2CCE               	goto	u2740
  1360  0CCD                     u2741:
  1361  0CCD  2CA9               	goto	l2513
  1362  0CCE                     u2740:
  1363  0CCE                     l2519:
  1364                           
  1365                           ;main.c: 447:             if (strcmp(senhaUser, senhaUserConfere) == 0){
  1366  0CCE  3052               	movlw	(low (_senhaUserConfere| 0))& (0+255)
  1367  0CCF  1283               	bcf	3,5	;RP0=0, select bank0
  1368  0CD0  1303               	bcf	3,6	;RP1=0, select bank0
  1369  0CD1  00BE               	movwf	??_validaUser
  1370  0CD2  083E               	movf	??_validaUser,w
  1371  0CD3  00F0               	movwf	strcmp@s2
  1372  0CD4  3062               	movlw	(low (_senhaUser| 0))& (0+255)
  1373  0CD5  120A  158A  224B  120A  158A  	fcall	_strcmp
  1374  0CDA  0870               	movf	?_strcmp,w
  1375  0CDB  0471               	iorwf	?_strcmp+1,w
  1376  0CDC  1D03               	btfss	3,2
  1377  0CDD  2CDF               	goto	u2751
  1378  0CDE  2CE0               	goto	u2750
  1379  0CDF                     u2751:
  1380  0CDF  2D50               	goto	l2557
  1381  0CE0                     u2750:
  1382  0CE0                     l2521:
  1383                           
  1384                           ;main.c: 448:                 userFalse = 0;
  1385  0CE0  1283               	bcf	3,5	;RP0=0, select bank0
  1386  0CE1  1303               	bcf	3,6	;RP1=0, select bank0
  1387  0CE2  01D7               	clrf	_userFalse
  1388  0CE3  01D8               	clrf	_userFalse+1
  1389  0CE4                     l2523:
  1390                           
  1391                           ;main.c: 450:                 LCD_limpa();
  1392  0CE4  120A  158A  2145  120A  158A  	fcall	_LCD_limpa
  1393  0CE9                     l2525:
  1394                           
  1395                           ;main.c: 451:                 LCD_linha1();
  1396  0CE9  120A  158A  2135  120A  158A  	fcall	_LCD_linha1
  1397  0CEE                     l2527:
  1398                           
  1399                           ;main.c: 453:                 LCD_escreve(' ');
  1400  0CEE  3020               	movlw	32
  1401  0CEF  120A  158A  2165  120A  158A  	fcall	_LCD_escreve
  1402  0CF4                     l2529:
  1403                           
  1404                           ;main.c: 454:                 LCD_escreve('S');
  1405  0CF4  3053               	movlw	83
  1406  0CF5  120A  158A  2165  120A  158A  	fcall	_LCD_escreve
  1407  0CFA                     l2531:
  1408                           
  1409                           ;main.c: 455:                 LCD_escreve('e');
  1410  0CFA  3065               	movlw	101
  1411  0CFB  120A  158A  2165  120A  158A  	fcall	_LCD_escreve
  1412  0D00                     l2533:
  1413                           
  1414                           ;main.c: 456:                 LCD_escreve('n');
  1415  0D00  306E               	movlw	110
  1416  0D01  120A  158A  2165  120A  158A  	fcall	_LCD_escreve
  1417  0D06                     l2535:
  1418                           
  1419                           ;main.c: 457:                 LCD_escreve('h');
  1420  0D06  3068               	movlw	104
  1421  0D07  120A  158A  2165  120A  158A  	fcall	_LCD_escreve
  1422  0D0C                     l2537:
  1423                           
  1424                           ;main.c: 458:                 LCD_escreve('a');
  1425  0D0C  3061               	movlw	97
  1426  0D0D  120A  158A  2165  120A  158A  	fcall	_LCD_escreve
  1427  0D12                     l2539:
  1428                           
  1429                           ;main.c: 459:                 LCD_escreve(' ');
  1430  0D12  3020               	movlw	32
  1431  0D13  120A  158A  2165  120A  158A  	fcall	_LCD_escreve
  1432  0D18                     l2541:
  1433                           
  1434                           ;main.c: 460:                 LCD_escreve('c');
  1435  0D18  3063               	movlw	99
  1436  0D19  120A  158A  2165  120A  158A  	fcall	_LCD_escreve
  1437  0D1E                     l2543:
  1438                           
  1439                           ;main.c: 461:                 LCD_escreve('o');
  1440  0D1E  306F               	movlw	111
  1441  0D1F  120A  158A  2165  120A  158A  	fcall	_LCD_escreve
  1442  0D24                     l2545:
  1443                           
  1444                           ;main.c: 462:                 LCD_escreve('r');
  1445  0D24  3072               	movlw	114
  1446  0D25  120A  158A  2165  120A  158A  	fcall	_LCD_escreve
  1447  0D2A                     l2547:
  1448                           
  1449                           ;main.c: 463:                 LCD_escreve('r');
  1450  0D2A  3072               	movlw	114
  1451  0D2B  120A  158A  2165  120A  158A  	fcall	_LCD_escreve
  1452  0D30                     l2549:
  1453                           
  1454                           ;main.c: 464:                 LCD_escreve('e');
  1455  0D30  3065               	movlw	101
  1456  0D31  120A  158A  2165  120A  158A  	fcall	_LCD_escreve
  1457  0D36                     l2551:
  1458                           
  1459                           ;main.c: 465:                 LCD_escreve('t');
  1460  0D36  3074               	movlw	116
  1461  0D37  120A  158A  2165  120A  158A  	fcall	_LCD_escreve
  1462  0D3C                     l2553:
  1463                           
  1464                           ;main.c: 466:                 LCD_escreve('a');
  1465  0D3C  3061               	movlw	97
  1466  0D3D  120A  158A  2165  120A  158A  	fcall	_LCD_escreve
  1467  0D42                     l2555:
  1468                           
  1469                           ;main.c: 467:                 _delay((unsigned long)((2500)*(20000000/4000.0)));
  1470  0D42  3040               	movlw	64
  1471  0D43  1283               	bcf	3,5	;RP0=0, select bank0
  1472  0D44  1303               	bcf	3,6	;RP1=0, select bank0
  1473  0D45  00C0               	movwf	??_validaUser+2
  1474  0D46  306A               	movlw	106
  1475  0D47  00BF               	movwf	??_validaUser+1
  1476  0D48  3097               	movlw	151
  1477  0D49  00BE               	movwf	??_validaUser
  1478  0D4A                     u2857:
  1479  0D4A  0BBE               	decfsz	??_validaUser,f
  1480  0D4B  2D4A               	goto	u2857
  1481  0D4C  0BBF               	decfsz	??_validaUser+1,f
  1482  0D4D  2D4A               	goto	u2857
  1483  0D4E  0BC0               	decfsz	??_validaUser+2,f
  1484  0D4F  2D4A               	goto	u2857
  1485  0D50                     l2557:
  1486                           
  1487                           ;main.c: 360:         while(n > 0){
  1488  0D50  1283               	bcf	3,5	;RP0=0, select bank0
  1489  0D51  1303               	bcf	3,6	;RP1=0, select bank0
  1490  0D52  0842               	movf	validaUser@n+1,w
  1491  0D53  3A80               	xorlw	128
  1492  0D54  00FF               	movwf	btemp+1
  1493  0D55  3080               	movlw	128
  1494  0D56  027F               	subwf	btemp+1,w
  1495  0D57  1D03               	skipz
  1496  0D58  2D5B               	goto	u2765
  1497  0D59  3001               	movlw	1
  1498  0D5A  0241               	subwf	validaUser@n,w
  1499  0D5B                     u2765:
  1500  0D5B  1803               	skipnc
  1501  0D5C  2D5E               	goto	u2761
  1502  0D5D  2D5F               	goto	u2760
  1503  0D5E                     u2761:
  1504  0D5E  2B72               	goto	l2465
  1505  0D5F                     u2760:
  1506  0D5F                     l2559:
  1507                           
  1508                           ;main.c: 359:     while( userFalse ){
  1509  0D5F  1283               	bcf	3,5	;RP0=0, select bank0
  1510  0D60  1303               	bcf	3,6	;RP1=0, select bank0
  1511  0D61  0857               	movf	_userFalse,w
  1512  0D62  0458               	iorwf	_userFalse+1,w
  1513  0D63  1D03               	btfss	3,2
  1514  0D64  2D66               	goto	u2771
  1515  0D65  2D67               	goto	u2770
  1516  0D66                     u2771:
  1517  0D66  2D50               	goto	l2557
  1518  0D67                     u2770:
  1519  0D67                     l204:
  1520  0D67  0008               	return
  1521  0D68                     __end_of_validaUser:
  1522                           
  1523                           	psect	text2
  1524  0161                     __ptext2:	
  1525 ;; *************** function _teclado *****************
  1526 ;; Defined at:
  1527 ;;		line 93 in file "main.c"
  1528 ;; Parameters:    Size  Location     Type
  1529 ;;		None
  1530 ;; Auto vars:     Size  Location     Type
  1531 ;;		None
  1532 ;; Return value:  Size  Location     Type
  1533 ;;                  1    wreg      void 
  1534 ;; Registers used:
  1535 ;;		wreg, status,2, status,0, btemp+1, pclath, cstack
  1536 ;; Tracked objects:
  1537 ;;		On entry : 0/0
  1538 ;;		On exit  : 0/0
  1539 ;;		Unchanged: 0/0
  1540 ;; Data sizes:     COMMON   BANK0   BANK1   BANK3   BANK2
  1541 ;;      Params:         0       0       0       0       0
  1542 ;;      Locals:         0       0       0       0       0
  1543 ;;      Temps:          0       3       0       0       0
  1544 ;;      Totals:         0       3       0       0       0
  1545 ;;Total ram usage:        3 bytes
  1546 ;; Hardware stack levels used: 1
  1547 ;; Hardware stack levels required when called: 3
  1548 ;; This function calls:
  1549 ;;		_LCD_escreve
  1550 ;;		_liga_buzzer
  1551 ;; This function is called by:
  1552 ;;		_validaUser
  1553 ;; This function uses a non-reentrant model
  1554 ;;
  1555                           
  1556                           
  1557                           ;psect for function _teclado
  1558  0161                     _teclado:
  1559  0161                     l2193:	
  1560                           ;incstack = 0
  1561                           ; Regs used in _teclado: [wreg+status,2+status,0+btemp+1+pclath+cstack]
  1562                           
  1563                           
  1564                           ;main.c: 95:     PORTE = 0x01;
  1565  0161  3001               	movlw	1
  1566  0162  1283               	bcf	3,5	;RP0=0, select bank0
  1567  0163  1303               	bcf	3,6	;RP1=0, select bank0
  1568  0164  0089               	movwf	9	;volatile
  1569                           
  1570                           ;main.c: 99:     PORTB = 0b11101111;
  1571  0165  30EF               	movlw	239
  1572  0166  0086               	movwf	6	;volatile
  1573  0167                     l2195:
  1574                           
  1575                           ;main.c: 103:     if (RB0 == 0){
  1576  0167  1806               	btfsc	6,0	;volatile
  1577  0168  296A               	goto	u2371
  1578  0169  296B               	goto	u2370
  1579  016A                     u2371:
  1580  016A  29B0               	goto	l2215
  1581  016B                     u2370:
  1582  016B                     l2197:
  1583                           
  1584                           ;main.c: 104:         _delay((unsigned long)((200)*(20000000/4000.0)));
  1585  016B  3006               	movlw	6
  1586  016C  1283               	bcf	3,5	;RP0=0, select bank0
  1587  016D  1303               	bcf	3,6	;RP1=0, select bank0
  1588  016E  00BD               	movwf	??_teclado+2
  1589  016F  3013               	movlw	19
  1590  0170  00BC               	movwf	??_teclado+1
  1591  0171  30AD               	movlw	173
  1592  0172  00BB               	movwf	??_teclado
  1593  0173                     u2867:
  1594  0173  0BBB               	decfsz	??_teclado,f
  1595  0174  2973               	goto	u2867
  1596  0175  0BBC               	decfsz	??_teclado+1,f
  1597  0176  2973               	goto	u2867
  1598  0177  0BBD               	decfsz	??_teclado+2,f
  1599  0178  2973               	goto	u2867
  1600  0179                     l2199:
  1601                           
  1602                           ;main.c: 105:         liga_buzzer(0.1);
  1603  0179  303D               	movlw	61
  1604  017A  1283               	bcf	3,5	;RP0=0, select bank0
  1605  017B  1303               	bcf	3,6	;RP1=0, select bank0
  1606  017C  00B8               	movwf	liga_buzzer@tempoSegundos+3
  1607  017D  30CC               	movlw	204
  1608  017E  00B7               	movwf	liga_buzzer@tempoSegundos+2
  1609  017F  30CC               	movlw	204
  1610  0180  00B6               	movwf	liga_buzzer@tempoSegundos+1
  1611  0181  30CD               	movlw	205
  1612  0182  00B5               	movwf	liga_buzzer@tempoSegundos
  1613  0183  120A  118A  2043  120A  118A  	fcall	_liga_buzzer
  1614  0188                     l2201:
  1615                           
  1616                           ;main.c: 106:         LCD_escreve('0');
  1617  0188  3030               	movlw	48
  1618  0189  120A  158A  2165  120A  118A  	fcall	_LCD_escreve
  1619  018E                     l2203:
  1620                           
  1621                           ;main.c: 108:         if(userFalse == 1){
  1622  018E  1283               	bcf	3,5	;RP0=0, select bank0
  1623  018F  1303               	bcf	3,6	;RP1=0, select bank0
  1624  0190  0357               	decf	_userFalse,w
  1625  0191  0458               	iorwf	_userFalse+1,w
  1626  0192  1D03               	btfss	3,2
  1627  0193  2995               	goto	u2381
  1628  0194  2996               	goto	u2380
  1629  0195                     u2381:
  1630  0195  2998               	goto	l2207
  1631  0196                     u2380:
  1632  0196                     l2205:
  1633                           
  1634                           ;main.c: 109:             input = 0;
  1635  0196  01DB               	clrf	_input
  1636  0197  01DC               	clrf	_input+1
  1637  0198                     l2207:
  1638                           
  1639                           ;main.c: 112:         LCD_escreve('0');
  1640  0198  3030               	movlw	48
  1641  0199  120A  158A  2165  120A  118A  	fcall	_LCD_escreve
  1642  019E                     l2209:
  1643                           
  1644                           ;main.c: 113:         LCD_escreve('0');
  1645  019E  3030               	movlw	48
  1646  019F  120A  158A  2165  120A  118A  	fcall	_LCD_escreve
  1647  01A4                     l2211:
  1648                           
  1649                           ;main.c: 114:         LCD_escreve('0');
  1650  01A4  3030               	movlw	48
  1651  01A5  120A  158A  2165  120A  118A  	fcall	_LCD_escreve
  1652  01AA                     l2213:
  1653                           
  1654                           ;main.c: 115:         LCD_escreve('0');
  1655  01AA  3030               	movlw	48
  1656  01AB  120A  158A  2165  120A  118A  	fcall	_LCD_escreve
  1657  01B0                     l2215:
  1658                           
  1659                           ;main.c: 121:     if (RB1 == 0){
  1660  01B0  1283               	bcf	3,5	;RP0=0, select bank0
  1661  01B1  1303               	bcf	3,6	;RP1=0, select bank0
  1662  01B2  1886               	btfsc	6,1	;volatile
  1663  01B3  29B5               	goto	u2391
  1664  01B4  29B6               	goto	u2390
  1665  01B5                     u2391:
  1666  01B5  29E5               	goto	l2227
  1667  01B6                     u2390:
  1668  01B6                     l2217:
  1669                           
  1670                           ;main.c: 122:         _delay((unsigned long)((200)*(20000000/4000.0)));
  1671  01B6  3006               	movlw	6
  1672  01B7  1283               	bcf	3,5	;RP0=0, select bank0
  1673  01B8  1303               	bcf	3,6	;RP1=0, select bank0
  1674  01B9  00BD               	movwf	??_teclado+2
  1675  01BA  3013               	movlw	19
  1676  01BB  00BC               	movwf	??_teclado+1
  1677  01BC  30AD               	movlw	173
  1678  01BD  00BB               	movwf	??_teclado
  1679  01BE                     u2877:
  1680  01BE  0BBB               	decfsz	??_teclado,f
  1681  01BF  29BE               	goto	u2877
  1682  01C0  0BBC               	decfsz	??_teclado+1,f
  1683  01C1  29BE               	goto	u2877
  1684  01C2  0BBD               	decfsz	??_teclado+2,f
  1685  01C3  29BE               	goto	u2877
  1686  01C4                     l2219:
  1687                           
  1688                           ;main.c: 123:         liga_buzzer(0.1);
  1689  01C4  303D               	movlw	61
  1690  01C5  1283               	bcf	3,5	;RP0=0, select bank0
  1691  01C6  1303               	bcf	3,6	;RP1=0, select bank0
  1692  01C7  00B8               	movwf	liga_buzzer@tempoSegundos+3
  1693  01C8  30CC               	movlw	204
  1694  01C9  00B7               	movwf	liga_buzzer@tempoSegundos+2
  1695  01CA  30CC               	movlw	204
  1696  01CB  00B6               	movwf	liga_buzzer@tempoSegundos+1
  1697  01CC  30CD               	movlw	205
  1698  01CD  00B5               	movwf	liga_buzzer@tempoSegundos
  1699  01CE  120A  118A  2043  120A  118A  	fcall	_liga_buzzer
  1700  01D3                     l2221:
  1701                           
  1702                           ;main.c: 124:         LCD_escreve('1');
  1703  01D3  3031               	movlw	49
  1704  01D4  120A  158A  2165  120A  118A  	fcall	_LCD_escreve
  1705  01D9                     l2223:
  1706                           
  1707                           ;main.c: 126:         if(userFalse == 1){
  1708  01D9  1283               	bcf	3,5	;RP0=0, select bank0
  1709  01DA  1303               	bcf	3,6	;RP1=0, select bank0
  1710  01DB  0357               	decf	_userFalse,w
  1711  01DC  0458               	iorwf	_userFalse+1,w
  1712  01DD  1D03               	btfss	3,2
  1713  01DE  29E0               	goto	u2401
  1714  01DF  29E1               	goto	u2400
  1715  01E0                     u2401:
  1716  01E0  29E5               	goto	l2227
  1717  01E1                     u2400:
  1718  01E1                     l2225:
  1719                           
  1720                           ;main.c: 127:             input = 1;
  1721  01E1  3001               	movlw	1
  1722  01E2  00DB               	movwf	_input
  1723  01E3  3000               	movlw	0
  1724  01E4  00DC               	movwf	_input+1
  1725  01E5                     l2227:
  1726                           
  1727                           ;main.c: 135:     if (RB2 == 0){
  1728  01E5  1906               	btfsc	6,2	;volatile
  1729  01E6  29E8               	goto	u2411
  1730  01E7  29E9               	goto	u2410
  1731  01E8                     u2411:
  1732  01E8  2A18               	goto	l2239
  1733  01E9                     u2410:
  1734  01E9                     l2229:
  1735                           
  1736                           ;main.c: 136:         _delay((unsigned long)((200)*(20000000/4000.0)));
  1737  01E9  3006               	movlw	6
  1738  01EA  1283               	bcf	3,5	;RP0=0, select bank0
  1739  01EB  1303               	bcf	3,6	;RP1=0, select bank0
  1740  01EC  00BD               	movwf	??_teclado+2
  1741  01ED  3013               	movlw	19
  1742  01EE  00BC               	movwf	??_teclado+1
  1743  01EF  30AD               	movlw	173
  1744  01F0  00BB               	movwf	??_teclado
  1745  01F1                     u2887:
  1746  01F1  0BBB               	decfsz	??_teclado,f
  1747  01F2  29F1               	goto	u2887
  1748  01F3  0BBC               	decfsz	??_teclado+1,f
  1749  01F4  29F1               	goto	u2887
  1750  01F5  0BBD               	decfsz	??_teclado+2,f
  1751  01F6  29F1               	goto	u2887
  1752  01F7                     l2231:
  1753                           
  1754                           ;main.c: 137:         liga_buzzer(0.1);
  1755  01F7  303D               	movlw	61
  1756  01F8  1283               	bcf	3,5	;RP0=0, select bank0
  1757  01F9  1303               	bcf	3,6	;RP1=0, select bank0
  1758  01FA  00B8               	movwf	liga_buzzer@tempoSegundos+3
  1759  01FB  30CC               	movlw	204
  1760  01FC  00B7               	movwf	liga_buzzer@tempoSegundos+2
  1761  01FD  30CC               	movlw	204
  1762  01FE  00B6               	movwf	liga_buzzer@tempoSegundos+1
  1763  01FF  30CD               	movlw	205
  1764  0200  00B5               	movwf	liga_buzzer@tempoSegundos
  1765  0201  120A  118A  2043  120A  118A  	fcall	_liga_buzzer
  1766  0206                     l2233:
  1767                           
  1768                           ;main.c: 138:         LCD_escreve('2');
  1769  0206  3032               	movlw	50
  1770  0207  120A  158A  2165  120A  118A  	fcall	_LCD_escreve
  1771  020C                     l2235:
  1772                           
  1773                           ;main.c: 140:         if(userFalse == 1){
  1774  020C  1283               	bcf	3,5	;RP0=0, select bank0
  1775  020D  1303               	bcf	3,6	;RP1=0, select bank0
  1776  020E  0357               	decf	_userFalse,w
  1777  020F  0458               	iorwf	_userFalse+1,w
  1778  0210  1D03               	btfss	3,2
  1779  0211  2A13               	goto	u2421
  1780  0212  2A14               	goto	u2420
  1781  0213                     u2421:
  1782  0213  2A18               	goto	l2239
  1783  0214                     u2420:
  1784  0214                     l2237:
  1785                           
  1786                           ;main.c: 141:             input = 2;
  1787  0214  3002               	movlw	2
  1788  0215  00DB               	movwf	_input
  1789  0216  3000               	movlw	0
  1790  0217  00DC               	movwf	_input+1
  1791  0218                     l2239:
  1792                           
  1793                           ;main.c: 148:     if (RB3 == 0){
  1794  0218  1986               	btfsc	6,3	;volatile
  1795  0219  2A1B               	goto	u2431
  1796  021A  2A1C               	goto	u2430
  1797  021B                     u2431:
  1798  021B  2A4B               	goto	l139
  1799  021C                     u2430:
  1800  021C                     l2241:
  1801                           
  1802                           ;main.c: 149:         _delay((unsigned long)((200)*(20000000/4000.0)));
  1803  021C  3006               	movlw	6
  1804  021D  1283               	bcf	3,5	;RP0=0, select bank0
  1805  021E  1303               	bcf	3,6	;RP1=0, select bank0
  1806  021F  00BD               	movwf	??_teclado+2
  1807  0220  3013               	movlw	19
  1808  0221  00BC               	movwf	??_teclado+1
  1809  0222  30AD               	movlw	173
  1810  0223  00BB               	movwf	??_teclado
  1811  0224                     u2897:
  1812  0224  0BBB               	decfsz	??_teclado,f
  1813  0225  2A24               	goto	u2897
  1814  0226  0BBC               	decfsz	??_teclado+1,f
  1815  0227  2A24               	goto	u2897
  1816  0228  0BBD               	decfsz	??_teclado+2,f
  1817  0229  2A24               	goto	u2897
  1818  022A                     l2243:
  1819                           
  1820                           ;main.c: 150:         liga_buzzer(0.1);
  1821  022A  303D               	movlw	61
  1822  022B  1283               	bcf	3,5	;RP0=0, select bank0
  1823  022C  1303               	bcf	3,6	;RP1=0, select bank0
  1824  022D  00B8               	movwf	liga_buzzer@tempoSegundos+3
  1825  022E  30CC               	movlw	204
  1826  022F  00B7               	movwf	liga_buzzer@tempoSegundos+2
  1827  0230  30CC               	movlw	204
  1828  0231  00B6               	movwf	liga_buzzer@tempoSegundos+1
  1829  0232  30CD               	movlw	205
  1830  0233  00B5               	movwf	liga_buzzer@tempoSegundos
  1831  0234  120A  118A  2043  120A  118A  	fcall	_liga_buzzer
  1832  0239                     l2245:
  1833                           
  1834                           ;main.c: 151:         LCD_escreve('3');
  1835  0239  3033               	movlw	51
  1836  023A  120A  158A  2165  120A  118A  	fcall	_LCD_escreve
  1837  023F                     l2247:
  1838                           
  1839                           ;main.c: 153:         if(userFalse == 1){
  1840  023F  1283               	bcf	3,5	;RP0=0, select bank0
  1841  0240  1303               	bcf	3,6	;RP1=0, select bank0
  1842  0241  0357               	decf	_userFalse,w
  1843  0242  0458               	iorwf	_userFalse+1,w
  1844  0243  1D03               	btfss	3,2
  1845  0244  2A46               	goto	u2441
  1846  0245  2A47               	goto	u2440
  1847  0246                     u2441:
  1848  0246  2A4B               	goto	l139
  1849  0247                     u2440:
  1850  0247                     l2249:
  1851                           
  1852                           ;main.c: 154:             input = 3;
  1853  0247  3003               	movlw	3
  1854  0248  00DB               	movwf	_input
  1855  0249  3000               	movlw	0
  1856  024A  00DC               	movwf	_input+1
  1857  024B                     l139:	
  1858                           ;main.c: 157:     }
  1859                           
  1860                           
  1861                           ;main.c: 162:     PORTB = 0b11011111;
  1862  024B  30DF               	movlw	223
  1863  024C  0086               	movwf	6	;volatile
  1864  024D                     l2251:
  1865                           
  1866                           ;main.c: 167:     if (RB0 == 0){
  1867  024D  1806               	btfsc	6,0	;volatile
  1868  024E  2A50               	goto	u2451
  1869  024F  2A51               	goto	u2450
  1870  0250                     u2451:
  1871  0250  2A80               	goto	l2263
  1872  0251                     u2450:
  1873  0251                     l2253:
  1874                           
  1875                           ;main.c: 168:         _delay((unsigned long)((200)*(20000000/4000.0)));
  1876  0251  3006               	movlw	6
  1877  0252  1283               	bcf	3,5	;RP0=0, select bank0
  1878  0253  1303               	bcf	3,6	;RP1=0, select bank0
  1879  0254  00BD               	movwf	??_teclado+2
  1880  0255  3013               	movlw	19
  1881  0256  00BC               	movwf	??_teclado+1
  1882  0257  30AD               	movlw	173
  1883  0258  00BB               	movwf	??_teclado
  1884  0259                     u2907:
  1885  0259  0BBB               	decfsz	??_teclado,f
  1886  025A  2A59               	goto	u2907
  1887  025B  0BBC               	decfsz	??_teclado+1,f
  1888  025C  2A59               	goto	u2907
  1889  025D  0BBD               	decfsz	??_teclado+2,f
  1890  025E  2A59               	goto	u2907
  1891  025F                     l2255:
  1892                           
  1893                           ;main.c: 169:         liga_buzzer(0.1);
  1894  025F  303D               	movlw	61
  1895  0260  1283               	bcf	3,5	;RP0=0, select bank0
  1896  0261  1303               	bcf	3,6	;RP1=0, select bank0
  1897  0262  00B8               	movwf	liga_buzzer@tempoSegundos+3
  1898  0263  30CC               	movlw	204
  1899  0264  00B7               	movwf	liga_buzzer@tempoSegundos+2
  1900  0265  30CC               	movlw	204
  1901  0266  00B6               	movwf	liga_buzzer@tempoSegundos+1
  1902  0267  30CD               	movlw	205
  1903  0268  00B5               	movwf	liga_buzzer@tempoSegundos
  1904  0269  120A  118A  2043  120A  118A  	fcall	_liga_buzzer
  1905  026E                     l2257:
  1906                           
  1907                           ;main.c: 170:         LCD_escreve('4');
  1908  026E  3034               	movlw	52
  1909  026F  120A  158A  2165  120A  118A  	fcall	_LCD_escreve
  1910  0274                     l2259:
  1911                           
  1912                           ;main.c: 172:         if(userFalse == 1){
  1913  0274  1283               	bcf	3,5	;RP0=0, select bank0
  1914  0275  1303               	bcf	3,6	;RP1=0, select bank0
  1915  0276  0357               	decf	_userFalse,w
  1916  0277  0458               	iorwf	_userFalse+1,w
  1917  0278  1D03               	btfss	3,2
  1918  0279  2A7B               	goto	u2461
  1919  027A  2A7C               	goto	u2460
  1920  027B                     u2461:
  1921  027B  2A80               	goto	l2263
  1922  027C                     u2460:
  1923  027C                     l2261:
  1924                           
  1925                           ;main.c: 173:             input = 4;
  1926  027C  3004               	movlw	4
  1927  027D  00DB               	movwf	_input
  1928  027E  3000               	movlw	0
  1929  027F  00DC               	movwf	_input+1
  1930  0280                     l2263:
  1931                           
  1932                           ;main.c: 180:     if (RB1 == 0){
  1933  0280  1886               	btfsc	6,1	;volatile
  1934  0281  2A83               	goto	u2471
  1935  0282  2A84               	goto	u2470
  1936  0283                     u2471:
  1937  0283  2AB3               	goto	l2275
  1938  0284                     u2470:
  1939  0284                     l2265:
  1940                           
  1941                           ;main.c: 181:         _delay((unsigned long)((200)*(20000000/4000.0)));
  1942  0284  3006               	movlw	6
  1943  0285  1283               	bcf	3,5	;RP0=0, select bank0
  1944  0286  1303               	bcf	3,6	;RP1=0, select bank0
  1945  0287  00BD               	movwf	??_teclado+2
  1946  0288  3013               	movlw	19
  1947  0289  00BC               	movwf	??_teclado+1
  1948  028A  30AD               	movlw	173
  1949  028B  00BB               	movwf	??_teclado
  1950  028C                     u2917:
  1951  028C  0BBB               	decfsz	??_teclado,f
  1952  028D  2A8C               	goto	u2917
  1953  028E  0BBC               	decfsz	??_teclado+1,f
  1954  028F  2A8C               	goto	u2917
  1955  0290  0BBD               	decfsz	??_teclado+2,f
  1956  0291  2A8C               	goto	u2917
  1957  0292                     l2267:
  1958                           
  1959                           ;main.c: 182:         liga_buzzer(0.1);
  1960  0292  303D               	movlw	61
  1961  0293  1283               	bcf	3,5	;RP0=0, select bank0
  1962  0294  1303               	bcf	3,6	;RP1=0, select bank0
  1963  0295  00B8               	movwf	liga_buzzer@tempoSegundos+3
  1964  0296  30CC               	movlw	204
  1965  0297  00B7               	movwf	liga_buzzer@tempoSegundos+2
  1966  0298  30CC               	movlw	204
  1967  0299  00B6               	movwf	liga_buzzer@tempoSegundos+1
  1968  029A  30CD               	movlw	205
  1969  029B  00B5               	movwf	liga_buzzer@tempoSegundos
  1970  029C  120A  118A  2043  120A  118A  	fcall	_liga_buzzer
  1971  02A1                     l2269:
  1972                           
  1973                           ;main.c: 183:         LCD_escreve('5');
  1974  02A1  3035               	movlw	53
  1975  02A2  120A  158A  2165  120A  118A  	fcall	_LCD_escreve
  1976  02A7                     l2271:
  1977                           
  1978                           ;main.c: 185:         if(userFalse == 1){
  1979  02A7  1283               	bcf	3,5	;RP0=0, select bank0
  1980  02A8  1303               	bcf	3,6	;RP1=0, select bank0
  1981  02A9  0357               	decf	_userFalse,w
  1982  02AA  0458               	iorwf	_userFalse+1,w
  1983  02AB  1D03               	btfss	3,2
  1984  02AC  2AAE               	goto	u2481
  1985  02AD  2AAF               	goto	u2480
  1986  02AE                     u2481:
  1987  02AE  2AB3               	goto	l2275
  1988  02AF                     u2480:
  1989  02AF                     l2273:
  1990                           
  1991                           ;main.c: 186:             input = 5;
  1992  02AF  3005               	movlw	5
  1993  02B0  00DB               	movwf	_input
  1994  02B1  3000               	movlw	0
  1995  02B2  00DC               	movwf	_input+1
  1996  02B3                     l2275:
  1997                           
  1998                           ;main.c: 194:     if (RB2 == 0){
  1999  02B3  1906               	btfsc	6,2	;volatile
  2000  02B4  2AB6               	goto	u2491
  2001  02B5  2AB7               	goto	u2490
  2002  02B6                     u2491:
  2003  02B6  2AE6               	goto	l2287
  2004  02B7                     u2490:
  2005  02B7                     l2277:
  2006                           
  2007                           ;main.c: 195:         _delay((unsigned long)((200)*(20000000/4000.0)));
  2008  02B7  3006               	movlw	6
  2009  02B8  1283               	bcf	3,5	;RP0=0, select bank0
  2010  02B9  1303               	bcf	3,6	;RP1=0, select bank0
  2011  02BA  00BD               	movwf	??_teclado+2
  2012  02BB  3013               	movlw	19
  2013  02BC  00BC               	movwf	??_teclado+1
  2014  02BD  30AD               	movlw	173
  2015  02BE  00BB               	movwf	??_teclado
  2016  02BF                     u2927:
  2017  02BF  0BBB               	decfsz	??_teclado,f
  2018  02C0  2ABF               	goto	u2927
  2019  02C1  0BBC               	decfsz	??_teclado+1,f
  2020  02C2  2ABF               	goto	u2927
  2021  02C3  0BBD               	decfsz	??_teclado+2,f
  2022  02C4  2ABF               	goto	u2927
  2023  02C5                     l2279:
  2024                           
  2025                           ;main.c: 196:         liga_buzzer(0.1);
  2026  02C5  303D               	movlw	61
  2027  02C6  1283               	bcf	3,5	;RP0=0, select bank0
  2028  02C7  1303               	bcf	3,6	;RP1=0, select bank0
  2029  02C8  00B8               	movwf	liga_buzzer@tempoSegundos+3
  2030  02C9  30CC               	movlw	204
  2031  02CA  00B7               	movwf	liga_buzzer@tempoSegundos+2
  2032  02CB  30CC               	movlw	204
  2033  02CC  00B6               	movwf	liga_buzzer@tempoSegundos+1
  2034  02CD  30CD               	movlw	205
  2035  02CE  00B5               	movwf	liga_buzzer@tempoSegundos
  2036  02CF  120A  118A  2043  120A  118A  	fcall	_liga_buzzer
  2037  02D4                     l2281:
  2038                           
  2039                           ;main.c: 197:         LCD_escreve('6');
  2040  02D4  3036               	movlw	54
  2041  02D5  120A  158A  2165  120A  118A  	fcall	_LCD_escreve
  2042  02DA                     l2283:
  2043                           
  2044                           ;main.c: 199:         if(userFalse == 1){
  2045  02DA  1283               	bcf	3,5	;RP0=0, select bank0
  2046  02DB  1303               	bcf	3,6	;RP1=0, select bank0
  2047  02DC  0357               	decf	_userFalse,w
  2048  02DD  0458               	iorwf	_userFalse+1,w
  2049  02DE  1D03               	btfss	3,2
  2050  02DF  2AE1               	goto	u2501
  2051  02E0  2AE2               	goto	u2500
  2052  02E1                     u2501:
  2053  02E1  2AE6               	goto	l2287
  2054  02E2                     u2500:
  2055  02E2                     l2285:
  2056                           
  2057                           ;main.c: 200:             input = 6;
  2058  02E2  3006               	movlw	6
  2059  02E3  00DB               	movwf	_input
  2060  02E4  3000               	movlw	0
  2061  02E5  00DC               	movwf	_input+1
  2062  02E6                     l2287:
  2063                           
  2064                           ;main.c: 207:     if (RB3 == 0){
  2065  02E6  1986               	btfsc	6,3	;volatile
  2066  02E7  2AE9               	goto	u2511
  2067  02E8  2AEA               	goto	u2510
  2068  02E9                     u2511:
  2069  02E9  2B19               	goto	l147
  2070  02EA                     u2510:
  2071  02EA                     l2289:
  2072                           
  2073                           ;main.c: 208:         _delay((unsigned long)((200)*(20000000/4000.0)));
  2074  02EA  3006               	movlw	6
  2075  02EB  1283               	bcf	3,5	;RP0=0, select bank0
  2076  02EC  1303               	bcf	3,6	;RP1=0, select bank0
  2077  02ED  00BD               	movwf	??_teclado+2
  2078  02EE  3013               	movlw	19
  2079  02EF  00BC               	movwf	??_teclado+1
  2080  02F0  30AD               	movlw	173
  2081  02F1  00BB               	movwf	??_teclado
  2082  02F2                     u2937:
  2083  02F2  0BBB               	decfsz	??_teclado,f
  2084  02F3  2AF2               	goto	u2937
  2085  02F4  0BBC               	decfsz	??_teclado+1,f
  2086  02F5  2AF2               	goto	u2937
  2087  02F6  0BBD               	decfsz	??_teclado+2,f
  2088  02F7  2AF2               	goto	u2937
  2089  02F8                     l2291:
  2090                           
  2091                           ;main.c: 209:         liga_buzzer(0.1);
  2092  02F8  303D               	movlw	61
  2093  02F9  1283               	bcf	3,5	;RP0=0, select bank0
  2094  02FA  1303               	bcf	3,6	;RP1=0, select bank0
  2095  02FB  00B8               	movwf	liga_buzzer@tempoSegundos+3
  2096  02FC  30CC               	movlw	204
  2097  02FD  00B7               	movwf	liga_buzzer@tempoSegundos+2
  2098  02FE  30CC               	movlw	204
  2099  02FF  00B6               	movwf	liga_buzzer@tempoSegundos+1
  2100  0300  30CD               	movlw	205
  2101  0301  00B5               	movwf	liga_buzzer@tempoSegundos
  2102  0302  120A  118A  2043  120A  118A  	fcall	_liga_buzzer
  2103  0307                     l2293:
  2104                           
  2105                           ;main.c: 210:         LCD_escreve('7');
  2106  0307  3037               	movlw	55
  2107  0308  120A  158A  2165  120A  118A  	fcall	_LCD_escreve
  2108  030D                     l2295:
  2109                           
  2110                           ;main.c: 212:         if(userFalse == 1){
  2111  030D  1283               	bcf	3,5	;RP0=0, select bank0
  2112  030E  1303               	bcf	3,6	;RP1=0, select bank0
  2113  030F  0357               	decf	_userFalse,w
  2114  0310  0458               	iorwf	_userFalse+1,w
  2115  0311  1D03               	btfss	3,2
  2116  0312  2B14               	goto	u2521
  2117  0313  2B15               	goto	u2520
  2118  0314                     u2521:
  2119  0314  2B19               	goto	l147
  2120  0315                     u2520:
  2121  0315                     l2297:
  2122                           
  2123                           ;main.c: 213:             input = 7;
  2124  0315  3007               	movlw	7
  2125  0316  00DB               	movwf	_input
  2126  0317  3000               	movlw	0
  2127  0318  00DC               	movwf	_input+1
  2128  0319                     l147:	
  2129                           ;main.c: 216:     }
  2130                           
  2131                           
  2132                           ;main.c: 221:     PORTB = 0b10111111;
  2133  0319  30BF               	movlw	191
  2134  031A  0086               	movwf	6	;volatile
  2135  031B                     l2299:
  2136                           
  2137                           ;main.c: 226:     if (RB0 == 0){
  2138  031B  1806               	btfsc	6,0	;volatile
  2139  031C  2B1E               	goto	u2531
  2140  031D  2B1F               	goto	u2530
  2141  031E                     u2531:
  2142  031E  2B4E               	goto	l2311
  2143  031F                     u2530:
  2144  031F                     l2301:
  2145                           
  2146                           ;main.c: 227:         _delay((unsigned long)((200)*(20000000/4000.0)));
  2147  031F  3006               	movlw	6
  2148  0320  1283               	bcf	3,5	;RP0=0, select bank0
  2149  0321  1303               	bcf	3,6	;RP1=0, select bank0
  2150  0322  00BD               	movwf	??_teclado+2
  2151  0323  3013               	movlw	19
  2152  0324  00BC               	movwf	??_teclado+1
  2153  0325  30AD               	movlw	173
  2154  0326  00BB               	movwf	??_teclado
  2155  0327                     u2947:
  2156  0327  0BBB               	decfsz	??_teclado,f
  2157  0328  2B27               	goto	u2947
  2158  0329  0BBC               	decfsz	??_teclado+1,f
  2159  032A  2B27               	goto	u2947
  2160  032B  0BBD               	decfsz	??_teclado+2,f
  2161  032C  2B27               	goto	u2947
  2162  032D                     l2303:
  2163                           
  2164                           ;main.c: 228:         liga_buzzer(0.1);
  2165  032D  303D               	movlw	61
  2166  032E  1283               	bcf	3,5	;RP0=0, select bank0
  2167  032F  1303               	bcf	3,6	;RP1=0, select bank0
  2168  0330  00B8               	movwf	liga_buzzer@tempoSegundos+3
  2169  0331  30CC               	movlw	204
  2170  0332  00B7               	movwf	liga_buzzer@tempoSegundos+2
  2171  0333  30CC               	movlw	204
  2172  0334  00B6               	movwf	liga_buzzer@tempoSegundos+1
  2173  0335  30CD               	movlw	205
  2174  0336  00B5               	movwf	liga_buzzer@tempoSegundos
  2175  0337  120A  118A  2043  120A  118A  	fcall	_liga_buzzer
  2176  033C                     l2305:
  2177                           
  2178                           ;main.c: 229:         LCD_escreve('8');
  2179  033C  3038               	movlw	56
  2180  033D  120A  158A  2165  120A  118A  	fcall	_LCD_escreve
  2181  0342                     l2307:
  2182                           
  2183                           ;main.c: 231:         if(userFalse == 1){
  2184  0342  1283               	bcf	3,5	;RP0=0, select bank0
  2185  0343  1303               	bcf	3,6	;RP1=0, select bank0
  2186  0344  0357               	decf	_userFalse,w
  2187  0345  0458               	iorwf	_userFalse+1,w
  2188  0346  1D03               	btfss	3,2
  2189  0347  2B49               	goto	u2541
  2190  0348  2B4A               	goto	u2540
  2191  0349                     u2541:
  2192  0349  2B4E               	goto	l2311
  2193  034A                     u2540:
  2194  034A                     l2309:
  2195                           
  2196                           ;main.c: 232:             input = 8;
  2197  034A  3008               	movlw	8
  2198  034B  00DB               	movwf	_input
  2199  034C  3000               	movlw	0
  2200  034D  00DC               	movwf	_input+1
  2201  034E                     l2311:
  2202                           
  2203                           ;main.c: 240:     if (RB1 == 0){
  2204  034E  1886               	btfsc	6,1	;volatile
  2205  034F  2B51               	goto	u2551
  2206  0350  2B52               	goto	u2550
  2207  0351                     u2551:
  2208  0351  2B81               	goto	l2323
  2209  0352                     u2550:
  2210  0352                     l2313:
  2211                           
  2212                           ;main.c: 241:         _delay((unsigned long)((200)*(20000000/4000.0)));
  2213  0352  3006               	movlw	6
  2214  0353  1283               	bcf	3,5	;RP0=0, select bank0
  2215  0354  1303               	bcf	3,6	;RP1=0, select bank0
  2216  0355  00BD               	movwf	??_teclado+2
  2217  0356  3013               	movlw	19
  2218  0357  00BC               	movwf	??_teclado+1
  2219  0358  30AD               	movlw	173
  2220  0359  00BB               	movwf	??_teclado
  2221  035A                     u2957:
  2222  035A  0BBB               	decfsz	??_teclado,f
  2223  035B  2B5A               	goto	u2957
  2224  035C  0BBC               	decfsz	??_teclado+1,f
  2225  035D  2B5A               	goto	u2957
  2226  035E  0BBD               	decfsz	??_teclado+2,f
  2227  035F  2B5A               	goto	u2957
  2228  0360                     l2315:
  2229                           
  2230                           ;main.c: 242:         liga_buzzer(0.1);
  2231  0360  303D               	movlw	61
  2232  0361  1283               	bcf	3,5	;RP0=0, select bank0
  2233  0362  1303               	bcf	3,6	;RP1=0, select bank0
  2234  0363  00B8               	movwf	liga_buzzer@tempoSegundos+3
  2235  0364  30CC               	movlw	204
  2236  0365  00B7               	movwf	liga_buzzer@tempoSegundos+2
  2237  0366  30CC               	movlw	204
  2238  0367  00B6               	movwf	liga_buzzer@tempoSegundos+1
  2239  0368  30CD               	movlw	205
  2240  0369  00B5               	movwf	liga_buzzer@tempoSegundos
  2241  036A  120A  118A  2043  120A  118A  	fcall	_liga_buzzer
  2242  036F                     l2317:
  2243                           
  2244                           ;main.c: 243:         LCD_escreve('9');
  2245  036F  3039               	movlw	57
  2246  0370  120A  158A  2165  120A  118A  	fcall	_LCD_escreve
  2247  0375                     l2319:
  2248                           
  2249                           ;main.c: 245:         if(userFalse == 1){
  2250  0375  1283               	bcf	3,5	;RP0=0, select bank0
  2251  0376  1303               	bcf	3,6	;RP1=0, select bank0
  2252  0377  0357               	decf	_userFalse,w
  2253  0378  0458               	iorwf	_userFalse+1,w
  2254  0379  1D03               	btfss	3,2
  2255  037A  2B7C               	goto	u2561
  2256  037B  2B7D               	goto	u2560
  2257  037C                     u2561:
  2258  037C  2B81               	goto	l2323
  2259  037D                     u2560:
  2260  037D                     l2321:
  2261                           
  2262                           ;main.c: 246:             input = 9;
  2263  037D  3009               	movlw	9
  2264  037E  00DB               	movwf	_input
  2265  037F  3000               	movlw	0
  2266  0380  00DC               	movwf	_input+1
  2267  0381                     l2323:
  2268                           
  2269                           ;main.c: 254:     if (RB2 == 0){
  2270  0381  1906               	btfsc	6,2	;volatile
  2271  0382  2B84               	goto	u2571
  2272  0383  2B85               	goto	u2570
  2273  0384                     u2571:
  2274  0384  2BA8               	goto	l2331
  2275  0385                     u2570:
  2276  0385                     l2325:
  2277                           
  2278                           ;main.c: 255:         _delay((unsigned long)((200)*(20000000/4000.0)));
  2279  0385  3006               	movlw	6
  2280  0386  1283               	bcf	3,5	;RP0=0, select bank0
  2281  0387  1303               	bcf	3,6	;RP1=0, select bank0
  2282  0388  00BD               	movwf	??_teclado+2
  2283  0389  3013               	movlw	19
  2284  038A  00BC               	movwf	??_teclado+1
  2285  038B  30AD               	movlw	173
  2286  038C  00BB               	movwf	??_teclado
  2287  038D                     u2967:
  2288  038D  0BBB               	decfsz	??_teclado,f
  2289  038E  2B8D               	goto	u2967
  2290  038F  0BBC               	decfsz	??_teclado+1,f
  2291  0390  2B8D               	goto	u2967
  2292  0391  0BBD               	decfsz	??_teclado+2,f
  2293  0392  2B8D               	goto	u2967
  2294  0393                     l2327:
  2295                           
  2296                           ;main.c: 256:         liga_buzzer(0.1);
  2297  0393  303D               	movlw	61
  2298  0394  1283               	bcf	3,5	;RP0=0, select bank0
  2299  0395  1303               	bcf	3,6	;RP1=0, select bank0
  2300  0396  00B8               	movwf	liga_buzzer@tempoSegundos+3
  2301  0397  30CC               	movlw	204
  2302  0398  00B7               	movwf	liga_buzzer@tempoSegundos+2
  2303  0399  30CC               	movlw	204
  2304  039A  00B6               	movwf	liga_buzzer@tempoSegundos+1
  2305  039B  30CD               	movlw	205
  2306  039C  00B5               	movwf	liga_buzzer@tempoSegundos
  2307  039D  120A  118A  2043  120A  118A  	fcall	_liga_buzzer
  2308  03A2                     l2329:
  2309                           
  2310                           ;main.c: 257:         LCD_escreve('A');
  2311  03A2  3041               	movlw	65
  2312  03A3  120A  158A  2165  120A  118A  	fcall	_LCD_escreve
  2313  03A8                     l2331:
  2314                           
  2315                           ;main.c: 264:     if (RB3 == 0){
  2316  03A8  1283               	bcf	3,5	;RP0=0, select bank0
  2317  03A9  1303               	bcf	3,6	;RP1=0, select bank0
  2318  03AA  1986               	btfsc	6,3	;volatile
  2319  03AB  2BAD               	goto	u2581
  2320  03AC  2BAE               	goto	u2580
  2321  03AD                     u2581:
  2322  03AD  2BD1               	goto	l154
  2323  03AE                     u2580:
  2324  03AE                     l2333:
  2325                           
  2326                           ;main.c: 265:         _delay((unsigned long)((200)*(20000000/4000.0)));
  2327  03AE  3006               	movlw	6
  2328  03AF  1283               	bcf	3,5	;RP0=0, select bank0
  2329  03B0  1303               	bcf	3,6	;RP1=0, select bank0
  2330  03B1  00BD               	movwf	??_teclado+2
  2331  03B2  3013               	movlw	19
  2332  03B3  00BC               	movwf	??_teclado+1
  2333  03B4  30AD               	movlw	173
  2334  03B5  00BB               	movwf	??_teclado
  2335  03B6                     u2977:
  2336  03B6  0BBB               	decfsz	??_teclado,f
  2337  03B7  2BB6               	goto	u2977
  2338  03B8  0BBC               	decfsz	??_teclado+1,f
  2339  03B9  2BB6               	goto	u2977
  2340  03BA  0BBD               	decfsz	??_teclado+2,f
  2341  03BB  2BB6               	goto	u2977
  2342  03BC                     l2335:
  2343                           
  2344                           ;main.c: 266:         liga_buzzer(0.1);
  2345  03BC  303D               	movlw	61
  2346  03BD  1283               	bcf	3,5	;RP0=0, select bank0
  2347  03BE  1303               	bcf	3,6	;RP1=0, select bank0
  2348  03BF  00B8               	movwf	liga_buzzer@tempoSegundos+3
  2349  03C0  30CC               	movlw	204
  2350  03C1  00B7               	movwf	liga_buzzer@tempoSegundos+2
  2351  03C2  30CC               	movlw	204
  2352  03C3  00B6               	movwf	liga_buzzer@tempoSegundos+1
  2353  03C4  30CD               	movlw	205
  2354  03C5  00B5               	movwf	liga_buzzer@tempoSegundos
  2355  03C6  120A  118A  2043  120A  118A  	fcall	_liga_buzzer
  2356  03CB                     l2337:
  2357                           
  2358                           ;main.c: 267:         LCD_escreve('B');
  2359  03CB  3042               	movlw	66
  2360  03CC  120A  158A  2165  120A  118A  	fcall	_LCD_escreve
  2361  03D1                     l154:	
  2362                           ;main.c: 269:     }
  2363                           
  2364                           
  2365                           ;main.c: 274:     PORTB = 0b01111111;
  2366  03D1  307F               	movlw	127
  2367  03D2  1283               	bcf	3,5	;RP0=0, select bank0
  2368  03D3  1303               	bcf	3,6	;RP1=0, select bank0
  2369  03D4  0086               	movwf	6	;volatile
  2370  03D5                     l2339:
  2371                           
  2372                           ;main.c: 279:     if (RB0 == 0){
  2373  03D5  1806               	btfsc	6,0	;volatile
  2374  03D6  2BD8               	goto	u2591
  2375  03D7  2BD9               	goto	u2590
  2376  03D8                     u2591:
  2377  03D8  2BFC               	goto	l2347
  2378  03D9                     u2590:
  2379  03D9                     l2341:
  2380                           
  2381                           ;main.c: 280:         _delay((unsigned long)((200)*(20000000/4000.0)));
  2382  03D9  3006               	movlw	6
  2383  03DA  1283               	bcf	3,5	;RP0=0, select bank0
  2384  03DB  1303               	bcf	3,6	;RP1=0, select bank0
  2385  03DC  00BD               	movwf	??_teclado+2
  2386  03DD  3013               	movlw	19
  2387  03DE  00BC               	movwf	??_teclado+1
  2388  03DF  30AD               	movlw	173
  2389  03E0  00BB               	movwf	??_teclado
  2390  03E1                     u2987:
  2391  03E1  0BBB               	decfsz	??_teclado,f
  2392  03E2  2BE1               	goto	u2987
  2393  03E3  0BBC               	decfsz	??_teclado+1,f
  2394  03E4  2BE1               	goto	u2987
  2395  03E5  0BBD               	decfsz	??_teclado+2,f
  2396  03E6  2BE1               	goto	u2987
  2397  03E7                     l2343:
  2398                           
  2399                           ;main.c: 281:         liga_buzzer(0.1);
  2400  03E7  303D               	movlw	61
  2401  03E8  1283               	bcf	3,5	;RP0=0, select bank0
  2402  03E9  1303               	bcf	3,6	;RP1=0, select bank0
  2403  03EA  00B8               	movwf	liga_buzzer@tempoSegundos+3
  2404  03EB  30CC               	movlw	204
  2405  03EC  00B7               	movwf	liga_buzzer@tempoSegundos+2
  2406  03ED  30CC               	movlw	204
  2407  03EE  00B6               	movwf	liga_buzzer@tempoSegundos+1
  2408  03EF  30CD               	movlw	205
  2409  03F0  00B5               	movwf	liga_buzzer@tempoSegundos
  2410  03F1  120A  118A  2043  120A  118A  	fcall	_liga_buzzer
  2411  03F6                     l2345:
  2412                           
  2413                           ;main.c: 282:         LCD_escreve('C');
  2414  03F6  3043               	movlw	67
  2415  03F7  120A  158A  2165  120A  118A  	fcall	_LCD_escreve
  2416  03FC                     l2347:
  2417                           
  2418                           ;main.c: 289:     if (RB1 == 0){
  2419  03FC  1283               	bcf	3,5	;RP0=0, select bank0
  2420  03FD  1303               	bcf	3,6	;RP1=0, select bank0
  2421  03FE  1886               	btfsc	6,1	;volatile
  2422  03FF  2C01               	goto	u2601
  2423  0400  2C02               	goto	u2600
  2424  0401                     u2601:
  2425  0401  2C25               	goto	l2355
  2426  0402                     u2600:
  2427  0402                     l2349:
  2428                           
  2429                           ;main.c: 290:         _delay((unsigned long)((200)*(20000000/4000.0)));
  2430  0402  3006               	movlw	6
  2431  0403  1283               	bcf	3,5	;RP0=0, select bank0
  2432  0404  1303               	bcf	3,6	;RP1=0, select bank0
  2433  0405  00BD               	movwf	??_teclado+2
  2434  0406  3013               	movlw	19
  2435  0407  00BC               	movwf	??_teclado+1
  2436  0408  30AD               	movlw	173
  2437  0409  00BB               	movwf	??_teclado
  2438  040A                     u2997:
  2439  040A  0BBB               	decfsz	??_teclado,f
  2440  040B  2C0A               	goto	u2997
  2441  040C  0BBC               	decfsz	??_teclado+1,f
  2442  040D  2C0A               	goto	u2997
  2443  040E  0BBD               	decfsz	??_teclado+2,f
  2444  040F  2C0A               	goto	u2997
  2445  0410                     l2351:
  2446                           
  2447                           ;main.c: 291:         liga_buzzer(0.1);
  2448  0410  303D               	movlw	61
  2449  0411  1283               	bcf	3,5	;RP0=0, select bank0
  2450  0412  1303               	bcf	3,6	;RP1=0, select bank0
  2451  0413  00B8               	movwf	liga_buzzer@tempoSegundos+3
  2452  0414  30CC               	movlw	204
  2453  0415  00B7               	movwf	liga_buzzer@tempoSegundos+2
  2454  0416  30CC               	movlw	204
  2455  0417  00B6               	movwf	liga_buzzer@tempoSegundos+1
  2456  0418  30CD               	movlw	205
  2457  0419  00B5               	movwf	liga_buzzer@tempoSegundos
  2458  041A  120A  118A  2043  120A  118A  	fcall	_liga_buzzer
  2459  041F                     l2353:
  2460                           
  2461                           ;main.c: 292:         LCD_escreve('D');
  2462  041F  3044               	movlw	68
  2463  0420  120A  158A  2165  120A  118A  	fcall	_LCD_escreve
  2464  0425                     l2355:
  2465                           
  2466                           ;main.c: 299:     if (RB2 == 0){
  2467  0425  1283               	bcf	3,5	;RP0=0, select bank0
  2468  0426  1303               	bcf	3,6	;RP1=0, select bank0
  2469  0427  1906               	btfsc	6,2	;volatile
  2470  0428  2C2A               	goto	u2611
  2471  0429  2C2B               	goto	u2610
  2472  042A                     u2611:
  2473  042A  2C4E               	goto	l2363
  2474  042B                     u2610:
  2475  042B                     l2357:
  2476                           
  2477                           ;main.c: 300:         _delay((unsigned long)((200)*(20000000/4000.0)));
  2478  042B  3006               	movlw	6
  2479  042C  1283               	bcf	3,5	;RP0=0, select bank0
  2480  042D  1303               	bcf	3,6	;RP1=0, select bank0
  2481  042E  00BD               	movwf	??_teclado+2
  2482  042F  3013               	movlw	19
  2483  0430  00BC               	movwf	??_teclado+1
  2484  0431  30AD               	movlw	173
  2485  0432  00BB               	movwf	??_teclado
  2486  0433                     u3007:
  2487  0433  0BBB               	decfsz	??_teclado,f
  2488  0434  2C33               	goto	u3007
  2489  0435  0BBC               	decfsz	??_teclado+1,f
  2490  0436  2C33               	goto	u3007
  2491  0437  0BBD               	decfsz	??_teclado+2,f
  2492  0438  2C33               	goto	u3007
  2493  0439                     l2359:
  2494                           
  2495                           ;main.c: 301:         liga_buzzer(0.1);
  2496  0439  303D               	movlw	61
  2497  043A  1283               	bcf	3,5	;RP0=0, select bank0
  2498  043B  1303               	bcf	3,6	;RP1=0, select bank0
  2499  043C  00B8               	movwf	liga_buzzer@tempoSegundos+3
  2500  043D  30CC               	movlw	204
  2501  043E  00B7               	movwf	liga_buzzer@tempoSegundos+2
  2502  043F  30CC               	movlw	204
  2503  0440  00B6               	movwf	liga_buzzer@tempoSegundos+1
  2504  0441  30CD               	movlw	205
  2505  0442  00B5               	movwf	liga_buzzer@tempoSegundos
  2506  0443  120A  118A  2043  120A  118A  	fcall	_liga_buzzer
  2507  0448                     l2361:
  2508                           
  2509                           ;main.c: 302:         LCD_escreve('E');
  2510  0448  3045               	movlw	69
  2511  0449  120A  158A  2165  120A  118A  	fcall	_LCD_escreve
  2512  044E                     l2363:
  2513                           
  2514                           ;main.c: 309:     if (RB3 == 0){
  2515  044E  1283               	bcf	3,5	;RP0=0, select bank0
  2516  044F  1303               	bcf	3,6	;RP1=0, select bank0
  2517  0450  1986               	btfsc	6,3	;volatile
  2518  0451  2C53               	goto	u2621
  2519  0452  2C54               	goto	u2620
  2520  0453                     u2621:
  2521  0453  2C77               	goto	l159
  2522  0454                     u2620:
  2523  0454                     l2365:
  2524                           
  2525                           ;main.c: 310:         _delay((unsigned long)((200)*(20000000/4000.0)));
  2526  0454  3006               	movlw	6
  2527  0455  1283               	bcf	3,5	;RP0=0, select bank0
  2528  0456  1303               	bcf	3,6	;RP1=0, select bank0
  2529  0457  00BD               	movwf	??_teclado+2
  2530  0458  3013               	movlw	19
  2531  0459  00BC               	movwf	??_teclado+1
  2532  045A  30AD               	movlw	173
  2533  045B  00BB               	movwf	??_teclado
  2534  045C                     u3017:
  2535  045C  0BBB               	decfsz	??_teclado,f
  2536  045D  2C5C               	goto	u3017
  2537  045E  0BBC               	decfsz	??_teclado+1,f
  2538  045F  2C5C               	goto	u3017
  2539  0460  0BBD               	decfsz	??_teclado+2,f
  2540  0461  2C5C               	goto	u3017
  2541  0462                     l2367:
  2542                           
  2543                           ;main.c: 311:         liga_buzzer(0.1);
  2544  0462  303D               	movlw	61
  2545  0463  1283               	bcf	3,5	;RP0=0, select bank0
  2546  0464  1303               	bcf	3,6	;RP1=0, select bank0
  2547  0465  00B8               	movwf	liga_buzzer@tempoSegundos+3
  2548  0466  30CC               	movlw	204
  2549  0467  00B7               	movwf	liga_buzzer@tempoSegundos+2
  2550  0468  30CC               	movlw	204
  2551  0469  00B6               	movwf	liga_buzzer@tempoSegundos+1
  2552  046A  30CD               	movlw	205
  2553  046B  00B5               	movwf	liga_buzzer@tempoSegundos
  2554  046C  120A  118A  2043  120A  118A  	fcall	_liga_buzzer
  2555  0471                     l2369:
  2556                           
  2557                           ;main.c: 312:         LCD_escreve('F');
  2558  0471  3046               	movlw	70
  2559  0472  120A  158A  2165  120A  118A  	fcall	_LCD_escreve
  2560  0477                     l159:
  2561  0477  0008               	return
  2562  0478                     __end_of_teclado:
  2563                           
  2564                           	psect	text3
  2565  0043                     __ptext3:	
  2566 ;; *************** function _liga_buzzer *****************
  2567 ;; Defined at:
  2568 ;;		line 76 in file "main.c"
  2569 ;; Parameters:    Size  Location     Type
  2570 ;;  tempoSegundo    4   21[BANK0 ] float 
  2571 ;; Auto vars:     Size  Location     Type
  2572 ;;		None
  2573 ;; Return value:  Size  Location     Type
  2574 ;;                  1    wreg      void 
  2575 ;; Registers used:
  2576 ;;		wreg, status,2, status,0, btemp+1, pclath, cstack
  2577 ;; Tracked objects:
  2578 ;;		On entry : 0/0
  2579 ;;		On exit  : 0/0
  2580 ;;		Unchanged: 0/0
  2581 ;; Data sizes:     COMMON   BANK0   BANK1   BANK3   BANK2
  2582 ;;      Params:         0       4       0       0       0
  2583 ;;      Locals:         0       0       0       0       0
  2584 ;;      Temps:          0       2       0       0       0
  2585 ;;      Totals:         0       6       0       0       0
  2586 ;;Total ram usage:        6 bytes
  2587 ;; Hardware stack levels used: 1
  2588 ;; Hardware stack levels required when called: 2
  2589 ;; This function calls:
  2590 ;;		___flge
  2591 ;;		___flmul
  2592 ;;		___flsub
  2593 ;; This function is called by:
  2594 ;;		_teclado
  2595 ;;		_validaUser
  2596 ;; This function uses a non-reentrant model
  2597 ;;
  2598                           
  2599                           
  2600                           ;psect for function _liga_buzzer
  2601  0043                     _liga_buzzer:
  2602  0043                     l2141:	
  2603                           ;incstack = 0
  2604                           ; Regs used in _liga_buzzer: [wreg+status,2+status,0+btemp+1+pclath+cstack]
  2605                           
  2606                           
  2607                           ;main.c: 77:     tempoSegundos = tempoSegundos * 1000;
  2608  0043  3044               	movlw	68
  2609  0044  1283               	bcf	3,5	;RP0=0, select bank0
  2610  0045  1303               	bcf	3,6	;RP1=0, select bank0
  2611  0046  00A3               	movwf	___flmul@b+3
  2612  0047  307A               	movlw	122
  2613  0048  00A2               	movwf	___flmul@b+2
  2614  0049  3000               	movlw	0
  2615  004A  00A1               	movwf	___flmul@b+1
  2616  004B  3000               	movlw	0
  2617  004C  00A0               	movwf	___flmul@b
  2618  004D  0838               	movf	liga_buzzer@tempoSegundos+3,w
  2619  004E  00A7               	movwf	___flmul@a+3
  2620  004F  0837               	movf	liga_buzzer@tempoSegundos+2,w
  2621  0050  00A6               	movwf	___flmul@a+2
  2622  0051  0836               	movf	liga_buzzer@tempoSegundos+1,w
  2623  0052  00A5               	movwf	___flmul@a+1
  2624  0053  0835               	movf	liga_buzzer@tempoSegundos,w
  2625  0054  00A4               	movwf	___flmul@a
  2626  0055  120A  118A  2478  120A  118A  	fcall	___flmul
  2627  005A  1283               	bcf	3,5	;RP0=0, select bank0
  2628  005B  1303               	bcf	3,6	;RP1=0, select bank0
  2629  005C  0823               	movf	?___flmul+3,w
  2630  005D  00B8               	movwf	liga_buzzer@tempoSegundos+3
  2631  005E  0822               	movf	?___flmul+2,w
  2632  005F  00B7               	movwf	liga_buzzer@tempoSegundos+2
  2633  0060  0821               	movf	?___flmul+1,w
  2634  0061  00B6               	movwf	liga_buzzer@tempoSegundos+1
  2635  0062  0820               	movf	?___flmul,w
  2636  0063  00B5               	movwf	liga_buzzer@tempoSegundos
  2637  0064                     l2143:
  2638                           
  2639                           ;main.c: 78:     _delay((unsigned long)((10)*(20000000/4000.0)));
  2640  0064  3041               	movlw	65
  2641  0065  1283               	bcf	3,5	;RP0=0, select bank0
  2642  0066  1303               	bcf	3,6	;RP1=0, select bank0
  2643  0067  00BA               	movwf	??_liga_buzzer+1
  2644  0068  30ED               	movlw	237
  2645  0069  00B9               	movwf	??_liga_buzzer
  2646  006A                     u3027:
  2647  006A  0BB9               	decfsz	??_liga_buzzer,f
  2648  006B  286A               	goto	u3027
  2649  006C  0BBA               	decfsz	??_liga_buzzer+1,f
  2650  006D  286A               	goto	u3027
  2651  006E  286F               	nop2
  2652                           
  2653                           ;main.c: 81:     while(tempoSegundos > 0){
  2654  006F  289F               	goto	l2151
  2655  0070                     l2145:
  2656                           
  2657                           ;main.c: 82:        PORTE = 0;
  2658  0070  1283               	bcf	3,5	;RP0=0, select bank0
  2659  0071  1303               	bcf	3,6	;RP1=0, select bank0
  2660  0072  0189               	clrf	9	;volatile
  2661  0073                     l2147:
  2662                           
  2663                           ;main.c: 83:         _delay((unsigned long)((1)*(20000000/4000.0)));
  2664  0073  3007               	movlw	7
  2665  0074  1283               	bcf	3,5	;RP0=0, select bank0
  2666  0075  1303               	bcf	3,6	;RP1=0, select bank0
  2667  0076  00BA               	movwf	??_liga_buzzer+1
  2668  0077  307C               	movlw	124
  2669  0078  00B9               	movwf	??_liga_buzzer
  2670  0079                     u3037:
  2671  0079  0BB9               	decfsz	??_liga_buzzer,f
  2672  007A  2879               	goto	u3037
  2673  007B  0BBA               	decfsz	??_liga_buzzer+1,f
  2674  007C  2879               	goto	u3037
  2675  007D  0000               	nop
  2676  007E                     l2149:
  2677                           
  2678                           ;main.c: 84:         tempoSegundos--;
  2679  007E  303F               	movlw	63
  2680  007F  1283               	bcf	3,5	;RP0=0, select bank0
  2681  0080  1303               	bcf	3,6	;RP1=0, select bank0
  2682  0081  00AB               	movwf	___flsub@a+3
  2683  0082  3080               	movlw	128
  2684  0083  00AA               	movwf	___flsub@a+2
  2685  0084  3000               	movlw	0
  2686  0085  00A9               	movwf	___flsub@a+1
  2687  0086  3000               	movlw	0
  2688  0087  00A8               	movwf	___flsub@a
  2689  0088  0838               	movf	liga_buzzer@tempoSegundos+3,w
  2690  0089  00AF               	movwf	___flsub@b+3
  2691  008A  0837               	movf	liga_buzzer@tempoSegundos+2,w
  2692  008B  00AE               	movwf	___flsub@b+2
  2693  008C  0836               	movf	liga_buzzer@tempoSegundos+1,w
  2694  008D  00AD               	movwf	___flsub@b+1
  2695  008E  0835               	movf	liga_buzzer@tempoSegundos,w
  2696  008F  00AC               	movwf	___flsub@b
  2697  0090  120A  158A  21D6  120A  118A  	fcall	___flsub
  2698  0095  1283               	bcf	3,5	;RP0=0, select bank0
  2699  0096  1303               	bcf	3,6	;RP1=0, select bank0
  2700  0097  082B               	movf	?___flsub+3,w
  2701  0098  00B8               	movwf	liga_buzzer@tempoSegundos+3
  2702  0099  082A               	movf	?___flsub+2,w
  2703  009A  00B7               	movwf	liga_buzzer@tempoSegundos+2
  2704  009B  0829               	movf	?___flsub+1,w
  2705  009C  00B6               	movwf	liga_buzzer@tempoSegundos+1
  2706  009D  0828               	movf	?___flsub,w
  2707  009E  00B5               	movwf	liga_buzzer@tempoSegundos
  2708  009F                     l2151:
  2709                           
  2710                           ;main.c: 81:     while(tempoSegundos > 0){
  2711  009F  3000               	movlw	0
  2712  00A0  00F3               	movwf	___flge@ff1+3
  2713  00A1  3000               	movlw	0
  2714  00A2  00F2               	movwf	___flge@ff1+2
  2715  00A3  3000               	movlw	0
  2716  00A4  00F1               	movwf	___flge@ff1+1
  2717  00A5  3000               	movlw	0
  2718  00A6  00F0               	movwf	___flge@ff1
  2719  00A7  1283               	bcf	3,5	;RP0=0, select bank0
  2720  00A8  1303               	bcf	3,6	;RP1=0, select bank0
  2721  00A9  0838               	movf	liga_buzzer@tempoSegundos+3,w
  2722  00AA  00F7               	movwf	___flge@ff2+3
  2723  00AB  0837               	movf	liga_buzzer@tempoSegundos+2,w
  2724  00AC  00F6               	movwf	___flge@ff2+2
  2725  00AD  0836               	movf	liga_buzzer@tempoSegundos+1,w
  2726  00AE  00F5               	movwf	___flge@ff2+1
  2727  00AF  0835               	movf	liga_buzzer@tempoSegundos,w
  2728  00B0  00F4               	movwf	___flge@ff2
  2729  00B1  120A  118A  20BF  120A  118A  	fcall	___flge
  2730  00B6  1C03               	btfss	3,0
  2731  00B7  28B9               	goto	u2361
  2732  00B8  28BA               	goto	u2360
  2733  00B9                     u2361:
  2734  00B9  2870               	goto	l2145
  2735  00BA                     u2360:
  2736  00BA                     l2153:
  2737                           
  2738                           ;main.c: 88:     PORTE = 0x0F;
  2739  00BA  300F               	movlw	15
  2740  00BB  1283               	bcf	3,5	;RP0=0, select bank0
  2741  00BC  1303               	bcf	3,6	;RP1=0, select bank0
  2742  00BD  0089               	movwf	9	;volatile
  2743  00BE                     l130:
  2744  00BE  0008               	return
  2745  00BF                     __end_of_liga_buzzer:
  2746                           
  2747                           	psect	text4
  2748  09D6                     __ptext4:	
  2749 ;; *************** function ___flsub *****************
  2750 ;; Defined at:
  2751 ;;		line 242 in file "C:\Program Files\Microchip\xc8\v2.32\pic\sources\c90\common\sprcadd.c"
  2752 ;; Parameters:    Size  Location     Type
  2753 ;;  a               4    8[BANK0 ] void 
  2754 ;;  b               4   12[BANK0 ] void 
  2755 ;; Auto vars:     Size  Location     Type
  2756 ;;		None
  2757 ;; Return value:  Size  Location     Type
  2758 ;;                  4    8[BANK0 ] void 
  2759 ;; Registers used:
  2760 ;;		wreg, status,2, status,0, btemp+1, pclath, cstack
  2761 ;; Tracked objects:
  2762 ;;		On entry : 0/0
  2763 ;;		On exit  : 0/0
  2764 ;;		Unchanged: 0/0
  2765 ;; Data sizes:     COMMON   BANK0   BANK1   BANK3   BANK2
  2766 ;;      Params:         0       8       0       0       0
  2767 ;;      Locals:         0       0       0       0       0
  2768 ;;      Temps:          0       0       0       0       0
  2769 ;;      Totals:         0       8       0       0       0
  2770 ;;Total ram usage:        8 bytes
  2771 ;; Hardware stack levels used: 1
  2772 ;; Hardware stack levels required when called: 1
  2773 ;; This function calls:
  2774 ;;		___fladd
  2775 ;; This function is called by:
  2776 ;;		_liga_buzzer
  2777 ;; This function uses a non-reentrant model
  2778 ;;
  2779                           
  2780                           
  2781                           ;psect for function ___flsub
  2782  09D6                     ___flsub:
  2783  09D6                     l1971:	
  2784                           ;incstack = 0
  2785                           ; Regs used in ___flsub: [wreg+status,2+status,0+btemp+1+pclath+cstack]
  2786                           
  2787  09D6  3080               	movlw	128
  2788  09D7  1283               	bcf	3,5	;RP0=0, select bank0
  2789  09D8  1303               	bcf	3,6	;RP1=0, select bank0
  2790  09D9  06AB               	xorwf	___flsub@a+3,f
  2791  09DA                     l1973:
  2792  09DA  082F               	movf	___flsub@b+3,w
  2793  09DB  00F3               	movwf	___fladd@b+3
  2794  09DC  082E               	movf	___flsub@b+2,w
  2795  09DD  00F2               	movwf	___fladd@b+2
  2796  09DE  082D               	movf	___flsub@b+1,w
  2797  09DF  00F1               	movwf	___fladd@b+1
  2798  09E0  082C               	movf	___flsub@b,w
  2799  09E1  00F0               	movwf	___fladd@b
  2800  09E2  082B               	movf	___flsub@a+3,w
  2801  09E3  00F7               	movwf	___fladd@a+3
  2802  09E4  082A               	movf	___flsub@a+2,w
  2803  09E5  00F6               	movwf	___fladd@a+2
  2804  09E6  0829               	movf	___flsub@a+1,w
  2805  09E7  00F5               	movwf	___fladd@a+1
  2806  09E8  0828               	movf	___flsub@a,w
  2807  09E9  00F4               	movwf	___fladd@a
  2808  09EA  120A  158A  2568  120A  158A  	fcall	___fladd
  2809  09EF  0873               	movf	?___fladd+3,w
  2810  09F0  1283               	bcf	3,5	;RP0=0, select bank0
  2811  09F1  1303               	bcf	3,6	;RP1=0, select bank0
  2812  09F2  00AB               	movwf	?___flsub+3
  2813  09F3  0872               	movf	?___fladd+2,w
  2814  09F4  00AA               	movwf	?___flsub+2
  2815  09F5  0871               	movf	?___fladd+1,w
  2816  09F6  00A9               	movwf	?___flsub+1
  2817  09F7  0870               	movf	?___fladd,w
  2818  09F8  00A8               	movwf	?___flsub
  2819  09F9                     l629:
  2820  09F9  0008               	return
  2821  09FA                     __end_of___flsub:
  2822                           
  2823                           	psect	text5
  2824  0D68                     __ptext5:	
  2825 ;; *************** function ___fladd *****************
  2826 ;; Defined at:
  2827 ;;		line 10 in file "C:\Program Files\Microchip\xc8\v2.32\pic\sources\c90\common\sprcadd.c"
  2828 ;; Parameters:    Size  Location     Type
  2829 ;;  b               4    0[COMMON] void 
  2830 ;;  a               4    4[COMMON] void 
  2831 ;; Auto vars:     Size  Location     Type
  2832 ;;  grs             1   11[COMMON] unsigned char 
  2833 ;;  bexp            1   10[COMMON] unsigned char 
  2834 ;;  aexp            1    9[COMMON] unsigned char 
  2835 ;;  signs           1    8[COMMON] unsigned char 
  2836 ;; Return value:  Size  Location     Type
  2837 ;;                  4    0[COMMON] unsigned char 
  2838 ;; Registers used:
  2839 ;;		wreg, status,2, status,0, btemp+1
  2840 ;; Tracked objects:
  2841 ;;		On entry : 0/0
  2842 ;;		On exit  : 0/0
  2843 ;;		Unchanged: 0/0
  2844 ;; Data sizes:     COMMON   BANK0   BANK1   BANK3   BANK2
  2845 ;;      Params:         8       0       0       0       0
  2846 ;;      Locals:         4       0       0       0       0
  2847 ;;      Temps:          0       8       0       0       0
  2848 ;;      Totals:        12       8       0       0       0
  2849 ;;Total ram usage:       20 bytes
  2850 ;; Hardware stack levels used: 1
  2851 ;; This function calls:
  2852 ;;		Nothing
  2853 ;; This function is called by:
  2854 ;;		___flsub
  2855 ;; This function uses a non-reentrant model
  2856 ;;
  2857                           
  2858                           
  2859                           ;psect for function ___fladd
  2860  0D68                     ___fladd:
  2861  0D68                     l1733:	
  2862                           ;incstack = 0
  2863                           ; Regs used in ___fladd: [wreg+status,2+status,0+btemp+1]
  2864                           
  2865  0D68  0873               	movf	___fladd@b+3,w
  2866  0D69  3980               	andlw	128
  2867  0D6A  1283               	bcf	3,5	;RP0=0, select bank0
  2868  0D6B  1303               	bcf	3,6	;RP1=0, select bank0
  2869  0D6C  00A0               	movwf	??___fladd
  2870  0D6D  0820               	movf	??___fladd,w
  2871  0D6E  00F8               	movwf	___fladd@signs
  2872  0D6F                     l1735:
  2873  0D6F  0873               	movf	___fladd@b+3,w
  2874  0D70  00A0               	movwf	??___fladd
  2875  0D71  0720               	addwf	??___fladd,w
  2876  0D72  00A1               	movwf	??___fladd+1
  2877  0D73  0821               	movf	??___fladd+1,w
  2878  0D74  00FA               	movwf	___fladd@bexp
  2879  0D75                     l1737:
  2880  0D75  1FF2               	btfss	___fladd@b+2,7
  2881  0D76  2D78               	goto	u1421
  2882  0D77  2D79               	goto	u1420
  2883  0D78                     u1421:
  2884  0D78  2D7A               	goto	l1741
  2885  0D79                     u1420:
  2886  0D79                     l1739:
  2887  0D79  147A               	bsf	___fladd@bexp,0
  2888  0D7A                     l1741:
  2889  0D7A  087A               	movf	___fladd@bexp,w
  2890  0D7B  1903               	btfsc	3,2
  2891  0D7C  2D7E               	goto	u1431
  2892  0D7D  2D7F               	goto	u1430
  2893  0D7E                     u1431:
  2894  0D7E  2D8F               	goto	l1751
  2895  0D7F                     u1430:
  2896  0D7F                     l1743:
  2897  0D7F  0A7A               	incf	___fladd@bexp,w
  2898  0D80  1D03               	btfss	3,2
  2899  0D81  2D83               	goto	u1441
  2900  0D82  2D84               	goto	u1440
  2901  0D83                     u1441:
  2902  0D83  2D8C               	goto	l1747
  2903  0D84                     u1440:
  2904  0D84                     l1745:
  2905  0D84  3000               	movlw	0
  2906  0D85  00F3               	movwf	___fladd@b+3
  2907  0D86  3000               	movlw	0
  2908  0D87  00F2               	movwf	___fladd@b+2
  2909  0D88  3000               	movlw	0
  2910  0D89  00F1               	movwf	___fladd@b+1
  2911  0D8A  3000               	movlw	0
  2912  0D8B  00F0               	movwf	___fladd@b
  2913  0D8C                     l1747:
  2914  0D8C  17F2               	bsf	___fladd@b+2,7
  2915  0D8D                     l1749:
  2916  0D8D  01F3               	clrf	___fladd@b+3
  2917  0D8E  2D97               	goto	l1753
  2918  0D8F                     l1751:
  2919  0D8F  3000               	movlw	0
  2920  0D90  00F3               	movwf	___fladd@b+3
  2921  0D91  3000               	movlw	0
  2922  0D92  00F2               	movwf	___fladd@b+2
  2923  0D93  3000               	movlw	0
  2924  0D94  00F1               	movwf	___fladd@b+1
  2925  0D95  3000               	movlw	0
  2926  0D96  00F0               	movwf	___fladd@b
  2927  0D97                     l1753:
  2928  0D97  0877               	movf	___fladd@a+3,w
  2929  0D98  3980               	andlw	128
  2930  0D99  00A0               	movwf	??___fladd
  2931  0D9A  0820               	movf	??___fladd,w
  2932  0D9B  00F9               	movwf	___fladd@aexp
  2933  0D9C                     l1755:
  2934  0D9C  0879               	movf	___fladd@aexp,w
  2935  0D9D  0678               	xorwf	___fladd@signs,w
  2936  0D9E  1903               	skipnz
  2937  0D9F  2DA1               	goto	u1451
  2938  0DA0  2DA2               	goto	u1450
  2939  0DA1                     u1451:
  2940  0DA1  2DA3               	goto	l1759
  2941  0DA2                     u1450:
  2942  0DA2                     l1757:
  2943  0DA2  1778               	bsf	___fladd@signs,6
  2944  0DA3                     l1759:
  2945  0DA3  0877               	movf	___fladd@a+3,w
  2946  0DA4  00A0               	movwf	??___fladd
  2947  0DA5  0720               	addwf	??___fladd,w
  2948  0DA6  00A1               	movwf	??___fladd+1
  2949  0DA7  0821               	movf	??___fladd+1,w
  2950  0DA8  00F9               	movwf	___fladd@aexp
  2951  0DA9                     l1761:
  2952  0DA9  1FF6               	btfss	___fladd@a+2,7
  2953  0DAA  2DAC               	goto	u1461
  2954  0DAB  2DAD               	goto	u1460
  2955  0DAC                     u1461:
  2956  0DAC  2DAE               	goto	l1765
  2957  0DAD                     u1460:
  2958  0DAD                     l1763:
  2959  0DAD  1479               	bsf	___fladd@aexp,0
  2960  0DAE                     l1765:
  2961  0DAE  0879               	movf	___fladd@aexp,w
  2962  0DAF  1903               	btfsc	3,2
  2963  0DB0  2DB2               	goto	u1471
  2964  0DB1  2DB3               	goto	u1470
  2965  0DB2                     u1471:
  2966  0DB2  2DC3               	goto	l1775
  2967  0DB3                     u1470:
  2968  0DB3                     l1767:
  2969  0DB3  0A79               	incf	___fladd@aexp,w
  2970  0DB4  1D03               	btfss	3,2
  2971  0DB5  2DB7               	goto	u1481
  2972  0DB6  2DB8               	goto	u1480
  2973  0DB7                     u1481:
  2974  0DB7  2DC0               	goto	l1771
  2975  0DB8                     u1480:
  2976  0DB8                     l1769:
  2977  0DB8  3000               	movlw	0
  2978  0DB9  00F7               	movwf	___fladd@a+3
  2979  0DBA  3000               	movlw	0
  2980  0DBB  00F6               	movwf	___fladd@a+2
  2981  0DBC  3000               	movlw	0
  2982  0DBD  00F5               	movwf	___fladd@a+1
  2983  0DBE  3000               	movlw	0
  2984  0DBF  00F4               	movwf	___fladd@a
  2985  0DC0                     l1771:
  2986  0DC0  17F6               	bsf	___fladd@a+2,7
  2987  0DC1                     l1773:
  2988  0DC1  01F7               	clrf	___fladd@a+3
  2989  0DC2  2DCB               	goto	l583
  2990  0DC3                     l1775:
  2991  0DC3  3000               	movlw	0
  2992  0DC4  00F7               	movwf	___fladd@a+3
  2993  0DC5  3000               	movlw	0
  2994  0DC6  00F6               	movwf	___fladd@a+2
  2995  0DC7  3000               	movlw	0
  2996  0DC8  00F5               	movwf	___fladd@a+1
  2997  0DC9  3000               	movlw	0
  2998  0DCA  00F4               	movwf	___fladd@a
  2999  0DCB                     l583:
  3000  0DCB  087A               	movf	___fladd@bexp,w
  3001  0DCC  0279               	subwf	___fladd@aexp,w
  3002  0DCD  1803               	skipnc
  3003  0DCE  2DD0               	goto	u1491
  3004  0DCF  2DD1               	goto	u1490
  3005  0DD0                     u1491:
  3006  0DD0  2E15               	goto	l1811
  3007  0DD1                     u1490:
  3008  0DD1                     l1777:
  3009  0DD1  1F78               	btfss	___fladd@signs,6
  3010  0DD2  2DD4               	goto	u1501
  3011  0DD3  2DD5               	goto	u1500
  3012  0DD4                     u1501:
  3013  0DD4  2DD9               	goto	l1781
  3014  0DD5                     u1500:
  3015  0DD5                     l1779:
  3016  0DD5  3080               	movlw	128
  3017  0DD6  00A0               	movwf	??___fladd
  3018  0DD7  0820               	movf	??___fladd,w
  3019  0DD8  06F8               	xorwf	___fladd@signs,f
  3020  0DD9                     l1781:
  3021  0DD9  087A               	movf	___fladd@bexp,w
  3022  0DDA  00A0               	movwf	??___fladd
  3023  0DDB  0820               	movf	??___fladd,w
  3024  0DDC  00FB               	movwf	___fladd@grs
  3025  0DDD                     l1783:
  3026  0DDD  0879               	movf	___fladd@aexp,w
  3027  0DDE  00A0               	movwf	??___fladd
  3028  0DDF  0820               	movf	??___fladd,w
  3029  0DE0  00FA               	movwf	___fladd@bexp
  3030  0DE1                     l1785:
  3031  0DE1  087B               	movf	___fladd@grs,w
  3032  0DE2  00A0               	movwf	??___fladd
  3033  0DE3  0820               	movf	??___fladd,w
  3034  0DE4  00F9               	movwf	___fladd@aexp
  3035  0DE5                     l1787:
  3036  0DE5  0870               	movf	___fladd@b,w
  3037  0DE6  00A0               	movwf	??___fladd
  3038  0DE7  0820               	movf	??___fladd,w
  3039  0DE8  00FB               	movwf	___fladd@grs
  3040  0DE9                     l1789:
  3041  0DE9  0874               	movf	___fladd@a,w
  3042  0DEA  00A0               	movwf	??___fladd
  3043  0DEB  0820               	movf	??___fladd,w
  3044  0DEC  00F0               	movwf	___fladd@b
  3045  0DED                     l1791:
  3046  0DED  087B               	movf	___fladd@grs,w
  3047  0DEE  00A0               	movwf	??___fladd
  3048  0DEF  0820               	movf	??___fladd,w
  3049  0DF0  00F4               	movwf	___fladd@a
  3050  0DF1                     l1793:
  3051  0DF1  0871               	movf	___fladd@b+1,w
  3052  0DF2  00A0               	movwf	??___fladd
  3053  0DF3  0820               	movf	??___fladd,w
  3054  0DF4  00FB               	movwf	___fladd@grs
  3055  0DF5                     l1795:
  3056  0DF5  0875               	movf	___fladd@a+1,w
  3057  0DF6  00A0               	movwf	??___fladd
  3058  0DF7  0820               	movf	??___fladd,w
  3059  0DF8  00F1               	movwf	___fladd@b+1
  3060  0DF9                     l1797:
  3061  0DF9  087B               	movf	___fladd@grs,w
  3062  0DFA  00A0               	movwf	??___fladd
  3063  0DFB  0820               	movf	??___fladd,w
  3064  0DFC  00F5               	movwf	___fladd@a+1
  3065  0DFD                     l1799:
  3066  0DFD  0872               	movf	___fladd@b+2,w
  3067  0DFE  00A0               	movwf	??___fladd
  3068  0DFF  0820               	movf	??___fladd,w
  3069  0E00  00FB               	movwf	___fladd@grs
  3070  0E01                     l1801:
  3071  0E01  0876               	movf	___fladd@a+2,w
  3072  0E02  00A0               	movwf	??___fladd
  3073  0E03  0820               	movf	??___fladd,w
  3074  0E04  00F2               	movwf	___fladd@b+2
  3075  0E05                     l1803:
  3076  0E05  087B               	movf	___fladd@grs,w
  3077  0E06  00A0               	movwf	??___fladd
  3078  0E07  0820               	movf	??___fladd,w
  3079  0E08  00F6               	movwf	___fladd@a+2
  3080  0E09                     l1805:
  3081  0E09  0873               	movf	___fladd@b+3,w
  3082  0E0A  00A0               	movwf	??___fladd
  3083  0E0B  0820               	movf	??___fladd,w
  3084  0E0C  00FB               	movwf	___fladd@grs
  3085  0E0D                     l1807:
  3086  0E0D  0877               	movf	___fladd@a+3,w
  3087  0E0E  00A0               	movwf	??___fladd
  3088  0E0F  0820               	movf	??___fladd,w
  3089  0E10  00F3               	movwf	___fladd@b+3
  3090  0E11                     l1809:
  3091  0E11  087B               	movf	___fladd@grs,w
  3092  0E12  00A0               	movwf	??___fladd
  3093  0E13  0820               	movf	??___fladd,w
  3094  0E14  00F7               	movwf	___fladd@a+3
  3095  0E15                     l1811:
  3096  0E15  01FB               	clrf	___fladd@grs
  3097  0E16                     l1813:
  3098  0E16  0879               	movf	___fladd@aexp,w
  3099  0E17  00A0               	movwf	??___fladd
  3100  0E18  01A1               	clrf	??___fladd+1
  3101  0E19  0821               	movf	??___fladd+1,w
  3102  0E1A  00A3               	movwf	??___fladd+3
  3103  0E1B  087A               	movf	___fladd@bexp,w
  3104  0E1C  0220               	subwf	??___fladd,w
  3105  0E1D  00A2               	movwf	??___fladd+2
  3106  0E1E  1C03               	skipc
  3107  0E1F  03A3               	decf	??___fladd+3,f
  3108  0E20  0823               	movf	??___fladd+3,w
  3109  0E21  3A80               	xorlw	128
  3110  0E22  00FF               	movwf	btemp+1
  3111  0E23  3080               	movlw	128
  3112  0E24  027F               	subwf	btemp+1,w
  3113  0E25  1D03               	skipz
  3114  0E26  2E29               	goto	u1515
  3115  0E27  301A               	movlw	26
  3116  0E28  0222               	subwf	??___fladd+2,w
  3117  0E29                     u1515:
  3118  0E29  1C03               	skipc
  3119  0E2A  2E2C               	goto	u1511
  3120  0E2B  2E2D               	goto	u1510
  3121  0E2C                     u1511:
  3122  0E2C  2E6E               	goto	l1829
  3123  0E2D                     u1510:
  3124  0E2D                     l1815:
  3125  0E2D  0873               	movf	___fladd@b+3,w
  3126  0E2E  0472               	iorwf	___fladd@b+2,w
  3127  0E2F  0471               	iorwf	___fladd@b+1,w
  3128  0E30  0470               	iorwf	___fladd@b,w
  3129  0E31  1D03               	skipz
  3130  0E32  2E34               	goto	u1521
  3131  0E33  2E36               	goto	u1520
  3132  0E34                     u1521:
  3133  0E34  3001               	movlw	1
  3134  0E35  2E37               	goto	u1530
  3135  0E36                     u1520:
  3136  0E36  3000               	movlw	0
  3137  0E37                     u1530:
  3138  0E37  1283               	bcf	3,5	;RP0=0, select bank0
  3139  0E38  1303               	bcf	3,6	;RP1=0, select bank0
  3140  0E39  00A0               	movwf	??___fladd
  3141  0E3A  0820               	movf	??___fladd,w
  3142  0E3B  00FB               	movwf	___fladd@grs
  3143  0E3C  3000               	movlw	0
  3144  0E3D  00F3               	movwf	___fladd@b+3
  3145  0E3E  3000               	movlw	0
  3146  0E3F  00F2               	movwf	___fladd@b+2
  3147  0E40  3000               	movlw	0
  3148  0E41  00F1               	movwf	___fladd@b+1
  3149  0E42  3000               	movlw	0
  3150  0E43  00F0               	movwf	___fladd@b
  3151  0E44  0879               	movf	___fladd@aexp,w
  3152  0E45  00A0               	movwf	??___fladd
  3153  0E46  0820               	movf	??___fladd,w
  3154  0E47  00FA               	movwf	___fladd@bexp
  3155  0E48  2E74               	goto	l587
  3156  0E49                     l589:
  3157  0E49  1C7B               	btfss	___fladd@grs,0
  3158  0E4A  2E4C               	goto	u1541
  3159  0E4B  2E4D               	goto	u1540
  3160  0E4C                     u1541:
  3161  0E4C  2E58               	goto	l1819
  3162  0E4D                     u1540:
  3163  0E4D                     l1817:
  3164  0E4D  087B               	movf	___fladd@grs,w
  3165  0E4E  1283               	bcf	3,5	;RP0=0, select bank0
  3166  0E4F  1303               	bcf	3,6	;RP1=0, select bank0
  3167  0E50  00A0               	movwf	??___fladd
  3168  0E51  1003               	clrc
  3169  0E52  0C20               	rrf	??___fladd,w
  3170  0E53  3801               	iorlw	1
  3171  0E54  00A1               	movwf	??___fladd+1
  3172  0E55  0821               	movf	??___fladd+1,w
  3173  0E56  00FB               	movwf	___fladd@grs
  3174  0E57  2E5A               	goto	l1821
  3175  0E58                     l1819:
  3176  0E58  1003               	clrc
  3177  0E59  0CFB               	rrf	___fladd@grs,f
  3178  0E5A                     l1821:
  3179  0E5A  1C70               	btfss	___fladd@b,0
  3180  0E5B  2E5D               	goto	u1551
  3181  0E5C  2E5E               	goto	u1550
  3182  0E5D                     u1551:
  3183  0E5D  2E5F               	goto	l1825
  3184  0E5E                     u1550:
  3185  0E5E                     l1823:
  3186  0E5E  17FB               	bsf	___fladd@grs,7
  3187  0E5F                     l1825:
  3188  0E5F  3001               	movlw	1
  3189  0E60  1283               	bcf	3,5	;RP0=0, select bank0
  3190  0E61  1303               	bcf	3,6	;RP1=0, select bank0
  3191  0E62  00A0               	movwf	??___fladd
  3192  0E63                     u1565:
  3193  0E63  0D73               	rlf	___fladd@b+3,w
  3194  0E64  0CF3               	rrf	___fladd@b+3,f
  3195  0E65  0CF2               	rrf	___fladd@b+2,f
  3196  0E66  0CF1               	rrf	___fladd@b+1,f
  3197  0E67  0CF0               	rrf	___fladd@b,f
  3198  0E68  0BA0               	decfsz	??___fladd& (0+127),f
  3199  0E69  2E63               	goto	u1565
  3200  0E6A                     l1827:
  3201  0E6A  3001               	movlw	1
  3202  0E6B  00A0               	movwf	??___fladd
  3203  0E6C  0820               	movf	??___fladd,w
  3204  0E6D  07FA               	addwf	___fladd@bexp,f
  3205  0E6E                     l1829:
  3206  0E6E  0879               	movf	___fladd@aexp,w
  3207  0E6F  027A               	subwf	___fladd@bexp,w
  3208  0E70  1C03               	skipc
  3209  0E71  2E73               	goto	u1571
  3210  0E72  2E74               	goto	u1570
  3211  0E73                     u1571:
  3212  0E73  2E49               	goto	l589
  3213  0E74                     u1570:
  3214  0E74                     l587:
  3215  0E74  1B78               	btfsc	___fladd@signs,6
  3216  0E75  2E77               	goto	u1581
  3217  0E76  2E78               	goto	u1580
  3218  0E77                     u1581:
  3219  0E77  2EC7               	goto	l1855
  3220  0E78                     u1580:
  3221  0E78                     l1831:
  3222  0E78  087A               	movf	___fladd@bexp,w
  3223  0E79  1D03               	btfss	3,2
  3224  0E7A  2E7C               	goto	u1591
  3225  0E7B  2E7D               	goto	u1590
  3226  0E7C                     u1591:
  3227  0E7C  2E86               	goto	l1837
  3228  0E7D                     u1590:
  3229  0E7D                     l1833:
  3230  0E7D  3000               	movlw	0
  3231  0E7E  00F3               	movwf	?___fladd+3
  3232  0E7F  3000               	movlw	0
  3233  0E80  00F2               	movwf	?___fladd+2
  3234  0E81  3000               	movlw	0
  3235  0E82  00F1               	movwf	?___fladd+1
  3236  0E83  3000               	movlw	0
  3237  0E84  00F0               	movwf	?___fladd
  3238  0E85  2FFF               	goto	l596
  3239  0E86                     l1837:
  3240  0E86  0874               	movf	___fladd@a,w
  3241  0E87  07F0               	addwf	___fladd@b,f
  3242  0E88  0875               	movf	___fladd@a+1,w
  3243  0E89  1103               	clrz
  3244  0E8A  1803               	skipnc
  3245  0E8B  3E01               	addlw	1
  3246  0E8C  1903               	skipnz
  3247  0E8D  2E8F               	goto	u1601
  3248  0E8E  07F1               	addwf	___fladd@b+1,f
  3249  0E8F                     u1601:
  3250  0E8F  0876               	movf	___fladd@a+2,w
  3251  0E90  1103               	clrz
  3252  0E91  1803               	skipnc
  3253  0E92  3E01               	addlw	1
  3254  0E93  1903               	skipnz
  3255  0E94  2E96               	goto	u1602
  3256  0E95  07F2               	addwf	___fladd@b+2,f
  3257  0E96                     u1602:
  3258  0E96  0877               	movf	___fladd@a+3,w
  3259  0E97  1103               	clrz
  3260  0E98  1803               	skipnc
  3261  0E99  3E01               	addlw	1
  3262  0E9A  1903               	skipnz
  3263  0E9B  2E9D               	goto	u1603
  3264  0E9C  07F3               	addwf	___fladd@b+3,f
  3265  0E9D                     u1603:
  3266  0E9D                     l1839:
  3267  0E9D  1C73               	btfss	___fladd@b+3,0
  3268  0E9E  2EA0               	goto	u1611
  3269  0E9F  2EA1               	goto	u1610
  3270  0EA0                     u1611:
  3271  0EA0  2F7F               	goto	l1889
  3272  0EA1                     u1610:
  3273  0EA1                     l1841:
  3274  0EA1  1C7B               	btfss	___fladd@grs,0
  3275  0EA2  2EA4               	goto	u1621
  3276  0EA3  2EA5               	goto	u1620
  3277  0EA4                     u1621:
  3278  0EA4  2EB0               	goto	l1845
  3279  0EA5                     u1620:
  3280  0EA5                     l1843:
  3281  0EA5  087B               	movf	___fladd@grs,w
  3282  0EA6  1283               	bcf	3,5	;RP0=0, select bank0
  3283  0EA7  1303               	bcf	3,6	;RP1=0, select bank0
  3284  0EA8  00A0               	movwf	??___fladd
  3285  0EA9  1003               	clrc
  3286  0EAA  0C20               	rrf	??___fladd,w
  3287  0EAB  3801               	iorlw	1
  3288  0EAC  00A1               	movwf	??___fladd+1
  3289  0EAD  0821               	movf	??___fladd+1,w
  3290  0EAE  00FB               	movwf	___fladd@grs
  3291  0EAF  2EB2               	goto	l1847
  3292  0EB0                     l1845:
  3293  0EB0  1003               	clrc
  3294  0EB1  0CFB               	rrf	___fladd@grs,f
  3295  0EB2                     l1847:
  3296  0EB2  1C70               	btfss	___fladd@b,0
  3297  0EB3  2EB5               	goto	u1631
  3298  0EB4  2EB6               	goto	u1630
  3299  0EB5                     u1631:
  3300  0EB5  2EB7               	goto	l1851
  3301  0EB6                     u1630:
  3302  0EB6                     l1849:
  3303  0EB6  17FB               	bsf	___fladd@grs,7
  3304  0EB7                     l1851:
  3305  0EB7  3001               	movlw	1
  3306  0EB8  1283               	bcf	3,5	;RP0=0, select bank0
  3307  0EB9  1303               	bcf	3,6	;RP1=0, select bank0
  3308  0EBA  00A0               	movwf	??___fladd
  3309  0EBB                     u1645:
  3310  0EBB  0D73               	rlf	___fladd@b+3,w
  3311  0EBC  0CF3               	rrf	___fladd@b+3,f
  3312  0EBD  0CF2               	rrf	___fladd@b+2,f
  3313  0EBE  0CF1               	rrf	___fladd@b+1,f
  3314  0EBF  0CF0               	rrf	___fladd@b,f
  3315  0EC0  0BA0               	decfsz	??___fladd& (0+127),f
  3316  0EC1  2EBB               	goto	u1645
  3317  0EC2                     l1853:
  3318  0EC2  3001               	movlw	1
  3319  0EC3  00A0               	movwf	??___fladd
  3320  0EC4  0820               	movf	??___fladd,w
  3321  0EC5  07FA               	addwf	___fladd@bexp,f
  3322  0EC6  2F7F               	goto	l1889
  3323  0EC7                     l1855:
  3324  0EC7  0873               	movf	___fladd@b+3,w
  3325  0EC8  3A80               	xorlw	128
  3326  0EC9  00FF               	movwf	btemp+1
  3327  0ECA  0877               	movf	___fladd@a+3,w
  3328  0ECB  3A80               	xorlw	128
  3329  0ECC  027F               	subwf	btemp+1,w
  3330  0ECD  1D03               	skipz
  3331  0ECE  2ED9               	goto	u1653
  3332  0ECF  0876               	movf	___fladd@a+2,w
  3333  0ED0  0272               	subwf	___fladd@b+2,w
  3334  0ED1  1D03               	skipz
  3335  0ED2  2ED9               	goto	u1653
  3336  0ED3  0875               	movf	___fladd@a+1,w
  3337  0ED4  0271               	subwf	___fladd@b+1,w
  3338  0ED5  1D03               	skipz
  3339  0ED6  2ED9               	goto	u1653
  3340  0ED7  0874               	movf	___fladd@a,w
  3341  0ED8  0270               	subwf	___fladd@b,w
  3342  0ED9                     u1653:
  3343  0ED9  1803               	skipnc
  3344  0EDA  2EDC               	goto	u1651
  3345  0EDB  2EDD               	goto	u1650
  3346  0EDC                     u1651:
  3347  0EDC  2F37               	goto	l1865
  3348  0EDD                     u1650:
  3349  0EDD                     l1857:
  3350  0EDD  30FF               	movlw	255
  3351  0EDE  1283               	bcf	3,5	;RP0=0, select bank0
  3352  0EDF  1303               	bcf	3,6	;RP1=0, select bank0
  3353  0EE0  00A0               	movwf	??___fladd
  3354  0EE1  30FF               	movlw	255
  3355  0EE2  00A1               	movwf	??___fladd+1
  3356  0EE3  30FF               	movlw	255
  3357  0EE4  00A2               	movwf	??___fladd+2
  3358  0EE5  30FF               	movlw	255
  3359  0EE6  00A3               	movwf	??___fladd+3
  3360  0EE7  0874               	movf	___fladd@a,w
  3361  0EE8  00A4               	movwf	??___fladd+4
  3362  0EE9  0875               	movf	___fladd@a+1,w
  3363  0EEA  00A5               	movwf	??___fladd+5
  3364  0EEB  0876               	movf	___fladd@a+2,w
  3365  0EEC  00A6               	movwf	??___fladd+6
  3366  0EED  0877               	movf	___fladd@a+3,w
  3367  0EEE  00A7               	movwf	??___fladd+7
  3368  0EEF  0870               	movf	___fladd@b,w
  3369  0EF0  02A4               	subwf	??___fladd+4,f
  3370  0EF1  0871               	movf	___fladd@b+1,w
  3371  0EF2  1C03               	skipc
  3372  0EF3  0F71               	incfsz	___fladd@b+1,w
  3373  0EF4  2EF6               	goto	u1661
  3374  0EF5  2EF7               	goto	u1662
  3375  0EF6                     u1661:
  3376  0EF6  02A5               	subwf	??___fladd+5,f
  3377  0EF7                     u1662:
  3378  0EF7  0872               	movf	___fladd@b+2,w
  3379  0EF8  1C03               	skipc
  3380  0EF9  0F72               	incfsz	___fladd@b+2,w
  3381  0EFA  2EFC               	goto	u1663
  3382  0EFB  2EFD               	goto	u1664
  3383  0EFC                     u1663:
  3384  0EFC  02A6               	subwf	??___fladd+6,f
  3385  0EFD                     u1664:
  3386  0EFD  0873               	movf	___fladd@b+3,w
  3387  0EFE  1C03               	skipc
  3388  0EFF  0F73               	incfsz	___fladd@b+3,w
  3389  0F00  2F02               	goto	u1665
  3390  0F01  2F03               	goto	u1666
  3391  0F02                     u1665:
  3392  0F02  02A7               	subwf	??___fladd+7,f
  3393  0F03                     u1666:
  3394  0F03  0824               	movf	??___fladd+4,w
  3395  0F04  07A0               	addwf	??___fladd,f
  3396  0F05  0825               	movf	??___fladd+5,w
  3397  0F06  1803               	skipnc
  3398  0F07  0F25               	incfsz	??___fladd+5,w
  3399  0F08  2F0A               	goto	u1670
  3400  0F09  2F0B               	goto	u1671
  3401  0F0A                     u1670:
  3402  0F0A  07A1               	addwf	??___fladd+1,f
  3403  0F0B                     u1671:
  3404  0F0B  0826               	movf	??___fladd+6,w
  3405  0F0C  1803               	skipnc
  3406  0F0D  0F26               	incfsz	??___fladd+6,w
  3407  0F0E  2F10               	goto	u1672
  3408  0F0F  2F11               	goto	u1673
  3409  0F10                     u1672:
  3410  0F10  07A2               	addwf	??___fladd+2,f
  3411  0F11                     u1673:
  3412  0F11  0827               	movf	??___fladd+7,w
  3413  0F12  1803               	skipnc
  3414  0F13  0A27               	incf	??___fladd+7,w
  3415  0F14  07A3               	addwf	??___fladd+3,f
  3416  0F15  0823               	movf	??___fladd+3,w
  3417  0F16  00F3               	movwf	___fladd@b+3
  3418  0F17  0822               	movf	??___fladd+2,w
  3419  0F18  00F2               	movwf	___fladd@b+2
  3420  0F19  0821               	movf	??___fladd+1,w
  3421  0F1A  00F1               	movwf	___fladd@b+1
  3422  0F1B  0820               	movf	??___fladd,w
  3423  0F1C  00F0               	movwf	___fladd@b
  3424  0F1D                     l1859:
  3425  0F1D  3080               	movlw	128
  3426  0F1E  00A0               	movwf	??___fladd
  3427  0F1F  0820               	movf	??___fladd,w
  3428  0F20  06F8               	xorwf	___fladd@signs,f
  3429  0F21  09FB               	comf	___fladd@grs,f
  3430  0F22  0AFB               	incf	___fladd@grs,f
  3431  0F23                     l1861:
  3432  0F23  087B               	movf	___fladd@grs,w
  3433  0F24  1D03               	btfss	3,2
  3434  0F25  2F27               	goto	u1681
  3435  0F26  2F28               	goto	u1680
  3436  0F27                     u1681:
  3437  0F27  2F45               	goto	l604
  3438  0F28                     u1680:
  3439  0F28                     l1863:
  3440  0F28  3001               	movlw	1
  3441  0F29  07F0               	addwf	___fladd@b,f
  3442  0F2A  3000               	movlw	0
  3443  0F2B  1803               	skipnc
  3444  0F2C  3001               	movlw	1
  3445  0F2D  07F1               	addwf	___fladd@b+1,f
  3446  0F2E  3000               	movlw	0
  3447  0F2F  1803               	skipnc
  3448  0F30  3001               	movlw	1
  3449  0F31  07F2               	addwf	___fladd@b+2,f
  3450  0F32  3000               	movlw	0
  3451  0F33  1803               	skipnc
  3452  0F34  3001               	movlw	1
  3453  0F35  07F3               	addwf	___fladd@b+3,f
  3454  0F36  2F45               	goto	l604
  3455  0F37                     l1865:
  3456  0F37  0874               	movf	___fladd@a,w
  3457  0F38  02F0               	subwf	___fladd@b,f
  3458  0F39  0875               	movf	___fladd@a+1,w
  3459  0F3A  1C03               	skipc
  3460  0F3B  0F75               	incfsz	___fladd@a+1,w
  3461  0F3C  02F1               	subwf	___fladd@b+1,f
  3462  0F3D  0876               	movf	___fladd@a+2,w
  3463  0F3E  1C03               	skipc
  3464  0F3F  0F76               	incfsz	___fladd@a+2,w
  3465  0F40  02F2               	subwf	___fladd@b+2,f
  3466  0F41  0877               	movf	___fladd@a+3,w
  3467  0F42  1C03               	skipc
  3468  0F43  0F77               	incfsz	___fladd@a+3,w
  3469  0F44  02F3               	subwf	___fladd@b+3,f
  3470  0F45                     l604:
  3471  0F45  0873               	movf	___fladd@b+3,w
  3472  0F46  0472               	iorwf	___fladd@b+2,w
  3473  0F47  0471               	iorwf	___fladd@b+1,w
  3474  0F48  0470               	iorwf	___fladd@b,w
  3475  0F49  1D03               	skipz
  3476  0F4A  2F4C               	goto	u1691
  3477  0F4B  2F4D               	goto	u1690
  3478  0F4C                     u1691:
  3479  0F4C  2F7B               	goto	l1887
  3480  0F4D                     u1690:
  3481  0F4D                     l1867:
  3482  0F4D  087B               	movf	___fladd@grs,w
  3483  0F4E  1D03               	btfss	3,2
  3484  0F4F  2F51               	goto	u1701
  3485  0F50  2F52               	goto	u1700
  3486  0F51                     u1701:
  3487  0F51  2F7B               	goto	l1887
  3488  0F52                     u1700:
  3489  0F52                     l1869:
  3490  0F52  3000               	movlw	0
  3491  0F53  00F3               	movwf	?___fladd+3
  3492  0F54  3000               	movlw	0
  3493  0F55  00F2               	movwf	?___fladd+2
  3494  0F56  3000               	movlw	0
  3495  0F57  00F1               	movwf	?___fladd+1
  3496  0F58  3000               	movlw	0
  3497  0F59  00F0               	movwf	?___fladd
  3498  0F5A  2FFF               	goto	l596
  3499  0F5B                     l1873:
  3500  0F5B  3001               	movlw	1
  3501  0F5C  1283               	bcf	3,5	;RP0=0, select bank0
  3502  0F5D  1303               	bcf	3,6	;RP1=0, select bank0
  3503  0F5E  00A0               	movwf	??___fladd
  3504  0F5F                     u1715:
  3505  0F5F  1003               	clrc
  3506  0F60  0DF0               	rlf	___fladd@b,f
  3507  0F61  0DF1               	rlf	___fladd@b+1,f
  3508  0F62  0DF2               	rlf	___fladd@b+2,f
  3509  0F63  0DF3               	rlf	___fladd@b+3,f
  3510  0F64  0BA0               	decfsz	??___fladd,f
  3511  0F65  2F5F               	goto	u1715
  3512  0F66                     l1875:
  3513  0F66  1FFB               	btfss	___fladd@grs,7
  3514  0F67  2F69               	goto	u1721
  3515  0F68  2F6A               	goto	u1720
  3516  0F69                     u1721:
  3517  0F69  2F6B               	goto	l608
  3518  0F6A                     u1720:
  3519  0F6A                     l1877:
  3520  0F6A  1470               	bsf	___fladd@b,0
  3521  0F6B                     l608:
  3522  0F6B  1C7B               	btfss	___fladd@grs,0
  3523  0F6C  2F6E               	goto	u1731
  3524  0F6D  2F6F               	goto	u1730
  3525  0F6E                     u1731:
  3526  0F6E  2F72               	goto	l1881
  3527  0F6F                     u1730:
  3528  0F6F                     l1879:
  3529  0F6F  1403               	setc
  3530  0F70  0DFB               	rlf	___fladd@grs,f
  3531  0F71  2F74               	goto	l1883
  3532  0F72                     l1881:
  3533  0F72  1003               	clrc
  3534  0F73  0DFB               	rlf	___fladd@grs,f
  3535  0F74                     l1883:
  3536  0F74  087A               	movf	___fladd@bexp,w
  3537  0F75  1903               	btfsc	3,2
  3538  0F76  2F78               	goto	u1741
  3539  0F77  2F79               	goto	u1740
  3540  0F78                     u1741:
  3541  0F78  2F7B               	goto	l1887
  3542  0F79                     u1740:
  3543  0F79                     l1885:
  3544  0F79  3001               	movlw	1
  3545  0F7A  02FA               	subwf	___fladd@bexp,f
  3546  0F7B                     l1887:
  3547  0F7B  1FF2               	btfss	___fladd@b+2,7
  3548  0F7C  2F7E               	goto	u1751
  3549  0F7D  2F7F               	goto	u1750
  3550  0F7E                     u1751:
  3551  0F7E  2F5B               	goto	l1873
  3552  0F7F                     u1750:
  3553  0F7F                     l1889:
  3554  0F7F  01F9               	clrf	___fladd@aexp
  3555  0F80                     l1891:
  3556  0F80  1FFB               	btfss	___fladd@grs,7
  3557  0F81  2F83               	goto	u1761
  3558  0F82  2F84               	goto	u1760
  3559  0F83                     u1761:
  3560  0F83  2F92               	goto	l1899
  3561  0F84                     u1760:
  3562  0F84                     l1893:
  3563  0F84  087B               	movf	___fladd@grs,w
  3564  0F85  397F               	andlw	127
  3565  0F86  1903               	btfsc	3,2
  3566  0F87  2F89               	goto	u1771
  3567  0F88  2F8A               	goto	u1770
  3568  0F89                     u1771:
  3569  0F89  2F8D               	goto	l614
  3570  0F8A                     u1770:
  3571  0F8A                     l1895:
  3572  0F8A  01F9               	clrf	___fladd@aexp
  3573  0F8B  0AF9               	incf	___fladd@aexp,f
  3574  0F8C  2F92               	goto	l1899
  3575  0F8D                     l614:
  3576  0F8D  1C70               	btfss	___fladd@b,0
  3577  0F8E  2F90               	goto	u1781
  3578  0F8F  2F91               	goto	u1780
  3579  0F90                     u1781:
  3580  0F90  2F92               	goto	l1899
  3581  0F91                     u1780:
  3582  0F91  2F8A               	goto	l1895
  3583  0F92                     l1899:
  3584  0F92  0879               	movf	___fladd@aexp,w
  3585  0F93  1903               	btfsc	3,2
  3586  0F94  2F96               	goto	u1791
  3587  0F95  2F97               	goto	u1790
  3588  0F96                     u1791:
  3589  0F96  2FCD               	goto	l617
  3590  0F97                     u1790:
  3591  0F97                     l1901:
  3592  0F97  3001               	movlw	1
  3593  0F98  07F0               	addwf	___fladd@b,f
  3594  0F99  3000               	movlw	0
  3595  0F9A  1803               	skipnc
  3596  0F9B  3001               	movlw	1
  3597  0F9C  07F1               	addwf	___fladd@b+1,f
  3598  0F9D  3000               	movlw	0
  3599  0F9E  1803               	skipnc
  3600  0F9F  3001               	movlw	1
  3601  0FA0  07F2               	addwf	___fladd@b+2,f
  3602  0FA1  3000               	movlw	0
  3603  0FA2  1803               	skipnc
  3604  0FA3  3001               	movlw	1
  3605  0FA4  07F3               	addwf	___fladd@b+3,f
  3606  0FA5                     l1903:
  3607  0FA5  1C73               	btfss	___fladd@b+3,0
  3608  0FA6  2FA8               	goto	u1801
  3609  0FA7  2FA9               	goto	u1800
  3610  0FA8                     u1801:
  3611  0FA8  2FCD               	goto	l617
  3612  0FA9                     u1800:
  3613  0FA9                     l1905:
  3614  0FA9  0870               	movf	___fladd@b,w
  3615  0FAA  1283               	bcf	3,5	;RP0=0, select bank0
  3616  0FAB  1303               	bcf	3,6	;RP1=0, select bank0
  3617  0FAC  00A0               	movwf	??___fladd
  3618  0FAD  0871               	movf	___fladd@b+1,w
  3619  0FAE  00A1               	movwf	??___fladd+1
  3620  0FAF  0872               	movf	___fladd@b+2,w
  3621  0FB0  00A2               	movwf	??___fladd+2
  3622  0FB1  0873               	movf	___fladd@b+3,w
  3623  0FB2  00A3               	movwf	??___fladd+3
  3624  0FB3  3001               	movlw	1
  3625  0FB4  00A4               	movwf	??___fladd+4
  3626  0FB5                     u1815:
  3627  0FB5  0D23               	rlf	??___fladd+3,w
  3628  0FB6  0CA3               	rrf	??___fladd+3,f
  3629  0FB7  0CA2               	rrf	??___fladd+2,f
  3630  0FB8  0CA1               	rrf	??___fladd+1,f
  3631  0FB9  0CA0               	rrf	??___fladd,f
  3632  0FBA                     u1810:
  3633  0FBA  0BA4               	decfsz	??___fladd+4,f
  3634  0FBB  2FB5               	goto	u1815
  3635  0FBC  0823               	movf	??___fladd+3,w
  3636  0FBD  00F3               	movwf	___fladd@b+3
  3637  0FBE  0822               	movf	??___fladd+2,w
  3638  0FBF  00F2               	movwf	___fladd@b+2
  3639  0FC0  0821               	movf	??___fladd+1,w
  3640  0FC1  00F1               	movwf	___fladd@b+1
  3641  0FC2  0820               	movf	??___fladd,w
  3642  0FC3  00F0               	movwf	___fladd@b
  3643  0FC4  0A7A               	incf	___fladd@bexp,w
  3644  0FC5  1903               	btfsc	3,2
  3645  0FC6  2FC8               	goto	u1821
  3646  0FC7  2FC9               	goto	u1820
  3647  0FC8                     u1821:
  3648  0FC8  2FCD               	goto	l617
  3649  0FC9                     u1820:
  3650  0FC9                     l1907:
  3651  0FC9  3001               	movlw	1
  3652  0FCA  00A0               	movwf	??___fladd
  3653  0FCB  0820               	movf	??___fladd,w
  3654  0FCC  07FA               	addwf	___fladd@bexp,f
  3655  0FCD                     l617:
  3656  0FCD  0A7A               	incf	___fladd@bexp,w
  3657  0FCE  1903               	btfsc	3,2
  3658  0FCF  2FD1               	goto	u1831
  3659  0FD0  2FD2               	goto	u1830
  3660  0FD1                     u1831:
  3661  0FD1  2FD7               	goto	l1911
  3662  0FD2                     u1830:
  3663  0FD2                     l1909:
  3664  0FD2  087A               	movf	___fladd@bexp,w
  3665  0FD3  1D03               	btfss	3,2
  3666  0FD4  2FD6               	goto	u1841
  3667  0FD5  2FD7               	goto	u1840
  3668  0FD6                     u1841:
  3669  0FD6  2FE5               	goto	l1917
  3670  0FD7                     u1840:
  3671  0FD7                     l1911:
  3672  0FD7  3000               	movlw	0
  3673  0FD8  00F3               	movwf	___fladd@b+3
  3674  0FD9  3000               	movlw	0
  3675  0FDA  00F2               	movwf	___fladd@b+2
  3676  0FDB  3000               	movlw	0
  3677  0FDC  00F1               	movwf	___fladd@b+1
  3678  0FDD  3000               	movlw	0
  3679  0FDE  00F0               	movwf	___fladd@b
  3680  0FDF                     l1913:
  3681  0FDF  087A               	movf	___fladd@bexp,w
  3682  0FE0  1D03               	btfss	3,2
  3683  0FE1  2FE3               	goto	u1851
  3684  0FE2  2FE4               	goto	u1850
  3685  0FE3                     u1851:
  3686  0FE3  2FE5               	goto	l1917
  3687  0FE4                     u1850:
  3688  0FE4                     l1915:
  3689  0FE4  01F8               	clrf	___fladd@signs
  3690  0FE5                     l1917:
  3691  0FE5  1C7A               	btfss	___fladd@bexp,0
  3692  0FE6  2FE8               	goto	u1861
  3693  0FE7  2FE9               	goto	u1860
  3694  0FE8                     u1861:
  3695  0FE8  2FEB               	goto	l1921
  3696  0FE9                     u1860:
  3697  0FE9                     l1919:
  3698  0FE9  17F2               	bsf	___fladd@b+2,7
  3699  0FEA  2FF1               	goto	l625
  3700  0FEB                     l1921:
  3701  0FEB  307F               	movlw	127
  3702  0FEC  1283               	bcf	3,5	;RP0=0, select bank0
  3703  0FED  1303               	bcf	3,6	;RP1=0, select bank0
  3704  0FEE  00A0               	movwf	??___fladd
  3705  0FEF  0820               	movf	??___fladd,w
  3706  0FF0  05F2               	andwf	___fladd@b+2,f
  3707  0FF1                     l625:
  3708  0FF1  087A               	movf	___fladd@bexp,w
  3709  0FF2  1283               	bcf	3,5	;RP0=0, select bank0
  3710  0FF3  1303               	bcf	3,6	;RP1=0, select bank0
  3711  0FF4  00A0               	movwf	??___fladd
  3712  0FF5  1003               	clrc
  3713  0FF6  0C20               	rrf	??___fladd,w
  3714  0FF7  00A1               	movwf	??___fladd+1
  3715  0FF8  0821               	movf	??___fladd+1,w
  3716  0FF9  00F3               	movwf	___fladd@b+3
  3717  0FFA                     l1923:
  3718  0FFA  1FF8               	btfss	___fladd@signs,7
  3719  0FFB  2FFD               	goto	u1871
  3720  0FFC  2FFE               	goto	u1870
  3721  0FFD                     u1871:
  3722  0FFD  2FFF               	goto	l626
  3723  0FFE                     u1870:
  3724  0FFE                     l1925:
  3725  0FFE  17F3               	bsf	___fladd@b+3,7
  3726  0FFF                     l626:
  3727  0FFF                     l596:
  3728  0FFF  0008               	return
  3729  1000                     __end_of___fladd:
  3730                           
  3731                           	psect	text6
  3732  0478                     __ptext6:	
  3733 ;; *************** function ___flmul *****************
  3734 ;; Defined at:
  3735 ;;		line 8 in file "C:\Program Files\Microchip\xc8\v2.32\pic\sources\c90\common\sprcmul.c"
  3736 ;; Parameters:    Size  Location     Type
  3737 ;;  b               4    0[BANK0 ] unsigned char 
  3738 ;;  a               4    4[BANK0 ] unsigned char 
  3739 ;; Auto vars:     Size  Location     Type
  3740 ;;  prod            4   15[BANK0 ] struct .
  3741 ;;  grs             4    9[BANK0 ] unsigned long 
  3742 ;;  temp            2   19[BANK0 ] struct .
  3743 ;;  bexp            1   14[BANK0 ] unsigned char 
  3744 ;;  aexp            1   13[BANK0 ] unsigned char 
  3745 ;;  sign            1    8[BANK0 ] unsigned char 
  3746 ;; Return value:  Size  Location     Type
  3747 ;;                  4    0[BANK0 ] unsigned char 
  3748 ;; Registers used:
  3749 ;;		wreg, status,2, status,0, btemp+1, pclath, cstack
  3750 ;; Tracked objects:
  3751 ;;		On entry : 0/0
  3752 ;;		On exit  : 0/0
  3753 ;;		Unchanged: 0/0
  3754 ;; Data sizes:     COMMON   BANK0   BANK1   BANK3   BANK2
  3755 ;;      Params:         0       8       0       0       0
  3756 ;;      Locals:         0      13       0       0       0
  3757 ;;      Temps:          5       0       0       0       0
  3758 ;;      Totals:         5      21       0       0       0
  3759 ;;Total ram usage:       26 bytes
  3760 ;; Hardware stack levels used: 1
  3761 ;; Hardware stack levels required when called: 1
  3762 ;; This function calls:
  3763 ;;		__Umul8_16
  3764 ;; This function is called by:
  3765 ;;		_liga_buzzer
  3766 ;; This function uses a non-reentrant model
  3767 ;;
  3768                           
  3769                           
  3770                           ;psect for function ___flmul
  3771  0478                     ___flmul:
  3772  0478                     l1977:	
  3773                           ;incstack = 0
  3774                           ; Regs used in ___flmul: [wreg+status,2+status,0+btemp+1+pclath+cstack]
  3775                           
  3776  0478  1283               	bcf	3,5	;RP0=0, select bank0
  3777  0479  1303               	bcf	3,6	;RP1=0, select bank0
  3778  047A  0823               	movf	___flmul@b+3,w
  3779  047B  3980               	andlw	128
  3780  047C  00F9               	movwf	??___flmul
  3781  047D  0879               	movf	??___flmul,w
  3782  047E  00A8               	movwf	___flmul@sign
  3783  047F                     l1979:
  3784  047F  0823               	movf	___flmul@b+3,w
  3785  0480  00F9               	movwf	??___flmul
  3786  0481  0779               	addwf	??___flmul,w
  3787  0482  00FA               	movwf	??___flmul+1
  3788  0483  087A               	movf	??___flmul+1,w
  3789  0484  00AE               	movwf	___flmul@bexp
  3790  0485                     l1981:
  3791  0485  1FA2               	btfss	___flmul@b+2,7
  3792  0486  2C88               	goto	u1991
  3793  0487  2C89               	goto	u1990
  3794  0488                     u1991:
  3795  0488  2C8A               	goto	l1985
  3796  0489                     u1990:
  3797  0489                     l1983:
  3798  0489  142E               	bsf	___flmul@bexp,0
  3799  048A                     l1985:
  3800  048A  082E               	movf	___flmul@bexp,w
  3801  048B  1903               	btfsc	3,2
  3802  048C  2C8E               	goto	u2001
  3803  048D  2C8F               	goto	u2000
  3804  048E                     u2001:
  3805  048E  2C9E               	goto	l1993
  3806  048F                     u2000:
  3807  048F                     l1987:
  3808  048F  0A2E               	incf	___flmul@bexp,w
  3809  0490  1D03               	btfss	3,2
  3810  0491  2C93               	goto	u2011
  3811  0492  2C94               	goto	u2010
  3812  0493                     u2011:
  3813  0493  2C9C               	goto	l1991
  3814  0494                     u2010:
  3815  0494                     l1989:
  3816  0494  3000               	movlw	0
  3817  0495  00A3               	movwf	___flmul@b+3
  3818  0496  3000               	movlw	0
  3819  0497  00A2               	movwf	___flmul@b+2
  3820  0498  3000               	movlw	0
  3821  0499  00A1               	movwf	___flmul@b+1
  3822  049A  3000               	movlw	0
  3823  049B  00A0               	movwf	___flmul@b
  3824  049C                     l1991:
  3825  049C  17A2               	bsf	___flmul@b+2,7
  3826  049D  2CA6               	goto	l1995
  3827  049E                     l1993:
  3828  049E  3000               	movlw	0
  3829  049F  00A3               	movwf	___flmul@b+3
  3830  04A0  3000               	movlw	0
  3831  04A1  00A2               	movwf	___flmul@b+2
  3832  04A2  3000               	movlw	0
  3833  04A3  00A1               	movwf	___flmul@b+1
  3834  04A4  3000               	movlw	0
  3835  04A5  00A0               	movwf	___flmul@b
  3836  04A6                     l1995:
  3837  04A6  0827               	movf	___flmul@a+3,w
  3838  04A7  3980               	andlw	128
  3839  04A8  00F9               	movwf	??___flmul
  3840  04A9  0879               	movf	??___flmul,w
  3841  04AA  06A8               	xorwf	___flmul@sign,f
  3842  04AB                     l1997:
  3843  04AB  0827               	movf	___flmul@a+3,w
  3844  04AC  00F9               	movwf	??___flmul
  3845  04AD  0779               	addwf	??___flmul,w
  3846  04AE  00FA               	movwf	??___flmul+1
  3847  04AF  087A               	movf	??___flmul+1,w
  3848  04B0  00AD               	movwf	___flmul@aexp
  3849  04B1                     l1999:
  3850  04B1  1FA6               	btfss	___flmul@a+2,7
  3851  04B2  2CB4               	goto	u2021
  3852  04B3  2CB5               	goto	u2020
  3853  04B4                     u2021:
  3854  04B4  2CB6               	goto	l2003
  3855  04B5                     u2020:
  3856  04B5                     l2001:
  3857  04B5  142D               	bsf	___flmul@aexp,0
  3858  04B6                     l2003:
  3859  04B6  082D               	movf	___flmul@aexp,w
  3860  04B7  1903               	btfsc	3,2
  3861  04B8  2CBA               	goto	u2031
  3862  04B9  2CBB               	goto	u2030
  3863  04BA                     u2031:
  3864  04BA  2CCA               	goto	l2011
  3865  04BB                     u2030:
  3866  04BB                     l2005:
  3867  04BB  0A2D               	incf	___flmul@aexp,w
  3868  04BC  1D03               	btfss	3,2
  3869  04BD  2CBF               	goto	u2041
  3870  04BE  2CC0               	goto	u2040
  3871  04BF                     u2041:
  3872  04BF  2CC8               	goto	l2009
  3873  04C0                     u2040:
  3874  04C0                     l2007:
  3875  04C0  3000               	movlw	0
  3876  04C1  00A7               	movwf	___flmul@a+3
  3877  04C2  3000               	movlw	0
  3878  04C3  00A6               	movwf	___flmul@a+2
  3879  04C4  3000               	movlw	0
  3880  04C5  00A5               	movwf	___flmul@a+1
  3881  04C6  3000               	movlw	0
  3882  04C7  00A4               	movwf	___flmul@a
  3883  04C8                     l2009:
  3884  04C8  17A6               	bsf	___flmul@a+2,7
  3885  04C9  2CD2               	goto	l2013
  3886  04CA                     l2011:
  3887  04CA  3000               	movlw	0
  3888  04CB  00A7               	movwf	___flmul@a+3
  3889  04CC  3000               	movlw	0
  3890  04CD  00A6               	movwf	___flmul@a+2
  3891  04CE  3000               	movlw	0
  3892  04CF  00A5               	movwf	___flmul@a+1
  3893  04D0  3000               	movlw	0
  3894  04D1  00A4               	movwf	___flmul@a
  3895  04D2                     l2013:
  3896  04D2  082D               	movf	___flmul@aexp,w
  3897  04D3  1903               	btfsc	3,2
  3898  04D4  2CD6               	goto	u2051
  3899  04D5  2CD7               	goto	u2050
  3900  04D6                     u2051:
  3901  04D6  2CDC               	goto	l2017
  3902  04D7                     u2050:
  3903  04D7                     l2015:
  3904  04D7  082E               	movf	___flmul@bexp,w
  3905  04D8  1D03               	btfss	3,2
  3906  04D9  2CDB               	goto	u2061
  3907  04DA  2CDC               	goto	u2060
  3908  04DB                     u2061:
  3909  04DB  2CE5               	goto	l2021
  3910  04DC                     u2060:
  3911  04DC                     l2017:
  3912  04DC  3000               	movlw	0
  3913  04DD  00A3               	movwf	?___flmul+3
  3914  04DE  3000               	movlw	0
  3915  04DF  00A2               	movwf	?___flmul+2
  3916  04E0  3000               	movlw	0
  3917  04E1  00A1               	movwf	?___flmul+1
  3918  04E2  3000               	movlw	0
  3919  04E3  00A0               	movwf	?___flmul
  3920  04E4  2FD8               	goto	l679
  3921  04E5                     l2021:
  3922  04E5  0820               	movf	___flmul@b,w
  3923  04E6  00F9               	movwf	??___flmul
  3924  04E7  0879               	movf	??___flmul,w
  3925  04E8  00F0               	movwf	__Umul8_16@multiplicand
  3926  04E9  0826               	movf	___flmul@a+2,w
  3927  04EA  120A  158A  21FA  120A  118A  	fcall	__Umul8_16
  3928  04EF  0871               	movf	?__Umul8_16+1,w
  3929  04F0  1283               	bcf	3,5	;RP0=0, select bank0
  3930  04F1  1303               	bcf	3,6	;RP1=0, select bank0
  3931  04F2  00B4               	movwf	___flmul@temp+1
  3932  04F3  0870               	movf	?__Umul8_16,w
  3933  04F4  00B3               	movwf	___flmul@temp
  3934  04F5                     l2023:
  3935  04F5  0833               	movf	___flmul@temp,w
  3936  04F6  00F9               	movwf	??___flmul
  3937  04F7  01FA               	clrf	??___flmul+1
  3938  04F8  01FB               	clrf	??___flmul+2
  3939  04F9  01FC               	clrf	??___flmul+3
  3940  04FA  087C               	movf	??___flmul+3,w
  3941  04FB  00AC               	movwf	___flmul@grs+3
  3942  04FC  087B               	movf	??___flmul+2,w
  3943  04FD  00AB               	movwf	___flmul@grs+2
  3944  04FE  087A               	movf	??___flmul+1,w
  3945  04FF  00AA               	movwf	___flmul@grs+1
  3946  0500  0879               	movf	??___flmul,w
  3947  0501  00A9               	movwf	___flmul@grs
  3948  0502                     l2025:
  3949  0502  0834               	movf	___flmul@temp+1,w
  3950  0503  00F9               	movwf	??___flmul
  3951  0504  01FA               	clrf	??___flmul+1
  3952  0505  01FB               	clrf	??___flmul+2
  3953  0506  01FC               	clrf	??___flmul+3
  3954  0507  087C               	movf	??___flmul+3,w
  3955  0508  00B2               	movwf	___flmul@prod+3
  3956  0509  087B               	movf	??___flmul+2,w
  3957  050A  00B1               	movwf	___flmul@prod+2
  3958  050B  087A               	movf	??___flmul+1,w
  3959  050C  00B0               	movwf	___flmul@prod+1
  3960  050D  0879               	movf	??___flmul,w
  3961  050E  00AF               	movwf	___flmul@prod
  3962  050F  0821               	movf	___flmul@b+1,w
  3963  0510  00F9               	movwf	??___flmul
  3964  0511  0879               	movf	??___flmul,w
  3965  0512  00F0               	movwf	__Umul8_16@multiplicand
  3966  0513  0825               	movf	___flmul@a+1,w
  3967  0514  120A  158A  21FA  120A  118A  	fcall	__Umul8_16
  3968  0519  0871               	movf	?__Umul8_16+1,w
  3969  051A  1283               	bcf	3,5	;RP0=0, select bank0
  3970  051B  1303               	bcf	3,6	;RP1=0, select bank0
  3971  051C  00B4               	movwf	___flmul@temp+1
  3972  051D  0870               	movf	?__Umul8_16,w
  3973  051E  00B3               	movwf	___flmul@temp
  3974  051F                     l2027:
  3975  051F  0833               	movf	___flmul@temp,w
  3976  0520  00F9               	movwf	??___flmul
  3977  0521  01FA               	clrf	??___flmul+1
  3978  0522  01FB               	clrf	??___flmul+2
  3979  0523  01FC               	clrf	??___flmul+3
  3980  0524  0879               	movf	??___flmul,w
  3981  0525  07A9               	addwf	___flmul@grs,f
  3982  0526  087A               	movf	??___flmul+1,w
  3983  0527  1103               	clrz
  3984  0528  1803               	skipnc
  3985  0529  3E01               	addlw	1
  3986  052A  1903               	skipnz
  3987  052B  2D2D               	goto	u2071
  3988  052C  07AA               	addwf	___flmul@grs+1,f
  3989  052D                     u2071:
  3990  052D  087B               	movf	??___flmul+2,w
  3991  052E  1103               	clrz
  3992  052F  1803               	skipnc
  3993  0530  3E01               	addlw	1
  3994  0531  1903               	skipnz
  3995  0532  2D34               	goto	u2072
  3996  0533  07AB               	addwf	___flmul@grs+2,f
  3997  0534                     u2072:
  3998  0534  087C               	movf	??___flmul+3,w
  3999  0535  1103               	clrz
  4000  0536  1803               	skipnc
  4001  0537  3E01               	addlw	1
  4002  0538  1903               	skipnz
  4003  0539  2D3B               	goto	u2073
  4004  053A  07AC               	addwf	___flmul@grs+3,f
  4005  053B                     u2073:
  4006  053B                     l2029:
  4007  053B  0834               	movf	___flmul@temp+1,w
  4008  053C  00F9               	movwf	??___flmul
  4009  053D  01FA               	clrf	??___flmul+1
  4010  053E  01FB               	clrf	??___flmul+2
  4011  053F  01FC               	clrf	??___flmul+3
  4012  0540  0879               	movf	??___flmul,w
  4013  0541  07AF               	addwf	___flmul@prod,f
  4014  0542  087A               	movf	??___flmul+1,w
  4015  0543  1103               	clrz
  4016  0544  1803               	skipnc
  4017  0545  3E01               	addlw	1
  4018  0546  1903               	skipnz
  4019  0547  2D49               	goto	u2081
  4020  0548  07B0               	addwf	___flmul@prod+1,f
  4021  0549                     u2081:
  4022  0549  087B               	movf	??___flmul+2,w
  4023  054A  1103               	clrz
  4024  054B  1803               	skipnc
  4025  054C  3E01               	addlw	1
  4026  054D  1903               	skipnz
  4027  054E  2D50               	goto	u2082
  4028  054F  07B1               	addwf	___flmul@prod+2,f
  4029  0550                     u2082:
  4030  0550  087C               	movf	??___flmul+3,w
  4031  0551  1103               	clrz
  4032  0552  1803               	skipnc
  4033  0553  3E01               	addlw	1
  4034  0554  1903               	skipnz
  4035  0555  2D57               	goto	u2083
  4036  0556  07B2               	addwf	___flmul@prod+3,f
  4037  0557                     u2083:
  4038  0557  0822               	movf	___flmul@b+2,w
  4039  0558  00F9               	movwf	??___flmul
  4040  0559  0879               	movf	??___flmul,w
  4041  055A  00F0               	movwf	__Umul8_16@multiplicand
  4042  055B  0824               	movf	___flmul@a,w
  4043  055C  120A  158A  21FA  120A  118A  	fcall	__Umul8_16
  4044  0561  0871               	movf	?__Umul8_16+1,w
  4045  0562  1283               	bcf	3,5	;RP0=0, select bank0
  4046  0563  1303               	bcf	3,6	;RP1=0, select bank0
  4047  0564  00B4               	movwf	___flmul@temp+1
  4048  0565  0870               	movf	?__Umul8_16,w
  4049  0566  00B3               	movwf	___flmul@temp
  4050  0567                     l2031:
  4051  0567  0833               	movf	___flmul@temp,w
  4052  0568  00F9               	movwf	??___flmul
  4053  0569  01FA               	clrf	??___flmul+1
  4054  056A  01FB               	clrf	??___flmul+2
  4055  056B  01FC               	clrf	??___flmul+3
  4056  056C  0879               	movf	??___flmul,w
  4057  056D  07A9               	addwf	___flmul@grs,f
  4058  056E  087A               	movf	??___flmul+1,w
  4059  056F  1103               	clrz
  4060  0570  1803               	skipnc
  4061  0571  3E01               	addlw	1
  4062  0572  1903               	skipnz
  4063  0573  2D75               	goto	u2091
  4064  0574  07AA               	addwf	___flmul@grs+1,f
  4065  0575                     u2091:
  4066  0575  087B               	movf	??___flmul+2,w
  4067  0576  1103               	clrz
  4068  0577  1803               	skipnc
  4069  0578  3E01               	addlw	1
  4070  0579  1903               	skipnz
  4071  057A  2D7C               	goto	u2092
  4072  057B  07AB               	addwf	___flmul@grs+2,f
  4073  057C                     u2092:
  4074  057C  087C               	movf	??___flmul+3,w
  4075  057D  1103               	clrz
  4076  057E  1803               	skipnc
  4077  057F  3E01               	addlw	1
  4078  0580  1903               	skipnz
  4079  0581  2D83               	goto	u2093
  4080  0582  07AC               	addwf	___flmul@grs+3,f
  4081  0583                     u2093:
  4082  0583                     l2033:
  4083  0583  0834               	movf	___flmul@temp+1,w
  4084  0584  00F9               	movwf	??___flmul
  4085  0585  01FA               	clrf	??___flmul+1
  4086  0586  01FB               	clrf	??___flmul+2
  4087  0587  01FC               	clrf	??___flmul+3
  4088  0588  0879               	movf	??___flmul,w
  4089  0589  07AF               	addwf	___flmul@prod,f
  4090  058A  087A               	movf	??___flmul+1,w
  4091  058B  1103               	clrz
  4092  058C  1803               	skipnc
  4093  058D  3E01               	addlw	1
  4094  058E  1903               	skipnz
  4095  058F  2D91               	goto	u2101
  4096  0590  07B0               	addwf	___flmul@prod+1,f
  4097  0591                     u2101:
  4098  0591  087B               	movf	??___flmul+2,w
  4099  0592  1103               	clrz
  4100  0593  1803               	skipnc
  4101  0594  3E01               	addlw	1
  4102  0595  1903               	skipnz
  4103  0596  2D98               	goto	u2102
  4104  0597  07B1               	addwf	___flmul@prod+2,f
  4105  0598                     u2102:
  4106  0598  087C               	movf	??___flmul+3,w
  4107  0599  1103               	clrz
  4108  059A  1803               	skipnc
  4109  059B  3E01               	addlw	1
  4110  059C  1903               	skipnz
  4111  059D  2D9F               	goto	u2103
  4112  059E  07B2               	addwf	___flmul@prod+3,f
  4113  059F                     u2103:
  4114  059F                     l2035:
  4115  059F  3008               	movlw	8
  4116  05A0  00F9               	movwf	??___flmul
  4117  05A1                     u2115:
  4118  05A1  1003               	clrc
  4119  05A2  0DA9               	rlf	___flmul@grs,f
  4120  05A3  0DAA               	rlf	___flmul@grs+1,f
  4121  05A4  0DAB               	rlf	___flmul@grs+2,f
  4122  05A5  0DAC               	rlf	___flmul@grs+3,f
  4123  05A6  0BF9               	decfsz	??___flmul,f
  4124  05A7  2DA1               	goto	u2115
  4125  05A8                     l2037:
  4126  05A8  0821               	movf	___flmul@b+1,w
  4127  05A9  00F9               	movwf	??___flmul
  4128  05AA  0879               	movf	??___flmul,w
  4129  05AB  00F0               	movwf	__Umul8_16@multiplicand
  4130  05AC  0824               	movf	___flmul@a,w
  4131  05AD  120A  158A  21FA  120A  118A  	fcall	__Umul8_16
  4132  05B2  0871               	movf	?__Umul8_16+1,w
  4133  05B3  1283               	bcf	3,5	;RP0=0, select bank0
  4134  05B4  1303               	bcf	3,6	;RP1=0, select bank0
  4135  05B5  00B4               	movwf	___flmul@temp+1
  4136  05B6  0870               	movf	?__Umul8_16,w
  4137  05B7  00B3               	movwf	___flmul@temp
  4138  05B8                     l2039:
  4139  05B8  0833               	movf	___flmul@temp,w
  4140  05B9  00F9               	movwf	??___flmul
  4141  05BA  0834               	movf	___flmul@temp+1,w
  4142  05BB  00FA               	movwf	??___flmul+1
  4143  05BC  01FB               	clrf	??___flmul+2
  4144  05BD  01FC               	clrf	??___flmul+3
  4145  05BE  0879               	movf	??___flmul,w
  4146  05BF  07A9               	addwf	___flmul@grs,f
  4147  05C0  087A               	movf	??___flmul+1,w
  4148  05C1  1103               	clrz
  4149  05C2  1803               	skipnc
  4150  05C3  3E01               	addlw	1
  4151  05C4  1903               	skipnz
  4152  05C5  2DC7               	goto	u2121
  4153  05C6  07AA               	addwf	___flmul@grs+1,f
  4154  05C7                     u2121:
  4155  05C7  087B               	movf	??___flmul+2,w
  4156  05C8  1103               	clrz
  4157  05C9  1803               	skipnc
  4158  05CA  3E01               	addlw	1
  4159  05CB  1903               	skipnz
  4160  05CC  2DCE               	goto	u2122
  4161  05CD  07AB               	addwf	___flmul@grs+2,f
  4162  05CE                     u2122:
  4163  05CE  087C               	movf	??___flmul+3,w
  4164  05CF  1103               	clrz
  4165  05D0  1803               	skipnc
  4166  05D1  3E01               	addlw	1
  4167  05D2  1903               	skipnz
  4168  05D3  2DD5               	goto	u2123
  4169  05D4  07AC               	addwf	___flmul@grs+3,f
  4170  05D5                     u2123:
  4171  05D5                     l2041:
  4172  05D5  0820               	movf	___flmul@b,w
  4173  05D6  00F9               	movwf	??___flmul
  4174  05D7  0879               	movf	??___flmul,w
  4175  05D8  00F0               	movwf	__Umul8_16@multiplicand
  4176  05D9  0825               	movf	___flmul@a+1,w
  4177  05DA  120A  158A  21FA  120A  118A  	fcall	__Umul8_16
  4178  05DF  0871               	movf	?__Umul8_16+1,w
  4179  05E0  1283               	bcf	3,5	;RP0=0, select bank0
  4180  05E1  1303               	bcf	3,6	;RP1=0, select bank0
  4181  05E2  00B4               	movwf	___flmul@temp+1
  4182  05E3  0870               	movf	?__Umul8_16,w
  4183  05E4  00B3               	movwf	___flmul@temp
  4184  05E5                     l2043:
  4185  05E5  0833               	movf	___flmul@temp,w
  4186  05E6  00F9               	movwf	??___flmul
  4187  05E7  0834               	movf	___flmul@temp+1,w
  4188  05E8  00FA               	movwf	??___flmul+1
  4189  05E9  01FB               	clrf	??___flmul+2
  4190  05EA  01FC               	clrf	??___flmul+3
  4191  05EB  0879               	movf	??___flmul,w
  4192  05EC  07A9               	addwf	___flmul@grs,f
  4193  05ED  087A               	movf	??___flmul+1,w
  4194  05EE  1103               	clrz
  4195  05EF  1803               	skipnc
  4196  05F0  3E01               	addlw	1
  4197  05F1  1903               	skipnz
  4198  05F2  2DF4               	goto	u2131
  4199  05F3  07AA               	addwf	___flmul@grs+1,f
  4200  05F4                     u2131:
  4201  05F4  087B               	movf	??___flmul+2,w
  4202  05F5  1103               	clrz
  4203  05F6  1803               	skipnc
  4204  05F7  3E01               	addlw	1
  4205  05F8  1903               	skipnz
  4206  05F9  2DFB               	goto	u2132
  4207  05FA  07AB               	addwf	___flmul@grs+2,f
  4208  05FB                     u2132:
  4209  05FB  087C               	movf	??___flmul+3,w
  4210  05FC  1103               	clrz
  4211  05FD  1803               	skipnc
  4212  05FE  3E01               	addlw	1
  4213  05FF  1903               	skipnz
  4214  0600  2E02               	goto	u2133
  4215  0601  07AC               	addwf	___flmul@grs+3,f
  4216  0602                     u2133:
  4217  0602                     l2045:
  4218  0602  3008               	movlw	8
  4219  0603  00F9               	movwf	??___flmul
  4220  0604                     u2145:
  4221  0604  1003               	clrc
  4222  0605  0DA9               	rlf	___flmul@grs,f
  4223  0606  0DAA               	rlf	___flmul@grs+1,f
  4224  0607  0DAB               	rlf	___flmul@grs+2,f
  4225  0608  0DAC               	rlf	___flmul@grs+3,f
  4226  0609  0BF9               	decfsz	??___flmul,f
  4227  060A  2E04               	goto	u2145
  4228  060B  0820               	movf	___flmul@b,w
  4229  060C  00F9               	movwf	??___flmul
  4230  060D  0879               	movf	??___flmul,w
  4231  060E  00F0               	movwf	__Umul8_16@multiplicand
  4232  060F  0824               	movf	___flmul@a,w
  4233  0610  120A  158A  21FA  120A  118A  	fcall	__Umul8_16
  4234  0615  0871               	movf	?__Umul8_16+1,w
  4235  0616  1283               	bcf	3,5	;RP0=0, select bank0
  4236  0617  1303               	bcf	3,6	;RP1=0, select bank0
  4237  0618  00B4               	movwf	___flmul@temp+1
  4238  0619  0870               	movf	?__Umul8_16,w
  4239  061A  00B3               	movwf	___flmul@temp
  4240  061B                     l2047:
  4241  061B  0833               	movf	___flmul@temp,w
  4242  061C  00F9               	movwf	??___flmul
  4243  061D  0834               	movf	___flmul@temp+1,w
  4244  061E  00FA               	movwf	??___flmul+1
  4245  061F  01FB               	clrf	??___flmul+2
  4246  0620  01FC               	clrf	??___flmul+3
  4247  0621  0879               	movf	??___flmul,w
  4248  0622  07A9               	addwf	___flmul@grs,f
  4249  0623  087A               	movf	??___flmul+1,w
  4250  0624  1103               	clrz
  4251  0625  1803               	skipnc
  4252  0626  3E01               	addlw	1
  4253  0627  1903               	skipnz
  4254  0628  2E2A               	goto	u2151
  4255  0629  07AA               	addwf	___flmul@grs+1,f
  4256  062A                     u2151:
  4257  062A  087B               	movf	??___flmul+2,w
  4258  062B  1103               	clrz
  4259  062C  1803               	skipnc
  4260  062D  3E01               	addlw	1
  4261  062E  1903               	skipnz
  4262  062F  2E31               	goto	u2152
  4263  0630  07AB               	addwf	___flmul@grs+2,f
  4264  0631                     u2152:
  4265  0631  087C               	movf	??___flmul+3,w
  4266  0632  1103               	clrz
  4267  0633  1803               	skipnc
  4268  0634  3E01               	addlw	1
  4269  0635  1903               	skipnz
  4270  0636  2E38               	goto	u2153
  4271  0637  07AC               	addwf	___flmul@grs+3,f
  4272  0638                     u2153:
  4273  0638                     l2049:
  4274  0638  0821               	movf	___flmul@b+1,w
  4275  0639  00F9               	movwf	??___flmul
  4276  063A  0879               	movf	??___flmul,w
  4277  063B  00F0               	movwf	__Umul8_16@multiplicand
  4278  063C  0826               	movf	___flmul@a+2,w
  4279  063D  120A  158A  21FA  120A  118A  	fcall	__Umul8_16
  4280  0642  0871               	movf	?__Umul8_16+1,w
  4281  0643  1283               	bcf	3,5	;RP0=0, select bank0
  4282  0644  1303               	bcf	3,6	;RP1=0, select bank0
  4283  0645  00B4               	movwf	___flmul@temp+1
  4284  0646  0870               	movf	?__Umul8_16,w
  4285  0647  00B3               	movwf	___flmul@temp
  4286  0648  0833               	movf	___flmul@temp,w
  4287  0649  00F9               	movwf	??___flmul
  4288  064A  0834               	movf	___flmul@temp+1,w
  4289  064B  00FA               	movwf	??___flmul+1
  4290  064C  01FB               	clrf	??___flmul+2
  4291  064D  01FC               	clrf	??___flmul+3
  4292  064E  0879               	movf	??___flmul,w
  4293  064F  07AF               	addwf	___flmul@prod,f
  4294  0650  087A               	movf	??___flmul+1,w
  4295  0651  1103               	clrz
  4296  0652  1803               	skipnc
  4297  0653  3E01               	addlw	1
  4298  0654  1903               	skipnz
  4299  0655  2E57               	goto	u2161
  4300  0656  07B0               	addwf	___flmul@prod+1,f
  4301  0657                     u2161:
  4302  0657  087B               	movf	??___flmul+2,w
  4303  0658  1103               	clrz
  4304  0659  1803               	skipnc
  4305  065A  3E01               	addlw	1
  4306  065B  1903               	skipnz
  4307  065C  2E5E               	goto	u2162
  4308  065D  07B1               	addwf	___flmul@prod+2,f
  4309  065E                     u2162:
  4310  065E  087C               	movf	??___flmul+3,w
  4311  065F  1103               	clrz
  4312  0660  1803               	skipnc
  4313  0661  3E01               	addlw	1
  4314  0662  1903               	skipnz
  4315  0663  2E65               	goto	u2163
  4316  0664  07B2               	addwf	___flmul@prod+3,f
  4317  0665                     u2163:
  4318  0665                     l2051:
  4319  0665  0822               	movf	___flmul@b+2,w
  4320  0666  00F9               	movwf	??___flmul
  4321  0667  0879               	movf	??___flmul,w
  4322  0668  00F0               	movwf	__Umul8_16@multiplicand
  4323  0669  0825               	movf	___flmul@a+1,w
  4324  066A  120A  158A  21FA  120A  118A  	fcall	__Umul8_16
  4325  066F  0871               	movf	?__Umul8_16+1,w
  4326  0670  1283               	bcf	3,5	;RP0=0, select bank0
  4327  0671  1303               	bcf	3,6	;RP1=0, select bank0
  4328  0672  00B4               	movwf	___flmul@temp+1
  4329  0673  0870               	movf	?__Umul8_16,w
  4330  0674  00B3               	movwf	___flmul@temp
  4331  0675                     l2053:
  4332  0675  0833               	movf	___flmul@temp,w
  4333  0676  00F9               	movwf	??___flmul
  4334  0677  0834               	movf	___flmul@temp+1,w
  4335  0678  00FA               	movwf	??___flmul+1
  4336  0679  01FB               	clrf	??___flmul+2
  4337  067A  01FC               	clrf	??___flmul+3
  4338  067B  0879               	movf	??___flmul,w
  4339  067C  07AF               	addwf	___flmul@prod,f
  4340  067D  087A               	movf	??___flmul+1,w
  4341  067E  1103               	clrz
  4342  067F  1803               	skipnc
  4343  0680  3E01               	addlw	1
  4344  0681  1903               	skipnz
  4345  0682  2E84               	goto	u2171
  4346  0683  07B0               	addwf	___flmul@prod+1,f
  4347  0684                     u2171:
  4348  0684  087B               	movf	??___flmul+2,w
  4349  0685  1103               	clrz
  4350  0686  1803               	skipnc
  4351  0687  3E01               	addlw	1
  4352  0688  1903               	skipnz
  4353  0689  2E8B               	goto	u2172
  4354  068A  07B1               	addwf	___flmul@prod+2,f
  4355  068B                     u2172:
  4356  068B  087C               	movf	??___flmul+3,w
  4357  068C  1103               	clrz
  4358  068D  1803               	skipnc
  4359  068E  3E01               	addlw	1
  4360  068F  1903               	skipnz
  4361  0690  2E92               	goto	u2173
  4362  0691  07B2               	addwf	___flmul@prod+3,f
  4363  0692                     u2173:
  4364  0692  0822               	movf	___flmul@b+2,w
  4365  0693  00F9               	movwf	??___flmul
  4366  0694  0879               	movf	??___flmul,w
  4367  0695  00F0               	movwf	__Umul8_16@multiplicand
  4368  0696  0826               	movf	___flmul@a+2,w
  4369  0697  120A  158A  21FA  120A  118A  	fcall	__Umul8_16
  4370  069C  0871               	movf	?__Umul8_16+1,w
  4371  069D  1283               	bcf	3,5	;RP0=0, select bank0
  4372  069E  1303               	bcf	3,6	;RP1=0, select bank0
  4373  069F  00B4               	movwf	___flmul@temp+1
  4374  06A0  0870               	movf	?__Umul8_16,w
  4375  06A1  00B3               	movwf	___flmul@temp
  4376  06A2                     l2055:
  4377  06A2  0833               	movf	___flmul@temp,w
  4378  06A3  00F9               	movwf	??___flmul
  4379  06A4  0834               	movf	___flmul@temp+1,w
  4380  06A5  00FA               	movwf	??___flmul+1
  4381  06A6  01FB               	clrf	??___flmul+2
  4382  06A7  01FC               	clrf	??___flmul+3
  4383  06A8  3008               	movlw	8
  4384  06A9                     u2185:
  4385  06A9  1003               	clrc
  4386  06AA  0DF9               	rlf	??___flmul,f
  4387  06AB  0DFA               	rlf	??___flmul+1,f
  4388  06AC  0DFB               	rlf	??___flmul+2,f
  4389  06AD  0DFC               	rlf	??___flmul+3,f
  4390  06AE                     u2180:
  4391  06AE  3EFF               	addlw	-1
  4392  06AF  1D03               	skipz
  4393  06B0  2EA9               	goto	u2185
  4394  06B1  0879               	movf	??___flmul,w
  4395  06B2  07AF               	addwf	___flmul@prod,f
  4396  06B3  087A               	movf	??___flmul+1,w
  4397  06B4  1103               	clrz
  4398  06B5  1803               	skipnc
  4399  06B6  3E01               	addlw	1
  4400  06B7  1903               	skipnz
  4401  06B8  2EBA               	goto	u2191
  4402  06B9  07B0               	addwf	___flmul@prod+1,f
  4403  06BA                     u2191:
  4404  06BA  087B               	movf	??___flmul+2,w
  4405  06BB  1103               	clrz
  4406  06BC  1803               	skipnc
  4407  06BD  3E01               	addlw	1
  4408  06BE  1903               	skipnz
  4409  06BF  2EC1               	goto	u2192
  4410  06C0  07B1               	addwf	___flmul@prod+2,f
  4411  06C1                     u2192:
  4412  06C1  087C               	movf	??___flmul+3,w
  4413  06C2  1103               	clrz
  4414  06C3  1803               	skipnc
  4415  06C4  3E01               	addlw	1
  4416  06C5  1903               	skipnz
  4417  06C6  2EC8               	goto	u2193
  4418  06C7  07B2               	addwf	___flmul@prod+3,f
  4419  06C8                     u2193:
  4420  06C8                     l2057:
  4421  06C8  0829               	movf	___flmul@grs,w
  4422  06C9  00F9               	movwf	??___flmul
  4423  06CA  082A               	movf	___flmul@grs+1,w
  4424  06CB  00FA               	movwf	??___flmul+1
  4425  06CC  082B               	movf	___flmul@grs+2,w
  4426  06CD  00FB               	movwf	??___flmul+2
  4427  06CE  082C               	movf	___flmul@grs+3,w
  4428  06CF  00FC               	movwf	??___flmul+3
  4429  06D0  3018               	movlw	24
  4430  06D1                     u2205:
  4431  06D1  1003               	clrc
  4432  06D2  0CFC               	rrf	??___flmul+3,f
  4433  06D3  0CFB               	rrf	??___flmul+2,f
  4434  06D4  0CFA               	rrf	??___flmul+1,f
  4435  06D5  0CF9               	rrf	??___flmul,f
  4436  06D6                     u2200:
  4437  06D6  3EFF               	addlw	-1
  4438  06D7  1D03               	skipz
  4439  06D8  2ED1               	goto	u2205
  4440  06D9  0879               	movf	??___flmul,w
  4441  06DA  07AF               	addwf	___flmul@prod,f
  4442  06DB  087A               	movf	??___flmul+1,w
  4443  06DC  1103               	clrz
  4444  06DD  1803               	skipnc
  4445  06DE  3E01               	addlw	1
  4446  06DF  1903               	skipnz
  4447  06E0  2EE2               	goto	u2211
  4448  06E1  07B0               	addwf	___flmul@prod+1,f
  4449  06E2                     u2211:
  4450  06E2  087B               	movf	??___flmul+2,w
  4451  06E3  1103               	clrz
  4452  06E4  1803               	skipnc
  4453  06E5  3E01               	addlw	1
  4454  06E6  1903               	skipnz
  4455  06E7  2EE9               	goto	u2212
  4456  06E8  07B1               	addwf	___flmul@prod+2,f
  4457  06E9                     u2212:
  4458  06E9  087C               	movf	??___flmul+3,w
  4459  06EA  1103               	clrz
  4460  06EB  1803               	skipnc
  4461  06EC  3E01               	addlw	1
  4462  06ED  1903               	skipnz
  4463  06EE  2EF0               	goto	u2213
  4464  06EF  07B2               	addwf	___flmul@prod+3,f
  4465  06F0                     u2213:
  4466  06F0                     l2059:
  4467  06F0  3008               	movlw	8
  4468  06F1  00F9               	movwf	??___flmul
  4469  06F2                     u2225:
  4470  06F2  1003               	clrc
  4471  06F3  0DA9               	rlf	___flmul@grs,f
  4472  06F4  0DAA               	rlf	___flmul@grs+1,f
  4473  06F5  0DAB               	rlf	___flmul@grs+2,f
  4474  06F6  0DAC               	rlf	___flmul@grs+3,f
  4475  06F7  0BF9               	decfsz	??___flmul,f
  4476  06F8  2EF2               	goto	u2225
  4477  06F9                     l2061:
  4478  06F9  082E               	movf	___flmul@bexp,w
  4479  06FA  072D               	addwf	___flmul@aexp,w
  4480  06FB  00F9               	movwf	??___flmul
  4481  06FC  01FA               	clrf	??___flmul+1
  4482  06FD  0DFA               	rlf	??___flmul+1,f
  4483  06FE  0879               	movf	??___flmul,w
  4484  06FF  3E82               	addlw	130
  4485  0700  00B3               	movwf	___flmul@temp
  4486  0701  087A               	movf	??___flmul+1,w
  4487  0702  1803               	skipnc
  4488  0703  3E01               	addlw	1
  4489  0704  3EFF               	addlw	255
  4490  0705  00B4               	movwf	___flmul@temp+1
  4491  0706  2F24               	goto	l2073
  4492  0707                     l2063:
  4493  0707  3001               	movlw	1
  4494  0708  00F9               	movwf	??___flmul
  4495  0709                     u2235:
  4496  0709  1003               	clrc
  4497  070A  0DAF               	rlf	___flmul@prod,f
  4498  070B  0DB0               	rlf	___flmul@prod+1,f
  4499  070C  0DB1               	rlf	___flmul@prod+2,f
  4500  070D  0DB2               	rlf	___flmul@prod+3,f
  4501  070E  0BF9               	decfsz	??___flmul,f
  4502  070F  2F09               	goto	u2235
  4503  0710                     l2065:
  4504  0710  1FAC               	btfss	___flmul@grs+3,7
  4505  0711  2F13               	goto	u2241
  4506  0712  2F14               	goto	u2240
  4507  0713                     u2241:
  4508  0713  2F15               	goto	l2069
  4509  0714                     u2240:
  4510  0714                     l2067:
  4511  0714  142F               	bsf	___flmul@prod,0
  4512  0715                     l2069:
  4513  0715  3001               	movlw	1
  4514  0716  00F9               	movwf	??___flmul
  4515  0717                     u2255:
  4516  0717  1003               	clrc
  4517  0718  0DA9               	rlf	___flmul@grs,f
  4518  0719  0DAA               	rlf	___flmul@grs+1,f
  4519  071A  0DAB               	rlf	___flmul@grs+2,f
  4520  071B  0DAC               	rlf	___flmul@grs+3,f
  4521  071C  0BF9               	decfsz	??___flmul,f
  4522  071D  2F17               	goto	u2255
  4523  071E                     l2071:
  4524  071E  30FF               	movlw	255
  4525  071F  07B3               	addwf	___flmul@temp,f
  4526  0720  1803               	skipnc
  4527  0721  0AB4               	incf	___flmul@temp+1,f
  4528  0722  30FF               	movlw	255
  4529  0723  07B4               	addwf	___flmul@temp+1,f
  4530  0724                     l2073:
  4531  0724  1FB1               	btfss	___flmul@prod+2,7
  4532  0725  2F27               	goto	u2261
  4533  0726  2F28               	goto	u2260
  4534  0727                     u2261:
  4535  0727  2F07               	goto	l2063
  4536  0728                     u2260:
  4537  0728                     l2075:
  4538  0728  01AD               	clrf	___flmul@aexp
  4539  0729                     l2077:
  4540  0729  1FAC               	btfss	___flmul@grs+3,7
  4541  072A  2F2C               	goto	u2271
  4542  072B  2F2D               	goto	u2270
  4543  072C                     u2271:
  4544  072C  2F49               	goto	l2085
  4545  072D                     u2270:
  4546  072D                     l2079:
  4547  072D  30FF               	movlw	255
  4548  072E  0529               	andwf	___flmul@grs,w
  4549  072F  00F9               	movwf	??___flmul
  4550  0730  30FF               	movlw	255
  4551  0731  052A               	andwf	___flmul@grs+1,w
  4552  0732  00FA               	movwf	??___flmul+1
  4553  0733  30FF               	movlw	255
  4554  0734  052B               	andwf	___flmul@grs+2,w
  4555  0735  00FB               	movwf	??___flmul+2
  4556  0736  307F               	movlw	127
  4557  0737  052C               	andwf	___flmul@grs+3,w
  4558  0738  00FC               	movwf	??___flmul+3
  4559  0739  087C               	movf	??___flmul+3,w
  4560  073A  047B               	iorwf	??___flmul+2,w
  4561  073B  047A               	iorwf	??___flmul+1,w
  4562  073C  0479               	iorwf	??___flmul,w
  4563  073D  1903               	skipnz
  4564  073E  2F40               	goto	u2281
  4565  073F  2F41               	goto	u2280
  4566  0740                     u2281:
  4567  0740  2F44               	goto	l685
  4568  0741                     u2280:
  4569  0741                     l2081:
  4570  0741  01AD               	clrf	___flmul@aexp
  4571  0742  0AAD               	incf	___flmul@aexp,f
  4572  0743  2F49               	goto	l2085
  4573  0744                     l685:
  4574  0744  1C2F               	btfss	___flmul@prod,0
  4575  0745  2F47               	goto	u2291
  4576  0746  2F48               	goto	u2290
  4577  0747                     u2291:
  4578  0747  2F49               	goto	l2085
  4579  0748                     u2290:
  4580  0748  2F41               	goto	l2081
  4581  0749                     l2085:
  4582  0749  082D               	movf	___flmul@aexp,w
  4583  074A  1903               	btfsc	3,2
  4584  074B  2F4D               	goto	u2301
  4585  074C  2F4E               	goto	u2300
  4586  074D                     u2301:
  4587  074D  2F7F               	goto	l2095
  4588  074E                     u2300:
  4589  074E                     l2087:
  4590  074E  3001               	movlw	1
  4591  074F  07AF               	addwf	___flmul@prod,f
  4592  0750  3000               	movlw	0
  4593  0751  1803               	skipnc
  4594  0752  3001               	movlw	1
  4595  0753  07B0               	addwf	___flmul@prod+1,f
  4596  0754  3000               	movlw	0
  4597  0755  1803               	skipnc
  4598  0756  3001               	movlw	1
  4599  0757  07B1               	addwf	___flmul@prod+2,f
  4600  0758  3000               	movlw	0
  4601  0759  1803               	skipnc
  4602  075A  3001               	movlw	1
  4603  075B  07B2               	addwf	___flmul@prod+3,f
  4604  075C                     l2089:
  4605  075C  1C32               	btfss	___flmul@prod+3,0
  4606  075D  2F5F               	goto	u2311
  4607  075E  2F60               	goto	u2310
  4608  075F                     u2311:
  4609  075F  2F7F               	goto	l2095
  4610  0760                     u2310:
  4611  0760                     l2091:
  4612  0760  082F               	movf	___flmul@prod,w
  4613  0761  00F9               	movwf	??___flmul
  4614  0762  0830               	movf	___flmul@prod+1,w
  4615  0763  00FA               	movwf	??___flmul+1
  4616  0764  0831               	movf	___flmul@prod+2,w
  4617  0765  00FB               	movwf	??___flmul+2
  4618  0766  0832               	movf	___flmul@prod+3,w
  4619  0767  00FC               	movwf	??___flmul+3
  4620  0768  3001               	movlw	1
  4621  0769  00FD               	movwf	??___flmul+4
  4622  076A                     u2325:
  4623  076A  0D7C               	rlf	??___flmul+3,w
  4624  076B  0CFC               	rrf	??___flmul+3,f
  4625  076C  0CFB               	rrf	??___flmul+2,f
  4626  076D  0CFA               	rrf	??___flmul+1,f
  4627  076E  0CF9               	rrf	??___flmul,f
  4628  076F                     u2320:
  4629  076F  0BFD               	decfsz	??___flmul+4,f
  4630  0770  2F6A               	goto	u2325
  4631  0771  087C               	movf	??___flmul+3,w
  4632  0772  00B2               	movwf	___flmul@prod+3
  4633  0773  087B               	movf	??___flmul+2,w
  4634  0774  00B1               	movwf	___flmul@prod+2
  4635  0775  087A               	movf	??___flmul+1,w
  4636  0776  00B0               	movwf	___flmul@prod+1
  4637  0777  0879               	movf	??___flmul,w
  4638  0778  00AF               	movwf	___flmul@prod
  4639  0779                     l2093:
  4640  0779  3001               	movlw	1
  4641  077A  07B3               	addwf	___flmul@temp,f
  4642  077B  1803               	skipnc
  4643  077C  0AB4               	incf	___flmul@temp+1,f
  4644  077D  3000               	movlw	0
  4645  077E  07B4               	addwf	___flmul@temp+1,f
  4646  077F                     l2095:
  4647  077F  0834               	movf	___flmul@temp+1,w
  4648  0780  3A80               	xorlw	128
  4649  0781  00FF               	movwf	btemp+1
  4650  0782  3080               	movlw	128
  4651  0783  027F               	subwf	btemp+1,w
  4652  0784  1D03               	skipz
  4653  0785  2F88               	goto	u2335
  4654  0786  30FF               	movlw	255
  4655  0787  0233               	subwf	___flmul@temp,w
  4656  0788                     u2335:
  4657  0788  1C03               	skipc
  4658  0789  2F8B               	goto	u2331
  4659  078A  2F8C               	goto	u2330
  4660  078B                     u2331:
  4661  078B  2F97               	goto	l2099
  4662  078C                     u2330:
  4663  078C                     l2097:
  4664  078C  307F               	movlw	127
  4665  078D  1283               	bcf	3,5	;RP0=0, select bank0
  4666  078E  1303               	bcf	3,6	;RP1=0, select bank0
  4667  078F  00B2               	movwf	___flmul@prod+3
  4668  0790  3080               	movlw	128
  4669  0791  00B1               	movwf	___flmul@prod+2
  4670  0792  3000               	movlw	0
  4671  0793  00B0               	movwf	___flmul@prod+1
  4672  0794  3000               	movlw	0
  4673  0795  00AF               	movwf	___flmul@prod
  4674  0796  2FCC               	goto	l691
  4675  0797                     l2099:
  4676  0797  1283               	bcf	3,5	;RP0=0, select bank0
  4677  0798  1303               	bcf	3,6	;RP1=0, select bank0
  4678  0799  0834               	movf	___flmul@temp+1,w
  4679  079A  3A80               	xorlw	128
  4680  079B  00FF               	movwf	btemp+1
  4681  079C  3080               	movlw	128
  4682  079D  027F               	subwf	btemp+1,w
  4683  079E  1D03               	skipz
  4684  079F  2FA2               	goto	u2345
  4685  07A0  3001               	movlw	1
  4686  07A1  0233               	subwf	___flmul@temp,w
  4687  07A2                     u2345:
  4688  07A2  1803               	skipnc
  4689  07A3  2FA5               	goto	u2341
  4690  07A4  2FA6               	goto	u2340
  4691  07A5                     u2341:
  4692  07A5  2FB2               	goto	l2105
  4693  07A6                     u2340:
  4694  07A6                     l2101:
  4695  07A6  3000               	movlw	0
  4696  07A7  1283               	bcf	3,5	;RP0=0, select bank0
  4697  07A8  1303               	bcf	3,6	;RP1=0, select bank0
  4698  07A9  00B2               	movwf	___flmul@prod+3
  4699  07AA  3000               	movlw	0
  4700  07AB  00B1               	movwf	___flmul@prod+2
  4701  07AC  3000               	movlw	0
  4702  07AD  00B0               	movwf	___flmul@prod+1
  4703  07AE  3000               	movlw	0
  4704  07AF  00AF               	movwf	___flmul@prod
  4705  07B0                     l2103:
  4706  07B0  01A8               	clrf	___flmul@sign
  4707  07B1  2FCC               	goto	l691
  4708  07B2                     l2105:
  4709  07B2  1283               	bcf	3,5	;RP0=0, select bank0
  4710  07B3  1303               	bcf	3,6	;RP1=0, select bank0
  4711  07B4  0833               	movf	___flmul@temp,w
  4712  07B5  00F9               	movwf	??___flmul
  4713  07B6  0879               	movf	??___flmul,w
  4714  07B7  00AE               	movwf	___flmul@bexp
  4715  07B8  30FF               	movlw	255
  4716  07B9  05AF               	andwf	___flmul@prod,f
  4717  07BA  30FF               	movlw	255
  4718  07BB  05B0               	andwf	___flmul@prod+1,f
  4719  07BC  307F               	movlw	127
  4720  07BD  05B1               	andwf	___flmul@prod+2,f
  4721  07BE  3000               	movlw	0
  4722  07BF  05B2               	andwf	___flmul@prod+3,f
  4723  07C0                     l2107:
  4724  07C0  1C2E               	btfss	___flmul@bexp,0
  4725  07C1  2FC3               	goto	u2351
  4726  07C2  2FC4               	goto	u2350
  4727  07C3                     u2351:
  4728  07C3  2FC5               	goto	l2111
  4729  07C4                     u2350:
  4730  07C4                     l2109:
  4731  07C4  17B1               	bsf	___flmul@prod+2,7
  4732  07C5                     l2111:
  4733  07C5  082E               	movf	___flmul@bexp,w
  4734  07C6  00F9               	movwf	??___flmul
  4735  07C7  1003               	clrc
  4736  07C8  0C79               	rrf	??___flmul,w
  4737  07C9  00FA               	movwf	??___flmul+1
  4738  07CA  087A               	movf	??___flmul+1,w
  4739  07CB  00B2               	movwf	___flmul@prod+3
  4740  07CC                     l691:
  4741  07CC  0828               	movf	___flmul@sign,w
  4742  07CD  00F9               	movwf	??___flmul
  4743  07CE  0879               	movf	??___flmul,w
  4744  07CF  04B2               	iorwf	___flmul@prod+3,f
  4745  07D0                     l2113:
  4746  07D0  0832               	movf	___flmul@prod+3,w
  4747  07D1  00A3               	movwf	?___flmul+3
  4748  07D2  0831               	movf	___flmul@prod+2,w
  4749  07D3  00A2               	movwf	?___flmul+2
  4750  07D4  0830               	movf	___flmul@prod+1,w
  4751  07D5  00A1               	movwf	?___flmul+1
  4752  07D6  082F               	movf	___flmul@prod,w
  4753  07D7  00A0               	movwf	?___flmul
  4754  07D8                     l679:
  4755  07D8  0008               	return
  4756  07D9                     __end_of___flmul:
  4757                           
  4758                           	psect	text7
  4759  09FA                     __ptext7:	
  4760 ;; *************** function __Umul8_16 *****************
  4761 ;; Defined at:
  4762 ;;		line 4 in file "C:\Program Files\Microchip\xc8\v2.32\pic\sources\c90\common\Umul8_16.c"
  4763 ;; Parameters:    Size  Location     Type
  4764 ;;  multiplier      1    wreg     unsigned char 
  4765 ;;  multiplicand    1    0[COMMON] unsigned char 
  4766 ;; Auto vars:     Size  Location     Type
  4767 ;;  multiplier      1    8[COMMON] unsigned char 
  4768 ;;  word_mpld       2    6[COMMON] unsigned int 
  4769 ;;  product         2    4[COMMON] unsigned int 
  4770 ;; Return value:  Size  Location     Type
  4771 ;;                  2    0[COMMON] unsigned int 
  4772 ;; Registers used:
  4773 ;;		wreg, status,2, status,0
  4774 ;; Tracked objects:
  4775 ;;		On entry : 0/0
  4776 ;;		On exit  : 0/0
  4777 ;;		Unchanged: 0/0
  4778 ;; Data sizes:     COMMON   BANK0   BANK1   BANK3   BANK2
  4779 ;;      Params:         2       0       0       0       0
  4780 ;;      Locals:         5       0       0       0       0
  4781 ;;      Temps:          2       0       0       0       0
  4782 ;;      Totals:         9       0       0       0       0
  4783 ;;Total ram usage:        9 bytes
  4784 ;; Hardware stack levels used: 1
  4785 ;; This function calls:
  4786 ;;		Nothing
  4787 ;; This function is called by:
  4788 ;;		___flmul
  4789 ;; This function uses a non-reentrant model
  4790 ;;
  4791                           
  4792                           
  4793                           ;psect for function __Umul8_16
  4794  09FA                     __Umul8_16:
  4795                           
  4796                           ;incstack = 0
  4797                           ; Regs used in __Umul8_16: [wreg+status,2+status,0]
  4798                           ;__Umul8_16@multiplier stored from wreg
  4799  09FA  00F8               	movwf	__Umul8_16@multiplier
  4800  09FB                     l1927:
  4801  09FB  01F4               	clrf	__Umul8_16@product
  4802  09FC  01F5               	clrf	__Umul8_16@product+1
  4803  09FD                     l1929:
  4804  09FD  0870               	movf	__Umul8_16@multiplicand,w
  4805  09FE  00F2               	movwf	??__Umul8_16
  4806  09FF  01F3               	clrf	??__Umul8_16+1
  4807  0A00  0872               	movf	??__Umul8_16,w
  4808  0A01  00F6               	movwf	__Umul8_16@word_mpld
  4809  0A02  0873               	movf	??__Umul8_16+1,w
  4810  0A03  00F7               	movwf	__Umul8_16@word_mpld+1
  4811  0A04                     l1931:
  4812  0A04  1C78               	btfss	__Umul8_16@multiplier,0
  4813  0A05  2A07               	goto	u1881
  4814  0A06  2A08               	goto	u1880
  4815  0A07                     u1881:
  4816  0A07  2A0E               	goto	l698
  4817  0A08                     u1880:
  4818  0A08                     l1933:
  4819  0A08  0876               	movf	__Umul8_16@word_mpld,w
  4820  0A09  07F4               	addwf	__Umul8_16@product,f
  4821  0A0A  1803               	skipnc
  4822  0A0B  0AF5               	incf	__Umul8_16@product+1,f
  4823  0A0C  0877               	movf	__Umul8_16@word_mpld+1,w
  4824  0A0D  07F5               	addwf	__Umul8_16@product+1,f
  4825  0A0E                     l698:
  4826  0A0E  3001               	movlw	1
  4827  0A0F                     u1895:
  4828  0A0F  1003               	clrc
  4829  0A10  0DF6               	rlf	__Umul8_16@word_mpld,f
  4830  0A11  0DF7               	rlf	__Umul8_16@word_mpld+1,f
  4831  0A12  3EFF               	addlw	-1
  4832  0A13  1D03               	skipz
  4833  0A14  2A0F               	goto	u1895
  4834  0A15  1003               	clrc
  4835  0A16  0CF8               	rrf	__Umul8_16@multiplier,f
  4836  0A17                     l1935:
  4837  0A17  0878               	movf	__Umul8_16@multiplier,w
  4838  0A18  1D03               	btfss	3,2
  4839  0A19  2A1B               	goto	u1901
  4840  0A1A  2A1C               	goto	u1900
  4841  0A1B                     u1901:
  4842  0A1B  2A04               	goto	l1931
  4843  0A1C                     u1900:
  4844  0A1C                     l1937:
  4845  0A1C  0875               	movf	__Umul8_16@product+1,w
  4846  0A1D  00F1               	movwf	?__Umul8_16+1
  4847  0A1E  0874               	movf	__Umul8_16@product,w
  4848  0A1F  00F0               	movwf	?__Umul8_16
  4849  0A20                     l700:
  4850  0A20  0008               	return
  4851  0A21                     __end_of__Umul8_16:
  4852                           
  4853                           	psect	text8
  4854  00BF                     __ptext8:	
  4855 ;; *************** function ___flge *****************
  4856 ;; Defined at:
  4857 ;;		line 4 in file "C:\Program Files\Microchip\xc8\v2.32\pic\sources\c90\common\flge.c"
  4858 ;; Parameters:    Size  Location     Type
  4859 ;;  ff1             4    0[COMMON] unsigned int 
  4860 ;;  ff2             4    4[COMMON] unsigned int 
  4861 ;; Auto vars:     Size  Location     Type
  4862 ;;		None
  4863 ;; Return value:  Size  Location     Type
  4864 ;;		None               void
  4865 ;; Registers used:
  4866 ;;		wreg, status,2, status,0
  4867 ;; Tracked objects:
  4868 ;;		On entry : 0/0
  4869 ;;		On exit  : 0/0
  4870 ;;		Unchanged: 0/0
  4871 ;; Data sizes:     COMMON   BANK0   BANK1   BANK3   BANK2
  4872 ;;      Params:         8       0       0       0       0
  4873 ;;      Locals:         0       0       0       0       0
  4874 ;;      Temps:          4       0       0       0       0
  4875 ;;      Totals:        12       0       0       0       0
  4876 ;;Total ram usage:       12 bytes
  4877 ;; Hardware stack levels used: 1
  4878 ;; This function calls:
  4879 ;;		Nothing
  4880 ;; This function is called by:
  4881 ;;		_liga_buzzer
  4882 ;; This function uses a non-reentrant model
  4883 ;;
  4884                           
  4885                           
  4886                           ;psect for function ___flge
  4887  00BF                     ___flge:
  4888  00BF                     l1951:	
  4889                           ;incstack = 0
  4890                           ; Regs used in ___flge: [wreg+status,2+status,0]
  4891                           
  4892  00BF  3000               	movlw	0
  4893  00C0  0570               	andwf	___flge@ff1,w
  4894  00C1  00F8               	movwf	??___flge
  4895  00C2  3000               	movlw	0
  4896  00C3  0571               	andwf	___flge@ff1+1,w
  4897  00C4  00F9               	movwf	??___flge+1
  4898  00C5  3080               	movlw	128
  4899  00C6  0572               	andwf	___flge@ff1+2,w
  4900  00C7  00FA               	movwf	??___flge+2
  4901  00C8  307F               	movlw	127
  4902  00C9  0573               	andwf	___flge@ff1+3,w
  4903  00CA  00FB               	movwf	??___flge+3
  4904  00CB  087B               	movf	??___flge+3,w
  4905  00CC  047A               	iorwf	??___flge+2,w
  4906  00CD  0479               	iorwf	??___flge+1,w
  4907  00CE  0478               	iorwf	??___flge,w
  4908  00CF  1D03               	skipz
  4909  00D0  28D2               	goto	u1921
  4910  00D1  28D3               	goto	u1920
  4911  00D2                     u1921:
  4912  00D2  28DB               	goto	l464
  4913  00D3                     u1920:
  4914  00D3                     l1953:
  4915  00D3  3000               	movlw	0
  4916  00D4  00F3               	movwf	___flge@ff1+3
  4917  00D5  3000               	movlw	0
  4918  00D6  00F2               	movwf	___flge@ff1+2
  4919  00D7  3000               	movlw	0
  4920  00D8  00F1               	movwf	___flge@ff1+1
  4921  00D9  3000               	movlw	0
  4922  00DA  00F0               	movwf	___flge@ff1
  4923  00DB                     l464:
  4924  00DB  3000               	movlw	0
  4925  00DC  0574               	andwf	___flge@ff2,w
  4926  00DD  00F8               	movwf	??___flge
  4927  00DE  3000               	movlw	0
  4928  00DF  0575               	andwf	___flge@ff2+1,w
  4929  00E0  00F9               	movwf	??___flge+1
  4930  00E1  3080               	movlw	128
  4931  00E2  0576               	andwf	___flge@ff2+2,w
  4932  00E3  00FA               	movwf	??___flge+2
  4933  00E4  307F               	movlw	127
  4934  00E5  0577               	andwf	___flge@ff2+3,w
  4935  00E6  00FB               	movwf	??___flge+3
  4936  00E7  087B               	movf	??___flge+3,w
  4937  00E8  047A               	iorwf	??___flge+2,w
  4938  00E9  0479               	iorwf	??___flge+1,w
  4939  00EA  0478               	iorwf	??___flge,w
  4940  00EB  1D03               	skipz
  4941  00EC  28EE               	goto	u1931
  4942  00ED  28EF               	goto	u1930
  4943  00EE                     u1931:
  4944  00EE  28F7               	goto	l1957
  4945  00EF                     u1930:
  4946  00EF                     l1955:
  4947  00EF  3000               	movlw	0
  4948  00F0  00F7               	movwf	___flge@ff2+3
  4949  00F1  3000               	movlw	0
  4950  00F2  00F6               	movwf	___flge@ff2+2
  4951  00F3  3000               	movlw	0
  4952  00F4  00F5               	movwf	___flge@ff2+1
  4953  00F5  3000               	movlw	0
  4954  00F6  00F4               	movwf	___flge@ff2
  4955  00F7                     l1957:
  4956  00F7  1FF3               	btfss	___flge@ff1+3,7
  4957  00F8  28FA               	goto	u1941
  4958  00F9  28FB               	goto	u1940
  4959  00FA                     u1941:
  4960  00FA  291F               	goto	l1961
  4961  00FB                     u1940:
  4962  00FB                     l1959:
  4963  00FB  3000               	movlw	0
  4964  00FC  00F8               	movwf	??___flge
  4965  00FD  3000               	movlw	0
  4966  00FE  00F9               	movwf	??___flge+1
  4967  00FF  3000               	movlw	0
  4968  0100  00FA               	movwf	??___flge+2
  4969  0101  3080               	movlw	128
  4970  0102  00FB               	movwf	??___flge+3
  4971  0103  0870               	movf	___flge@ff1,w
  4972  0104  02F8               	subwf	??___flge,f
  4973  0105  0871               	movf	___flge@ff1+1,w
  4974  0106  1C03               	skipc
  4975  0107  0F71               	incfsz	___flge@ff1+1,w
  4976  0108  290A               	goto	u1951
  4977  0109  290B               	goto	u1952
  4978  010A                     u1951:
  4979  010A  02F9               	subwf	??___flge+1,f
  4980  010B                     u1952:
  4981  010B  0872               	movf	___flge@ff1+2,w
  4982  010C  1C03               	skipc
  4983  010D  0F72               	incfsz	___flge@ff1+2,w
  4984  010E  2910               	goto	u1953
  4985  010F  2911               	goto	u1954
  4986  0110                     u1953:
  4987  0110  02FA               	subwf	??___flge+2,f
  4988  0111                     u1954:
  4989  0111  0873               	movf	___flge@ff1+3,w
  4990  0112  1C03               	skipc
  4991  0113  0F73               	incfsz	___flge@ff1+3,w
  4992  0114  2916               	goto	u1955
  4993  0115  2917               	goto	u1956
  4994  0116                     u1955:
  4995  0116  02FB               	subwf	??___flge+3,f
  4996  0117                     u1956:
  4997  0117  087B               	movf	??___flge+3,w
  4998  0118  00F3               	movwf	___flge@ff1+3
  4999  0119  087A               	movf	??___flge+2,w
  5000  011A  00F2               	movwf	___flge@ff1+2
  5001  011B  0879               	movf	??___flge+1,w
  5002  011C  00F1               	movwf	___flge@ff1+1
  5003  011D  0878               	movf	??___flge,w
  5004  011E  00F0               	movwf	___flge@ff1
  5005  011F                     l1961:
  5006  011F  1FF7               	btfss	___flge@ff2+3,7
  5007  0120  2922               	goto	u1961
  5008  0121  2923               	goto	u1960
  5009  0122                     u1961:
  5010  0122  2947               	goto	l467
  5011  0123                     u1960:
  5012  0123                     l1963:
  5013  0123  3000               	movlw	0
  5014  0124  00F8               	movwf	??___flge
  5015  0125  3000               	movlw	0
  5016  0126  00F9               	movwf	??___flge+1
  5017  0127  3000               	movlw	0
  5018  0128  00FA               	movwf	??___flge+2
  5019  0129  3080               	movlw	128
  5020  012A  00FB               	movwf	??___flge+3
  5021  012B  0874               	movf	___flge@ff2,w
  5022  012C  02F8               	subwf	??___flge,f
  5023  012D  0875               	movf	___flge@ff2+1,w
  5024  012E  1C03               	skipc
  5025  012F  0F75               	incfsz	___flge@ff2+1,w
  5026  0130  2932               	goto	u1971
  5027  0131  2933               	goto	u1972
  5028  0132                     u1971:
  5029  0132  02F9               	subwf	??___flge+1,f
  5030  0133                     u1972:
  5031  0133  0876               	movf	___flge@ff2+2,w
  5032  0134  1C03               	skipc
  5033  0135  0F76               	incfsz	___flge@ff2+2,w
  5034  0136  2938               	goto	u1973
  5035  0137  2939               	goto	u1974
  5036  0138                     u1973:
  5037  0138  02FA               	subwf	??___flge+2,f
  5038  0139                     u1974:
  5039  0139  0877               	movf	___flge@ff2+3,w
  5040  013A  1C03               	skipc
  5041  013B  0F77               	incfsz	___flge@ff2+3,w
  5042  013C  293E               	goto	u1975
  5043  013D  293F               	goto	u1976
  5044  013E                     u1975:
  5045  013E  02FB               	subwf	??___flge+3,f
  5046  013F                     u1976:
  5047  013F  087B               	movf	??___flge+3,w
  5048  0140  00F7               	movwf	___flge@ff2+3
  5049  0141  087A               	movf	??___flge+2,w
  5050  0142  00F6               	movwf	___flge@ff2+2
  5051  0143  0879               	movf	??___flge+1,w
  5052  0144  00F5               	movwf	___flge@ff2+1
  5053  0145  0878               	movf	??___flge,w
  5054  0146  00F4               	movwf	___flge@ff2
  5055  0147                     l467:
  5056  0147  3080               	movlw	128
  5057  0148  06F3               	xorwf	___flge@ff1+3,f
  5058  0149  3080               	movlw	128
  5059  014A  06F7               	xorwf	___flge@ff2+3,f
  5060  014B  0877               	movf	___flge@ff2+3,w
  5061  014C  0273               	subwf	___flge@ff1+3,w
  5062  014D  1D03               	skipz
  5063  014E  2959               	goto	u1985
  5064  014F  0876               	movf	___flge@ff2+2,w
  5065  0150  0272               	subwf	___flge@ff1+2,w
  5066  0151  1D03               	skipz
  5067  0152  2959               	goto	u1985
  5068  0153  0875               	movf	___flge@ff2+1,w
  5069  0154  0271               	subwf	___flge@ff1+1,w
  5070  0155  1D03               	skipz
  5071  0156  2959               	goto	u1985
  5072  0157  0874               	movf	___flge@ff2,w
  5073  0158  0270               	subwf	___flge@ff1,w
  5074  0159                     u1985:
  5075  0159  1803               	skipnc
  5076  015A  295C               	goto	u1981
  5077  015B  295D               	goto	u1980
  5078  015C                     u1981:
  5079  015C  295F               	goto	l1967
  5080  015D                     u1980:
  5081  015D                     l1965:
  5082  015D  1003               	clrc
  5083  015E  2960               	goto	l468
  5084  015F                     l1967:
  5085  015F  1403               	setc
  5086  0160                     l468:
  5087  0160  0008               	return
  5088  0161                     __end_of___flge:
  5089                           
  5090                           	psect	text9
  5091  09B8                     __ptext9:	
  5092 ;; *************** function _strcpy *****************
  5093 ;; Defined at:
  5094 ;;		line 8 in file "C:\Program Files\Microchip\xc8\v2.32\pic\sources\c90\common\strcpy.c"
  5095 ;; Parameters:    Size  Location     Type
  5096 ;;  to              1    wreg     PTR unsigned char 
  5097 ;;		 -> senhaUserConfere(5), 
  5098 ;;  from            1    0[COMMON] PTR const unsigned char 
  5099 ;;		 -> senhaUserConfere(5), 
  5100 ;; Auto vars:     Size  Location     Type
  5101 ;;  to              1    3[COMMON] PTR unsigned char 
  5102 ;;		 -> senhaUserConfere(5), 
  5103 ;;  cp              1    2[COMMON] PTR unsigned char 
  5104 ;;		 -> senhaUserConfere(5), 
  5105 ;; Return value:  Size  Location     Type
  5106 ;;                  1    wreg      PTR unsigned char 
  5107 ;; Registers used:
  5108 ;;		wreg, fsr0l, fsr0h, status,2, status,0
  5109 ;; Tracked objects:
  5110 ;;		On entry : 0/0
  5111 ;;		On exit  : 0/0
  5112 ;;		Unchanged: 0/0
  5113 ;; Data sizes:     COMMON   BANK0   BANK1   BANK3   BANK2
  5114 ;;      Params:         1       0       0       0       0
  5115 ;;      Locals:         2       0       0       0       0
  5116 ;;      Temps:          1       0       0       0       0
  5117 ;;      Totals:         4       0       0       0       0
  5118 ;;Total ram usage:        4 bytes
  5119 ;; Hardware stack levels used: 1
  5120 ;; This function calls:
  5121 ;;		Nothing
  5122 ;; This function is called by:
  5123 ;;		_validaUser
  5124 ;; This function uses a non-reentrant model
  5125 ;;
  5126                           
  5127                           
  5128                           ;psect for function _strcpy
  5129  09B8                     _strcpy:
  5130                           
  5131                           ;incstack = 0
  5132                           ; Regs used in _strcpy: [wreg-fsr0h+status,2+status,0]
  5133                           ;strcpy@to stored from wreg
  5134  09B8  00F3               	movwf	strcpy@to
  5135  09B9                     l2383:
  5136  09B9  0873               	movf	strcpy@to,w
  5137  09BA  00F1               	movwf	??_strcpy
  5138  09BB  0871               	movf	??_strcpy,w
  5139  09BC  00F2               	movwf	strcpy@cp
  5140  09BD  29C6               	goto	l2387
  5141  09BE                     l2385:
  5142  09BE  3001               	movlw	1
  5143  09BF  00F1               	movwf	??_strcpy
  5144  09C0  0871               	movf	??_strcpy,w
  5145  09C1  07F2               	addwf	strcpy@cp,f
  5146  09C2  3001               	movlw	1
  5147  09C3  00F1               	movwf	??_strcpy
  5148  09C4  0871               	movf	??_strcpy,w
  5149  09C5  07F0               	addwf	strcpy@from,f
  5150  09C6                     l2387:
  5151  09C6  0870               	movf	strcpy@from,w
  5152  09C7  0084               	movwf	4
  5153  09C8  1383               	bcf	3,7	;select IRP bank0
  5154  09C9  0800               	movf	0,w
  5155  09CA  00F1               	movwf	??_strcpy
  5156  09CB  0872               	movf	strcpy@cp,w
  5157  09CC  0084               	movwf	4
  5158  09CD  0871               	movf	??_strcpy,w
  5159  09CE  0080               	movwf	0
  5160  09CF  0800               	movf	0,w
  5161  09D0  1D03               	btfss	3,2
  5162  09D1  29D3               	goto	u2641
  5163  09D2  29D4               	goto	u2640
  5164  09D3                     u2641:
  5165  09D3  29BE               	goto	l2385
  5166  09D4                     u2640:
  5167  09D4                     l2389:
  5168  09D4  0873               	movf	strcpy@to,w
  5169  09D5                     l761:
  5170  09D5  0008               	return
  5171  09D6                     __end_of_strcpy:
  5172                           
  5173                           	psect	text10
  5174  0A4B                     __ptext10:	
  5175 ;; *************** function _strcmp *****************
  5176 ;; Defined at:
  5177 ;;		line 33 in file "C:\Program Files\Microchip\xc8\v2.32\pic\sources\c90\common\strcmp.c"
  5178 ;; Parameters:    Size  Location     Type
  5179 ;;  s1              1    wreg     PTR const unsigned char 
  5180 ;;		 -> senhaUser(5), 
  5181 ;;  s2              1    0[COMMON] PTR const unsigned char 
  5182 ;;		 -> senhaUserConfere(5), 
  5183 ;; Auto vars:     Size  Location     Type
  5184 ;;  s1              1    6[COMMON] PTR const unsigned char 
  5185 ;;		 -> senhaUser(5), 
  5186 ;;  r               1    5[COMMON] char 
  5187 ;; Return value:  Size  Location     Type
  5188 ;;                  2    0[COMMON] int 
  5189 ;; Registers used:
  5190 ;;		wreg, fsr0l, fsr0h, status,2, status,0
  5191 ;; Tracked objects:
  5192 ;;		On entry : 0/0
  5193 ;;		On exit  : 0/0
  5194 ;;		Unchanged: 0/0
  5195 ;; Data sizes:     COMMON   BANK0   BANK1   BANK3   BANK2
  5196 ;;      Params:         2       0       0       0       0
  5197 ;;      Locals:         2       0       0       0       0
  5198 ;;      Temps:          3       0       0       0       0
  5199 ;;      Totals:         7       0       0       0       0
  5200 ;;Total ram usage:        7 bytes
  5201 ;; Hardware stack levels used: 1
  5202 ;; This function calls:
  5203 ;;		Nothing
  5204 ;; This function is called by:
  5205 ;;		_validaUser
  5206 ;; This function uses a non-reentrant model
  5207 ;;
  5208                           
  5209                           
  5210                           ;psect for function _strcmp
  5211  0A4B                     _strcmp:
  5212                           
  5213                           ;incstack = 0
  5214                           ; Regs used in _strcmp: [wreg-fsr0h+status,2+status,0]
  5215                           ;strcmp@s1 stored from wreg
  5216  0A4B  00F6               	movwf	strcmp@s1
  5217  0A4C                     l2403:
  5218  0A4C  2A55               	goto	l2409
  5219  0A4D                     l2405:
  5220  0A4D  3001               	movlw	1
  5221  0A4E  00F2               	movwf	??_strcmp
  5222  0A4F  0872               	movf	??_strcmp,w
  5223  0A50  07F6               	addwf	strcmp@s1,f
  5224  0A51                     l2407:
  5225  0A51  3001               	movlw	1
  5226  0A52  00F2               	movwf	??_strcmp
  5227  0A53  0872               	movf	??_strcmp,w
  5228  0A54  07F0               	addwf	strcmp@s2,f
  5229  0A55                     l2409:
  5230  0A55  0870               	movf	strcmp@s2,w
  5231  0A56  0084               	movwf	4
  5232  0A57  1383               	bcf	3,7	;select IRP bank0
  5233  0A58  0800               	movf	0,w
  5234  0A59  00F2               	movwf	??_strcmp
  5235  0A5A  0876               	movf	strcmp@s1,w
  5236  0A5B  0084               	movwf	4
  5237  0A5C  0800               	movf	0,w
  5238  0A5D  00F3               	movwf	??_strcmp+1
  5239  0A5E  0872               	movf	??_strcmp,w
  5240  0A5F  0273               	subwf	??_strcmp+1,w
  5241  0A60  00F4               	movwf	??_strcmp+2
  5242  0A61  0874               	movf	??_strcmp+2,w
  5243  0A62  00F5               	movwf	strcmp@r
  5244  0A63  0875               	movf	strcmp@r,w
  5245  0A64  1D03               	btfss	3,2
  5246  0A65  2A67               	goto	u2671
  5247  0A66  2A68               	goto	u2670
  5248  0A67                     u2671:
  5249  0A67  2A6F               	goto	l2413
  5250  0A68                     u2670:
  5251  0A68                     l2411:
  5252  0A68  0876               	movf	strcmp@s1,w
  5253  0A69  0084               	movwf	4
  5254  0A6A  0800               	movf	0,w
  5255  0A6B  1D03               	btfss	3,2
  5256  0A6C  2A6E               	goto	u2681
  5257  0A6D  2A6F               	goto	u2680
  5258  0A6E                     u2681:
  5259  0A6E  2A4D               	goto	l2405
  5260  0A6F                     u2680:
  5261  0A6F                     l2413:
  5262  0A6F  0875               	movf	strcmp@r,w
  5263  0A70  00F0               	movwf	?_strcmp
  5264  0A71  01F1               	clrf	?_strcmp+1
  5265  0A72  1BF0               	btfsc	?_strcmp,7
  5266  0A73  03F1               	decf	?_strcmp+1,f
  5267  0A74                     l755:
  5268  0A74  0008               	return
  5269  0A75                     __end_of_strcmp:
  5270                           
  5271                           	psect	text11
  5272  0A75                     __ptext11:	
  5273 ;; *************** function _strcat *****************
  5274 ;; Defined at:
  5275 ;;		line 8 in file "C:\Program Files\Microchip\xc8\v2.32\pic\sources\c90\common\strcat.c"
  5276 ;; Parameters:    Size  Location     Type
  5277 ;;  to              1    wreg     PTR unsigned char 
  5278 ;;		 -> senhaUserConfere(5), 
  5279 ;;  from            1    4[COMMON] PTR const unsigned char 
  5280 ;;		 -> NULL(0), STR_10(2), STR_9(2), STR_8(2), 
  5281 ;;		 -> STR_7(2), STR_6(2), STR_5(2), STR_4(2), 
  5282 ;;		 -> STR_3(2), STR_2(2), STR_1(2), 
  5283 ;; Auto vars:     Size  Location     Type
  5284 ;;  to              1    6[COMMON] PTR unsigned char 
  5285 ;;		 -> senhaUserConfere(5), 
  5286 ;;  cp              1    7[COMMON] PTR unsigned char 
  5287 ;;		 -> senhaUserConfere(5), 
  5288 ;; Return value:  Size  Location     Type
  5289 ;;                  1    wreg      PTR unsigned char 
  5290 ;; Registers used:
  5291 ;;		wreg, fsr0l, fsr0h, status,2, status,0, pclath
  5292 ;; Tracked objects:
  5293 ;;		On entry : 0/0
  5294 ;;		On exit  : 0/0
  5295 ;;		Unchanged: 0/0
  5296 ;; Data sizes:     COMMON   BANK0   BANK1   BANK3   BANK2
  5297 ;;      Params:         1       0       0       0       0
  5298 ;;      Locals:         2       0       0       0       0
  5299 ;;      Temps:          1       0       0       0       0
  5300 ;;      Totals:         4       0       0       0       0
  5301 ;;Total ram usage:        4 bytes
  5302 ;; Hardware stack levels used: 2
  5303 ;; This function calls:
  5304 ;;		Nothing
  5305 ;; This function is called by:
  5306 ;;		_validaUser
  5307 ;; This function uses a non-reentrant model
  5308 ;;
  5309                           
  5310                           
  5311                           ;psect for function _strcat
  5312  0A75                     _strcat:
  5313                           
  5314                           ;incstack = 0
  5315                           ; Regs used in _strcat: [wreg-fsr0h+status,2+status,0+pclath]
  5316                           ;strcat@to stored from wreg
  5317  0A75  00F6               	movwf	strcat@to
  5318  0A76                     l2393:
  5319  0A76  0876               	movf	strcat@to,w
  5320  0A77  00F5               	movwf	??_strcat
  5321  0A78  0875               	movf	??_strcat,w
  5322  0A79  00F7               	movwf	strcat@cp
  5323  0A7A  2A7F               	goto	l2397
  5324  0A7B                     l2395:
  5325  0A7B  3001               	movlw	1
  5326  0A7C  00F5               	movwf	??_strcat
  5327  0A7D  0875               	movf	??_strcat,w
  5328  0A7E  07F7               	addwf	strcat@cp,f
  5329  0A7F                     l2397:
  5330  0A7F  0877               	movf	strcat@cp,w
  5331  0A80  0084               	movwf	4
  5332  0A81  1383               	bcf	3,7	;select IRP bank0
  5333  0A82  0800               	movf	0,w
  5334  0A83  1D03               	btfss	3,2
  5335  0A84  2A86               	goto	u2651
  5336  0A85  2A87               	goto	u2650
  5337  0A86                     u2651:
  5338  0A86  2A7B               	goto	l2395
  5339  0A87                     u2650:
  5340  0A87  2A90               	goto	l2401
  5341  0A88                     l2399:
  5342  0A88  3001               	movlw	1
  5343  0A89  00F5               	movwf	??_strcat
  5344  0A8A  0875               	movf	??_strcat,w
  5345  0A8B  07F7               	addwf	strcat@cp,f
  5346  0A8C  3001               	movlw	1
  5347  0A8D  00F5               	movwf	??_strcat
  5348  0A8E  0875               	movf	??_strcat,w
  5349  0A8F  07F4               	addwf	strcat@from,f
  5350  0A90                     l2401:
  5351  0A90  0874               	movf	strcat@from,w
  5352  0A91  0084               	movwf	4
  5353  0A92  120A  158A  2000  120A  158A  	fcall	stringdir
  5354  0A97  00F5               	movwf	??_strcat
  5355  0A98  0877               	movf	strcat@cp,w
  5356  0A99  0084               	movwf	4
  5357  0A9A  0875               	movf	??_strcat,w
  5358  0A9B  0080               	movwf	0
  5359  0A9C  0800               	movf	0,w
  5360  0A9D  1D03               	btfss	3,2
  5361  0A9E  2AA0               	goto	u2661
  5362  0A9F  2AA1               	goto	u2660
  5363  0AA0                     u2661:
  5364  0AA0  2A88               	goto	l2399
  5365  0AA1                     u2660:
  5366  0AA1                     l747:
  5367  0AA1  0008               	return
  5368  0AA2                     __end_of_strcat:
  5369                           
  5370                           	psect	text12
  5371  0945                     __ptext12:	
  5372 ;; *************** function _LCD_limpa *****************
  5373 ;; Defined at:
  5374 ;;		line 56 in file "./lcd.h"
  5375 ;; Parameters:    Size  Location     Type
  5376 ;;		None
  5377 ;; Auto vars:     Size  Location     Type
  5378 ;;		None
  5379 ;; Return value:  Size  Location     Type
  5380 ;;                  1    wreg      void 
  5381 ;; Registers used:
  5382 ;;		wreg, status,2, status,0, btemp+1, pclath, cstack
  5383 ;; Tracked objects:
  5384 ;;		On entry : 0/0
  5385 ;;		On exit  : 0/0
  5386 ;;		Unchanged: 0/0
  5387 ;; Data sizes:     COMMON   BANK0   BANK1   BANK3   BANK2
  5388 ;;      Params:         0       0       0       0       0
  5389 ;;      Locals:         0       0       0       0       0
  5390 ;;      Temps:          0       0       0       0       0
  5391 ;;      Totals:         0       0       0       0       0
  5392 ;;Total ram usage:        0 bytes
  5393 ;; Hardware stack levels used: 1
  5394 ;; Hardware stack levels required when called: 1
  5395 ;; This function calls:
  5396 ;;		_delay
  5397 ;; This function is called by:
  5398 ;;		_main
  5399 ;;		_validaUser
  5400 ;; This function uses a non-reentrant model
  5401 ;;
  5402                           
  5403                           
  5404                           ;psect for function _LCD_limpa
  5405  0945                     _LCD_limpa:
  5406  0945                     l2169:	
  5407                           ;incstack = 0
  5408                           ; Regs used in _LCD_limpa: [wreg+status,2+status,0+btemp+1+pclath+cstack]
  5409                           
  5410                           
  5411                           ;./lcd.h: 57:     PORTD = 0x01;
  5412  0945  3001               	movlw	1
  5413  0946  1283               	bcf	3,5	;RP0=0, select bank0
  5414  0947  1303               	bcf	3,6	;RP1=0, select bank0
  5415  0948  0088               	movwf	8	;volatile
  5416  0949                     l2171:
  5417                           
  5418                           ;./lcd.h: 58:     RA5 = 0;
  5419  0949  1285               	bcf	5,5	;volatile
  5420  094A                     l2173:
  5421                           
  5422                           ;./lcd.h: 59:     RA4 = 0;
  5423  094A  1205               	bcf	5,4	;volatile
  5424  094B                     l2175:
  5425                           
  5426                           ;./lcd.h: 60:     RA3=0;
  5427  094B  1185               	bcf	5,3	;volatile
  5428  094C                     l2177:
  5429                           
  5430                           ;./lcd.h: 61:     delay();
  5431  094C  120A  158A  2189  120A  158A  	fcall	_delay
  5432  0951                     l2179:
  5433                           
  5434                           ;./lcd.h: 62:  RA3 = 1;
  5435  0951  1283               	bcf	3,5	;RP0=0, select bank0
  5436  0952  1303               	bcf	3,6	;RP1=0, select bank0
  5437  0953  1585               	bsf	5,3	;volatile
  5438  0954                     l66:
  5439  0954  0008               	return
  5440  0955                     __end_of_LCD_limpa:
  5441                           
  5442                           	psect	text13
  5443  0006                     __ptext13:	
  5444 ;; *************** function _telaInicial *****************
  5445 ;; Defined at:
  5446 ;;		line 319 in file "main.c"
  5447 ;; Parameters:    Size  Location     Type
  5448 ;;		None
  5449 ;; Auto vars:     Size  Location     Type
  5450 ;;  i               2    7[COMMON] int 
  5451 ;; Return value:  Size  Location     Type
  5452 ;;                  1    wreg      void 
  5453 ;; Registers used:
  5454 ;;		wreg, fsr0l, fsr0h, status,2, status,0, btemp+1, pclath, cstack
  5455 ;; Tracked objects:
  5456 ;;		On entry : 0/0
  5457 ;;		On exit  : 0/0
  5458 ;;		Unchanged: 0/0
  5459 ;; Data sizes:     COMMON   BANK0   BANK1   BANK3   BANK2
  5460 ;;      Params:         0       0       0       0       0
  5461 ;;      Locals:         2       0       0       0       0
  5462 ;;      Temps:          2       0       0       0       0
  5463 ;;      Totals:         4       0       0       0       0
  5464 ;;Total ram usage:        4 bytes
  5465 ;; Hardware stack levels used: 1
  5466 ;; Hardware stack levels required when called: 2
  5467 ;; This function calls:
  5468 ;;		_LCD_escreve
  5469 ;;		_LCD_linha1
  5470 ;;		_strlen
  5471 ;; This function is called by:
  5472 ;;		_main
  5473 ;; This function uses a non-reentrant model
  5474 ;;
  5475                           
  5476                           
  5477                           ;psect for function _telaInicial
  5478  0006                     _telaInicial:
  5479  0006                     l2439:	
  5480                           ;incstack = 0
  5481                           ; Regs used in _telaInicial: [wreg-fsr0h+status,2+status,0+btemp+1+pclath+cstack]
  5482                           
  5483                           
  5484                           ;main.c: 321:     LCD_linha1();
  5485  0006  120A  158A  2135  120A  118A  	fcall	_LCD_linha1
  5486                           
  5487                           ;main.c: 322:     LCD_escreve(' ');
  5488  000B  3020               	movlw	32
  5489  000C  120A  158A  2165  120A  118A  	fcall	_LCD_escreve
  5490  0011                     l2441:
  5491                           
  5492                           ;main.c: 323:     for (int i = 0; i <= strlen(msg)-1; i++){
  5493  0011  01F7               	clrf	telaInicial@i
  5494  0012  01F8               	clrf	telaInicial@i+1
  5495  0013  2824               	goto	l2447
  5496  0014                     l2443:
  5497                           
  5498                           ;main.c: 324:         LCD_escreve(msg[i]);
  5499  0014  0877               	movf	telaInicial@i,w
  5500  0015  3EA0               	addlw	(low (_msg| 0))& (0+255)
  5501  0016  0084               	movwf	4
  5502  0017  1383               	bcf	3,7	;select IRP bank1
  5503  0018  0800               	movf	0,w
  5504  0019  120A  158A  2165  120A  118A  	fcall	_LCD_escreve
  5505  001E                     l2445:
  5506                           
  5507                           ;main.c: 325:     }
  5508  001E  3001               	movlw	1
  5509  001F  07F7               	addwf	telaInicial@i,f
  5510  0020  1803               	skipnc
  5511  0021  0AF8               	incf	telaInicial@i+1,f
  5512  0022  3000               	movlw	0
  5513  0023  07F8               	addwf	telaInicial@i+1,f
  5514  0024                     l2447:
  5515  0024  30A0               	movlw	(low (_msg| 0))& (0+255)
  5516  0025  120A  158A  219F  120A  118A  	fcall	_strlen
  5517  002A  0870               	movf	?_strlen,w
  5518  002B  3EFF               	addlw	255
  5519  002C  00F5               	movwf	??_telaInicial
  5520  002D  0871               	movf	?_strlen+1,w
  5521  002E  1803               	skipnc
  5522  002F  3E01               	addlw	1
  5523  0030  3EFF               	addlw	255
  5524  0031  00F6               	movwf	??_telaInicial+1
  5525  0032  0878               	movf	telaInicial@i+1,w
  5526  0033  0276               	subwf	??_telaInicial+1,w
  5527  0034  1D03               	skipz
  5528  0035  2838               	goto	u2695
  5529  0036  0877               	movf	telaInicial@i,w
  5530  0037  0275               	subwf	??_telaInicial,w
  5531  0038                     u2695:
  5532  0038  1803               	skipnc
  5533  0039  283B               	goto	u2691
  5534  003A  283C               	goto	u2690
  5535  003B                     u2691:
  5536  003B  2814               	goto	l2443
  5537  003C                     u2690:
  5538  003C                     l2449:
  5539                           
  5540                           ;main.c: 326:     LCD_escreve(' ');
  5541  003C  3020               	movlw	32
  5542  003D  120A  158A  2165  120A  118A  	fcall	_LCD_escreve
  5543  0042                     l165:
  5544  0042  0008               	return
  5545  0043                     __end_of_telaInicial:
  5546                           
  5547                           	psect	text14
  5548  0935                     __ptext14:	
  5549 ;; *************** function _LCD_linha1 *****************
  5550 ;; Defined at:
  5551 ;;		line 65 in file "./lcd.h"
  5552 ;; Parameters:    Size  Location     Type
  5553 ;;		None
  5554 ;; Auto vars:     Size  Location     Type
  5555 ;;		None
  5556 ;; Return value:  Size  Location     Type
  5557 ;;                  1    wreg      void 
  5558 ;; Registers used:
  5559 ;;		wreg, status,2, status,0, btemp+1, pclath, cstack
  5560 ;; Tracked objects:
  5561 ;;		On entry : 0/0
  5562 ;;		On exit  : 0/0
  5563 ;;		Unchanged: 0/0
  5564 ;; Data sizes:     COMMON   BANK0   BANK1   BANK3   BANK2
  5565 ;;      Params:         0       0       0       0       0
  5566 ;;      Locals:         0       0       0       0       0
  5567 ;;      Temps:          0       0       0       0       0
  5568 ;;      Totals:         0       0       0       0       0
  5569 ;;Total ram usage:        0 bytes
  5570 ;; Hardware stack levels used: 1
  5571 ;; Hardware stack levels required when called: 1
  5572 ;; This function calls:
  5573 ;;		_delay
  5574 ;; This function is called by:
  5575 ;;		_telaInicial
  5576 ;;		_validaUser
  5577 ;; This function uses a non-reentrant model
  5578 ;;
  5579                           
  5580                           
  5581                           ;psect for function _LCD_linha1
  5582  0935                     _LCD_linha1:
  5583  0935                     l2181:	
  5584                           ;incstack = 0
  5585                           ; Regs used in _LCD_linha1: [wreg+status,2+status,0+btemp+1+pclath+cstack]
  5586                           
  5587                           
  5588                           ;./lcd.h: 66:     PORTD = 0x02;
  5589  0935  3002               	movlw	2
  5590  0936  1283               	bcf	3,5	;RP0=0, select bank0
  5591  0937  1303               	bcf	3,6	;RP1=0, select bank0
  5592  0938  0088               	movwf	8	;volatile
  5593  0939                     l2183:
  5594                           
  5595                           ;./lcd.h: 67:     RA5 = 0;
  5596  0939  1285               	bcf	5,5	;volatile
  5597  093A                     l2185:
  5598                           
  5599                           ;./lcd.h: 68:     RA4 = 0;
  5600  093A  1205               	bcf	5,4	;volatile
  5601  093B                     l2187:
  5602                           
  5603                           ;./lcd.h: 69:     RA3=0;
  5604  093B  1185               	bcf	5,3	;volatile
  5605  093C                     l2189:
  5606                           
  5607                           ;./lcd.h: 70:     delay();
  5608  093C  120A  158A  2189  120A  158A  	fcall	_delay
  5609  0941                     l2191:
  5610                           
  5611                           ;./lcd.h: 71:  RA3 = 1;
  5612  0941  1283               	bcf	3,5	;RP0=0, select bank0
  5613  0942  1303               	bcf	3,6	;RP1=0, select bank0
  5614  0943  1585               	bsf	5,3	;volatile
  5615  0944                     l69:
  5616  0944  0008               	return
  5617  0945                     __end_of_LCD_linha1:
  5618                           
  5619                           	psect	text15
  5620  0AD5                     __ptext15:	
  5621 ;; *************** function _Linha2 *****************
  5622 ;; Defined at:
  5623 ;;		line 334 in file "main.c"
  5624 ;; Parameters:    Size  Location     Type
  5625 ;;		None
  5626 ;; Auto vars:     Size  Location     Type
  5627 ;;  i               2    7[COMMON] int 
  5628 ;; Return value:  Size  Location     Type
  5629 ;;                  1    wreg      void 
  5630 ;; Registers used:
  5631 ;;		wreg, fsr0l, fsr0h, status,2, status,0, btemp+1, pclath, cstack
  5632 ;; Tracked objects:
  5633 ;;		On entry : 0/0
  5634 ;;		On exit  : 0/0
  5635 ;;		Unchanged: 0/0
  5636 ;; Data sizes:     COMMON   BANK0   BANK1   BANK3   BANK2
  5637 ;;      Params:         0       0       0       0       0
  5638 ;;      Locals:         2       0       0       0       0
  5639 ;;      Temps:          2       0       0       0       0
  5640 ;;      Totals:         4       0       0       0       0
  5641 ;;Total ram usage:        4 bytes
  5642 ;; Hardware stack levels used: 1
  5643 ;; Hardware stack levels required when called: 3
  5644 ;; This function calls:
  5645 ;;		_LCD_escreve
  5646 ;;		_LCD_linha2
  5647 ;;		_espacoLivre
  5648 ;;		_strlen
  5649 ;; This function is called by:
  5650 ;;		_main
  5651 ;; This function uses a non-reentrant model
  5652 ;;
  5653                           
  5654                           
  5655                           ;psect for function _Linha2
  5656  0AD5                     _Linha2:
  5657  0AD5                     l2451:	
  5658                           ;incstack = 0
  5659                           ; Regs used in _Linha2: [wreg-fsr0h+status,2+status,0+btemp+1+pclath+cstack]
  5660                           
  5661                           
  5662                           ;main.c: 335:     LCD_linha2();
  5663  0AD5  120A  158A  2125  120A  158A  	fcall	_LCD_linha2
  5664                           
  5665                           ;main.c: 336:     espacoLivre();
  5666  0ADA  120A  158A  2221  120A  158A  	fcall	_espacoLivre
  5667  0ADF                     l2453:
  5668                           
  5669                           ;main.c: 337:     for (int i = 0; i <= strlen(msg2)-1; i++){
  5670  0ADF  01F7               	clrf	Linha2@i
  5671  0AE0  01F8               	clrf	Linha2@i+1
  5672  0AE1  2AF2               	goto	l2459
  5673  0AE2                     l2455:
  5674                           
  5675                           ;main.c: 338:         LCD_escreve(msg2[i]);
  5676  0AE2  0877               	movf	Linha2@i,w
  5677  0AE3  3E5D               	addlw	(low (_msg2| 0))& (0+255)
  5678  0AE4  0084               	movwf	4
  5679  0AE5  1383               	bcf	3,7	;select IRP bank0
  5680  0AE6  0800               	movf	0,w
  5681  0AE7  120A  158A  2165  120A  158A  	fcall	_LCD_escreve
  5682  0AEC                     l2457:
  5683                           
  5684                           ;main.c: 339:     }
  5685  0AEC  3001               	movlw	1
  5686  0AED  07F7               	addwf	Linha2@i,f
  5687  0AEE  1803               	skipnc
  5688  0AEF  0AF8               	incf	Linha2@i+1,f
  5689  0AF0  3000               	movlw	0
  5690  0AF1  07F8               	addwf	Linha2@i+1,f
  5691  0AF2                     l2459:
  5692  0AF2  305D               	movlw	(low (_msg2| 0))& (0+255)
  5693  0AF3  120A  158A  219F  120A  158A  	fcall	_strlen
  5694  0AF8  0870               	movf	?_strlen,w
  5695  0AF9  3EFF               	addlw	255
  5696  0AFA  00F5               	movwf	??_Linha2
  5697  0AFB  0871               	movf	?_strlen+1,w
  5698  0AFC  1803               	skipnc
  5699  0AFD  3E01               	addlw	1
  5700  0AFE  3EFF               	addlw	255
  5701  0AFF  00F6               	movwf	??_Linha2+1
  5702  0B00  0878               	movf	Linha2@i+1,w
  5703  0B01  0276               	subwf	??_Linha2+1,w
  5704  0B02  1D03               	skipz
  5705  0B03  2B06               	goto	u2705
  5706  0B04  0877               	movf	Linha2@i,w
  5707  0B05  0275               	subwf	??_Linha2,w
  5708  0B06                     u2705:
  5709  0B06  1803               	skipnc
  5710  0B07  2B09               	goto	u2701
  5711  0B08  2B0A               	goto	u2700
  5712  0B09                     u2701:
  5713  0B09  2AE2               	goto	l2455
  5714  0B0A                     u2700:
  5715  0B0A                     l2461:
  5716                           
  5717                           ;main.c: 340:     espacoLivre();
  5718  0B0A  120A  158A  2221  120A  158A  	fcall	_espacoLivre
  5719  0B0F                     l171:
  5720  0B0F  0008               	return
  5721  0B10                     __end_of_Linha2:
  5722                           
  5723                           	psect	text16
  5724  099F                     __ptext16:	
  5725 ;; *************** function _strlen *****************
  5726 ;; Defined at:
  5727 ;;		line 4 in file "C:\Program Files\Microchip\xc8\v2.32\pic\sources\c90\common\strlen.c"
  5728 ;; Parameters:    Size  Location     Type
  5729 ;;  s               1    wreg     PTR const unsigned char 
  5730 ;;		 -> senhaUserConfere(5), msg2(5), msg(15), 
  5731 ;; Auto vars:     Size  Location     Type
  5732 ;;  s               1    4[COMMON] PTR const unsigned char 
  5733 ;;		 -> senhaUserConfere(5), msg2(5), msg(15), 
  5734 ;;  cp              1    3[COMMON] PTR const unsigned char 
  5735 ;;		 -> senhaUserConfere(5), msg2(5), msg(15), 
  5736 ;; Return value:  Size  Location     Type
  5737 ;;                  2    0[COMMON] unsigned int 
  5738 ;; Registers used:
  5739 ;;		wreg, fsr0l, fsr0h, status,2, status,0
  5740 ;; Tracked objects:
  5741 ;;		On entry : 0/0
  5742 ;;		On exit  : 0/0
  5743 ;;		Unchanged: 0/0
  5744 ;; Data sizes:     COMMON   BANK0   BANK1   BANK3   BANK2
  5745 ;;      Params:         2       0       0       0       0
  5746 ;;      Locals:         2       0       0       0       0
  5747 ;;      Temps:          1       0       0       0       0
  5748 ;;      Totals:         5       0       0       0       0
  5749 ;;Total ram usage:        5 bytes
  5750 ;; Hardware stack levels used: 1
  5751 ;; This function calls:
  5752 ;;		Nothing
  5753 ;; This function is called by:
  5754 ;;		_telaInicial
  5755 ;;		_Linha2
  5756 ;;		_validaUser
  5757 ;; This function uses a non-reentrant model
  5758 ;;
  5759                           
  5760                           
  5761                           ;psect for function _strlen
  5762  099F                     _strlen:
  5763                           
  5764                           ;incstack = 0
  5765                           ; Regs used in _strlen: [wreg-fsr0h+status,2+status,0]
  5766                           ;strlen@s stored from wreg
  5767  099F  00F4               	movwf	strlen@s
  5768  09A0                     l2371:
  5769  09A0  0874               	movf	strlen@s,w
  5770  09A1  00F2               	movwf	??_strlen
  5771  09A2  0872               	movf	??_strlen,w
  5772  09A3  00F3               	movwf	strlen@cp
  5773  09A4  29A9               	goto	l2375
  5774  09A5                     l2373:
  5775  09A5  3001               	movlw	1
  5776  09A6  00F2               	movwf	??_strlen
  5777  09A7  0872               	movf	??_strlen,w
  5778  09A8  07F3               	addwf	strlen@cp,f
  5779  09A9                     l2375:
  5780  09A9  0873               	movf	strlen@cp,w
  5781  09AA  0084               	movwf	4
  5782  09AB  1383               	bcf	3,7	;select IRP bank0
  5783  09AC  0800               	movf	0,w
  5784  09AD  1D03               	btfss	3,2
  5785  09AE  29B0               	goto	u2631
  5786  09AF  29B1               	goto	u2630
  5787  09B0                     u2631:
  5788  09B0  29A5               	goto	l2373
  5789  09B1                     u2630:
  5790  09B1                     l2377:
  5791  09B1  0874               	movf	strlen@s,w
  5792  09B2  0273               	subwf	strlen@cp,w
  5793  09B3  00F0               	movwf	?_strlen
  5794  09B4  01F1               	clrf	?_strlen+1
  5795  09B5  1BF0               	btfsc	?_strlen,7
  5796  09B6  03F1               	decf	?_strlen+1,f
  5797  09B7                     l767:
  5798  09B7  0008               	return
  5799  09B8                     __end_of_strlen:
  5800                           
  5801                           	psect	text17
  5802  0A21                     __ptext17:	
  5803 ;; *************** function _espacoLivre *****************
  5804 ;; Defined at:
  5805 ;;		line 346 in file "main.c"
  5806 ;; Parameters:    Size  Location     Type
  5807 ;;		None
  5808 ;; Auto vars:     Size  Location     Type
  5809 ;;		None
  5810 ;; Return value:  Size  Location     Type
  5811 ;;                  1    wreg      void 
  5812 ;; Registers used:
  5813 ;;		wreg, status,2, status,0, btemp+1, pclath, cstack
  5814 ;; Tracked objects:
  5815 ;;		On entry : 0/0
  5816 ;;		On exit  : 0/0
  5817 ;;		Unchanged: 0/0
  5818 ;; Data sizes:     COMMON   BANK0   BANK1   BANK3   BANK2
  5819 ;;      Params:         0       0       0       0       0
  5820 ;;      Locals:         0       0       0       0       0
  5821 ;;      Temps:          0       0       0       0       0
  5822 ;;      Totals:         0       0       0       0       0
  5823 ;;Total ram usage:        0 bytes
  5824 ;; Hardware stack levels used: 1
  5825 ;; Hardware stack levels required when called: 2
  5826 ;; This function calls:
  5827 ;;		_LCD_escreve
  5828 ;;		_LCD_linha2
  5829 ;; This function is called by:
  5830 ;;		_Linha2
  5831 ;; This function uses a non-reentrant model
  5832 ;;
  5833                           
  5834                           
  5835                           ;psect for function _espacoLivre
  5836  0A21                     _espacoLivre:
  5837  0A21                     l2381:	
  5838                           ;incstack = 0
  5839                           ; Regs used in _espacoLivre: [wreg+status,2+status,0+btemp+1+pclath+cstack]
  5840                           
  5841                           
  5842                           ;main.c: 347:     LCD_linha2();
  5843  0A21  120A  158A  2125  120A  158A  	fcall	_LCD_linha2
  5844                           
  5845                           ;main.c: 348:     LCD_escreve(' ');
  5846  0A26  3020               	movlw	32
  5847  0A27  120A  158A  2165  120A  158A  	fcall	_LCD_escreve
  5848                           
  5849                           ;main.c: 349:     LCD_escreve(' ');
  5850  0A2C  3020               	movlw	32
  5851  0A2D  120A  158A  2165  120A  158A  	fcall	_LCD_escreve
  5852                           
  5853                           ;main.c: 350:     LCD_escreve(' ');
  5854  0A32  3020               	movlw	32
  5855  0A33  120A  158A  2165  120A  158A  	fcall	_LCD_escreve
  5856                           
  5857                           ;main.c: 351:     LCD_escreve(' ');
  5858  0A38  3020               	movlw	32
  5859  0A39  120A  158A  2165  120A  158A  	fcall	_LCD_escreve
  5860                           
  5861                           ;main.c: 352:     LCD_escreve(' ');
  5862  0A3E  3020               	movlw	32
  5863  0A3F  120A  158A  2165  120A  158A  	fcall	_LCD_escreve
  5864                           
  5865                           ;main.c: 353:     LCD_escreve(' ');
  5866  0A44  3020               	movlw	32
  5867  0A45  120A  158A  2165  120A  158A  	fcall	_LCD_escreve
  5868  0A4A                     l174:
  5869  0A4A  0008               	return
  5870  0A4B                     __end_of_espacoLivre:
  5871                           
  5872                           	psect	text18
  5873  0925                     __ptext18:	
  5874 ;; *************** function _LCD_linha2 *****************
  5875 ;; Defined at:
  5876 ;;		line 73 in file "./lcd.h"
  5877 ;; Parameters:    Size  Location     Type
  5878 ;;		None
  5879 ;; Auto vars:     Size  Location     Type
  5880 ;;		None
  5881 ;; Return value:  Size  Location     Type
  5882 ;;                  1    wreg      void 
  5883 ;; Registers used:
  5884 ;;		wreg, status,2, status,0, btemp+1, pclath, cstack
  5885 ;; Tracked objects:
  5886 ;;		On entry : 0/0
  5887 ;;		On exit  : 0/0
  5888 ;;		Unchanged: 0/0
  5889 ;; Data sizes:     COMMON   BANK0   BANK1   BANK3   BANK2
  5890 ;;      Params:         0       0       0       0       0
  5891 ;;      Locals:         0       0       0       0       0
  5892 ;;      Temps:          0       0       0       0       0
  5893 ;;      Totals:         0       0       0       0       0
  5894 ;;Total ram usage:        0 bytes
  5895 ;; Hardware stack levels used: 1
  5896 ;; Hardware stack levels required when called: 1
  5897 ;; This function calls:
  5898 ;;		_delay
  5899 ;; This function is called by:
  5900 ;;		_Linha2
  5901 ;;		_espacoLivre
  5902 ;; This function uses a non-reentrant model
  5903 ;;
  5904                           
  5905                           
  5906                           ;psect for function _LCD_linha2
  5907  0925                     _LCD_linha2:
  5908  0925                     l2129:	
  5909                           ;incstack = 0
  5910                           ; Regs used in _LCD_linha2: [wreg+status,2+status,0+btemp+1+pclath+cstack]
  5911                           
  5912                           
  5913                           ;./lcd.h: 74:     PORTD = 0xC0;
  5914  0925  30C0               	movlw	192
  5915  0926  1283               	bcf	3,5	;RP0=0, select bank0
  5916  0927  1303               	bcf	3,6	;RP1=0, select bank0
  5917  0928  0088               	movwf	8	;volatile
  5918  0929                     l2131:
  5919                           
  5920                           ;./lcd.h: 75:     RA5 = 0;
  5921  0929  1285               	bcf	5,5	;volatile
  5922  092A                     l2133:
  5923                           
  5924                           ;./lcd.h: 76:     RA4 = 0;
  5925  092A  1205               	bcf	5,4	;volatile
  5926  092B                     l2135:
  5927                           
  5928                           ;./lcd.h: 77:     RA3=0;
  5929  092B  1185               	bcf	5,3	;volatile
  5930  092C                     l2137:
  5931                           
  5932                           ;./lcd.h: 78:     delay();
  5933  092C  120A  158A  2189  120A  158A  	fcall	_delay
  5934  0931                     l2139:
  5935                           
  5936                           ;./lcd.h: 79:  RA3 = 1;
  5937  0931  1283               	bcf	3,5	;RP0=0, select bank0
  5938  0932  1303               	bcf	3,6	;RP1=0, select bank0
  5939  0933  1585               	bsf	5,3	;volatile
  5940  0934                     l72:
  5941  0934  0008               	return
  5942  0935                     __end_of_LCD_linha2:
  5943                           
  5944                           	psect	text19
  5945  0965                     __ptext19:	
  5946 ;; *************** function _LCD_escreve *****************
  5947 ;; Defined at:
  5948 ;;		line 46 in file "./lcd.h"
  5949 ;; Parameters:    Size  Location     Type
  5950 ;;  x               1    wreg     unsigned char 
  5951 ;; Auto vars:     Size  Location     Type
  5952 ;;  x               1    2[COMMON] unsigned char 
  5953 ;; Return value:  Size  Location     Type
  5954 ;;                  1    wreg      void 
  5955 ;; Registers used:
  5956 ;;		wreg, status,2, status,0, btemp+1, pclath, cstack
  5957 ;; Tracked objects:
  5958 ;;		On entry : 0/0
  5959 ;;		On exit  : 0/0
  5960 ;;		Unchanged: 0/0
  5961 ;; Data sizes:     COMMON   BANK0   BANK1   BANK3   BANK2
  5962 ;;      Params:         0       0       0       0       0
  5963 ;;      Locals:         1       0       0       0       0
  5964 ;;      Temps:          0       0       0       0       0
  5965 ;;      Totals:         1       0       0       0       0
  5966 ;;Total ram usage:        1 bytes
  5967 ;; Hardware stack levels used: 1
  5968 ;; Hardware stack levels required when called: 1
  5969 ;; This function calls:
  5970 ;;		_delay
  5971 ;; This function is called by:
  5972 ;;		_teclado
  5973 ;;		_telaInicial
  5974 ;;		_Linha2
  5975 ;;		_espacoLivre
  5976 ;;		_validaUser
  5977 ;;		_LCD_escreveFrase
  5978 ;; This function uses a non-reentrant model
  5979 ;;
  5980                           
  5981                           
  5982                           ;psect for function _LCD_escreve
  5983  0965                     _LCD_escreve:
  5984                           
  5985                           ;incstack = 0
  5986                           ; Regs used in _LCD_escreve: [wreg+status,2+status,0+btemp+1+pclath+cstack]
  5987                           ;LCD_escreve@x stored from wreg
  5988  0965  00F2               	movwf	LCD_escreve@x
  5989  0966                     l2117:
  5990                           
  5991                           ;./lcd.h: 46: void LCD_escreve(char x);./lcd.h: 47: {;./lcd.h: 48:  PORTD = x;
  5992  0966  0872               	movf	LCD_escreve@x,w
  5993  0967  1283               	bcf	3,5	;RP0=0, select bank0
  5994  0968  1303               	bcf	3,6	;RP1=0, select bank0
  5995  0969  0088               	movwf	8	;volatile
  5996  096A                     l2119:
  5997                           
  5998                           ;./lcd.h: 49:  RA5 = 1;
  5999  096A  1685               	bsf	5,5	;volatile
  6000  096B                     l2121:
  6001                           
  6002                           ;./lcd.h: 50:  RA4 = 0;
  6003  096B  1205               	bcf	5,4	;volatile
  6004  096C                     l2123:
  6005                           
  6006                           ;./lcd.h: 51:  RA3 = 0;
  6007  096C  1185               	bcf	5,3	;volatile
  6008  096D                     l2125:
  6009                           
  6010                           ;./lcd.h: 52:  delay();
  6011  096D  120A  158A  2189  120A  158A  	fcall	_delay
  6012  0972                     l2127:
  6013                           
  6014                           ;./lcd.h: 53:  RA3 = 1;
  6015  0972  1283               	bcf	3,5	;RP0=0, select bank0
  6016  0973  1303               	bcf	3,6	;RP1=0, select bank0
  6017  0974  1585               	bsf	5,3	;volatile
  6018  0975                     l63:
  6019  0975  0008               	return
  6020  0976                     __end_of_LCD_escreve:
  6021                           
  6022                           	psect	text20
  6023  0AA2                     __ptext20:	
  6024 ;; *************** function _LCD_init *****************
  6025 ;; Defined at:
  6026 ;;		line 31 in file "./lcd.h"
  6027 ;; Parameters:    Size  Location     Type
  6028 ;;		None
  6029 ;; Auto vars:     Size  Location     Type
  6030 ;;		None
  6031 ;; Return value:  Size  Location     Type
  6032 ;;                  1    wreg      void 
  6033 ;; Registers used:
  6034 ;;		wreg, status,2, status,0, btemp+1, pclath, cstack
  6035 ;; Tracked objects:
  6036 ;;		On entry : 0/0
  6037 ;;		On exit  : 0/0
  6038 ;;		Unchanged: 0/0
  6039 ;; Data sizes:     COMMON   BANK0   BANK1   BANK3   BANK2
  6040 ;;      Params:         0       0       0       0       0
  6041 ;;      Locals:         0       0       0       0       0
  6042 ;;      Temps:          0       0       0       0       0
  6043 ;;      Totals:         0       0       0       0       0
  6044 ;;Total ram usage:        0 bytes
  6045 ;; Hardware stack levels used: 1
  6046 ;; Hardware stack levels required when called: 2
  6047 ;; This function calls:
  6048 ;;		_LCD_enable
  6049 ;;		_init
  6050 ;; This function is called by:
  6051 ;;		_main
  6052 ;; This function uses a non-reentrant model
  6053 ;;
  6054                           
  6055                           
  6056                           ;psect for function _LCD_init
  6057  0AA2                     _LCD_init:
  6058  0AA2                     l2417:	
  6059                           ;incstack = 0
  6060                           ; Regs used in _LCD_init: [wreg+status,2+status,0+btemp+1+pclath+cstack]
  6061                           
  6062                           
  6063                           ;./lcd.h: 33:     init();
  6064  0AA2  120A  158A  20FC  120A  158A  	fcall	_init
  6065  0AA7                     l2419:
  6066                           
  6067                           ;./lcd.h: 34:  PORTD = 0X1;
  6068  0AA7  3001               	movlw	1
  6069  0AA8  1283               	bcf	3,5	;RP0=0, select bank0
  6070  0AA9  1303               	bcf	3,6	;RP1=0, select bank0
  6071  0AAA  0088               	movwf	8	;volatile
  6072  0AAB                     l2421:
  6073                           
  6074                           ;./lcd.h: 35:  LCD_enable();
  6075  0AAB  120A  158A  2108  120A  158A  	fcall	_LCD_enable
  6076  0AB0                     l2423:
  6077                           
  6078                           ;./lcd.h: 36:  PORTD = 0X38;
  6079  0AB0  3038               	movlw	56
  6080  0AB1  1283               	bcf	3,5	;RP0=0, select bank0
  6081  0AB2  1303               	bcf	3,6	;RP1=0, select bank0
  6082  0AB3  0088               	movwf	8	;volatile
  6083  0AB4                     l2425:
  6084                           
  6085                           ;./lcd.h: 37:  LCD_enable();
  6086  0AB4  120A  158A  2108  120A  158A  	fcall	_LCD_enable
  6087  0AB9                     l2427:
  6088                           
  6089                           ;./lcd.h: 38:  PORTD = 0X0e;
  6090  0AB9  300E               	movlw	14
  6091  0ABA  1283               	bcf	3,5	;RP0=0, select bank0
  6092  0ABB  1303               	bcf	3,6	;RP1=0, select bank0
  6093  0ABC  0088               	movwf	8	;volatile
  6094  0ABD                     l2429:
  6095                           
  6096                           ;./lcd.h: 39:  LCD_enable();
  6097  0ABD  120A  158A  2108  120A  158A  	fcall	_LCD_enable
  6098  0AC2                     l2431:
  6099                           
  6100                           ;./lcd.h: 40:  PORTD = 0X06;
  6101  0AC2  3006               	movlw	6
  6102  0AC3  1283               	bcf	3,5	;RP0=0, select bank0
  6103  0AC4  1303               	bcf	3,6	;RP1=0, select bank0
  6104  0AC5  0088               	movwf	8	;volatile
  6105  0AC6                     l2433:
  6106                           
  6107                           ;./lcd.h: 41:  LCD_enable();
  6108  0AC6  120A  158A  2108  120A  158A  	fcall	_LCD_enable
  6109  0ACB                     l2435:
  6110                           
  6111                           ;./lcd.h: 42:  PORTD = 0X80;
  6112  0ACB  3080               	movlw	128
  6113  0ACC  1283               	bcf	3,5	;RP0=0, select bank0
  6114  0ACD  1303               	bcf	3,6	;RP1=0, select bank0
  6115  0ACE  0088               	movwf	8	;volatile
  6116  0ACF                     l2437:
  6117                           
  6118                           ;./lcd.h: 43:  LCD_enable();
  6119  0ACF  120A  158A  2108  120A  158A  	fcall	_LCD_enable
  6120  0AD4                     l60:
  6121  0AD4  0008               	return
  6122  0AD5                     __end_of_LCD_init:
  6123                           
  6124                           	psect	text21
  6125  08FC                     __ptext21:	
  6126 ;; *************** function _init *****************
  6127 ;; Defined at:
  6128 ;;		line 23 in file "./lcd.h"
  6129 ;; Parameters:    Size  Location     Type
  6130 ;;		None
  6131 ;; Auto vars:     Size  Location     Type
  6132 ;;		None
  6133 ;; Return value:  Size  Location     Type
  6134 ;;                  1    wreg      void 
  6135 ;; Registers used:
  6136 ;;		wreg, status,2
  6137 ;; Tracked objects:
  6138 ;;		On entry : 0/0
  6139 ;;		On exit  : 0/0
  6140 ;;		Unchanged: 0/0
  6141 ;; Data sizes:     COMMON   BANK0   BANK1   BANK3   BANK2
  6142 ;;      Params:         0       0       0       0       0
  6143 ;;      Locals:         0       0       0       0       0
  6144 ;;      Temps:          0       0       0       0       0
  6145 ;;      Totals:         0       0       0       0       0
  6146 ;;Total ram usage:        0 bytes
  6147 ;; Hardware stack levels used: 1
  6148 ;; This function calls:
  6149 ;;		Nothing
  6150 ;; This function is called by:
  6151 ;;		_LCD_init
  6152 ;; This function uses a non-reentrant model
  6153 ;;
  6154                           
  6155                           
  6156                           ;psect for function _init
  6157  08FC                     _init:
  6158  08FC                     l2155:	
  6159                           ;incstack = 0
  6160                           ; Regs used in _init: [wreg+status,2]
  6161                           
  6162                           
  6163                           ;./lcd.h: 25:  ADCON1 = 0X07;
  6164  08FC  3007               	movlw	7
  6165  08FD  1683               	bsf	3,5	;RP0=1, select bank1
  6166  08FE  1303               	bcf	3,6	;RP1=0, select bank1
  6167  08FF  009F               	movwf	31	;volatile
  6168  0900                     l2157:
  6169                           
  6170                           ;./lcd.h: 26:      RA1=1;
  6171  0900  1283               	bcf	3,5	;RP0=0, select bank0
  6172  0901  1303               	bcf	3,6	;RP1=0, select bank0
  6173  0902  1485               	bsf	5,1	;volatile
  6174  0903                     l2159:
  6175                           
  6176                           ;./lcd.h: 27:  TRISA = 0X00;
  6177  0903  1683               	bsf	3,5	;RP0=1, select bank1
  6178  0904  1303               	bcf	3,6	;RP1=0, select bank1
  6179  0905  0185               	clrf	5	;volatile
  6180  0906                     l2161:
  6181                           
  6182                           ;./lcd.h: 28:  TRISD = 0X00;
  6183  0906  0188               	clrf	8	;volatile
  6184  0907                     l57:
  6185  0907  0008               	return
  6186  0908                     __end_of_init:
  6187                           
  6188                           	psect	text22
  6189  0908                     __ptext22:	
  6190 ;; *************** function _LCD_enable *****************
  6191 ;; Defined at:
  6192 ;;		line 85 in file "./lcd.h"
  6193 ;; Parameters:    Size  Location     Type
  6194 ;;		None
  6195 ;; Auto vars:     Size  Location     Type
  6196 ;;		None
  6197 ;; Return value:  Size  Location     Type
  6198 ;;                  1    wreg      void 
  6199 ;; Registers used:
  6200 ;;		wreg, status,2, status,0, btemp+1, pclath, cstack
  6201 ;; Tracked objects:
  6202 ;;		On entry : 0/0
  6203 ;;		On exit  : 0/0
  6204 ;;		Unchanged: 0/0
  6205 ;; Data sizes:     COMMON   BANK0   BANK1   BANK3   BANK2
  6206 ;;      Params:         0       0       0       0       0
  6207 ;;      Locals:         0       0       0       0       0
  6208 ;;      Temps:          0       0       0       0       0
  6209 ;;      Totals:         0       0       0       0       0
  6210 ;;Total ram usage:        0 bytes
  6211 ;; Hardware stack levels used: 1
  6212 ;; Hardware stack levels required when called: 1
  6213 ;; This function calls:
  6214 ;;		_delay
  6215 ;; This function is called by:
  6216 ;;		_LCD_init
  6217 ;; This function uses a non-reentrant model
  6218 ;;
  6219                           
  6220                           
  6221                           ;psect for function _LCD_enable
  6222  0908                     _LCD_enable:
  6223  0908                     l2163:	
  6224                           ;incstack = 0
  6225                           ; Regs used in _LCD_enable: [wreg+status,2+status,0+btemp+1+pclath+cstack]
  6226                           
  6227                           
  6228                           ;./lcd.h: 87:  RA5 = 0;
  6229  0908  1283               	bcf	3,5	;RP0=0, select bank0
  6230  0909  1303               	bcf	3,6	;RP1=0, select bank0
  6231  090A  1285               	bcf	5,5	;volatile
  6232                           
  6233                           ;./lcd.h: 88:  RA4 = 0;
  6234  090B  1205               	bcf	5,4	;volatile
  6235                           
  6236                           ;./lcd.h: 89:  RA3 = 0;
  6237  090C  1185               	bcf	5,3	;volatile
  6238  090D                     l2165:
  6239                           
  6240                           ;./lcd.h: 90:  delay();
  6241  090D  120A  158A  2189  120A  158A  	fcall	_delay
  6242  0912                     l2167:
  6243                           
  6244                           ;./lcd.h: 91:  RA3 = 1;
  6245  0912  1283               	bcf	3,5	;RP0=0, select bank0
  6246  0913  1303               	bcf	3,6	;RP1=0, select bank0
  6247  0914  1585               	bsf	5,3	;volatile
  6248  0915                     l75:
  6249  0915  0008               	return
  6250  0916                     __end_of_LCD_enable:
  6251                           
  6252                           	psect	text23
  6253  0989                     __ptext23:	
  6254 ;; *************** function _delay *****************
  6255 ;; Defined at:
  6256 ;;		line 94 in file "./lcd.h"
  6257 ;; Parameters:    Size  Location     Type
  6258 ;;		None
  6259 ;; Auto vars:     Size  Location     Type
  6260 ;;  i               2    0[COMMON] int 
  6261 ;; Return value:  Size  Location     Type
  6262 ;;                  1    wreg      void 
  6263 ;; Registers used:
  6264 ;;		wreg, status,2, btemp+1
  6265 ;; Tracked objects:
  6266 ;;		On entry : 0/0
  6267 ;;		On exit  : 0/0
  6268 ;;		Unchanged: 0/0
  6269 ;; Data sizes:     COMMON   BANK0   BANK1   BANK3   BANK2
  6270 ;;      Params:         0       0       0       0       0
  6271 ;;      Locals:         2       0       0       0       0
  6272 ;;      Temps:          0       0       0       0       0
  6273 ;;      Totals:         2       0       0       0       0
  6274 ;;Total ram usage:        2 bytes
  6275 ;; Hardware stack levels used: 1
  6276 ;; This function calls:
  6277 ;;		Nothing
  6278 ;; This function is called by:
  6279 ;;		_LCD_escreve
  6280 ;;		_LCD_limpa
  6281 ;;		_LCD_linha1
  6282 ;;		_LCD_linha2
  6283 ;;		_LCD_enable
  6284 ;; This function uses a non-reentrant model
  6285 ;;
  6286                           
  6287                           
  6288                           ;psect for function _delay
  6289  0989                     _delay:
  6290  0989                     l1941:	
  6291                           ;incstack = 0
  6292                           ; Regs used in _delay: [wreg+status,2+btemp+1]
  6293                           
  6294                           
  6295                           ;./lcd.h: 96:  int i;;./lcd.h: 97:  for (i = 0;i < 5000;i++);
  6296  0989  01F0               	clrf	delay@i
  6297  098A  01F1               	clrf	delay@i+1
  6298  098B                     l1947:
  6299  098B  3001               	movlw	1
  6300  098C  07F0               	addwf	delay@i,f
  6301  098D  1803               	skipnc
  6302  098E  0AF1               	incf	delay@i+1,f
  6303  098F  3000               	movlw	0
  6304  0990  07F1               	addwf	delay@i+1,f
  6305  0991                     l1949:
  6306  0991  0871               	movf	delay@i+1,w
  6307  0992  3A80               	xorlw	128
  6308  0993  00FF               	movwf	btemp+1
  6309  0994  3093               	movlw	147
  6310  0995  027F               	subwf	btemp+1,w
  6311  0996  1D03               	skipz
  6312  0997  299A               	goto	u1915
  6313  0998  3088               	movlw	136
  6314  0999  0270               	subwf	delay@i,w
  6315  099A                     u1915:
  6316  099A  1C03               	skipc
  6317  099B  299D               	goto	u1911
  6318  099C  299E               	goto	u1910
  6319  099D                     u1911:
  6320  099D  298B               	goto	l1947
  6321  099E                     u1910:
  6322  099E                     l80:
  6323  099E  0008               	return
  6324  099F                     __end_of_delay:
  6325  007E                     btemp	set	126	;btemp
  6326  007E                     wtemp0	set	126

Data Sizes:
    Strings     20
    Constant    0
    Data        31
    BSS         18
    Persistent  0
    Stack       0

Auto Spaces:
    Space          Size  Autos    Used
    COMMON           14     14      14
    BANK0            80     37      71
    BANK1            80      0      15
    BANK3            96      0       0
    BANK2            96      0       0

Pointer List with Targets:

    strlen@s	PTR const unsigned char  size(1) Largest target is 15
		 -> senhaUserConfere(BANK0[5]), msg2(BANK0[5]), msg(BANK1[15]), 

    strlen@cp	PTR const unsigned char  size(1) Largest target is 15
		 -> senhaUserConfere(BANK0[5]), msg2(BANK0[5]), msg(BANK1[15]), 

    strcpy@from	PTR const unsigned char  size(1) Largest target is 5
		 -> senhaUserConfere(BANK0[5]), 

    strcpy@to	PTR unsigned char  size(1) Largest target is 5
		 -> senhaUserConfere(BANK0[5]), 

    strcpy@cp	PTR unsigned char  size(1) Largest target is 5
		 -> senhaUserConfere(BANK0[5]), 

    strcmp@s2	PTR const unsigned char  size(1) Largest target is 5
		 -> senhaUserConfere(BANK0[5]), 

    strcmp@s1	PTR const unsigned char  size(1) Largest target is 5
		 -> senhaUser(BANK0[5]), 

    strcat@from	PTR const unsigned char  size(1) Largest target is 2
		 -> NULL(NULL[0]), STR_10(CODE[2]), STR_9(CODE[2]), STR_8(CODE[2]), 
		 -> STR_7(CODE[2]), STR_6(CODE[2]), STR_5(CODE[2]), STR_4(CODE[2]), 
		 -> STR_3(CODE[2]), STR_2(CODE[2]), STR_1(CODE[2]), 

    strcat@to	PTR unsigned char  size(1) Largest target is 5
		 -> senhaUserConfere(BANK0[5]), 

    strcat@cp	PTR unsigned char  size(1) Largest target is 5
		 -> senhaUserConfere(BANK0[5]), 

    sp__strcat	PTR unsigned char  size(1) Largest target is 5
		 -> senhaUserConfere(BANK0[5]), 

    sp__strcpy	PTR unsigned char  size(1) Largest target is 5
		 -> senhaUserConfere(BANK0[5]), 

    aux	PTR unsigned char  size(1) Largest target is 2
		 -> NULL(NULL[0]), STR_10(CODE[2]), STR_9(CODE[2]), STR_8(CODE[2]), 
		 -> STR_7(CODE[2]), STR_6(CODE[2]), STR_5(CODE[2]), STR_4(CODE[2]), 
		 -> STR_3(CODE[2]), STR_2(CODE[2]), STR_1(CODE[2]), 


Critical Paths under _main in COMMON

    _liga_buzzer->___flmul
    ___flsub->___fladd
    ___flmul->__Umul8_16
    _strcat->_strcpy
    _LCD_limpa->_delay
    _telaInicial->_strlen
    _LCD_linha1->_delay
    _Linha2->_strlen
    _espacoLivre->_LCD_escreve
    _LCD_linha2->_delay
    _LCD_escreve->_delay
    _LCD_enable->_delay

Critical Paths under _main in BANK0

    _main->_validaUser
    _validaUser->_teclado
    _teclado->_liga_buzzer
    _liga_buzzer->___flmul
    ___flsub->___fladd

Critical Paths under _main in BANK1

    None.

Critical Paths under _main in BANK3

    None.

Critical Paths under _main in BANK2

    None.

Call Graph Tables:

 ---------------------------------------------------------------------------------
 (Depth) Function   	        Calls       Base Space   Used Autos Params    Refs
 ---------------------------------------------------------------------------------
 (0) _main                                                 0     0      0   15169
                           _LCD_init
                          _LCD_limpa
                             _Linha2
                        _telaInicial
                         _validaUser
 ---------------------------------------------------------------------------------
 (1) _validaUser                                           7     7      0   14265
                                             30 BANK0      7     7      0
                        _LCD_escreve
                          _LCD_limpa
                         _LCD_linha1
                        _liga_buzzer
                             _strcat
                             _strcmp
                             _strcpy
                             _strlen
                            _teclado
 ---------------------------------------------------------------------------------
 (2) _teclado                                              3     3      0    6588
                                             27 BANK0      3     3      0
                        _LCD_escreve
                        _liga_buzzer
 ---------------------------------------------------------------------------------
 (3) _liga_buzzer                                          6     2      4    6520
                                             21 BANK0      6     2      4
                             ___flge
                            ___flmul
                            ___flsub
 ---------------------------------------------------------------------------------
 (4) ___flsub                                              8     0      8    2333
                                              8 BANK0      8     0      8
                            ___fladd
 ---------------------------------------------------------------------------------
 (5) ___fladd                                             20    12      8    2136
                                              0 COMMON    12     4      8
                                              0 BANK0      8     8      0
 ---------------------------------------------------------------------------------
 (4) ___flmul                                             26    18      8    2417
                                              9 COMMON     5     5      0
                                              0 BANK0     21    13      8
                          __Umul8_16
 ---------------------------------------------------------------------------------
 (5) __Umul8_16                                            9     7      2     799
                                              0 COMMON     9     7      2
 ---------------------------------------------------------------------------------
 (4) ___flge                                              12     4      8     334
                                              0 COMMON    12     4      8
 ---------------------------------------------------------------------------------
 (2) _strcpy                                               4     3      1     200
                                              0 COMMON     4     3      1
 ---------------------------------------------------------------------------------
 (2) _strcmp                                               7     5      2     309
                                              0 COMMON     7     5      2
 ---------------------------------------------------------------------------------
 (3) _strcat                                               4     3      1     207
                                              4 COMMON     4     3      1
                             _strcpy (ARG)
 ---------------------------------------------------------------------------------
 (2) _LCD_limpa                                            0     0      0      46
                              _delay
 ---------------------------------------------------------------------------------
 (1) _telaInicial                                          4     4      0     349
                                              5 COMMON     4     4      0
                        _LCD_escreve
                         _LCD_linha1
                             _strlen
 ---------------------------------------------------------------------------------
 (2) _LCD_linha1                                           0     0      0      46
                              _delay
 ---------------------------------------------------------------------------------
 (1) _Linha2                                               4     4      0     463
                                              5 COMMON     4     4      0
                        _LCD_escreve
                         _LCD_linha2
                        _espacoLivre
                             _strlen
 ---------------------------------------------------------------------------------
 (2) _strlen                                               5     3      2     189
                                              0 COMMON     5     3      2
 ---------------------------------------------------------------------------------
 (2) _espacoLivre                                          0     0      0     114
                        _LCD_escreve
                         _LCD_linha2
 ---------------------------------------------------------------------------------
 (3) _LCD_linha2                                           0     0      0      46
                              _delay
 ---------------------------------------------------------------------------------
 (3) _LCD_escreve                                          1     1      0      68
                                              2 COMMON     1     1      0
                              _delay
 ---------------------------------------------------------------------------------
 (1) _LCD_init                                             0     0      0      46
                         _LCD_enable
                               _init
 ---------------------------------------------------------------------------------
 (2) _init                                                 0     0      0       0
 ---------------------------------------------------------------------------------
 (2) _LCD_enable                                           0     0      0      46
                              _delay
 ---------------------------------------------------------------------------------
 (4) _delay                                                2     2      0      46
                                              0 COMMON     2     2      0
 ---------------------------------------------------------------------------------
 Estimated maximum stack depth 5
 ---------------------------------------------------------------------------------

 Call Graph Graphs:

 _main (ROOT)
   _LCD_init
     _LCD_enable
       _delay
     _init
   _LCD_limpa
     _delay
   _Linha2
     _LCD_escreve
       _delay
     _LCD_linha2
       _delay
     _espacoLivre
       _LCD_escreve
       _LCD_linha2
     _strlen
   _telaInicial
     _LCD_escreve
     _LCD_linha1
       _delay
     _strlen
   _validaUser
     _LCD_escreve
     _LCD_limpa
     _LCD_linha1
     _liga_buzzer
       ___flge
       ___flmul
         __Umul8_16
       ___flsub
         ___fladd
     _strcat
       _strcpy (ARG)
     _strcmp
     _strcpy
     _strlen
     _teclado
       _LCD_escreve
       _liga_buzzer

 Address spaces:
Name               Size   Autos  Total    Cost      Usage
BANK3               60      0       0       9        0.0%
BITBANK3            60      0       0       8        0.0%
SFR3                 0      0       0       4        0.0%
BITSFR3              0      0       0       4        0.0%
BANK2               60      0       0      11        0.0%
BITBANK2            60      0       0      10        0.0%
SFR2                 0      0       0       5        0.0%
BITSFR2              0      0       0       5        0.0%
BANK1               50      0       F       7       18.8%
BITBANK1            50      0       0       6        0.0%
SFR1                 0      0       0       2        0.0%
BITSFR1              0      0       0       2        0.0%
BANK0               50     25      47       5       88.8%
BITBANK0            50      0       0       4        0.0%
SFR0                 0      0       0       1        0.0%
BITSFR0              0      0       0       1        0.0%
COMMON               E      E       E       1      100.0%
BITCOMMON            E      0       0       0        0.0%
CODE                 0      0       0       0        0.0%
DATA                 0      0      64      12        0.0%
ABS                  0      0      64       3        0.0%
NULL                 0      0       0       0        0.0%
STACK                0      0       0       2        0.0%
EEDATA             100      0       0       0        0.0%


Microchip Technology PIC Macro Assembler V2.32 build 20210201212658 
Symbol Table                                                                                   Wed Sep 29 20:56:04 2021

                       pc 0002                        l60 0AD4                        l63 0975  
                      l80 099E                        l72 0934                        l57 0907  
                      l66 0954                        l75 0915                        l69 0944  
                      fsr 0004       __Umul8_16@word_mpld 0076               ?_LCD_enable 0070  
                     l130 00BE                       l204 0D67                       l154 03D1  
                     l171 0B0F                       l147 0319                       l139 024B  
                     l165 0042                       l174 0A4A                       l159 0477  
                     l700 0A20                       l604 0F45                       l614 0F8D  
                     l464 00DB                       l608 0F6B                       l625 0FF1  
                     l617 0FCD                       l626 0FFF                       l467 0147  
                     l468 0160                       l629 09F9                       l583 0DCB  
                     l761 09D5                       l747 0AA1                       l755 0A74  
                     l691 07CC                       l587 0E74                       l596 0FFF  
                     l685 0744                       l589 0E49                       l767 09B7  
                     l679 07D8                       l698 0A0E                       _RA1 0029  
                     _RB0 0030                       _RA3 002B                       _RB1 0031  
                     _RA4 002C                       _RB2 0032                       _RA5 002D  
                     _RB3 0033               ?_LCD_linha1 0070               ?_LCD_linha2 0070  
                     _aux 0051                       _msg 00A0                       fsr0 0004  
                     indf 0000              ___flmul@aexp 002D              ___flmul@bexp 002E  
            ___flmul@sign 0028              ___flmul@temp 0033              ___flmul@prod 002F  
                    l2001 04B5                      l2011 04CA                      l2003 04B6  
                    l2101 07A6                      l2021 04E5                      l2013 04D2  
                    l2005 04BB                      l2111 07C5                      l2103 07B0  
                    l2031 0567                      l2023 04F5                      l2015 04D7  
                    l2007 04C0                      l2121 096B                      l2113 07D0  
                    l2105 07B2                      l2041 05D5                      l2033 0583  
                    l2025 0502                      l2017 04DC                      l2009 04C8  
                    l2201 0188                      l2123 096C                      l2131 0929  
                    l2107 07C0                      l2051 0665                      l2043 05E5  
                    l2035 059F                      l2027 051F                      l2211 01A4  
                    l2203 018E                      l2125 096D                      l2117 0966  
                    l2133 092A                      l2109 07C4                      l2061 06F9  
                    l2053 0675                      l2045 0602                      l2037 05A8  
                    l2029 053B                      l2141 0043                      l2301 031F  
                    l2221 01D3                      l2213 01AA                      l2205 0196  
                    l2127 0972                      l2119 096A                      l2135 092B  
                    l2071 071E                      l2063 0707                      l2055 06A2  
                    l2047 061B                      l2039 05B8                      l2151 009F  
                    l2143 0064                      l2303 032D                      l2311 034E  
                    l2231 01F7                      l2223 01D9                      l2207 0198  
                    l2215 01B0                      l2161 0906                      l2137 092C  
                    l2129 0925                      l2401 0A90                      l2081 0741  
                    l2065 0710                      l2073 0724                      l2057 06C8  
                    l2049 0638                      l2153 00BA                      l2145 0070  
                    l2321 037D                      l2313 0352                      l2305 033C  
                    l2241 021C                      l2233 0206                      l2225 01E1  
                    l2217 01B6                      l2209 019E                      l2163 0908  
                    l2155 08FC                      l2139 0931                      l2171 0949  
                    l2411 0A68                      l2403 0A4C                      l2091 0760  
                    l2075 0728                      l2067 0714                      l2059 06F0  
                    l2147 0073                      l2331 03A8                      l2315 0360  
                    l2323 0381                      l2307 0342                      l2251 024D  
                    l2243 022A                      l2235 020C                      l2219 01C4  
                    l2227 01E5                      l2165 090D                      l2157 0900  
                    l2421 0AAB                      l2181 0935                      l2173 094A  
                    l2413 0A6F                      l2405 0A4D                      l2093 0779  
                    l2085 0749                      l2077 0729                      l2069 0715  
                    l2149 007E                      l2341 03D9                      l2333 03AE  
                    l2325 0385                      l2317 036F                      l2309 034A  
                    l2261 027C                      l2253 0251                      l2245 0239  
                    l2237 0214                      l2229 01E9                      l2501 0C10  
                    l2167 0912                      l2159 0903                      l2431 0AC2  
                    l2423 0AB0                      l2191 0941                      l2183 0939  
                    l2175 094B                      l2407 0A51                      l2087 074E  
                    l2095 077F                      l2079 072D                      l2351 0410  
                    l2343 03E7                      l2335 03BC                      l2327 0393  
                    l2319 0375                      l2271 02A7                      l2255 025F  
                    l2263 0280                      l2247 023F                      l2239 0218  
                    l2511 0CA4                      l2503 0C20                      l2433 0AC6  
                    l2425 0AB4                      l2417 0AA2                      l2185 093A  
                    l2441 0011                      l2177 094C                      l2169 0945  
                    l2409 0A55                      l2097 078C                      l2089 075C  
                    l1801 0E01                      l2361 0448                      l2353 041F  
                    l2345 03F6                      l2337 03CB                      l2329 03A2  
                    l2281 02D4                      l2273 02AF                      l2265 0284  
                    l2257 026E                      l2249 0247                      l2193 0161  
                    l2521 0CE0                      l2513 0CA9                      l2505 0C78  
                    l2601 0B5D                      l2435 0ACB                      l2427 0AB9  
                    l2419 0AA7                      l2371 09A0                      l2451 0AD5  
                    l2187 093B                      l2443 0014                      l2179 0951  
                    l2099 0797                      l1803 0E05                      l1811 0E15  
                    l2363 044E                      l2355 0425                      l2347 03FC  
                    l2339 03D5                      l2291 02F8                      l2283 02DA  
                    l2267 0292                      l2275 02B3                      l2259 0274  
                    l2195 0167                      l2531 0CFA                      l2523 0CE4  
                    l2515 0CAE                      l2507 0C86                      l2603 0B61  
                    l2437 0ACF                      l2429 0ABD                      l2381 0A21  
                    l2373 09A5                      l2461 0B0A                      l2453 0ADF  
                    l2189 093C                      l2445 001E                      l1901 0F97  
                    l1821 0E5A                      l1813 0E16                      l1805 0E09  
                    l1741 0D7A                      l1733 0D68                      l2365 0454  
                    l2357 042B                      l2349 0402                      l2293 0307  
                    l2285 02E2                      l2277 02B7                      l2269 02A1  
                    l2197 016B                      l2541 0D18                      l2533 0D00  
                    l2525 0CE9                      l2517 0CB4                      l2509 0C95  
                    l2375 09A9                      l2455 0AE2                      l2447 0024  
                    l2439 0006                      l2383 09B9                      l1911 0FD7  
                    l1903 0FA5                      l1831 0E78                      l1823 0E5E  
                    l1815 0E2D                      l1807 0E0D                      l1743 0D7F  
                    l1751 0D8F                      l1735 0D6F                      l2367 0462  
                    l2359 0439                      l2295 030D                      l2279 02C5  
                    l2287 02E6                      l2199 0179                      l2551 0D36  
                    l2543 0D1E                      l2535 0D06                      l2527 0CEE  
                    l2519 0CCE                      l2471 0B93                      l2463 0B6B  
                    l2377 09B1                      l2457 0AEC                      l2449 003C  
                    l2393 0A76                      l2385 09BE                      l1921 0FEB  
                    l1913 0FDF                      l1905 0FA9                      l1841 0EA1  
                    l1833 0E7D                      l1825 0E5F                      l1817 0E4D  
                    l1809 0E11                      l1761 0DA9                      l1753 0D97  
                    l1745 0D84                      l1737 0D75                      l2369 0471  
                    l2297 0315                      l2289 02EA                      l2553 0D3C  
                    l2545 0D24                      l2537 0D0C                      l2529 0CF4  
                    l2625 0BD4                      l2481 0BB1                      l2473 0B9D  
                    l2465 0B72                      l2459 0AF2                      l2395 0A7B  
                    l2387 09C6                      l1931 0A04                      l1923 0FFA  
                    l1915 0FE4                      l1907 0FC9                      l1851 0EB7  
                    l1843 0EA5                      l1827 0E6A                      l1819 0E58  
                    l1771 0DC0                      l1763 0DAD                      l1755 0D9C  
                    l1747 0D8C                      l1739 0D79                      l2299 031B  
                    l2555 0D42                      l2547 0D2A                      l2539 0D12  
                    l2491 0BCA                      l2483 0BB6                      l2475 0BA2  
                    l2467 0B7F                      l1941 0989                      l2397 0A7F  
                    l2389 09D4                      l1933 0A08                      l1925 0FFE  
                    l1917 0FE5                      l1909 0FD2                      l1861 0F23  
                    l1853 0EC2                      l1845 0EB0                      l1837 0E86  
                    l1829 0E6E                      l1781 0DD9                      l1773 0DC1  
                    l1765 0DAE                      l1757 0DA2                      l1749 0D8D  
                    l2549 0D30                      l2557 0D50                      l2485 0BBB  
                    l2477 0BA7                      l2469 0B84                      l2581 0B1F  
                    l2573 0B10                      l2399 0A88                      l1951 00BF  
                    l1935 0A17                      l1927 09FB                      l1919 0FE9  
                    l1863 0F28                      l1847 0EB2                      l1839 0E9D  
                    l1855 0EC7                      l1791 0DED                      l1783 0DDD  
                    l1767 0DB3                      l1775 0DC3                      l1759 0DA3  
                    l2487 0BC0                      l2479 0BAC                      l2495 0BCF  
                    l2559 0D5F                      l2591 0B40                      l2583 0B24  
                    l2575 0B14                      l1961 011F                      l1953 00D3  
                    l1937 0A1C                      l1929 09FD                      l1881 0F72  
                    l1873 0F5B                      l1857 0EDD                      l1865 0F37  
                    l1849 0EB6                      l1793 0DF1                      l1785 0DE1  
                    l1777 0DD1                      l1769 0DB8                      l2489 0BC5  
                    l2497 0BF4                      l2593 0B49                      l2585 0B2C  
                    l2577 0B16                      l1947 098B                      l1963 0123  
                    l1955 00EF                      l1891 0F80                      l1883 0F74  
                    l1875 0F66                      l1867 0F4D                      l1859 0F1D  
                    l1795 0DF5                      l1787 0DE5                      l1779 0DD5  
                    l1971 09D6                      l2499 0C07                      l2595 0B4F  
                    l2587 0B36                      l2579 0B1A                      l1949 0991  
                    l1965 015D                      l1957 00F7                      l1981 0485  
                    l1893 0F84                      l1885 0F79                      l1877 0F6A  
                    l1869 0F52                      l1797 0DF9                      l1789 0DE9  
                    l1973 09DA                      l2597 0B53                      l2589 0B3B  
                    l1967 015F                      l1959 00FB                      l1991 049C  
                    l1983 0489                      l1895 0F8A                      l1879 0F6F  
                    l1887 0F7B                      l1799 0DFD                      l2599 0B58  
                    l1993 049E                      l1985 048A                      l1977 0478  
                    l1889 0F7F                      l1995 04A6                      l1987 048F  
                    l1979 047F                      l1899 0F92                      l1997 04AB  
                    l1989 0494                      l1999 04B1                      STR_1 0808  
                    STR_2 080A                      STR_3 080C                      STR_4 080E  
                    STR_5 0810                      STR_6 0812                      STR_7 0814  
                    STR_8 0816                      STR_9 0818                      u2000 048F  
                    u2001 048E                      u2010 0494                      u2011 0493  
                    u2020 04B5                      u2101 0591                      u2021 04B4  
                    u2102 0598                      u2030 04BB                      u2103 059F  
                    u2031 04BA                      u2200 06D6                      u2040 04C0  
                    u2121 05C7                      u2041 04BF                      u2122 05CE  
                    u2050 04D7                      u2211 06E2                      u2131 05F4  
                    u2123 05D5                      u2115 05A1                      u2051 04D6  
                    u2300 074E                      u2212 06E9                      u2132 05FB  
                    u2060 04DC                      u1500 0DD5                      u1420 0D79  
                    u2301 074D                      u2213 06F0                      u2205 06D1  
                    u2133 0602                      u2061 04DB                      u1501 0DD4  
                    u1421 0D78                      u2310 0760                      u1510 0E2D  
                    u1430 0D7F                      u2311 075F                      u2151 062A  
                    u2071 052D                      u1511 0E2C                      u1431 0D7E  
                    u3007 0433                      u2320 076F                      u2240 0714  
                    u2152 0631                      u2072 0534                      u1520 0E36  
                    u1440 0D84                      u2400 01E1                      u2241 0713  
                    u2225 06F2                      u2161 0657                      u2153 0638  
                    u2145 0604                      u2081 0549                      u2073 053B  
                    u1601 0E8F                      u1521 0E34                      u1441 0D83  
                    u3017 045C                      u2401 01E0                      u2330 078C  
                    u2162 065E                      u2082 0550                      u1610 0EA1  
                    u1602 0E96                      u1530 0E37                      u1450 0DA2  
                    u2410 01E9                      u2331 078B                      u2235 0709  
                    u2171 0684                      u2163 0665                      u2091 0575  
                    u2083 0557                      u1611 0EA0                      u1603 0E9D  
                    u1515 0E29                      u1451 0DA1                      u3027 006A  
                    u2411 01E8                      u2340 07A6                      u2260 0728  
                    u2180 06AE                      u2172 068B                      u2092 057C  
                    u1700 0F52                      u1620 0EA5                      u1540 0E4D  
                    u1460 0DAD                      u2500 02E2                      u2420 0214  
                    u2341 07A5                      u2325 076A                      u2261 0727  
                    u2173 0692                      u2093 0583                      u1701 0F51  
                    u1621 0EA4                      u1541 0E4C                      u1461 0DAC  
                    u3037 0079                      u2501 02E1                      u2421 0213  
                    u2350 07C4                      u2270 072D                      u1630 0EB6  
                    u1550 0E5E                      u1470 0DB3                      u2510 02EA  
                    u2430 021C                      u2351 07C3                      u2335 0788  
                    u2271 072C                      u2255 0717                      u2191 06BA  
                    u1631 0EB5                      u1551 0E5D                      u1471 0DB2  
                    u2511 02E9                      u2431 021B                      u2280 0741  
                    u2192 06C1                      u1800 0FA9                      u1720 0F6A  
                    u1480 0DB8                      u2360 00BA                      u2600 0402  
                    u2520 0315                      u2440 0247                      u2345 07A2  
                    u2281 0740                      u2193 06C8                      u2185 06A9  
                    u1801 0FA8                      u1721 0F69                      u1481 0DB7  
                    u2361 00B9                      u2601 0401                      u2521 0314  
                    u2441 0246                      u2290 0748                      u1810 0FBA  
                    u1730 0F6F                      u1650 0EDD                      u1570 0E74  
                    u1490 0DD1                      u2610 042B                      u2530 031F  
                    u2450 0251                      u2370 016B                      u2291 0747  
                    u1731 0F6E                      u1715 0F5F                      u1651 0EDC  
                    u1571 0E73                      u1491 0DD0                      u2611 042A  
                    u2531 031E                      u2451 0250                      u2371 016A  
                    u2700 0B0A                      u1900 0A1C                      u1820 0FC9  
                    u1740 0F79                      u1580 0E78                      u2620 0454  
                    u2540 034A                      u2460 027C                      u2380 0196  
                    u2701 0B09                      u1901 0A1B                      u1821 0FC8  
                    u1741 0F78                      u1661 0EF6                      u1653 0ED9  
                    u1645 0EBB                      u1581 0E77                      u1565 0E63  
                    u2621 0453                      u2541 0349                      u2461 027B  
                    u2381 0195                      u1910 099E                      u2630 09B1  
                    u1830 0FD2                      u1750 0F7F                      u1670 0F0A  
                    u1662 0EF7                      u1590 0E7D                      u2550 0352  
                    u2470 0284                      u2390 01B6                      u2710 0B9C  
                    u1911 099D                      u2631 09B0                      u1831 0FD1  
                    u1815 0FB5                      u1751 0F7E                      u1671 0F0B  
                    u1663 0EFC                      u1591 0E7C                      u2551 0351  
                    u2471 0283                      u2391 01B5                      u2711 0B9B  
                    u2640 09D4                      u1920 00D3                      u1840 0FD7  
                    u1760 0F84                      u1680 0F28                      u1672 0F10  
                    u1664 0EFD                      u2560 037D                      u2480 02AF  
                    u2720 0C10                      u2800 0B48                      u2705 0B06  
                    u2641 09D3                      u1921 00D2                      u1841 0FD6  
                    u1761 0F83                      u1681 0F27                      u1673 0F11  
                    u1665 0F02                      u2561 037C                      u2481 02AE  
                    u2721 0C0F                      u2801 0B47                      u2650 0A87  
                    u1930 00EF                      u1850 0FE4                      u1770 0F8A  
                    u1690 0F4D                      u1666 0F03                      u2570 0385  
                    u2490 02B7                      u2730 0C20                      u2810 0B4F  
                    u1915 099A                      u2651 0A86                      u1931 00EE  
                    u1851 0FE3                      u1771 0F89                      u1691 0F4C  
                    u2571 0384                      u2491 02B6                      u2731 0C1F  
                    u2811 0B4E                      u2660 0AA1                      u1940 00FB  
                    u1860 0FE9                      u1780 0F91                      u2580 03AE  
                    u2740 0CCE                      u2820 0B67                      u2661 0AA0  
                    u1941 00FA                      u1861 0FE8                      u1781 0F90  
                    u2581 03AD                      u2741 0CCD                      u2821 0B66  
                    u2670 0A68                      u1870 0FFE                      u1790 0F97  
                    u2590 03D9                      u2750 0CE0                      u2671 0A67  
                    u1951 010A                      u1871 0FFD                      u1791 0F96  
                    u2591 03D8                      u2751 0CDF                      u2680 0A6F  
                    u1960 0123                      u1952 010B                      u1880 0A08  
                    u2760 0D5F                      u2681 0A6E                      u1961 0122  
                    u1953 0110                      u1881 0A07                      u2761 0D5E  
                    u2745 0CCA                      u2690 003C                      u1954 0111  
                    u2770 0D67                      u2691 003B                      u1971 0132  
                    u1955 0116                      u2907 0259                      u2771 0D66  
                    u1980 015D                      u1972 0133                      u1956 0117  
                    u1981 015C                      u1973 0138                      u2917 028C  
                    u2765 0D5B                      u2837 0B8C                      u1974 0139  
                    u1990 0489                      u2790 0B2C                      u2695 0038  
                    u1975 013E                      u1895 0A0F                      u1991 0488  
                    u2927 02BF                      u2847 0C80                      u2791 0B2B  
                    u1976 013F                      u1985 0159                      u2937 02F2  
                    u2857 0D4A                      u2947 0327                      u2867 0173  
                    u2957 035A                      u2877 01BE                      u2967 038D  
                    u2887 01F1                      u2977 03B6                      u2897 0224  
                    u2987 03E1                      u2997 040A              ?_LCD_escreve 0070  
                    _main 0B10                      _msg2 005D                      _init 08FC  
            ?_liga_buzzer 0035                      btemp 007E              ?_espacoLivre 0070  
        _senhaUserConfere 0052                      start 0000        __size_of_LCD_limpa 0010  
        __end_of_LCD_init 0AD5           __end_of___fladd 1000                     ?_main 0070  
                   ?_init 0070                     STR_10 0806           __end_of___flmul 07D9  
         __end_of___flsub 09FA                     _PORTB 0006                     _PORTD 0008  
                   _PORTE 0009                     _TRISA 0085                     _TRISB 0086  
                   _TRISD 0088                     _TRISE 0089                     _delay 0989  
                   _input 005B           __end_of_teclado 0478                     pclath 000A  
                   status 0003                     wtemp0 007E       __size_of_LCD_enable 000E  
     __size_of_LCD_linha1 0010       __size_of_LCD_linha2 0010           __initialization 07D9  
            __end_of_main 0B6B              __end_of_init 0908              ?_telaInicial 0070  
                  ??_main 007E                    ??_init 0070         __end_of_LCD_limpa 0955  
                  ?_delay 0070                    _ADCON1 009F                    _Linha2 0AD5  
                  ___flge 00BF                 ??___fladd 0020                 ??___flmul 0079  
               ??___flsub 007C                    _config 004F                    _painel 0059  
                  delay@i 0070                    _strcat 0A75                    _strcmp 0A4B  
                  _strcpy 09B8                    _strlen 099F        __size_of__Umul8_16 0027  
               ??_teclado 003B                ___flge@ff1 0070                ___flge@ff2 0074  
 __end_of__initialization 07FC                 ?_LCD_init 0070      __size_of_LCD_escreve 0011  
            LCD_escreve@x 0072      __size_of_liga_buzzer 007C      __size_of_espacoLivre 002A  
          __pcstackCOMMON 0070              __pidataBANK0 0955              __pidataBANK1 0916  
           __end_of_delay 099F              ??_LCD_enable 0072              ??_LCD_linha1 0072  
            ??_LCD_linha2 0072                   ??_delay 0070                __pbssBANK0 0045  
              ??_LCD_init 0072                   ?_Linha2 0070        __end_of_LCD_enable 0916  
       __end_of__Umul8_16 0A21        __end_of_LCD_linha1 0945        __end_of_LCD_linha2 0935  
              __pmaintext 0B10                   ?___flge 0070                   ?_strcat 0074  
                 ?_strcmp 0070                   ?_strcpy 0070                   ?_strlen 0070  
    __size_of_telaInicial 003D                __stringtab 0800                   Linha2@i 0077  
liga_buzzer@tempoSegundos 0035           __size_of_Linha2 003B           __size_of___flge 00A2  
                 ___fladd 0D68                   ___flmul 0478                   ___flsub 09D6  
             validaUser@i 0043               validaUser@n 0041                   __ptext1 0B6B  
                 __ptext2 0161                   __ptext3 0043                   __ptext4 09D6  
                 __ptext5 0D68                   __ptext6 0478                   __ptext7 09FA  
                 __ptext8 00BF                   __ptext9 09B8           __size_of_strcat 002D  
         __size_of_strcmp 002A           __size_of_strcpy 001E           __size_of_strlen 0019  
                 _teclado 0161                   clrloop0 08F5      end_of_initialization 07FC  
               _LCD_limpa 0945                _validaUser 0B6B                   strcmp@r 0075  
                 strlen@s 0074               ___fladd@grs 007B                ?_LCD_limpa 0070  
             ___flmul@grs 0029         __size_of_LCD_init 0033            __end_of_Linha2 0B10  
          __end_of___flge 0161            __end_of_strcat 0AA2            __end_of_strcmp 0A75  
          __end_of_strcpy 09D6            __end_of_strlen 09B8       start_initialization 07D9  
           ??_LCD_escreve 0072             ??_liga_buzzer 0039             ??_espacoLivre 0073  
             ?_validaUser 0070                  ??_Linha2 0075                  ??___flge 0078  
              init_fetch0 0976                 __Umul8_16 09FA               __pdataBANK0 0057  
             __pdataBANK1 00A0                  ??_strcat 0075                  ??_strcmp 0072  
                ??_strcpy 0071                  ??_strlen 0072                 ___fladd@a 0074  
               ___fladd@b 0070                 ___flmul@a 0024                 ___flmul@b 0020  
               ___flsub@a 0028                 ___flsub@b 002C                 ___latbits 0002  
           __pcstackBANK0 0020               ??_LCD_limpa 0072       __end_of_LCD_escreve 0976  
     __end_of_liga_buzzer 00BF                  ?___fladd 0070       __end_of_espacoLivre 0A4B  
                ?___flmul 0020                  ?___flsub 0028                ?__Umul8_16 0070  
            telaInicial@i 0077             ??_telaInicial 0075                 __pstrings 0800  
                ?_teclado 0070       __size_of_validaUser 01FD            __size_of_delay 0016  
                _LCD_init 0AA2                 clear_ram0 08F4                 _senhaUser 0062  
             __stringbase 0805                 _userFalse 0057       __end_of_telaInicial 0043  
             _LCD_escreve 0965               _liga_buzzer 0043               _espacoLivre 0A21  
             ??__Umul8_16 0072          __size_of___fladd 0298          __size_of___flmul 0361  
        __size_of___flsub 0024        __end_of__stringtab 0806                strcat@from 0074  
        __size_of_teclado 0317                  __ptext10 0A4B                  __ptext11 0A75  
                __ptext20 0AA2                  __ptext12 0945                  __ptext21 08FC  
                __ptext13 0006                  __ptext22 0908                  __ptext14 0935  
                __ptext23 0989                  __ptext15 0AD5                  __ptext16 099F  
                __ptext17 0A21                  __ptext18 0925                  __ptext19 0965  
              strcpy@from 0070             __size_of_main 005B             __size_of_init 000C  
            ??_validaUser 003E                  _senhaCoa 004A               _telaInicial 0006  
              _LCD_enable 0908                _LCD_linha1 0935                _LCD_linha2 0925  
             _senhaConfig 0045                  init_ram0 097A        __end_of_validaUser 0D68  
               stringcode 0800    __Umul8_16@multiplicand 0070                  strcat@cp 0077  
                strcat@to 0076                  strcmp@s1 0076                  strcmp@s2 0070  
                strcpy@cp 0072                  strlen@cp 0073                  strcpy@to 0073  
                stringdir 0800                  stringtab 0800             ___fladd@signs 0078  
            ___fladd@aexp 0079              ___fladd@bexp 007A      __Umul8_16@multiplier 0078  
       __Umul8_16@product 0074  
