

Microchip MPLAB XC8 Assembler V2.32 build 20210201212658 
                                                                                               Sun Oct 03 23:55:51 2021

Microchip MPLAB XC8 C Compiler v2.32 (Free license) build 20210201212658 Og1 
     1                           	processor	16F877A
     2                           	pagewidth 120
     3                           	opt	flic
     4                           	psect	idataBANK0,global,class=CODE,delta=2,noexec
     5                           	psect	idataBANK1,global,class=CODE,delta=2,noexec
     6                           	psect	idataBANK2,global,class=CODE,delta=2,noexec
     7                           	psect	idataBANK3,global,class=CODE,delta=2,noexec
     8                           	psect	nvBANK0,global,class=BANK0,space=1,delta=1,noexec
     9                           	psect	cinit,global,class=CODE,merge=1,delta=2
    10                           	psect	bssBANK0,global,class=BANK0,space=1,delta=1,noexec
    11                           	psect	dataBANK0,global,class=BANK0,space=1,delta=1,noexec
    12                           	psect	dataBANK1,global,class=BANK1,space=1,delta=1,noexec
    13                           	psect	dataBANK3,global,class=BANK3,space=1,delta=1,noexec
    14                           	psect	dataBANK2,global,class=BANK2,space=1,delta=1,noexec
    15                           	psect	inittext,global,class=CODE,delta=2
    16                           	psect	cstackCOMMON,global,class=COMMON,space=1,delta=1,noexec
    17                           	psect	cstackBANK0,global,class=BANK0,space=1,delta=1,noexec
    18                           	psect	maintext,global,class=CODE,split=1,delta=2
    19                           	psect	text1,local,class=CODE,merge=1,delta=2
    20                           	psect	text2,local,class=CODE,merge=1,delta=2
    21                           	psect	text3,local,class=CODE,merge=1,delta=2
    22                           	psect	text4,local,class=CODE,merge=1,delta=2
    23                           	psect	text5,local,class=CODE,merge=1,delta=2
    24                           	psect	text6,local,class=CODE,merge=1,delta=2
    25                           	psect	text7,local,class=CODE,merge=1,delta=2
    26                           	psect	text8,local,class=CODE,merge=1,delta=2
    27                           	psect	text9,local,class=CODE,merge=1,delta=2
    28                           	psect	text10,local,class=CODE,merge=1,delta=2,group=1
    29                           	psect	text11,local,class=CODE,merge=1,delta=2,group=1
    30                           	psect	text12,local,class=CODE,merge=1,delta=2,group=1
    31                           	psect	text13,local,class=CODE,merge=1,delta=2,group=1
    32                           	psect	text14,local,class=CODE,merge=1,delta=2,group=1
    33                           	psect	text15,local,class=CODE,merge=1,delta=2
    34                           	psect	text16,local,class=CODE,merge=1,delta=2
    35                           	psect	text17,local,class=CODE,merge=1,delta=2,group=2
    36                           	psect	text18,local,class=CODE,merge=1,delta=2
    37                           	psect	text19,local,class=CODE,merge=1,delta=2
    38                           	psect	text20,local,class=CODE,merge=1,delta=2
    39                           	psect	text21,local,class=CODE,merge=1,delta=2
    40                           	psect	text22,local,class=CODE,merge=1,delta=2
    41                           	psect	text23,local,class=CODE,merge=1,delta=2
    42                           	psect	text24,local,class=CODE,merge=1,delta=2
    43                           	dabs	1,0x7E,2
    44  0000                     
    45                           ; Version 2.20
    46                           ; Generated 12/02/2020 GMT
    47                           ; 
    48                           ; Copyright © 2020, Microchip Technology Inc. and its subsidiaries ("Microchip")
    49                           ; All rights reserved.
    50                           ; 
    51                           ; This software is developed by Microchip Technology Inc. and its subsidiaries ("Microch
      +                          ip").
    52                           ; 
    53                           ; Redistribution and use in source and binary forms, with or without modification, are
    54                           ; permitted provided that the following conditions are met:
    55                           ; 
    56                           ;     1. Redistributions of source code must retain the above copyright notice, this lis
      +                          t of
    57                           ;        conditions and the following disclaimer.
    58                           ; 
    59                           ;     2. Redistributions in binary form must reproduce the above copyright notice, this 
      +                          list
    60                           ;        of conditions and the following disclaimer in the documentation and/or other
    61                           ;        materials provided with the distribution.
    62                           ; 
    63                           ;     3. Microchip's name may not be used to endorse or promote products derived from th
      +                          is
    64                           ;        software without specific prior written permission.
    65                           ; 
    66                           ; THIS SOFTWARE IS PROVIDED BY MICROCHIP "AS IS" AND ANY EXPRESS OR IMPLIED WARRANTIES,
    67                           ; INCLUDING, BUT NOT LIMITED TO, THE IMPLIED WARRANTIES OF MERCHANTABILITY AND FITNESS F
      +                          OR
    68                           ; PURPOSE ARE DISCLAIMED.  IN NO EVENT SHALL MICROCHIP BE LIABLE FOR ANY DIRECT, INDIREC
      +                          T,
    69                           ; INCIDENTAL, SPECIAL, EXEMPLARY, OR CONSEQUENTIAL DAMAGES (INCLUDING BUT NOT LIMITED TO
    70                           ; PROCUREMENT OF SUBSTITUTE GOODS OR SERVICES; LOSS OF USE, DATA OR PROFITS; OR BUSINESS
    71                           ; INTERRUPTION) HOWSOEVER CAUSED AND ON ANY THEORY OF LIABILITY, WHETHER IN CONTRACT, ST
      +                          RICT
    72                           ; LIABILITY, OR TORT (INCLUDING NEGLIGENCE OR OTHERWISE) ARISING IN ANY WAY OUT OF THE U
      +                          SE OF
    73                           ; THIS SOFTWARE, EVEN IF ADVISED OF THE POSSIBILITY OF SUCH DAMAGE.
    74                           ; 
    75                           ; 
    76                           ; Code-generator required, PIC16F877A Definitions
    77                           ; 
    78                           ; SFR Addresses
    79  0000                     	;# 
    80  0001                     	;# 
    81  0002                     	;# 
    82  0003                     	;# 
    83  0004                     	;# 
    84  0005                     	;# 
    85  0006                     	;# 
    86  0007                     	;# 
    87  0008                     	;# 
    88  0009                     	;# 
    89  000A                     	;# 
    90  000B                     	;# 
    91  000C                     	;# 
    92  000D                     	;# 
    93  000E                     	;# 
    94  000E                     	;# 
    95  000F                     	;# 
    96  0010                     	;# 
    97  0011                     	;# 
    98  0012                     	;# 
    99  0013                     	;# 
   100  0014                     	;# 
   101  0015                     	;# 
   102  0015                     	;# 
   103  0016                     	;# 
   104  0017                     	;# 
   105  0018                     	;# 
   106  0019                     	;# 
   107  001A                     	;# 
   108  001B                     	;# 
   109  001B                     	;# 
   110  001C                     	;# 
   111  001D                     	;# 
   112  001E                     	;# 
   113  001F                     	;# 
   114  0081                     	;# 
   115  0085                     	;# 
   116  0086                     	;# 
   117  0087                     	;# 
   118  0088                     	;# 
   119  0089                     	;# 
   120  008C                     	;# 
   121  008D                     	;# 
   122  008E                     	;# 
   123  0091                     	;# 
   124  0092                     	;# 
   125  0093                     	;# 
   126  0094                     	;# 
   127  0098                     	;# 
   128  0099                     	;# 
   129  009C                     	;# 
   130  009D                     	;# 
   131  009E                     	;# 
   132  009F                     	;# 
   133  010C                     	;# 
   134  010D                     	;# 
   135  010E                     	;# 
   136  010F                     	;# 
   137  018C                     	;# 
   138  018D                     	;# 
   139  0000                     	;# 
   140  0001                     	;# 
   141  0002                     	;# 
   142  0003                     	;# 
   143  0004                     	;# 
   144  0005                     	;# 
   145  0006                     	;# 
   146  0007                     	;# 
   147  0008                     	;# 
   148  0009                     	;# 
   149  000A                     	;# 
   150  000B                     	;# 
   151  000C                     	;# 
   152  000D                     	;# 
   153  000E                     	;# 
   154  000E                     	;# 
   155  000F                     	;# 
   156  0010                     	;# 
   157  0011                     	;# 
   158  0012                     	;# 
   159  0013                     	;# 
   160  0014                     	;# 
   161  0015                     	;# 
   162  0015                     	;# 
   163  0016                     	;# 
   164  0017                     	;# 
   165  0018                     	;# 
   166  0019                     	;# 
   167  001A                     	;# 
   168  001B                     	;# 
   169  001B                     	;# 
   170  001C                     	;# 
   171  001D                     	;# 
   172  001E                     	;# 
   173  001F                     	;# 
   174  0081                     	;# 
   175  0085                     	;# 
   176  0086                     	;# 
   177  0087                     	;# 
   178  0088                     	;# 
   179  0089                     	;# 
   180  008C                     	;# 
   181  008D                     	;# 
   182  008E                     	;# 
   183  0091                     	;# 
   184  0092                     	;# 
   185  0093                     	;# 
   186  0094                     	;# 
   187  0098                     	;# 
   188  0099                     	;# 
   189  009C                     	;# 
   190  009D                     	;# 
   191  009E                     	;# 
   192  009F                     	;# 
   193  010C                     	;# 
   194  010D                     	;# 
   195  010E                     	;# 
   196  010F                     	;# 
   197  018C                     	;# 
   198  018D                     	;# 
   199                           
   200                           	psect	idataBANK0
   201  096A                     __pidataBANK0:
   202                           
   203                           ;initializer for _auxSensor
   204  096A  34CC               	retlw	204
   205  096B  3400               	retlw	0
   206                           
   207                           ;initializer for _alteraSenha
   208  096C  3401               	retlw	1
   209  096D  3400               	retlw	0
   210                           
   211                           ;initializer for _menu
   212  096E  3401               	retlw	1
   213  096F  3400               	retlw	0
   214                           
   215                           ;initializer for _userFalse
   216  0970  3401               	retlw	1
   217  0971  3400               	retlw	0
   218                           
   219                           ;initializer for _painel
   220  0972  3401               	retlw	1
   221  0973  3400               	retlw	0
   222                           
   223                           ;initializer for _input
   224  0974  340A               	retlw	10
   225  0975  3400               	retlw	0
   226                           
   227                           ;initializer for _msgMascara
   228  0976  345F               	retlw	95
   229  0977  345F               	retlw	95
   230  0978  345F               	retlw	95
   231  0979  345F               	retlw	95
   232  097A  3400               	retlw	0
   233                           
   234                           ;initializer for _senhaUserConfere
   235  097B  3430               	retlw	48
   236  097C  3430               	retlw	48
   237  097D  3430               	retlw	48
   238  097E  3430               	retlw	48
   239  097F  3400               	retlw	0
   240                           
   241                           ;initializer for _senhaUser
   242  0980  3431               	retlw	49
   243  0981  3432               	retlw	50
   244  0982  3431               	retlw	49
   245  0983  3432               	retlw	50
   246  0984  3400               	retlw	0
   247                           
   248                           	psect	idataBANK1
   249  0B3F                     __pidataBANK1:
   250                           
   251                           ;initializer for _senhaCoa
   252  0B3F  3435               	retlw	53
   253  0B40  3435               	retlw	53
   254  0B41  3435               	retlw	53
   255  0B42  3435               	retlw	53
   256  0B43  3400               	retlw	0
   257                           
   258                           ;initializer for _msgSenhaUsuario
   259  0B44  3453               	retlw	83
   260  0B45  3465               	retlw	101
   261  0B46  346E               	retlw	110
   262  0B47  3468               	retlw	104
   263  0B48  3461               	retlw	97
   264  0B49  3420               	retlw	32
   265  0B4A  3455               	retlw	85
   266  0B4B  3473               	retlw	115
   267  0B4C  3475               	retlw	117
   268  0B4D  3461               	retlw	97
   269  0B4E  3472               	retlw	114
   270  0B4F  3469               	retlw	105
   271  0B50  346F               	retlw	111
   272  0B51  3400               	retlw	0
   273                           
   274                           ;initializer for _msgSenhaCoacao
   275  0B52  3453               	retlw	83
   276  0B53  3465               	retlw	101
   277  0B54  346E               	retlw	110
   278  0B55  3468               	retlw	104
   279  0B56  3461               	retlw	97
   280  0B57  3420               	retlw	32
   281  0B58  3443               	retlw	67
   282  0B59  346F               	retlw	111
   283  0B5A  3461               	retlw	97
   284  0B5B  3463               	retlw	99
   285  0B5C  3461               	retlw	97
   286  0B5D  346F               	retlw	111
   287  0B5E  3400               	retlw	0
   288                           
   289                           ;initializer for _msgSenhaConfig
   290  0B5F  3453               	retlw	83
   291  0B60  3465               	retlw	101
   292  0B61  346E               	retlw	110
   293  0B62  3468               	retlw	104
   294  0B63  3461               	retlw	97
   295  0B64  3420               	retlw	32
   296  0B65  3443               	retlw	67
   297  0B66  346F               	retlw	111
   298  0B67  346E               	retlw	110
   299  0B68  3466               	retlw	102
   300  0B69  3469               	retlw	105
   301  0B6A  3467               	retlw	103
   302  0B6B  3400               	retlw	0
   303                           
   304                           ;initializer for _msgAceitoOuNego
   305  0B6C  3444               	retlw	68
   306  0B6D  3469               	retlw	105
   307  0B6E  3467               	retlw	103
   308  0B6F  3469               	retlw	105
   309  0B70  3474               	retlw	116
   310  0B71  3465               	retlw	101
   311  0B72  343A               	retlw	58
   312  0B73  3420               	retlw	32
   313  0B74  3400               	retlw	0
   314                           
   315                           ;initializer for _msgReativar
   316  0B75  3452               	retlw	82
   317  0B76  3465               	retlw	101
   318  0B77  3461               	retlw	97
   319  0B78  3474               	retlw	116
   320  0B79  3469               	retlw	105
   321  0B7A  3476               	retlw	118
   322  0B7B  3461               	retlw	97
   323  0B7C  3472               	retlw	114
   324  0B7D  3400               	retlw	0
   325                           
   326                           ;initializer for _senhaConfig
   327  0B7E  3430               	retlw	48
   328  0B7F  3430               	retlw	48
   329  0B80  3430               	retlw	48
   330  0B81  3430               	retlw	48
   331  0B82  3400               	retlw	0
   332                           
   333                           	psect	idataBANK2
   334  09E8                     __pidataBANK2:
   335                           
   336                           ;initializer for _msgSenhaAtualizada
   337  09E8  3453               	retlw	83
   338  09E9  3465               	retlw	101
   339  09EA  346E               	retlw	110
   340  09EB  3468               	retlw	104
   341  09EC  3461               	retlw	97
   342  09ED  3420               	retlw	32
   343  09EE  3441               	retlw	65
   344  09EF  3474               	retlw	116
   345  09F0  3475               	retlw	117
   346  09F1  3461               	retlw	97
   347  09F2  346C               	retlw	108
   348  09F3  3469               	retlw	105
   349  09F4  347A               	retlw	122
   350  09F5  3461               	retlw	97
   351  09F6  3464               	retlw	100
   352  09F7  3461               	retlw	97
   353  09F8  3400               	retlw	0
   354                           
   355                           ;initializer for _msgValidaSenha
   356  09F9  344F               	retlw	79
   357  09FA  346B               	retlw	107
   358  09FB  343A               	retlw	58
   359  09FC  3446               	retlw	70
   360  09FD  3420               	retlw	32
   361  09FE  346F               	retlw	111
   362  09FF  3475               	retlw	117
   363  0A00  3420               	retlw	32
   364  0A01  344E               	retlw	78
   365  0A02  3465               	retlw	101
   366  0A03  3467               	retlw	103
   367  0A04  3461               	retlw	97
   368  0A05  3472               	retlw	114
   369  0A06  343A               	retlw	58
   370  0A07  3445               	retlw	69
   371  0A08  3400               	retlw	0
   372                           
   373                           ;initializer for _msgSenhaCancelada
   374  0A09  3453               	retlw	83
   375  0A0A  3465               	retlw	101
   376  0A0B  346E               	retlw	110
   377  0A0C  3468               	retlw	104
   378  0A0D  3461               	retlw	97
   379  0A0E  3420               	retlw	32
   380  0A0F  3463               	retlw	99
   381  0A10  3461               	retlw	97
   382  0A11  346E               	retlw	110
   383  0A12  3463               	retlw	99
   384  0A13  3465               	retlw	101
   385  0A14  346C               	retlw	108
   386  0A15  3461               	retlw	97
   387  0A16  3464               	retlw	100
   388  0A17  3461               	retlw	97
   389  0A18  3400               	retlw	0
   390                           
   391                           	psect	idataBANK3
   392  0BCB                     __pidataBANK3:
   393                           
   394                           ;initializer for _msgDigiteSenha
   395  0BCB  3444               	retlw	68
   396  0BCC  3469               	retlw	105
   397  0BCD  3467               	retlw	103
   398  0BCE  3469               	retlw	105
   399  0BCF  3474               	retlw	116
   400  0BD0  3465               	retlw	101
   401  0BD1  3420               	retlw	32
   402  0BD2  3461               	retlw	97
   403  0BD3  3420               	retlw	32
   404  0BD4  3473               	retlw	115
   405  0BD5  3465               	retlw	101
   406  0BD6  346E               	retlw	110
   407  0BD7  3468               	retlw	104
   408  0BD8  3461               	retlw	97
   409  0BD9  3400               	retlw	0
   410                           
   411                           ;initializer for _msgDesativarZona
   412  0BDA  3444               	retlw	68
   413  0BDB  3465               	retlw	101
   414  0BDC  3473               	retlw	115
   415  0BDD  3461               	retlw	97
   416  0BDE  3474               	retlw	116
   417  0BDF  3469               	retlw	105
   418  0BE0  3476               	retlw	118
   419  0BE1  3461               	retlw	97
   420  0BE2  3472               	retlw	114
   421  0BE3  3420               	retlw	32
   422  0BE4  345A               	retlw	90
   423  0BE5  346F               	retlw	111
   424  0BE6  346E               	retlw	110
   425  0BE7  3461               	retlw	97
   426  0BE8  3400               	retlw	0
   427                           
   428                           ;initializer for _msgDigiteNovaSenha
   429  0BE9  3420               	retlw	32
   430  0BEA  3420               	retlw	32
   431  0BEB  3420               	retlw	32
   432  0BEC  344E               	retlw	78
   433  0BED  346F               	retlw	111
   434  0BEE  3476               	retlw	118
   435  0BEF  3461               	retlw	97
   436  0BF0  3420               	retlw	32
   437  0BF1  3473               	retlw	115
   438  0BF2  3465               	retlw	101
   439  0BF3  346E               	retlw	110
   440  0BF4  3468               	retlw	104
   441  0BF5  3461               	retlw	97
   442  0BF6  3400               	retlw	0
   443                           
   444                           ;initializer for _msgSenhaDisparo
   445  0BF7  3453               	retlw	83
   446  0BF8  3465               	retlw	101
   447  0BF9  346E               	retlw	110
   448  0BFA  3468               	retlw	104
   449  0BFB  3461               	retlw	97
   450  0BFC  3420               	retlw	32
   451  0BFD  3444               	retlw	68
   452  0BFE  3469               	retlw	105
   453  0BFF  3473               	retlw	115
   454  0C00  3470               	retlw	112
   455  0C01  3461               	retlw	97
   456  0C02  3472               	retlw	114
   457  0C03  346F               	retlw	111
   458  0C04  3400               	retlw	0
   459                           
   460                           ;initializer for _msgSenhaCorreta
   461  0C05  3453               	retlw	83
   462  0C06  3465               	retlw	101
   463  0C07  346E               	retlw	110
   464  0C08  3468               	retlw	104
   465  0C09  3461               	retlw	97
   466  0C0A  3420               	retlw	32
   467  0C0B  3463               	retlw	99
   468  0C0C  346F               	retlw	111
   469  0C0D  3472               	retlw	114
   470  0C0E  3472               	retlw	114
   471  0C0F  3465               	retlw	101
   472  0C10  3474               	retlw	116
   473  0C11  3461               	retlw	97
   474  0C12  3400               	retlw	0
   475                           
   476                           ;initializer for _msgSenhaErrada
   477  0C13  3453               	retlw	83
   478  0C14  3465               	retlw	101
   479  0C15  346E               	retlw	110
   480  0C16  3468               	retlw	104
   481  0C17  3461               	retlw	97
   482  0C18  3420               	retlw	32
   483  0C19  3465               	retlw	101
   484  0C1A  3472               	retlw	114
   485  0C1B  3472               	retlw	114
   486  0C1C  3461               	retlw	97
   487  0C1D  3464               	retlw	100
   488  0C1E  3461               	retlw	97
   489  0C1F  3400               	retlw	0
   490                           
   491                           	psect	nvBANK0
   492  006C                     __pnvBANK0:
   493  006C                     _opConfig:
   494  006C                     	ds	2
   495  001E                     _ADRESH	set	30
   496  001F                     _ADCON0	set	31
   497  0006                     _PORTB	set	6
   498  0009                     _PORTE	set	9
   499  0008                     _PORTD	set	8
   500  00FA                     _GO_nDONE	set	250
   501  0031                     _RB1	set	49
   502  0030                     _RB0	set	48
   503  0033                     _RB3	set	51
   504  0032                     _RB2	set	50
   505  002B                     _RA3	set	43
   506  002C                     _RA4	set	44
   507  002D                     _RA5	set	45
   508  0029                     _RA1	set	41
   509  009E                     _ADRESL	set	158
   510  0086                     _TRISB	set	134
   511  0089                     _TRISE	set	137
   512  0088                     _TRISD	set	136
   513  0085                     _TRISA	set	133
   514  009F                     _ADCON1	set	159
   515                           
   516                           	psect	cinit
   517  07BE                     start_initialization:	
   518                           ; #config settings
   519                           
   520  07BE                     __initialization:
   521                           
   522                           ; Initialize objects allocated to BANK3
   523  07BE  1783               	bsf	3,7	;select IRP bank2
   524  07BF  30E5               	movlw	low (__pdataBANK3+85)
   525  07C0  00FD               	movwf	btemp+-1
   526  07C1  300B               	movlw	high __pidataBANK3
   527  07C2  00FE               	movwf	btemp
   528  07C3  30CB               	movlw	low __pidataBANK3
   529  07C4  00FF               	movwf	btemp+1
   530  07C5  3090               	movlw	low __pdataBANK3
   531  07C6  0084               	movwf	4
   532  07C7  120A  158A  2145  120A  118A  	fcall	init_ram0
   533                           
   534                           ; Initialize objects allocated to BANK2
   535  07CC  3041               	movlw	low (__pdataBANK2+49)
   536  07CD  00FD               	movwf	btemp+-1
   537  07CE  3009               	movlw	high __pidataBANK2
   538  07CF  00FE               	movwf	btemp
   539  07D0  30E8               	movlw	low __pidataBANK2
   540  07D1  00FF               	movwf	btemp+1
   541  07D2  3010               	movlw	low __pdataBANK2
   542  07D3  0084               	movwf	4
   543  07D4  120A  158A  2145  120A  118A  	fcall	init_ram0
   544                           
   545                           ; Initialize objects allocated to BANK1
   546  07D9  1383               	bcf	3,7	;select IRP bank0
   547  07DA  30E4               	movlw	low (__pdataBANK1+68)
   548  07DB  00FD               	movwf	btemp+-1
   549  07DC  300B               	movlw	high __pidataBANK1
   550  07DD  00FE               	movwf	btemp
   551  07DE  303F               	movlw	low __pidataBANK1
   552  07DF  00FF               	movwf	btemp+1
   553  07E0  30A0               	movlw	low __pdataBANK1
   554  07E1  0084               	movwf	4
   555  07E2  120A  158A  2145  120A  118A  	fcall	init_ram0
   556                           
   557                           ; Initialize objects allocated to BANK0
   558  07E7  3064               	movlw	low (__pdataBANK0+27)
   559  07E8  00FD               	movwf	btemp+-1
   560  07E9  3009               	movlw	high __pidataBANK0
   561  07EA  00FE               	movwf	btemp
   562  07EB  306A               	movlw	low __pidataBANK0
   563  07EC  00FF               	movwf	btemp+1
   564  07ED  3049               	movlw	low __pdataBANK0
   565  07EE  0084               	movwf	4
   566  07EF  120A  158A  2145  120A  118A  	fcall	init_ram0
   567                           
   568                           ; Clear objects allocated to BANK0
   569  07F4  01E4               	clrf	__pbssBANK0& (0+127)
   570  07F5  01E5               	clrf	(__pbssBANK0+1)& (0+127)
   571  07F6  01E6               	clrf	(__pbssBANK0+2)& (0+127)
   572  07F7  01E7               	clrf	(__pbssBANK0+3)& (0+127)
   573  07F8  01E8               	clrf	(__pbssBANK0+4)& (0+127)
   574  07F9  01E9               	clrf	(__pbssBANK0+5)& (0+127)
   575  07FA  01EA               	clrf	(__pbssBANK0+6)& (0+127)
   576  07FB  01EB               	clrf	(__pbssBANK0+7)& (0+127)
   577  07FC                     end_of_initialization:	
   578                           ;End of C runtime variable initialization code
   579                           
   580  07FC                     __end_of__initialization:
   581  07FC  0183               	clrf	3
   582  07FD  120A  158A  2A83   	ljmp	_main	;jump to C main() function
   583                           
   584                           	psect	bssBANK0
   585  0064                     __pbssBANK0:
   586  0064                     _valorSensorAux:
   587  0064                     	ds	2
   588  0066                     _valorSensor:
   589  0066                     	ds	2
   590  0068                     _aux:
   591  0068                     	ds	2
   592  006A                     _validaSenha:
   593  006A                     	ds	2
   594                           
   595                           	psect	dataBANK0
   596  0049                     __pdataBANK0:
   597  0049                     _auxSensor:
   598  0049                     	ds	2
   599  004B                     _alteraSenha:
   600  004B                     	ds	2
   601  004D                     _menu:
   602  004D                     	ds	2
   603  004F                     _userFalse:
   604  004F                     	ds	2
   605  0051                     _painel:
   606  0051                     	ds	2
   607  0053                     _input:
   608  0053                     	ds	2
   609  0055                     _msgMascara:
   610  0055                     	ds	5
   611  005A                     _senhaUserConfere:
   612  005A                     	ds	5
   613  005F                     _senhaUser:
   614  005F                     	ds	5
   615                           
   616                           	psect	dataBANK1
   617  00A0                     __pdataBANK1:
   618  00A0                     _senhaCoa:
   619  00A0                     	ds	5
   620  00A5                     _msgSenhaUsuario:
   621  00A5                     	ds	14
   622  00B3                     _msgSenhaCoacao:
   623  00B3                     	ds	13
   624  00C0                     _msgSenhaConfig:
   625  00C0                     	ds	13
   626  00CD                     _msgAceitoOuNego:
   627  00CD                     	ds	9
   628  00D6                     _msgReativar:
   629  00D6                     	ds	9
   630  00DF                     _senhaConfig:
   631  00DF                     	ds	5
   632                           
   633                           	psect	dataBANK3
   634  0190                     __pdataBANK3:
   635  0190                     _msgDigiteSenha:
   636  0190                     	ds	15
   637  019F                     _msgDesativarZona:
   638  019F                     	ds	15
   639  01AE                     _msgDigiteNovaSenha:
   640  01AE                     	ds	14
   641  01BC                     _msgSenhaDisparo:
   642  01BC                     	ds	14
   643  01CA                     _msgSenhaCorreta:
   644  01CA                     	ds	14
   645  01D8                     _msgSenhaErrada:
   646  01D8                     	ds	13
   647                           
   648                           	psect	dataBANK2
   649  0110                     __pdataBANK2:
   650  0110                     _msgSenhaAtualizada:
   651  0110                     	ds	17
   652  0121                     _msgValidaSenha:
   653  0121                     	ds	16
   654  0131                     _msgSenhaCancelada:
   655  0131                     	ds	16
   656                           
   657                           	psect	inittext
   658  0941                     init_fetch0:	
   659                           ;	Called with low address in FSR and high address in W
   660                           
   661  0941  087E               	movf	btemp,w
   662  0942  008A               	movwf	10
   663  0943  087F               	movf	btemp+1,w
   664  0944  0082               	movwf	2
   665  0945                     init_ram0:	
   666                           ;Called with:
   667                           ;	high address of idata address in btemp 
   668                           ;	low address of idata address in btemp+1 
   669                           ;	low address of data in FSR
   670                           ;	high address + 1 of data in btemp-1
   671                           
   672  0945  120A  158A  2141  120A  158A  	fcall	init_fetch0
   673  094A  0080               	movwf	0
   674  094B  0A84               	incf	4,f
   675  094C  0804               	movf	4,w
   676  094D  067D               	xorwf	btemp+-1,w
   677  094E  1903               	btfsc	3,2
   678  094F  3400               	retlw	0
   679  0950  0AFF               	incf	btemp+1,f
   680  0951  1903               	btfsc	3,2
   681  0952  0AFE               	incf	btemp,f
   682  0953  2945               	goto	init_ram0
   683                           
   684                           	psect	cstackCOMMON
   685  0070                     __pcstackCOMMON:
   686  0070                     ?___flge:
   687  0070                     ?_LCD_enable:	
   688                           ; 1 bit 
   689                           
   690  0070                     ?_delay:	
   691                           ; 1 bytes @ 0x0
   692                           
   693  0070                     ??_delay:	
   694                           ; 1 bytes @ 0x0
   695                           
   696  0070                     ?_teclado:	
   697                           ; 1 bytes @ 0x0
   698                           
   699  0070                     ?_Linha2:	
   700                           ; 1 bytes @ 0x0
   701                           
   702  0070                     ?_espacoLivre:	
   703                           ; 1 bytes @ 0x0
   704                           
   705  0070                     ?_init:	
   706                           ; 1 bytes @ 0x0
   707                           
   708  0070                     ??_init:	
   709                           ; 1 bytes @ 0x0
   710                           
   711  0070                     ?_LCD_init:	
   712                           ; 1 bytes @ 0x0
   713                           
   714  0070                     ?_LCD_escreve:	
   715                           ; 1 bytes @ 0x0
   716                           
   717  0070                     ?_LCD_limpa:	
   718                           ; 1 bytes @ 0x0
   719                           
   720  0070                     ?_LCD_linha1:	
   721                           ; 1 bytes @ 0x0
   722                           
   723  0070                     ?_LCD_linha2:	
   724                           ; 1 bytes @ 0x0
   725                           
   726  0070                     ?_main:	
   727                           ; 1 bytes @ 0x0
   728                           
   729  0070                     ?_confereTeclado:	
   730                           ; 1 bytes @ 0x0
   731                           
   732  0070                     ?_inputSenhaAlter:	
   733                           ; 1 bytes @ 0x0
   734                           
   735  0070                     ?_rotinaValidaSenha:	
   736                           ; 1 bytes @ 0x0
   737                           
   738  0070                     ?_strlen:	
   739                           ; 1 bytes @ 0x0
   740                           
   741  0070                     ?__Umul8_16:	
   742                           ; 2 bytes @ 0x0
   743                           
   744  0070                     ?___fladd:	
   745                           ; 2 bytes @ 0x0
   746                           
   747  0070                     __Umul8_16@multiplicand:	
   748                           ; 4 bytes @ 0x0
   749                           
   750  0070                     delay@i:	
   751                           ; 1 bytes @ 0x0
   752                           
   753  0070                     confereTeclado@numero:	
   754                           ; 2 bytes @ 0x0
   755                           
   756  0070                     strlen@s:	
   757                           ; 2 bytes @ 0x0
   758                           
   759  0070                     ___flge@ff1:	
   760                           ; 2 bytes @ 0x0
   761                           
   762  0070                     ___fladd@b:	
   763                           ; 4 bytes @ 0x0
   764                           
   765                           
   766                           ; 4 bytes @ 0x0
   767  0070                     	ds	2
   768  0072                     ??_LCD_enable:
   769  0072                     ??_strlen:	
   770                           ; 1 bytes @ 0x2
   771                           
   772  0072                     ??__Umul8_16:	
   773                           ; 1 bytes @ 0x2
   774                           
   775  0072                     ??_LCD_init:	
   776                           ; 1 bytes @ 0x2
   777                           
   778  0072                     ??_LCD_escreve:	
   779                           ; 1 bytes @ 0x2
   780                           
   781  0072                     ??_LCD_limpa:	
   782                           ; 1 bytes @ 0x2
   783                           
   784  0072                     ??_LCD_linha1:	
   785                           ; 1 bytes @ 0x2
   786                           
   787  0072                     ??_LCD_linha2:	
   788                           ; 1 bytes @ 0x2
   789                           
   790  0072                     ??_confereTeclado:	
   791                           ; 1 bytes @ 0x2
   792                           
   793  0072                     LCD_escreve@x:	
   794                           ; 1 bytes @ 0x2
   795                           
   796  0072                     strlen@cp:	
   797                           ; 1 bytes @ 0x2
   798                           
   799                           
   800                           ; 2 bytes @ 0x2
   801  0072                     	ds	1
   802  0073                     ?_escreveMesagem:
   803  0073                     ??_espacoLivre:	
   804                           ; 1 bytes @ 0x3
   805                           
   806  0073                     espacoLivre@i:	
   807                           ; 1 bytes @ 0x3
   808                           
   809  0073                     escreveMesagem@texto:	
   810                           ; 2 bytes @ 0x3
   811                           
   812                           
   813                           ; 2 bytes @ 0x3
   814  0073                     	ds	1
   815  0074                     __Umul8_16@product:
   816  0074                     ___flge@ff2:	
   817                           ; 2 bytes @ 0x4
   818                           
   819  0074                     ___fladd@a:	
   820                           ; 4 bytes @ 0x4
   821                           
   822                           
   823                           ; 4 bytes @ 0x4
   824  0074                     	ds	1
   825  0075                     ??_escreveMesagem:
   826  0075                     ??_Linha2:	
   827                           ; 1 bytes @ 0x5
   828                           
   829                           
   830                           ; 1 bytes @ 0x5
   831  0075                     	ds	1
   832  0076                     __Umul8_16@word_mpld:
   833                           
   834                           ; 2 bytes @ 0x6
   835  0076                     	ds	1
   836  0077                     Linha2@i:
   837                           
   838                           ; 2 bytes @ 0x7
   839  0077                     	ds	1
   840  0078                     ??___flge:
   841  0078                     ___fladd@signs:	
   842                           ; 1 bytes @ 0x8
   843                           
   844  0078                     __Umul8_16@multiplier:	
   845                           ; 1 bytes @ 0x8
   846                           
   847  0078                     escreveMesagem@i:	
   848                           ; 1 bytes @ 0x8
   849                           
   850                           
   851                           ; 2 bytes @ 0x8
   852  0078                     	ds	1
   853  0079                     ??___flmul:
   854  0079                     ___fladd@aexp:	
   855                           ; 1 bytes @ 0x9
   856                           
   857                           
   858                           ; 1 bytes @ 0x9
   859  0079                     	ds	1
   860  007A                     ?_valida_senha:
   861  007A                     ___fladd@bexp:	
   862                           ; 2 bytes @ 0xA
   863                           
   864                           
   865                           ; 1 bytes @ 0xA
   866  007A                     	ds	1
   867  007B                     ___fladd@grs:
   868                           
   869                           ; 1 bytes @ 0xB
   870  007B                     	ds	1
   871  007C                     ??___flsub:
   872                           
   873                           ; 1 bytes @ 0xC
   874  007C                     	ds	2
   875  007E                     ??_alteraSenhaUser:
   876  007E                     ??_main:	
   877                           ; 1 bytes @ 0xE
   878                           
   879                           
   880                           	psect	cstackBANK0
   881  0020                     __pcstackBANK0:	
   882                           ; 1 bytes @ 0xE
   883                           
   884  0020                     ??_valida_senha:
   885  0020                     ??___fladd:	
   886                           ; 1 bytes @ 0x0
   887                           
   888  0020                     ?___flmul:	
   889                           ; 1 bytes @ 0x0
   890                           
   891  0020                     ___flmul@b:	
   892                           ; 4 bytes @ 0x0
   893                           
   894                           
   895                           ; 4 bytes @ 0x0
   896  0020                     	ds	3
   897  0023                     valida_senha@texto:
   898                           
   899                           ; 1 bytes @ 0x3
   900  0023                     	ds	1
   901  0024                     valida_senha@aceito:
   902  0024                     ___flmul@a:	
   903                           ; 2 bytes @ 0x4
   904                           
   905                           
   906                           ; 4 bytes @ 0x4
   907  0024                     	ds	4
   908  0028                     ?___flsub:
   909  0028                     ___flmul@sign:	
   910                           ; 4 bytes @ 0x8
   911                           
   912  0028                     ___flsub@a:	
   913                           ; 1 bytes @ 0x8
   914                           
   915                           
   916                           ; 4 bytes @ 0x8
   917  0028                     	ds	1
   918  0029                     ___flmul@grs:
   919                           
   920                           ; 4 bytes @ 0x9
   921  0029                     	ds	3
   922  002C                     ___flsub@b:
   923                           
   924                           ; 4 bytes @ 0xC
   925  002C                     	ds	1
   926  002D                     ___flmul@aexp:
   927                           
   928                           ; 1 bytes @ 0xD
   929  002D                     	ds	1
   930  002E                     ___flmul@bexp:
   931                           
   932                           ; 1 bytes @ 0xE
   933  002E                     	ds	1
   934  002F                     ___flmul@prod:
   935                           
   936                           ; 4 bytes @ 0xF
   937  002F                     	ds	4
   938  0033                     ___flmul@temp:
   939                           
   940                           ; 2 bytes @ 0x13
   941  0033                     	ds	2
   942  0035                     ?_liga_buzzer:
   943  0035                     liga_buzzer@tempoSegundos:	
   944                           ; 1 bytes @ 0x15
   945                           
   946                           
   947                           ; 4 bytes @ 0x15
   948  0035                     	ds	4
   949  0039                     ??_liga_buzzer:
   950                           
   951                           ; 1 bytes @ 0x19
   952  0039                     	ds	2
   953  003B                     ??_teclado:
   954                           
   955                           ; 1 bytes @ 0x1B
   956  003B                     	ds	3
   957  003E                     ??_inputSenhaAlter:
   958                           
   959                           ; 1 bytes @ 0x1E
   960  003E                     	ds	2
   961  0040                     inputSenhaAlter@senhaDestino:
   962                           
   963                           ; 1 bytes @ 0x20
   964  0040                     	ds	1
   965  0041                     inputSenhaAlter@i:
   966                           
   967                           ; 2 bytes @ 0x21
   968  0041                     	ds	2
   969  0043                     ??_rotinaValidaSenha:
   970                           
   971                           ; 1 bytes @ 0x23
   972  0043                     	ds	3
   973  0046                     rotinaValidaSenha@senhaOp:
   974                           
   975                           ; 1 bytes @ 0x26
   976  0046                     	ds	1
   977  0047                     ?_alteraSenhaUser:
   978  0047                     alteraSenhaUser@opConfig:	
   979                           ; 1 bytes @ 0x27
   980                           
   981                           
   982                           ; 2 bytes @ 0x27
   983  0047                     	ds	2
   984                           
   985                           	psect	maintext
   986  0A83                     __pmaintext:	
   987 ;;
   988 ;;Main: autosize = 0, tempsize = 0, incstack = 0, save=0
   989 ;;
   990 ;; *************** function _main *****************
   991 ;; Defined at:
   992 ;;		line 64 in file "main.c"
   993 ;; Parameters:    Size  Location     Type
   994 ;;		None
   995 ;; Auto vars:     Size  Location     Type
   996 ;;		None
   997 ;; Return value:  Size  Location     Type
   998 ;;                  1    wreg      void 
   999 ;; Registers used:
  1000 ;;		wreg, fsr0l, fsr0h, status,2, status,0, btemp+1, pclath, cstack
  1001 ;; Tracked objects:
  1002 ;;		On entry : B00/0
  1003 ;;		On exit  : 0/0
  1004 ;;		Unchanged: 0/0
  1005 ;; Data sizes:     COMMON   BANK0   BANK1   BANK3   BANK2
  1006 ;;      Params:         0       0       0       0       0
  1007 ;;      Locals:         0       0       0       0       0
  1008 ;;      Temps:          0       0       0       0       0
  1009 ;;      Totals:         0       0       0       0       0
  1010 ;;Total ram usage:        0 bytes
  1011 ;; Hardware stack levels required when called: 7
  1012 ;; This function calls:
  1013 ;;		_alteraSenhaUser
  1014 ;; This function is called by:
  1015 ;;		Startup code after reset
  1016 ;; This function uses a non-reentrant model
  1017 ;;
  1018                           
  1019                           
  1020                           ;psect for function _main
  1021  0A83                     _main:
  1022  0A83                     l3270:	
  1023                           ;incstack = 0
  1024                           ; Regs used in _main: [wreg-fsr0h+status,2+status,0+btemp+1+pclath+cstack]
  1025                           
  1026                           
  1027                           ;main.c: 65:     TRISE = 0x00;
  1028  0A83  1683               	bsf	3,5	;RP0=1, select bank1
  1029  0A84  1303               	bcf	3,6	;RP1=0, select bank1
  1030  0A85  0189               	clrf	9	;volatile
  1031                           
  1032                           ;main.c: 66:     TRISD = 0x00;
  1033  0A86  0188               	clrf	8	;volatile
  1034  0A87                     l3272:
  1035                           
  1036                           ;main.c: 67:     TRISB = 0x0F;
  1037  0A87  300F               	movlw	15
  1038  0A88  0086               	movwf	6	;volatile
  1039  0A89                     l3274:
  1040                           
  1041                           ;main.c: 68:     PORTE = 0x01;
  1042  0A89  3001               	movlw	1
  1043  0A8A  1283               	bcf	3,5	;RP0=0, select bank0
  1044  0A8B  1303               	bcf	3,6	;RP1=0, select bank0
  1045  0A8C  0089               	movwf	9	;volatile
  1046  0A8D                     l3276:
  1047                           
  1048                           ;main.c: 81:         menu = 1;
  1049  0A8D  3001               	movlw	1
  1050  0A8E  00CD               	movwf	_menu
  1051  0A8F  3000               	movlw	0
  1052  0A90  00CE               	movwf	_menu+1
  1053  0A91                     l3278:
  1054                           
  1055                           ;main.c: 82:         opConfig = 1;
  1056  0A91  3001               	movlw	1
  1057  0A92  00EC               	movwf	_opConfig
  1058  0A93  3000               	movlw	0
  1059  0A94  00ED               	movwf	_opConfig+1
  1060                           
  1061                           ;main.c: 83:         while (menu){
  1062  0A95  2AB4               	goto	l3292
  1063  0A96                     l3280:
  1064                           
  1065                           ;main.c: 87:             if (opConfig > 0){
  1066  0A96  086C               	movf	_opConfig,w
  1067  0A97  046D               	iorwf	_opConfig+1,w
  1068  0A98  1903               	btfsc	3,2
  1069  0A99  2A9B               	goto	u3341
  1070  0A9A  2A9C               	goto	u3340
  1071  0A9B                     u3341:
  1072  0A9B  2AB4               	goto	l3292
  1073  0A9C                     u3340:
  1074  0A9C  2AA7               	goto	l3290
  1075  0A9D                     l3284:
  1076                           
  1077                           ;main.c: 90:                         alteraSenhaUser(opConfig);
  1078  0A9D  086D               	movf	_opConfig+1,w
  1079  0A9E  00C8               	movwf	alteraSenhaUser@opConfig+1
  1080  0A9F  086C               	movf	_opConfig,w
  1081  0AA0  00C7               	movwf	alteraSenhaUser@opConfig
  1082  0AA1  120A  158A  22FE  120A  158A  	fcall	_alteraSenhaUser
  1083                           
  1084                           ;main.c: 91:                         break;
  1085  0AA6  2AB4               	goto	l3292
  1086  0AA7                     l3290:
  1087                           
  1088                           ; Switch on 2 bytes has been partitioned into a top level switch of size 1, and 1 sub-sw
      +                          itches
  1089                           ; Switch size 1, requested type "simple"
  1090                           ; Number of cases is 1, Range of values is 0 to 0
  1091                           ; switch strategies available:
  1092                           ; Name         Instructions Cycles
  1093                           ; simple_byte            4     3 (average)
  1094                           ; direct_byte           11     8 (fixed)
  1095                           ; jumptable            260     6 (fixed)
  1096                           ;	Chosen strategy is simple_byte
  1097  0AA7  086D               	movf	_opConfig+1,w
  1098  0AA8  3A00               	xorlw	0	; case 0
  1099  0AA9  1903               	skipnz
  1100  0AAA  2AAC               	goto	l3526
  1101  0AAB  2AB4               	goto	l3292
  1102  0AAC                     l3526:
  1103                           
  1104                           ; Switch size 1, requested type "simple"
  1105                           ; Number of cases is 2, Range of values is 1 to 2
  1106                           ; switch strategies available:
  1107                           ; Name         Instructions Cycles
  1108                           ; simple_byte            7     4 (average)
  1109                           ; direct_byte           17    11 (fixed)
  1110                           ; jumptable            263     9 (fixed)
  1111                           ;	Chosen strategy is simple_byte
  1112  0AAC  086C               	movf	_opConfig,w
  1113  0AAD  3A01               	xorlw	1	; case 1
  1114  0AAE  1903               	skipnz
  1115  0AAF  2A9D               	goto	l3284
  1116  0AB0  3A03               	xorlw	3	; case 2
  1117  0AB1  1903               	skipnz
  1118  0AB2  2A9D               	goto	l3284
  1119  0AB3  2AB4               	goto	l3292
  1120  0AB4                     l3292:
  1121                           
  1122                           ;main.c: 83:         while (menu){
  1123  0AB4  1283               	bcf	3,5	;RP0=0, select bank0
  1124  0AB5  1303               	bcf	3,6	;RP1=0, select bank0
  1125  0AB6  084D               	movf	_menu,w
  1126  0AB7  044E               	iorwf	_menu+1,w
  1127  0AB8  1D03               	btfss	3,2
  1128  0AB9  2ABB               	goto	u3351
  1129  0ABA  2ABC               	goto	u3350
  1130  0ABB                     u3351:
  1131  0ABB  2A96               	goto	l3280
  1132  0ABC                     u3350:
  1133  0ABC  2A8D               	goto	l3276
  1134  0ABD  120A  118A  2800   	ljmp	start
  1135  0AC0                     __end_of_main:
  1136                           
  1137                           	psect	text1
  1138  0AFE                     __ptext1:	
  1139 ;; *************** function _alteraSenhaUser *****************
  1140 ;; Defined at:
  1141 ;;		line 198 in file "main.c"
  1142 ;; Parameters:    Size  Location     Type
  1143 ;;  opConfig        2   39[BANK0 ] unsigned int 
  1144 ;; Auto vars:     Size  Location     Type
  1145 ;;		None
  1146 ;; Return value:  Size  Location     Type
  1147 ;;                  1    wreg      void 
  1148 ;; Registers used:
  1149 ;;		wreg, fsr0l, fsr0h, status,2, status,0, btemp+1, pclath, cstack
  1150 ;; Tracked objects:
  1151 ;;		On entry : 0/0
  1152 ;;		On exit  : 0/0
  1153 ;;		Unchanged: 0/0
  1154 ;; Data sizes:     COMMON   BANK0   BANK1   BANK3   BANK2
  1155 ;;      Params:         0       2       0       0       0
  1156 ;;      Locals:         0       0       0       0       0
  1157 ;;      Temps:          0       0       0       0       0
  1158 ;;      Totals:         0       2       0       0       0
  1159 ;;Total ram usage:        2 bytes
  1160 ;; Hardware stack levels used: 1
  1161 ;; Hardware stack levels required when called: 6
  1162 ;; This function calls:
  1163 ;;		_LCD_escreve
  1164 ;;		_LCD_init
  1165 ;;		_LCD_limpa
  1166 ;;		_Linha2
  1167 ;;		_escreveMesagem
  1168 ;;		_rotinaValidaSenha
  1169 ;; This function is called by:
  1170 ;;		_main
  1171 ;; This function uses a non-reentrant model
  1172 ;;
  1173                           
  1174                           
  1175                           ;psect for function _alteraSenhaUser
  1176  0AFE                     _alteraSenhaUser:
  1177  0AFE                     l3248:	
  1178                           ;incstack = 0
  1179                           ; Regs used in _alteraSenhaUser: [wreg-fsr0h+status,2+status,0+btemp+1+pclath+cstack]
  1180                           
  1181                           
  1182                           ;main.c: 199:     LCD_init();
  1183  0AFE  120A  158A  2219  120A  158A  	fcall	_LCD_init
  1184                           
  1185                           ;main.c: 200:     LCD_limpa();
  1186  0B03  120A  158A  2110  120A  158A  	fcall	_LCD_limpa
  1187  0B08                     l3250:
  1188                           
  1189                           ;main.c: 201:     escreveMesagem(msgDigiteNovaSenha);
  1190  0B08  30AE               	movlw	(low (_msgDigiteNovaSenha| (0+256)))& (0+255)
  1191  0B09  00F3               	movwf	escreveMesagem@texto
  1192  0B0A  3001               	movlw	1
  1193  0B0B  00F4               	movwf	escreveMesagem@texto+1
  1194  0B0C  120A  158A  224C  120A  158A  	fcall	_escreveMesagem
  1195  0B11                     l3252:
  1196                           
  1197                           ;main.c: 202:     Linha2();
  1198  0B11  120A  158A  22C0  120A  158A  	fcall	_Linha2
  1199  0B16                     l3254:
  1200                           
  1201                           ;main.c: 203:     if (opConfig == 1){
  1202  0B16  1283               	bcf	3,5	;RP0=0, select bank0
  1203  0B17  1303               	bcf	3,6	;RP1=0, select bank0
  1204  0B18  0347               	decf	alteraSenhaUser@opConfig,w
  1205  0B19  0448               	iorwf	alteraSenhaUser@opConfig+1,w
  1206  0B1A  1D03               	btfss	3,2
  1207  0B1B  2B1D               	goto	u3321
  1208  0B1C  2B1E               	goto	u3320
  1209  0B1D                     u3321:
  1210  0B1D  2B2B               	goto	l3262
  1211  0B1E                     u3320:
  1212  0B1E                     l3256:
  1213                           
  1214                           ;main.c: 204:         LCD_escreve('1');
  1215  0B1E  3031               	movlw	49
  1216  0B1F  120A  158A  2130  120A  158A  	fcall	_LCD_escreve
  1217  0B24                     l3258:
  1218                           
  1219                           ;main.c: 205:         rotinaValidaSenha(senhaConfig);
  1220  0B24  30DF               	movlw	(low (_senhaConfig| 0))& (0+255)
  1221  0B25  120A  158A  2383  120A  158A  	fcall	_rotinaValidaSenha
  1222  0B2A                     l3260:
  1223                           
  1224                           ;main.c: 208:     }
  1225  0B2A  2B3E               	goto	l211
  1226  0B2B                     l3262:
  1227  0B2B  3002               	movlw	2
  1228  0B2C  0647               	xorwf	alteraSenhaUser@opConfig,w
  1229  0B2D  0448               	iorwf	alteraSenhaUser@opConfig+1,w
  1230  0B2E  1D03               	btfss	3,2
  1231  0B2F  2B31               	goto	u3331
  1232  0B30  2B32               	goto	u3330
  1233  0B31                     u3331:
  1234  0B31  2B3E               	goto	l211
  1235  0B32                     u3330:
  1236  0B32                     l3264:
  1237                           
  1238                           ;main.c: 210:         LCD_escreve('2');
  1239  0B32  3032               	movlw	50
  1240  0B33  120A  158A  2130  120A  158A  	fcall	_LCD_escreve
  1241  0B38                     l3266:
  1242                           
  1243                           ;main.c: 211:         rotinaValidaSenha(senhaUser);
  1244  0B38  305F               	movlw	(low (_senhaUser| 0))& (0+255)
  1245  0B39  120A  158A  2383  120A  158A  	fcall	_rotinaValidaSenha
  1246  0B3E                     l3268:
  1247  0B3E                     l211:
  1248  0B3E  0008               	return
  1249  0B3F                     __end_of_alteraSenhaUser:
  1250                           
  1251                           	psect	text2
  1252  0B83                     __ptext2:	
  1253 ;; *************** function _rotinaValidaSenha *****************
  1254 ;; Defined at:
  1255 ;;		line 185 in file "main.c"
  1256 ;; Parameters:    Size  Location     Type
  1257 ;;  senhaOp         1    wreg     PTR unsigned char 
  1258 ;;		 -> senhaUser(5), senhaConfig(5), 
  1259 ;; Auto vars:     Size  Location     Type
  1260 ;;  senhaOp         1   38[BANK0 ] PTR unsigned char 
  1261 ;;		 -> senhaUser(5), senhaConfig(5), 
  1262 ;; Return value:  Size  Location     Type
  1263 ;;                  1    wreg      void 
  1264 ;; Registers used:
  1265 ;;		wreg, fsr0l, fsr0h, status,2, status,0, btemp+1, pclath, cstack
  1266 ;; Tracked objects:
  1267 ;;		On entry : 0/0
  1268 ;;		On exit  : 0/0
  1269 ;;		Unchanged: 0/0
  1270 ;; Data sizes:     COMMON   BANK0   BANK1   BANK3   BANK2
  1271 ;;      Params:         0       0       0       0       0
  1272 ;;      Locals:         0       1       0       0       0
  1273 ;;      Temps:          0       3       0       0       0
  1274 ;;      Totals:         0       4       0       0       0
  1275 ;;Total ram usage:        4 bytes
  1276 ;; Hardware stack levels used: 1
  1277 ;; Hardware stack levels required when called: 5
  1278 ;; This function calls:
  1279 ;;		_LCD_limpa
  1280 ;;		_LCD_linha2
  1281 ;;		_escreveMesagem
  1282 ;;		_inputSenhaAlter
  1283 ;; This function is called by:
  1284 ;;		_alteraSenhaUser
  1285 ;; This function uses a non-reentrant model
  1286 ;;
  1287                           
  1288                           
  1289                           ;psect for function _rotinaValidaSenha
  1290  0B83                     _rotinaValidaSenha:
  1291                           
  1292                           ;incstack = 0
  1293                           ; Regs used in _rotinaValidaSenha: [wreg-fsr0h+status,2+status,0+btemp+1+pclath+cstack]
  1294                           ;rotinaValidaSenha@senhaOp stored from wreg
  1295  0B83  1283               	bcf	3,5	;RP0=0, select bank0
  1296  0B84  1303               	bcf	3,6	;RP1=0, select bank0
  1297  0B85  00C6               	movwf	rotinaValidaSenha@senhaOp
  1298  0B86                     l3220:
  1299                           
  1300                           ;main.c: 186:     inputSenhaAlter(senhaOp);
  1301  0B86  0846               	movf	rotinaValidaSenha@senhaOp,w
  1302  0B87  120A  158A  2420  120A  158A  	fcall	_inputSenhaAlter
  1303  0B8C                     l3222:
  1304                           
  1305                           ;main.c: 187:         LCD_limpa();
  1306  0B8C  120A  158A  2110  120A  158A  	fcall	_LCD_limpa
  1307  0B91                     l3224:
  1308                           
  1309                           ;main.c: 188:         if (validaSenha){
  1310  0B91  1283               	bcf	3,5	;RP0=0, select bank0
  1311  0B92  1303               	bcf	3,6	;RP1=0, select bank0
  1312  0B93  086A               	movf	_validaSenha,w
  1313  0B94  046B               	iorwf	_validaSenha+1,w
  1314  0B95  1903               	btfsc	3,2
  1315  0B96  2B98               	goto	u3301
  1316  0B97  2B99               	goto	u3300
  1317  0B98                     u3301:
  1318  0B98  2BB3               	goto	l3232
  1319  0B99                     u3300:
  1320  0B99                     l3226:
  1321                           
  1322                           ;main.c: 189:             escreveMesagem(msgSenhaAtualizada);
  1323  0B99  3010               	movlw	(low (_msgSenhaAtualizada| (0+256)))& (0+255)
  1324  0B9A  00F3               	movwf	escreveMesagem@texto
  1325  0B9B  3001               	movlw	1
  1326  0B9C  00F4               	movwf	escreveMesagem@texto+1
  1327  0B9D  120A  158A  224C  120A  158A  	fcall	_escreveMesagem
  1328  0BA2                     l3228:
  1329                           
  1330                           ;main.c: 190:             LCD_linha2();
  1331  0BA2  120A  158A  2100  120A  158A  	fcall	_LCD_linha2
  1332  0BA7                     l3230:
  1333                           
  1334                           ;main.c: 191:             escreveMesagem(senhaOp);
  1335  0BA7  1283               	bcf	3,5	;RP0=0, select bank0
  1336  0BA8  1303               	bcf	3,6	;RP1=0, select bank0
  1337  0BA9  0846               	movf	rotinaValidaSenha@senhaOp,w
  1338  0BAA  00F3               	movwf	escreveMesagem@texto
  1339  0BAB  3000               	movlw	0
  1340  0BAC  00F4               	movwf	escreveMesagem@texto+1
  1341  0BAD  120A  158A  224C  120A  158A  	fcall	_escreveMesagem
  1342                           
  1343                           ;main.c: 192:         }
  1344  0BB2  2BBC               	goto	l3234
  1345  0BB3                     l3232:
  1346                           
  1347                           ;main.c: 194:             escreveMesagem(msgSenhaCancelada);
  1348  0BB3  3031               	movlw	(low (_msgSenhaCancelada| (0+256)))& (0+255)
  1349  0BB4  00F3               	movwf	escreveMesagem@texto
  1350  0BB5  3001               	movlw	1
  1351  0BB6  00F4               	movwf	escreveMesagem@texto+1
  1352  0BB7  120A  158A  224C  120A  158A  	fcall	_escreveMesagem
  1353  0BBC                     l3234:
  1354                           
  1355                           ;main.c: 196:         _delay((unsigned long)((2000)*(20000000/4000.0)));
  1356  0BBC  3033               	movlw	51
  1357  0BBD  1283               	bcf	3,5	;RP0=0, select bank0
  1358  0BBE  1303               	bcf	3,6	;RP1=0, select bank0
  1359  0BBF  00C5               	movwf	??_rotinaValidaSenha+2
  1360  0BC0  30BB               	movlw	187
  1361  0BC1  00C4               	movwf	??_rotinaValidaSenha+1
  1362  0BC2  30DF               	movlw	223
  1363  0BC3  00C3               	movwf	??_rotinaValidaSenha
  1364  0BC4                     u3557:
  1365  0BC4  0BC3               	decfsz	??_rotinaValidaSenha,f
  1366  0BC5  2BC4               	goto	u3557
  1367  0BC6  0BC4               	decfsz	??_rotinaValidaSenha+1,f
  1368  0BC7  2BC4               	goto	u3557
  1369  0BC8  0BC5               	decfsz	??_rotinaValidaSenha+2,f
  1370  0BC9  2BC4               	goto	u3557
  1371  0BCA                     l205:
  1372  0BCA  0008               	return
  1373  0BCB                     __end_of_rotinaValidaSenha:
  1374                           
  1375                           	psect	text3
  1376  0C20                     __ptext3:	
  1377 ;; *************** function _inputSenhaAlter *****************
  1378 ;; Defined at:
  1379 ;;		line 176 in file "main.c"
  1380 ;; Parameters:    Size  Location     Type
  1381 ;;  senhaDestino    1    wreg     PTR unsigned char 
  1382 ;;		 -> senhaUser(5), senhaConfig(5), 
  1383 ;; Auto vars:     Size  Location     Type
  1384 ;;  senhaDestino    1   32[BANK0 ] PTR unsigned char 
  1385 ;;		 -> senhaUser(5), senhaConfig(5), 
  1386 ;;  i               2   33[BANK0 ] int 
  1387 ;; Return value:  Size  Location     Type
  1388 ;;                  1    wreg      void 
  1389 ;; Registers used:
  1390 ;;		wreg, fsr0l, fsr0h, status,2, status,0, btemp+1, pclath, cstack
  1391 ;; Tracked objects:
  1392 ;;		On entry : 0/0
  1393 ;;		On exit  : 0/0
  1394 ;;		Unchanged: 0/0
  1395 ;; Data sizes:     COMMON   BANK0   BANK1   BANK3   BANK2
  1396 ;;      Params:         0       0       0       0       0
  1397 ;;      Locals:         0       3       0       0       0
  1398 ;;      Temps:          0       2       0       0       0
  1399 ;;      Totals:         0       5       0       0       0
  1400 ;;Total ram usage:        5 bytes
  1401 ;; Hardware stack levels used: 1
  1402 ;; Hardware stack levels required when called: 4
  1403 ;; This function calls:
  1404 ;;		_confereTeclado
  1405 ;;		_teclado
  1406 ;;		_valida_senha
  1407 ;; This function is called by:
  1408 ;;		_rotinaValidaSenha
  1409 ;; This function uses a non-reentrant model
  1410 ;;
  1411                           
  1412                           
  1413                           ;psect for function _inputSenhaAlter
  1414  0C20                     _inputSenhaAlter:
  1415                           
  1416                           ;incstack = 0
  1417                           ; Regs used in _inputSenhaAlter: [wreg-fsr0h+status,2+status,0+btemp+1+pclath+cstack]
  1418                           ;inputSenhaAlter@senhaDestino stored from wreg
  1419  0C20  1283               	bcf	3,5	;RP0=0, select bank0
  1420  0C21  1303               	bcf	3,6	;RP1=0, select bank0
  1421  0C22  00C0               	movwf	inputSenhaAlter@senhaDestino
  1422  0C23                     l3188:
  1423                           
  1424                           ;main.c: 177:     for (int i = 0; i < 4; i++){
  1425  0C23  01C1               	clrf	inputSenhaAlter@i
  1426  0C24  01C2               	clrf	inputSenhaAlter@i+1
  1427  0C25                     l3194:
  1428                           
  1429                           ;main.c: 178:         input = 10;
  1430  0C25  300A               	movlw	10
  1431  0C26  1283               	bcf	3,5	;RP0=0, select bank0
  1432  0C27  1303               	bcf	3,6	;RP1=0, select bank0
  1433  0C28  00D3               	movwf	_input
  1434  0C29  3000               	movlw	0
  1435  0C2A  00D4               	movwf	_input+1
  1436                           
  1437                           ;main.c: 179:         while (input == 10){teclado();}
  1438  0C2B  2C31               	goto	l3198
  1439  0C2C                     l3196:
  1440  0C2C  120A  118A  215A  120A  158A  	fcall	_teclado
  1441  0C31                     l3198:
  1442  0C31  300A               	movlw	10
  1443  0C32  1283               	bcf	3,5	;RP0=0, select bank0
  1444  0C33  1303               	bcf	3,6	;RP1=0, select bank0
  1445  0C34  0653               	xorwf	_input,w
  1446  0C35  0454               	iorwf	_input+1,w
  1447  0C36  1903               	btfsc	3,2
  1448  0C37  2C39               	goto	u3271
  1449  0C38  2C3A               	goto	u3270
  1450  0C39                     u3271:
  1451  0C39  2C2C               	goto	l3196
  1452  0C3A                     u3270:
  1453  0C3A                     l3200:
  1454                           
  1455                           ;main.c: 180:         _delay((unsigned long)((2)*(20000000/4000.0)));
  1456  0C3A  300D               	movlw	13
  1457  0C3B  1283               	bcf	3,5	;RP0=0, select bank0
  1458  0C3C  1303               	bcf	3,6	;RP1=0, select bank0
  1459  0C3D  00BF               	movwf	??_inputSenhaAlter+1
  1460  0C3E  30FB               	movlw	251
  1461  0C3F  00BE               	movwf	??_inputSenhaAlter
  1462  0C40                     u3567:
  1463  0C40  0BBE               	decfsz	??_inputSenhaAlter,f
  1464  0C41  2C40               	goto	u3567
  1465  0C42  0BBF               	decfsz	??_inputSenhaAlter+1,f
  1466  0C43  2C40               	goto	u3567
  1467  0C44                     l3202:
  1468                           
  1469                           ;main.c: 181:         senhaDestino[i] = confereTeclado(input);
  1470  0C44  1283               	bcf	3,5	;RP0=0, select bank0
  1471  0C45  1303               	bcf	3,6	;RP1=0, select bank0
  1472  0C46  0854               	movf	_input+1,w
  1473  0C47  00F1               	movwf	confereTeclado@numero+1
  1474  0C48  0853               	movf	_input,w
  1475  0C49  00F0               	movwf	confereTeclado@numero
  1476  0C4A  120A  158A  247C  120A  158A  	fcall	_confereTeclado
  1477  0C4F  1283               	bcf	3,5	;RP0=0, select bank0
  1478  0C50  1303               	bcf	3,6	;RP1=0, select bank0
  1479  0C51  00BE               	movwf	??_inputSenhaAlter
  1480  0C52  0841               	movf	inputSenhaAlter@i,w
  1481  0C53  0740               	addwf	inputSenhaAlter@senhaDestino,w
  1482  0C54  00BF               	movwf	??_inputSenhaAlter+1
  1483  0C55  083F               	movf	??_inputSenhaAlter+1,w
  1484  0C56  0084               	movwf	4
  1485  0C57  083E               	movf	??_inputSenhaAlter,w
  1486  0C58  1383               	bcf	3,7	;select IRP bank0
  1487  0C59  0080               	movwf	0
  1488  0C5A                     l3204:
  1489                           
  1490                           ;main.c: 182:     }
  1491  0C5A  3001               	movlw	1
  1492  0C5B  07C1               	addwf	inputSenhaAlter@i,f
  1493  0C5C  1803               	skipnc
  1494  0C5D  0AC2               	incf	inputSenhaAlter@i+1,f
  1495  0C5E  3000               	movlw	0
  1496  0C5F  07C2               	addwf	inputSenhaAlter@i+1,f
  1497  0C60                     l3206:
  1498  0C60  0842               	movf	inputSenhaAlter@i+1,w
  1499  0C61  3A80               	xorlw	128
  1500  0C62  00FF               	movwf	btemp+1
  1501  0C63  3080               	movlw	128
  1502  0C64  027F               	subwf	btemp+1,w
  1503  0C65  1D03               	skipz
  1504  0C66  2C69               	goto	u3285
  1505  0C67  3004               	movlw	4
  1506  0C68  0241               	subwf	inputSenhaAlter@i,w
  1507  0C69                     u3285:
  1508  0C69  1C03               	skipc
  1509  0C6A  2C6C               	goto	u3281
  1510  0C6B  2C6D               	goto	u3280
  1511  0C6C                     u3281:
  1512  0C6C  2C25               	goto	l3194
  1513  0C6D                     u3280:
  1514  0C6D                     l3208:
  1515                           
  1516                           ;main.c: 183:     validaSenha = valida_senha(senhaDestino);
  1517  0C6D  1283               	bcf	3,5	;RP0=0, select bank0
  1518  0C6E  1303               	bcf	3,6	;RP1=0, select bank0
  1519  0C6F  0840               	movf	inputSenhaAlter@senhaDestino,w
  1520  0C70  120A  118A  2031  120A  158A  	fcall	_valida_senha
  1521  0C75  087B               	movf	?_valida_senha+1,w
  1522  0C76  1283               	bcf	3,5	;RP0=0, select bank0
  1523  0C77  1303               	bcf	3,6	;RP1=0, select bank0
  1524  0C78  00EB               	movwf	_validaSenha+1
  1525  0C79  087A               	movf	?_valida_senha,w
  1526  0C7A  00EA               	movwf	_validaSenha
  1527  0C7B                     l200:
  1528  0C7B  0008               	return
  1529  0C7C                     __end_of_inputSenhaAlter:
  1530                           
  1531                           	psect	text4
  1532  0031                     __ptext4:	
  1533 ;; *************** function _valida_senha *****************
  1534 ;; Defined at:
  1535 ;;		line 149 in file "main.c"
  1536 ;; Parameters:    Size  Location     Type
  1537 ;;  texto           1    wreg     PTR unsigned char 
  1538 ;;		 -> senhaUser(5), senhaConfig(5), 
  1539 ;; Auto vars:     Size  Location     Type
  1540 ;;  texto           1    3[BANK0 ] PTR unsigned char 
  1541 ;;		 -> senhaUser(5), senhaConfig(5), 
  1542 ;;  aceito          2    4[BANK0 ] unsigned int 
  1543 ;; Return value:  Size  Location     Type
  1544 ;;                  2   10[COMMON] unsigned int 
  1545 ;; Registers used:
  1546 ;;		wreg, fsr0l, fsr0h, status,2, status,0, btemp+1, pclath, cstack
  1547 ;; Tracked objects:
  1548 ;;		On entry : 0/0
  1549 ;;		On exit  : 0/0
  1550 ;;		Unchanged: 0/0
  1551 ;; Data sizes:     COMMON   BANK0   BANK1   BANK3   BANK2
  1552 ;;      Params:         2       0       0       0       0
  1553 ;;      Locals:         0       3       0       0       0
  1554 ;;      Temps:          0       3       0       0       0
  1555 ;;      Totals:         2       6       0       0       0
  1556 ;;Total ram usage:        8 bytes
  1557 ;; Hardware stack levels used: 1
  1558 ;; Hardware stack levels required when called: 3
  1559 ;; This function calls:
  1560 ;;		_LCD_escreve
  1561 ;;		_LCD_limpa
  1562 ;;		_LCD_linha1
  1563 ;;		_LCD_linha2
  1564 ;;		_escreveMesagem
  1565 ;; This function is called by:
  1566 ;;		_inputSenhaAlter
  1567 ;; This function uses a non-reentrant model
  1568 ;;
  1569                           
  1570                           
  1571                           ;psect for function _valida_senha
  1572  0031                     _valida_senha:
  1573                           
  1574                           ;incstack = 0
  1575                           ; Regs used in _valida_senha: [wreg-fsr0h+status,2+status,0+btemp+1+pclath+cstack]
  1576                           ;valida_senha@texto stored from wreg
  1577  0031  1283               	bcf	3,5	;RP0=0, select bank0
  1578  0032  1303               	bcf	3,6	;RP1=0, select bank0
  1579  0033  00A3               	movwf	valida_senha@texto
  1580  0034                     l3156:
  1581                           
  1582                           ;main.c: 150:     unsigned int aceito = 3;
  1583  0034  3003               	movlw	3
  1584  0035  00A4               	movwf	valida_senha@aceito
  1585  0036  3000               	movlw	0
  1586  0037  00A5               	movwf	valida_senha@aceito+1
  1587  0038                     l3158:
  1588                           
  1589                           ;main.c: 151:     LCD_limpa();
  1590  0038  120A  158A  2110  120A  118A  	fcall	_LCD_limpa
  1591                           
  1592                           ;main.c: 152:     LCD_linha1();
  1593  003D  120A  158A  2120  120A  118A  	fcall	_LCD_linha1
  1594  0042                     l3160:
  1595                           
  1596                           ;main.c: 153:     escreveMesagem(msgValidaSenha);
  1597  0042  3021               	movlw	(low (_msgValidaSenha| (0+256)))& (0+255)
  1598  0043  00F3               	movwf	escreveMesagem@texto
  1599  0044  3001               	movlw	1
  1600  0045  00F4               	movwf	escreveMesagem@texto+1
  1601  0046  120A  158A  224C  120A  118A  	fcall	_escreveMesagem
  1602  004B                     l3162:
  1603                           
  1604                           ;main.c: 154:     LCD_linha2();
  1605  004B  120A  158A  2100  120A  118A  	fcall	_LCD_linha2
  1606                           
  1607                           ;main.c: 155:     escreveMesagem(texto);
  1608  0050  1283               	bcf	3,5	;RP0=0, select bank0
  1609  0051  1303               	bcf	3,6	;RP1=0, select bank0
  1610  0052  0823               	movf	valida_senha@texto,w
  1611  0053  00F3               	movwf	escreveMesagem@texto
  1612  0054  3000               	movlw	0
  1613  0055  00F4               	movwf	escreveMesagem@texto+1
  1614  0056  120A  158A  224C  120A  118A  	fcall	_escreveMesagem
  1615  005B                     l3164:
  1616                           
  1617                           ;main.c: 156:     LCD_escreve(' ');
  1618  005B  3020               	movlw	32
  1619  005C  120A  158A  2130  120A  118A  	fcall	_LCD_escreve
  1620  0061                     l3166:
  1621                           
  1622                           ;main.c: 157:     escreveMesagem(msgAceitoOuNego);
  1623  0061  30CD               	movlw	(low (_msgAceitoOuNego| 0))& (0+255)
  1624  0062  00F3               	movwf	escreveMesagem@texto
  1625  0063  3000               	movlw	0
  1626  0064  00F4               	movwf	escreveMesagem@texto+1
  1627  0065  120A  158A  224C  120A  118A  	fcall	_escreveMesagem
  1628  006A                     l3168:
  1629                           
  1630                           ;main.c: 158:     PORTB = 0b01111111;
  1631  006A  307F               	movlw	127
  1632  006B  1283               	bcf	3,5	;RP0=0, select bank0
  1633  006C  1303               	bcf	3,6	;RP1=0, select bank0
  1634  006D  0086               	movwf	6	;volatile
  1635                           
  1636                           ;main.c: 159:     while (aceito == 3){
  1637  006E  289A               	goto	l3182
  1638  006F                     l3170:
  1639                           
  1640                           ;main.c: 160:         _delay((unsigned long)((200)*(20000000/4000.0)));
  1641  006F  3006               	movlw	6
  1642  0070  1283               	bcf	3,5	;RP0=0, select bank0
  1643  0071  1303               	bcf	3,6	;RP1=0, select bank0
  1644  0072  00A2               	movwf	??_valida_senha+2
  1645  0073  3013               	movlw	19
  1646  0074  00A1               	movwf	??_valida_senha+1
  1647  0075  30AD               	movlw	173
  1648  0076  00A0               	movwf	??_valida_senha
  1649  0077                     u3577:
  1650  0077  0BA0               	decfsz	??_valida_senha,f
  1651  0078  2877               	goto	u3577
  1652  0079  0BA1               	decfsz	??_valida_senha+1,f
  1653  007A  2877               	goto	u3577
  1654  007B  0BA2               	decfsz	??_valida_senha+2,f
  1655  007C  2877               	goto	u3577
  1656  007D                     l3172:
  1657                           
  1658                           ;main.c: 162:         if (RB2 == 0){
  1659  007D  1283               	bcf	3,5	;RP0=0, select bank0
  1660  007E  1303               	bcf	3,6	;RP1=0, select bank0
  1661  007F  1906               	btfsc	6,2	;volatile
  1662  0080  2882               	goto	u3241
  1663  0081  2883               	goto	u3240
  1664  0082                     u3241:
  1665  0082  288C               	goto	l188
  1666  0083                     u3240:
  1667  0083                     l3174:
  1668                           
  1669                           ;main.c: 163:             aceito = 0;
  1670  0083  01A4               	clrf	valida_senha@aceito
  1671  0084  01A5               	clrf	valida_senha@aceito+1
  1672  0085                     l3176:
  1673                           
  1674                           ;main.c: 164:             LCD_escreve('E');
  1675  0085  3045               	movlw	69
  1676  0086  120A  158A  2130  120A  118A  	fcall	_LCD_escreve
  1677                           
  1678                           ;main.c: 165:         }
  1679  008B  289A               	goto	l3182
  1680  008C                     l188:	
  1681                           ;main.c: 166:         else if (RB3 == 0){
  1682                           
  1683  008C  1986               	btfsc	6,3	;volatile
  1684  008D  288F               	goto	u3251
  1685  008E  2890               	goto	u3250
  1686  008F                     u3251:
  1687  008F  289A               	goto	l3182
  1688  0090                     u3250:
  1689  0090                     l3178:
  1690                           
  1691                           ;main.c: 168:             aceito = 1;
  1692  0090  3001               	movlw	1
  1693  0091  00A4               	movwf	valida_senha@aceito
  1694  0092  3000               	movlw	0
  1695  0093  00A5               	movwf	valida_senha@aceito+1
  1696  0094                     l3180:
  1697                           
  1698                           ;main.c: 169:             LCD_escreve('F');
  1699  0094  3046               	movlw	70
  1700  0095  120A  158A  2130  120A  118A  	fcall	_LCD_escreve
  1701  009A                     l3182:
  1702                           
  1703                           ;main.c: 159:     while (aceito == 3){
  1704  009A  3003               	movlw	3
  1705  009B  1283               	bcf	3,5	;RP0=0, select bank0
  1706  009C  1303               	bcf	3,6	;RP1=0, select bank0
  1707  009D  0624               	xorwf	valida_senha@aceito,w
  1708  009E  0425               	iorwf	valida_senha@aceito+1,w
  1709  009F  1903               	btfsc	3,2
  1710  00A0  28A2               	goto	u3261
  1711  00A1  28A3               	goto	u3260
  1712  00A2                     u3261:
  1713  00A2  286F               	goto	l3170
  1714  00A3                     u3260:
  1715  00A3                     l3184:
  1716                           
  1717                           ;main.c: 172:     _delay((unsigned long)((2000)*(20000000/4000.0)));
  1718  00A3  3033               	movlw	51
  1719  00A4  1283               	bcf	3,5	;RP0=0, select bank0
  1720  00A5  1303               	bcf	3,6	;RP1=0, select bank0
  1721  00A6  00A2               	movwf	??_valida_senha+2
  1722  00A7  30BB               	movlw	187
  1723  00A8  00A1               	movwf	??_valida_senha+1
  1724  00A9  30DF               	movlw	223
  1725  00AA  00A0               	movwf	??_valida_senha
  1726  00AB                     u3587:
  1727  00AB  0BA0               	decfsz	??_valida_senha,f
  1728  00AC  28AB               	goto	u3587
  1729  00AD  0BA1               	decfsz	??_valida_senha+1,f
  1730  00AE  28AB               	goto	u3587
  1731  00AF  0BA2               	decfsz	??_valida_senha+2,f
  1732  00B0  28AB               	goto	u3587
  1733                           
  1734                           ;main.c: 173:     return aceito;
  1735  00B1  1283               	bcf	3,5	;RP0=0, select bank0
  1736  00B2  1303               	bcf	3,6	;RP1=0, select bank0
  1737  00B3  0825               	movf	valida_senha@aceito+1,w
  1738  00B4  00FB               	movwf	?_valida_senha+1
  1739  00B5  0824               	movf	valida_senha@aceito,w
  1740  00B6  00FA               	movwf	?_valida_senha
  1741  00B7                     l192:
  1742  00B7  0008               	return
  1743  00B8                     __end_of_valida_senha:
  1744                           
  1745                           	psect	text5
  1746  0A4C                     __ptext5:	
  1747 ;; *************** function _escreveMesagem *****************
  1748 ;; Defined at:
  1749 ;;		line 549 in file "main.c"
  1750 ;; Parameters:    Size  Location     Type
  1751 ;;  texto           2    3[COMMON] PTR unsigned char 
  1752 ;;		 -> msgReativar(9), msgDesativarZona(15), msgSenhaDisparo(14), msgSenhaCoacao(13), 
  1753 ;;		 -> msgSenhaUsuario(14), msgSenhaConfig(13), msgSenhaCorreta(14), msgSenhaErrada(13), 
  1754 ;;		 -> senhaUser(5), senhaConfig(5), msgDigiteNovaSenha(14), msgSenhaCancelada(16), 
  1755 ;;		 -> msgSenhaAtualizada(17), msgAceitoOuNego(9), msgValidaSenha(16), 
  1756 ;; Auto vars:     Size  Location     Type
  1757 ;;  i               2    8[COMMON] int 
  1758 ;; Return value:  Size  Location     Type
  1759 ;;                  1    wreg      void 
  1760 ;; Registers used:
  1761 ;;		wreg, fsr0l, fsr0h, status,2, status,0, btemp+1, pclath, cstack
  1762 ;; Tracked objects:
  1763 ;;		On entry : 0/0
  1764 ;;		On exit  : 0/0
  1765 ;;		Unchanged: 0/0
  1766 ;; Data sizes:     COMMON   BANK0   BANK1   BANK3   BANK2
  1767 ;;      Params:         2       0       0       0       0
  1768 ;;      Locals:         2       0       0       0       0
  1769 ;;      Temps:          3       0       0       0       0
  1770 ;;      Totals:         7       0       0       0       0
  1771 ;;Total ram usage:        7 bytes
  1772 ;; Hardware stack levels used: 1
  1773 ;; Hardware stack levels required when called: 2
  1774 ;; This function calls:
  1775 ;;		_LCD_escreve
  1776 ;; This function is called by:
  1777 ;;		_valida_senha
  1778 ;;		_rotinaValidaSenha
  1779 ;;		_alteraSenhaUser
  1780 ;;		_validaUser
  1781 ;;		_listaZonas
  1782 ;; This function uses a non-reentrant model
  1783 ;;
  1784                           
  1785                           
  1786                           ;psect for function _escreveMesagem
  1787  0A4C                     _escreveMesagem:
  1788  0A4C                     l3148:	
  1789                           ;incstack = 0
  1790                           ; Regs used in _escreveMesagem: [wreg-fsr0h+status,2+status,0+btemp+1+pclath+cstack]
  1791                           
  1792                           
  1793                           ;main.c: 550:     for (int i = 0; texto[i] != '\0'; i++){
  1794  0A4C  01F8               	clrf	escreveMesagem@i
  1795  0A4D  01F9               	clrf	escreveMesagem@i+1
  1796  0A4E  2A6C               	goto	l3154
  1797  0A4F                     l3150:
  1798                           
  1799                           ;main.c: 551:         LCD_escreve(texto[i]);
  1800  0A4F  0878               	movf	escreveMesagem@i,w
  1801  0A50  0773               	addwf	escreveMesagem@texto,w
  1802  0A51  00F6               	movwf	??_escreveMesagem+1
  1803  0A52  0874               	movf	escreveMesagem@texto+1,w
  1804  0A53  00F5               	movwf	??_escreveMesagem
  1805  0A54  1803               	skipnc
  1806  0A55  0AF5               	incf	??_escreveMesagem,f
  1807  0A56  1FF8               	btfss	escreveMesagem@i,7
  1808  0A57  2A59               	goto	u3210
  1809  0A58  03F5               	decf	??_escreveMesagem,f
  1810  0A59                     u3210:
  1811  0A59  0875               	movf	??_escreveMesagem,w
  1812  0A5A  00F7               	movwf	??_escreveMesagem+2
  1813  0A5B  0876               	movf	??_escreveMesagem+1,w
  1814  0A5C  0084               	movwf	4
  1815  0A5D  1783               	bsf	3,7
  1816  0A5E  1C77               	btfss	??_escreveMesagem+2,0
  1817  0A5F  1383               	bcf	3,7
  1818  0A60  0800               	movf	0,w
  1819  0A61  120A  158A  2130  120A  158A  	fcall	_LCD_escreve
  1820  0A66                     l3152:
  1821                           
  1822                           ;main.c: 552:     }
  1823  0A66  3001               	movlw	1
  1824  0A67  07F8               	addwf	escreveMesagem@i,f
  1825  0A68  1803               	skipnc
  1826  0A69  0AF9               	incf	escreveMesagem@i+1,f
  1827  0A6A  3000               	movlw	0
  1828  0A6B  07F9               	addwf	escreveMesagem@i+1,f
  1829  0A6C                     l3154:
  1830  0A6C  0878               	movf	escreveMesagem@i,w
  1831  0A6D  0773               	addwf	escreveMesagem@texto,w
  1832  0A6E  00F6               	movwf	??_escreveMesagem+1
  1833  0A6F  0874               	movf	escreveMesagem@texto+1,w
  1834  0A70  00F5               	movwf	??_escreveMesagem
  1835  0A71  1803               	skipnc
  1836  0A72  0AF5               	incf	??_escreveMesagem,f
  1837  0A73  1FF8               	btfss	escreveMesagem@i,7
  1838  0A74  2A76               	goto	u3220
  1839  0A75  03F5               	decf	??_escreveMesagem,f
  1840  0A76                     u3220:
  1841  0A76  0875               	movf	??_escreveMesagem,w
  1842  0A77  00F7               	movwf	??_escreveMesagem+2
  1843  0A78  0876               	movf	??_escreveMesagem+1,w
  1844  0A79  0084               	movwf	4
  1845  0A7A  1783               	bsf	3,7
  1846  0A7B  1C77               	btfss	??_escreveMesagem+2,0
  1847  0A7C  1383               	bcf	3,7
  1848  0A7D  0800               	movf	0,w
  1849  0A7E  1D03               	btfss	3,2
  1850  0A7F  2A81               	goto	u3231
  1851  0A80  2A82               	goto	u3230
  1852  0A81                     u3231:
  1853  0A81  2A4F               	goto	l3150
  1854  0A82                     u3230:
  1855  0A82                     l305:
  1856  0A82  0008               	return
  1857  0A83                     __end_of_escreveMesagem:
  1858                           
  1859                           	psect	text6
  1860  0920                     __ptext6:	
  1861 ;; *************** function _LCD_linha1 *****************
  1862 ;; Defined at:
  1863 ;;		line 65 in file "./lcd.h"
  1864 ;; Parameters:    Size  Location     Type
  1865 ;;		None
  1866 ;; Auto vars:     Size  Location     Type
  1867 ;;		None
  1868 ;; Return value:  Size  Location     Type
  1869 ;;                  1    wreg      void 
  1870 ;; Registers used:
  1871 ;;		wreg, status,2, status,0, btemp+1, pclath, cstack
  1872 ;; Tracked objects:
  1873 ;;		On entry : 0/0
  1874 ;;		On exit  : 0/0
  1875 ;;		Unchanged: 0/0
  1876 ;; Data sizes:     COMMON   BANK0   BANK1   BANK3   BANK2
  1877 ;;      Params:         0       0       0       0       0
  1878 ;;      Locals:         0       0       0       0       0
  1879 ;;      Temps:          0       0       0       0       0
  1880 ;;      Totals:         0       0       0       0       0
  1881 ;;Total ram usage:        0 bytes
  1882 ;; Hardware stack levels used: 1
  1883 ;; Hardware stack levels required when called: 1
  1884 ;; This function calls:
  1885 ;;		_delay
  1886 ;; This function is called by:
  1887 ;;		_valida_senha
  1888 ;;		_telaInicial
  1889 ;;		_validaUser
  1890 ;;		_listaZonas
  1891 ;; This function uses a non-reentrant model
  1892 ;;
  1893                           
  1894                           
  1895                           ;psect for function _LCD_linha1
  1896  0920                     _LCD_linha1:
  1897  0920                     l2442:	
  1898                           ;incstack = 0
  1899                           ; Regs used in _LCD_linha1: [wreg+status,2+status,0+btemp+1+pclath+cstack]
  1900                           
  1901                           
  1902                           ;./lcd.h: 66:     PORTD = 0x02;
  1903  0920  3002               	movlw	2
  1904  0921  1283               	bcf	3,5	;RP0=0, select bank0
  1905  0922  1303               	bcf	3,6	;RP1=0, select bank0
  1906  0923  0088               	movwf	8	;volatile
  1907  0924                     l2444:
  1908                           
  1909                           ;./lcd.h: 67:     RA5 = 0;
  1910  0924  1285               	bcf	5,5	;volatile
  1911  0925                     l2446:
  1912                           
  1913                           ;./lcd.h: 68:     RA4 = 0;
  1914  0925  1205               	bcf	5,4	;volatile
  1915  0926                     l2448:
  1916                           
  1917                           ;./lcd.h: 69:     RA3=0;
  1918  0926  1185               	bcf	5,3	;volatile
  1919  0927                     l2450:
  1920                           
  1921                           ;./lcd.h: 70:     delay();
  1922  0927  120A  158A  2154  120A  158A  	fcall	_delay
  1923  092C                     l2452:
  1924                           
  1925                           ;./lcd.h: 71:  RA3 = 1;
  1926  092C  1283               	bcf	3,5	;RP0=0, select bank0
  1927  092D  1303               	bcf	3,6	;RP1=0, select bank0
  1928  092E  1585               	bsf	5,3	;volatile
  1929  092F                     l75:
  1930  092F  0008               	return
  1931  0930                     __end_of_LCD_linha1:
  1932                           
  1933                           	psect	text7
  1934  0910                     __ptext7:	
  1935 ;; *************** function _LCD_limpa *****************
  1936 ;; Defined at:
  1937 ;;		line 56 in file "./lcd.h"
  1938 ;; Parameters:    Size  Location     Type
  1939 ;;		None
  1940 ;; Auto vars:     Size  Location     Type
  1941 ;;		None
  1942 ;; Return value:  Size  Location     Type
  1943 ;;                  1    wreg      void 
  1944 ;; Registers used:
  1945 ;;		wreg, status,2, status,0, btemp+1, pclath, cstack
  1946 ;; Tracked objects:
  1947 ;;		On entry : 0/0
  1948 ;;		On exit  : 0/0
  1949 ;;		Unchanged: 0/0
  1950 ;; Data sizes:     COMMON   BANK0   BANK1   BANK3   BANK2
  1951 ;;      Params:         0       0       0       0       0
  1952 ;;      Locals:         0       0       0       0       0
  1953 ;;      Temps:          0       0       0       0       0
  1954 ;;      Totals:         0       0       0       0       0
  1955 ;;Total ram usage:        0 bytes
  1956 ;; Hardware stack levels used: 1
  1957 ;; Hardware stack levels required when called: 1
  1958 ;; This function calls:
  1959 ;;		_delay
  1960 ;; This function is called by:
  1961 ;;		_valida_senha
  1962 ;;		_rotinaValidaSenha
  1963 ;;		_alteraSenhaUser
  1964 ;;		_validaUser
  1965 ;;		_listaZonas
  1966 ;; This function uses a non-reentrant model
  1967 ;;
  1968                           
  1969                           
  1970                           ;psect for function _LCD_limpa
  1971  0910                     _LCD_limpa:
  1972  0910                     l2430:	
  1973                           ;incstack = 0
  1974                           ; Regs used in _LCD_limpa: [wreg+status,2+status,0+btemp+1+pclath+cstack]
  1975                           
  1976                           
  1977                           ;./lcd.h: 57:     PORTD = 0x01;
  1978  0910  3001               	movlw	1
  1979  0911  1283               	bcf	3,5	;RP0=0, select bank0
  1980  0912  1303               	bcf	3,6	;RP1=0, select bank0
  1981  0913  0088               	movwf	8	;volatile
  1982  0914                     l2432:
  1983                           
  1984                           ;./lcd.h: 58:     RA5 = 0;
  1985  0914  1285               	bcf	5,5	;volatile
  1986  0915                     l2434:
  1987                           
  1988                           ;./lcd.h: 59:     RA4 = 0;
  1989  0915  1205               	bcf	5,4	;volatile
  1990  0916                     l2436:
  1991                           
  1992                           ;./lcd.h: 60:     RA3=0;
  1993  0916  1185               	bcf	5,3	;volatile
  1994  0917                     l2438:
  1995                           
  1996                           ;./lcd.h: 61:     delay();
  1997  0917  120A  158A  2154  120A  158A  	fcall	_delay
  1998  091C                     l2440:
  1999                           
  2000                           ;./lcd.h: 62:  RA3 = 1;
  2001  091C  1283               	bcf	3,5	;RP0=0, select bank0
  2002  091D  1303               	bcf	3,6	;RP1=0, select bank0
  2003  091E  1585               	bsf	5,3	;volatile
  2004  091F                     l72:
  2005  091F  0008               	return
  2006  0920                     __end_of_LCD_limpa:
  2007                           
  2008                           	psect	text8
  2009  015A                     __ptext8:	
  2010 ;; *************** function _teclado *****************
  2011 ;; Defined at:
  2012 ;;		line 227 in file "main.c"
  2013 ;; Parameters:    Size  Location     Type
  2014 ;;		None
  2015 ;; Auto vars:     Size  Location     Type
  2016 ;;		None
  2017 ;; Return value:  Size  Location     Type
  2018 ;;                  1    wreg      void 
  2019 ;; Registers used:
  2020 ;;		wreg, status,2, status,0, btemp+1, pclath, cstack
  2021 ;; Tracked objects:
  2022 ;;		On entry : 0/0
  2023 ;;		On exit  : 0/0
  2024 ;;		Unchanged: 0/0
  2025 ;; Data sizes:     COMMON   BANK0   BANK1   BANK3   BANK2
  2026 ;;      Params:         0       0       0       0       0
  2027 ;;      Locals:         0       0       0       0       0
  2028 ;;      Temps:          0       3       0       0       0
  2029 ;;      Totals:         0       3       0       0       0
  2030 ;;Total ram usage:        3 bytes
  2031 ;; Hardware stack levels used: 1
  2032 ;; Hardware stack levels required when called: 3
  2033 ;; This function calls:
  2034 ;;		_LCD_escreve
  2035 ;;		_liga_buzzer
  2036 ;; This function is called by:
  2037 ;;		_inputSenhaAlter
  2038 ;;		_validaUser
  2039 ;; This function uses a non-reentrant model
  2040 ;;
  2041                           
  2042                           
  2043                           ;psect for function _teclado
  2044  015A                     _teclado:
  2045  015A                     l2554:	
  2046                           ;incstack = 0
  2047                           ; Regs used in _teclado: [wreg+status,2+status,0+btemp+1+pclath+cstack]
  2048                           
  2049                           
  2050                           ;main.c: 228:     PORTE = 0x01;
  2051  015A  3001               	movlw	1
  2052  015B  1283               	bcf	3,5	;RP0=0, select bank0
  2053  015C  1303               	bcf	3,6	;RP1=0, select bank0
  2054  015D  0089               	movwf	9	;volatile
  2055                           
  2056                           ;main.c: 232:     PORTB = 0b11101111;
  2057  015E  30EF               	movlw	239
  2058  015F  0086               	movwf	6	;volatile
  2059  0160                     l2556:
  2060                           
  2061                           ;main.c: 236:     if (RB0 == 0){
  2062  0160  1806               	btfsc	6,0	;volatile
  2063  0161  2963               	goto	u2591
  2064  0162  2964               	goto	u2590
  2065  0163                     u2591:
  2066  0163  2993               	goto	l2568
  2067  0164                     u2590:
  2068  0164                     l2558:
  2069                           
  2070                           ;main.c: 237:         _delay((unsigned long)((200)*(20000000/4000.0)));
  2071  0164  3006               	movlw	6
  2072  0165  1283               	bcf	3,5	;RP0=0, select bank0
  2073  0166  1303               	bcf	3,6	;RP1=0, select bank0
  2074  0167  00BD               	movwf	??_teclado+2
  2075  0168  3013               	movlw	19
  2076  0169  00BC               	movwf	??_teclado+1
  2077  016A  30AD               	movlw	173
  2078  016B  00BB               	movwf	??_teclado
  2079  016C                     u3597:
  2080  016C  0BBB               	decfsz	??_teclado,f
  2081  016D  296C               	goto	u3597
  2082  016E  0BBC               	decfsz	??_teclado+1,f
  2083  016F  296C               	goto	u3597
  2084  0170  0BBD               	decfsz	??_teclado+2,f
  2085  0171  296C               	goto	u3597
  2086  0172                     l2560:
  2087                           
  2088                           ;main.c: 238:         liga_buzzer(0.1);
  2089  0172  303D               	movlw	61
  2090  0173  1283               	bcf	3,5	;RP0=0, select bank0
  2091  0174  1303               	bcf	3,6	;RP1=0, select bank0
  2092  0175  00B8               	movwf	liga_buzzer@tempoSegundos+3
  2093  0176  30CC               	movlw	204
  2094  0177  00B7               	movwf	liga_buzzer@tempoSegundos+2
  2095  0178  30CC               	movlw	204
  2096  0179  00B6               	movwf	liga_buzzer@tempoSegundos+1
  2097  017A  30CD               	movlw	205
  2098  017B  00B5               	movwf	liga_buzzer@tempoSegundos
  2099  017C  120A  158A  24EC  120A  118A  	fcall	_liga_buzzer
  2100  0181                     l2562:
  2101                           
  2102                           ;main.c: 239:         LCD_escreve('0');
  2103  0181  3030               	movlw	48
  2104  0182  120A  158A  2130  120A  118A  	fcall	_LCD_escreve
  2105  0187                     l2564:
  2106                           
  2107                           ;main.c: 240:         if(userFalse){
  2108  0187  1283               	bcf	3,5	;RP0=0, select bank0
  2109  0188  1303               	bcf	3,6	;RP1=0, select bank0
  2110  0189  084F               	movf	_userFalse,w
  2111  018A  0450               	iorwf	_userFalse+1,w
  2112  018B  1903               	btfsc	3,2
  2113  018C  298E               	goto	u2601
  2114  018D  298F               	goto	u2600
  2115  018E                     u2601:
  2116  018E  2991               	goto	l221
  2117  018F                     u2600:
  2118  018F                     l2566:
  2119                           
  2120                           ;main.c: 241:             input = 0;
  2121  018F  01D3               	clrf	_input
  2122  0190  01D4               	clrf	_input+1
  2123  0191                     l221:	
  2124                           ;main.c: 243:         if (alteraSenha){
  2125                           
  2126                           
  2127                           ;main.c: 244:             input = 0;
  2128  0191  01D3               	clrf	_input
  2129  0192  01D4               	clrf	_input+1
  2130  0193                     l2568:
  2131                           
  2132                           ;main.c: 250:     if (RB1 == 0){
  2133  0193  1886               	btfsc	6,1	;volatile
  2134  0194  2996               	goto	u2611
  2135  0195  2997               	goto	u2610
  2136  0196                     u2611:
  2137  0196  29CA               	goto	l2580
  2138  0197                     u2610:
  2139  0197                     l2570:
  2140                           
  2141                           ;main.c: 251:         _delay((unsigned long)((200)*(20000000/4000.0)));
  2142  0197  3006               	movlw	6
  2143  0198  1283               	bcf	3,5	;RP0=0, select bank0
  2144  0199  1303               	bcf	3,6	;RP1=0, select bank0
  2145  019A  00BD               	movwf	??_teclado+2
  2146  019B  3013               	movlw	19
  2147  019C  00BC               	movwf	??_teclado+1
  2148  019D  30AD               	movlw	173
  2149  019E  00BB               	movwf	??_teclado
  2150  019F                     u3607:
  2151  019F  0BBB               	decfsz	??_teclado,f
  2152  01A0  299F               	goto	u3607
  2153  01A1  0BBC               	decfsz	??_teclado+1,f
  2154  01A2  299F               	goto	u3607
  2155  01A3  0BBD               	decfsz	??_teclado+2,f
  2156  01A4  299F               	goto	u3607
  2157  01A5                     l2572:
  2158                           
  2159                           ;main.c: 252:         liga_buzzer(0.1);
  2160  01A5  303D               	movlw	61
  2161  01A6  1283               	bcf	3,5	;RP0=0, select bank0
  2162  01A7  1303               	bcf	3,6	;RP1=0, select bank0
  2163  01A8  00B8               	movwf	liga_buzzer@tempoSegundos+3
  2164  01A9  30CC               	movlw	204
  2165  01AA  00B7               	movwf	liga_buzzer@tempoSegundos+2
  2166  01AB  30CC               	movlw	204
  2167  01AC  00B6               	movwf	liga_buzzer@tempoSegundos+1
  2168  01AD  30CD               	movlw	205
  2169  01AE  00B5               	movwf	liga_buzzer@tempoSegundos
  2170  01AF  120A  158A  24EC  120A  118A  	fcall	_liga_buzzer
  2171  01B4                     l2574:
  2172                           
  2173                           ;main.c: 253:         LCD_escreve('1');
  2174  01B4  3031               	movlw	49
  2175  01B5  120A  158A  2130  120A  118A  	fcall	_LCD_escreve
  2176  01BA                     l2576:
  2177                           
  2178                           ;main.c: 254:         if(userFalse){
  2179  01BA  1283               	bcf	3,5	;RP0=0, select bank0
  2180  01BB  1303               	bcf	3,6	;RP1=0, select bank0
  2181  01BC  084F               	movf	_userFalse,w
  2182  01BD  0450               	iorwf	_userFalse+1,w
  2183  01BE  1903               	btfsc	3,2
  2184  01BF  29C1               	goto	u2621
  2185  01C0  29C2               	goto	u2620
  2186  01C1                     u2621:
  2187  01C1  29C6               	goto	l224
  2188  01C2                     u2620:
  2189  01C2                     l2578:
  2190                           
  2191                           ;main.c: 255:             input = 1;
  2192  01C2  3001               	movlw	1
  2193  01C3  00D3               	movwf	_input
  2194  01C4  3000               	movlw	0
  2195  01C5  00D4               	movwf	_input+1
  2196  01C6                     l224:	
  2197                           ;main.c: 257:         if (alteraSenha){
  2198                           
  2199                           
  2200                           ;main.c: 258:             input = 1;
  2201  01C6  3001               	movlw	1
  2202  01C7  00D3               	movwf	_input
  2203  01C8  3000               	movlw	0
  2204  01C9  00D4               	movwf	_input+1
  2205  01CA                     l2580:
  2206                           
  2207                           ;main.c: 264:     if (RB2 == 0){
  2208  01CA  1906               	btfsc	6,2	;volatile
  2209  01CB  29CD               	goto	u2631
  2210  01CC  29CE               	goto	u2630
  2211  01CD                     u2631:
  2212  01CD  29FD               	goto	l2592
  2213  01CE                     u2630:
  2214  01CE                     l2582:
  2215                           
  2216                           ;main.c: 265:         _delay((unsigned long)((200)*(20000000/4000.0)));
  2217  01CE  3006               	movlw	6
  2218  01CF  1283               	bcf	3,5	;RP0=0, select bank0
  2219  01D0  1303               	bcf	3,6	;RP1=0, select bank0
  2220  01D1  00BD               	movwf	??_teclado+2
  2221  01D2  3013               	movlw	19
  2222  01D3  00BC               	movwf	??_teclado+1
  2223  01D4  30AD               	movlw	173
  2224  01D5  00BB               	movwf	??_teclado
  2225  01D6                     u3617:
  2226  01D6  0BBB               	decfsz	??_teclado,f
  2227  01D7  29D6               	goto	u3617
  2228  01D8  0BBC               	decfsz	??_teclado+1,f
  2229  01D9  29D6               	goto	u3617
  2230  01DA  0BBD               	decfsz	??_teclado+2,f
  2231  01DB  29D6               	goto	u3617
  2232  01DC                     l2584:
  2233                           
  2234                           ;main.c: 266:         liga_buzzer(0.1);
  2235  01DC  303D               	movlw	61
  2236  01DD  1283               	bcf	3,5	;RP0=0, select bank0
  2237  01DE  1303               	bcf	3,6	;RP1=0, select bank0
  2238  01DF  00B8               	movwf	liga_buzzer@tempoSegundos+3
  2239  01E0  30CC               	movlw	204
  2240  01E1  00B7               	movwf	liga_buzzer@tempoSegundos+2
  2241  01E2  30CC               	movlw	204
  2242  01E3  00B6               	movwf	liga_buzzer@tempoSegundos+1
  2243  01E4  30CD               	movlw	205
  2244  01E5  00B5               	movwf	liga_buzzer@tempoSegundos
  2245  01E6  120A  158A  24EC  120A  118A  	fcall	_liga_buzzer
  2246  01EB                     l2586:
  2247                           
  2248                           ;main.c: 267:         LCD_escreve('2');
  2249  01EB  3032               	movlw	50
  2250  01EC  120A  158A  2130  120A  118A  	fcall	_LCD_escreve
  2251  01F1                     l2588:
  2252                           
  2253                           ;main.c: 268:         if(userFalse){
  2254  01F1  1283               	bcf	3,5	;RP0=0, select bank0
  2255  01F2  1303               	bcf	3,6	;RP1=0, select bank0
  2256  01F3  084F               	movf	_userFalse,w
  2257  01F4  0450               	iorwf	_userFalse+1,w
  2258  01F5  1903               	btfsc	3,2
  2259  01F6  29F8               	goto	u2641
  2260  01F7  29F9               	goto	u2640
  2261  01F8                     u2641:
  2262  01F8  29FD               	goto	l2592
  2263  01F9                     u2640:
  2264  01F9                     l2590:
  2265                           
  2266                           ;main.c: 269:             input = 2;
  2267  01F9  3002               	movlw	2
  2268  01FA  00D3               	movwf	_input
  2269  01FB  3000               	movlw	0
  2270  01FC  00D4               	movwf	_input+1
  2271  01FD                     l2592:
  2272                           
  2273                           ;main.c: 275:     if (RB3 == 0){
  2274  01FD  1986               	btfsc	6,3	;volatile
  2275  01FE  2A00               	goto	u2651
  2276  01FF  2A01               	goto	u2650
  2277  0200                     u2651:
  2278  0200  2A30               	goto	l228
  2279  0201                     u2650:
  2280  0201                     l2594:
  2281                           
  2282                           ;main.c: 276:         _delay((unsigned long)((200)*(20000000/4000.0)));
  2283  0201  3006               	movlw	6
  2284  0202  1283               	bcf	3,5	;RP0=0, select bank0
  2285  0203  1303               	bcf	3,6	;RP1=0, select bank0
  2286  0204  00BD               	movwf	??_teclado+2
  2287  0205  3013               	movlw	19
  2288  0206  00BC               	movwf	??_teclado+1
  2289  0207  30AD               	movlw	173
  2290  0208  00BB               	movwf	??_teclado
  2291  0209                     u3627:
  2292  0209  0BBB               	decfsz	??_teclado,f
  2293  020A  2A09               	goto	u3627
  2294  020B  0BBC               	decfsz	??_teclado+1,f
  2295  020C  2A09               	goto	u3627
  2296  020D  0BBD               	decfsz	??_teclado+2,f
  2297  020E  2A09               	goto	u3627
  2298  020F                     l2596:
  2299                           
  2300                           ;main.c: 277:         liga_buzzer(0.1);
  2301  020F  303D               	movlw	61
  2302  0210  1283               	bcf	3,5	;RP0=0, select bank0
  2303  0211  1303               	bcf	3,6	;RP1=0, select bank0
  2304  0212  00B8               	movwf	liga_buzzer@tempoSegundos+3
  2305  0213  30CC               	movlw	204
  2306  0214  00B7               	movwf	liga_buzzer@tempoSegundos+2
  2307  0215  30CC               	movlw	204
  2308  0216  00B6               	movwf	liga_buzzer@tempoSegundos+1
  2309  0217  30CD               	movlw	205
  2310  0218  00B5               	movwf	liga_buzzer@tempoSegundos
  2311  0219  120A  158A  24EC  120A  118A  	fcall	_liga_buzzer
  2312  021E                     l2598:
  2313                           
  2314                           ;main.c: 278:         LCD_escreve('3');
  2315  021E  3033               	movlw	51
  2316  021F  120A  158A  2130  120A  118A  	fcall	_LCD_escreve
  2317  0224                     l2600:
  2318                           
  2319                           ;main.c: 279:         if(userFalse){
  2320  0224  1283               	bcf	3,5	;RP0=0, select bank0
  2321  0225  1303               	bcf	3,6	;RP1=0, select bank0
  2322  0226  084F               	movf	_userFalse,w
  2323  0227  0450               	iorwf	_userFalse+1,w
  2324  0228  1903               	btfsc	3,2
  2325  0229  2A2B               	goto	u2661
  2326  022A  2A2C               	goto	u2660
  2327  022B                     u2661:
  2328  022B  2A30               	goto	l228
  2329  022C                     u2660:
  2330  022C                     l2602:
  2331                           
  2332                           ;main.c: 280:             input = 3;
  2333  022C  3003               	movlw	3
  2334  022D  00D3               	movwf	_input
  2335  022E  3000               	movlw	0
  2336  022F  00D4               	movwf	_input+1
  2337  0230                     l228:	
  2338                           ;main.c: 282:     }
  2339                           
  2340                           
  2341                           ;main.c: 286:     PORTB = 0b11011111;
  2342  0230  30DF               	movlw	223
  2343  0231  0086               	movwf	6	;volatile
  2344  0232                     l2604:
  2345                           
  2346                           ;main.c: 290:     if (RB0 == 0){
  2347  0232  1806               	btfsc	6,0	;volatile
  2348  0233  2A35               	goto	u2671
  2349  0234  2A36               	goto	u2670
  2350  0235                     u2671:
  2351  0235  2A65               	goto	l2616
  2352  0236                     u2670:
  2353  0236                     l2606:
  2354                           
  2355                           ;main.c: 291:         _delay((unsigned long)((200)*(20000000/4000.0)));
  2356  0236  3006               	movlw	6
  2357  0237  1283               	bcf	3,5	;RP0=0, select bank0
  2358  0238  1303               	bcf	3,6	;RP1=0, select bank0
  2359  0239  00BD               	movwf	??_teclado+2
  2360  023A  3013               	movlw	19
  2361  023B  00BC               	movwf	??_teclado+1
  2362  023C  30AD               	movlw	173
  2363  023D  00BB               	movwf	??_teclado
  2364  023E                     u3637:
  2365  023E  0BBB               	decfsz	??_teclado,f
  2366  023F  2A3E               	goto	u3637
  2367  0240  0BBC               	decfsz	??_teclado+1,f
  2368  0241  2A3E               	goto	u3637
  2369  0242  0BBD               	decfsz	??_teclado+2,f
  2370  0243  2A3E               	goto	u3637
  2371  0244                     l2608:
  2372                           
  2373                           ;main.c: 292:         liga_buzzer(0.1);
  2374  0244  303D               	movlw	61
  2375  0245  1283               	bcf	3,5	;RP0=0, select bank0
  2376  0246  1303               	bcf	3,6	;RP1=0, select bank0
  2377  0247  00B8               	movwf	liga_buzzer@tempoSegundos+3
  2378  0248  30CC               	movlw	204
  2379  0249  00B7               	movwf	liga_buzzer@tempoSegundos+2
  2380  024A  30CC               	movlw	204
  2381  024B  00B6               	movwf	liga_buzzer@tempoSegundos+1
  2382  024C  30CD               	movlw	205
  2383  024D  00B5               	movwf	liga_buzzer@tempoSegundos
  2384  024E  120A  158A  24EC  120A  118A  	fcall	_liga_buzzer
  2385  0253                     l2610:
  2386                           
  2387                           ;main.c: 293:         LCD_escreve('4');
  2388  0253  3034               	movlw	52
  2389  0254  120A  158A  2130  120A  118A  	fcall	_LCD_escreve
  2390  0259                     l2612:
  2391                           
  2392                           ;main.c: 294:         if(userFalse){
  2393  0259  1283               	bcf	3,5	;RP0=0, select bank0
  2394  025A  1303               	bcf	3,6	;RP1=0, select bank0
  2395  025B  084F               	movf	_userFalse,w
  2396  025C  0450               	iorwf	_userFalse+1,w
  2397  025D  1903               	btfsc	3,2
  2398  025E  2A60               	goto	u2681
  2399  025F  2A61               	goto	u2680
  2400  0260                     u2681:
  2401  0260  2A65               	goto	l2616
  2402  0261                     u2680:
  2403  0261                     l2614:
  2404                           
  2405                           ;main.c: 295:             input = 4;
  2406  0261  3004               	movlw	4
  2407  0262  00D3               	movwf	_input
  2408  0263  3000               	movlw	0
  2409  0264  00D4               	movwf	_input+1
  2410  0265                     l2616:
  2411                           
  2412                           ;main.c: 301:     if (RB1 == 0){
  2413  0265  1886               	btfsc	6,1	;volatile
  2414  0266  2A68               	goto	u2691
  2415  0267  2A69               	goto	u2690
  2416  0268                     u2691:
  2417  0268  2A98               	goto	l2628
  2418  0269                     u2690:
  2419  0269                     l2618:
  2420                           
  2421                           ;main.c: 302:         _delay((unsigned long)((200)*(20000000/4000.0)));
  2422  0269  3006               	movlw	6
  2423  026A  1283               	bcf	3,5	;RP0=0, select bank0
  2424  026B  1303               	bcf	3,6	;RP1=0, select bank0
  2425  026C  00BD               	movwf	??_teclado+2
  2426  026D  3013               	movlw	19
  2427  026E  00BC               	movwf	??_teclado+1
  2428  026F  30AD               	movlw	173
  2429  0270  00BB               	movwf	??_teclado
  2430  0271                     u3647:
  2431  0271  0BBB               	decfsz	??_teclado,f
  2432  0272  2A71               	goto	u3647
  2433  0273  0BBC               	decfsz	??_teclado+1,f
  2434  0274  2A71               	goto	u3647
  2435  0275  0BBD               	decfsz	??_teclado+2,f
  2436  0276  2A71               	goto	u3647
  2437  0277                     l2620:
  2438                           
  2439                           ;main.c: 303:         liga_buzzer(0.1);
  2440  0277  303D               	movlw	61
  2441  0278  1283               	bcf	3,5	;RP0=0, select bank0
  2442  0279  1303               	bcf	3,6	;RP1=0, select bank0
  2443  027A  00B8               	movwf	liga_buzzer@tempoSegundos+3
  2444  027B  30CC               	movlw	204
  2445  027C  00B7               	movwf	liga_buzzer@tempoSegundos+2
  2446  027D  30CC               	movlw	204
  2447  027E  00B6               	movwf	liga_buzzer@tempoSegundos+1
  2448  027F  30CD               	movlw	205
  2449  0280  00B5               	movwf	liga_buzzer@tempoSegundos
  2450  0281  120A  158A  24EC  120A  118A  	fcall	_liga_buzzer
  2451  0286                     l2622:
  2452                           
  2453                           ;main.c: 304:         LCD_escreve('5');
  2454  0286  3035               	movlw	53
  2455  0287  120A  158A  2130  120A  118A  	fcall	_LCD_escreve
  2456  028C                     l2624:
  2457                           
  2458                           ;main.c: 305:         if(userFalse){
  2459  028C  1283               	bcf	3,5	;RP0=0, select bank0
  2460  028D  1303               	bcf	3,6	;RP1=0, select bank0
  2461  028E  084F               	movf	_userFalse,w
  2462  028F  0450               	iorwf	_userFalse+1,w
  2463  0290  1903               	btfsc	3,2
  2464  0291  2A93               	goto	u2701
  2465  0292  2A94               	goto	u2700
  2466  0293                     u2701:
  2467  0293  2A98               	goto	l2628
  2468  0294                     u2700:
  2469  0294                     l2626:
  2470                           
  2471                           ;main.c: 306:             input = 5;
  2472  0294  3005               	movlw	5
  2473  0295  00D3               	movwf	_input
  2474  0296  3000               	movlw	0
  2475  0297  00D4               	movwf	_input+1
  2476  0298                     l2628:
  2477                           
  2478                           ;main.c: 312:     if (RB2 == 0){
  2479  0298  1906               	btfsc	6,2	;volatile
  2480  0299  2A9B               	goto	u2711
  2481  029A  2A9C               	goto	u2710
  2482  029B                     u2711:
  2483  029B  2ACB               	goto	l2640
  2484  029C                     u2710:
  2485  029C                     l2630:
  2486                           
  2487                           ;main.c: 313:         _delay((unsigned long)((200)*(20000000/4000.0)));
  2488  029C  3006               	movlw	6
  2489  029D  1283               	bcf	3,5	;RP0=0, select bank0
  2490  029E  1303               	bcf	3,6	;RP1=0, select bank0
  2491  029F  00BD               	movwf	??_teclado+2
  2492  02A0  3013               	movlw	19
  2493  02A1  00BC               	movwf	??_teclado+1
  2494  02A2  30AD               	movlw	173
  2495  02A3  00BB               	movwf	??_teclado
  2496  02A4                     u3657:
  2497  02A4  0BBB               	decfsz	??_teclado,f
  2498  02A5  2AA4               	goto	u3657
  2499  02A6  0BBC               	decfsz	??_teclado+1,f
  2500  02A7  2AA4               	goto	u3657
  2501  02A8  0BBD               	decfsz	??_teclado+2,f
  2502  02A9  2AA4               	goto	u3657
  2503  02AA                     l2632:
  2504                           
  2505                           ;main.c: 314:         liga_buzzer(0.1);
  2506  02AA  303D               	movlw	61
  2507  02AB  1283               	bcf	3,5	;RP0=0, select bank0
  2508  02AC  1303               	bcf	3,6	;RP1=0, select bank0
  2509  02AD  00B8               	movwf	liga_buzzer@tempoSegundos+3
  2510  02AE  30CC               	movlw	204
  2511  02AF  00B7               	movwf	liga_buzzer@tempoSegundos+2
  2512  02B0  30CC               	movlw	204
  2513  02B1  00B6               	movwf	liga_buzzer@tempoSegundos+1
  2514  02B2  30CD               	movlw	205
  2515  02B3  00B5               	movwf	liga_buzzer@tempoSegundos
  2516  02B4  120A  158A  24EC  120A  118A  	fcall	_liga_buzzer
  2517  02B9                     l2634:
  2518                           
  2519                           ;main.c: 315:         LCD_escreve('6');
  2520  02B9  3036               	movlw	54
  2521  02BA  120A  158A  2130  120A  118A  	fcall	_LCD_escreve
  2522  02BF                     l2636:
  2523                           
  2524                           ;main.c: 316:         if(userFalse){
  2525  02BF  1283               	bcf	3,5	;RP0=0, select bank0
  2526  02C0  1303               	bcf	3,6	;RP1=0, select bank0
  2527  02C1  084F               	movf	_userFalse,w
  2528  02C2  0450               	iorwf	_userFalse+1,w
  2529  02C3  1903               	btfsc	3,2
  2530  02C4  2AC6               	goto	u2721
  2531  02C5  2AC7               	goto	u2720
  2532  02C6                     u2721:
  2533  02C6  2ACB               	goto	l2640
  2534  02C7                     u2720:
  2535  02C7                     l2638:
  2536                           
  2537                           ;main.c: 317:             input = 6;
  2538  02C7  3006               	movlw	6
  2539  02C8  00D3               	movwf	_input
  2540  02C9  3000               	movlw	0
  2541  02CA  00D4               	movwf	_input+1
  2542  02CB                     l2640:
  2543                           
  2544                           ;main.c: 323:     if (RB3 == 0){
  2545  02CB  1986               	btfsc	6,3	;volatile
  2546  02CC  2ACE               	goto	u2731
  2547  02CD  2ACF               	goto	u2730
  2548  02CE                     u2731:
  2549  02CE  2AFE               	goto	l236
  2550  02CF                     u2730:
  2551  02CF                     l2642:
  2552                           
  2553                           ;main.c: 324:         _delay((unsigned long)((200)*(20000000/4000.0)));
  2554  02CF  3006               	movlw	6
  2555  02D0  1283               	bcf	3,5	;RP0=0, select bank0
  2556  02D1  1303               	bcf	3,6	;RP1=0, select bank0
  2557  02D2  00BD               	movwf	??_teclado+2
  2558  02D3  3013               	movlw	19
  2559  02D4  00BC               	movwf	??_teclado+1
  2560  02D5  30AD               	movlw	173
  2561  02D6  00BB               	movwf	??_teclado
  2562  02D7                     u3667:
  2563  02D7  0BBB               	decfsz	??_teclado,f
  2564  02D8  2AD7               	goto	u3667
  2565  02D9  0BBC               	decfsz	??_teclado+1,f
  2566  02DA  2AD7               	goto	u3667
  2567  02DB  0BBD               	decfsz	??_teclado+2,f
  2568  02DC  2AD7               	goto	u3667
  2569  02DD                     l2644:
  2570                           
  2571                           ;main.c: 325:         liga_buzzer(0.1);
  2572  02DD  303D               	movlw	61
  2573  02DE  1283               	bcf	3,5	;RP0=0, select bank0
  2574  02DF  1303               	bcf	3,6	;RP1=0, select bank0
  2575  02E0  00B8               	movwf	liga_buzzer@tempoSegundos+3
  2576  02E1  30CC               	movlw	204
  2577  02E2  00B7               	movwf	liga_buzzer@tempoSegundos+2
  2578  02E3  30CC               	movlw	204
  2579  02E4  00B6               	movwf	liga_buzzer@tempoSegundos+1
  2580  02E5  30CD               	movlw	205
  2581  02E6  00B5               	movwf	liga_buzzer@tempoSegundos
  2582  02E7  120A  158A  24EC  120A  118A  	fcall	_liga_buzzer
  2583  02EC                     l2646:
  2584                           
  2585                           ;main.c: 326:         LCD_escreve('7');
  2586  02EC  3037               	movlw	55
  2587  02ED  120A  158A  2130  120A  118A  	fcall	_LCD_escreve
  2588  02F2                     l2648:
  2589                           
  2590                           ;main.c: 327:         if(userFalse){
  2591  02F2  1283               	bcf	3,5	;RP0=0, select bank0
  2592  02F3  1303               	bcf	3,6	;RP1=0, select bank0
  2593  02F4  084F               	movf	_userFalse,w
  2594  02F5  0450               	iorwf	_userFalse+1,w
  2595  02F6  1903               	btfsc	3,2
  2596  02F7  2AF9               	goto	u2741
  2597  02F8  2AFA               	goto	u2740
  2598  02F9                     u2741:
  2599  02F9  2AFE               	goto	l236
  2600  02FA                     u2740:
  2601  02FA                     l2650:
  2602                           
  2603                           ;main.c: 328:             input = 7;
  2604  02FA  3007               	movlw	7
  2605  02FB  00D3               	movwf	_input
  2606  02FC  3000               	movlw	0
  2607  02FD  00D4               	movwf	_input+1
  2608  02FE                     l236:	
  2609                           ;main.c: 330:     }
  2610                           
  2611                           
  2612                           ;main.c: 334:     PORTB = 0b10111111;
  2613  02FE  30BF               	movlw	191
  2614  02FF  0086               	movwf	6	;volatile
  2615  0300                     l2652:
  2616                           
  2617                           ;main.c: 338:     if (RB0 == 0){
  2618  0300  1806               	btfsc	6,0	;volatile
  2619  0301  2B03               	goto	u2751
  2620  0302  2B04               	goto	u2750
  2621  0303                     u2751:
  2622  0303  2B33               	goto	l2664
  2623  0304                     u2750:
  2624  0304                     l2654:
  2625                           
  2626                           ;main.c: 339:         _delay((unsigned long)((200)*(20000000/4000.0)));
  2627  0304  3006               	movlw	6
  2628  0305  1283               	bcf	3,5	;RP0=0, select bank0
  2629  0306  1303               	bcf	3,6	;RP1=0, select bank0
  2630  0307  00BD               	movwf	??_teclado+2
  2631  0308  3013               	movlw	19
  2632  0309  00BC               	movwf	??_teclado+1
  2633  030A  30AD               	movlw	173
  2634  030B  00BB               	movwf	??_teclado
  2635  030C                     u3677:
  2636  030C  0BBB               	decfsz	??_teclado,f
  2637  030D  2B0C               	goto	u3677
  2638  030E  0BBC               	decfsz	??_teclado+1,f
  2639  030F  2B0C               	goto	u3677
  2640  0310  0BBD               	decfsz	??_teclado+2,f
  2641  0311  2B0C               	goto	u3677
  2642  0312                     l2656:
  2643                           
  2644                           ;main.c: 340:         liga_buzzer(0.1);
  2645  0312  303D               	movlw	61
  2646  0313  1283               	bcf	3,5	;RP0=0, select bank0
  2647  0314  1303               	bcf	3,6	;RP1=0, select bank0
  2648  0315  00B8               	movwf	liga_buzzer@tempoSegundos+3
  2649  0316  30CC               	movlw	204
  2650  0317  00B7               	movwf	liga_buzzer@tempoSegundos+2
  2651  0318  30CC               	movlw	204
  2652  0319  00B6               	movwf	liga_buzzer@tempoSegundos+1
  2653  031A  30CD               	movlw	205
  2654  031B  00B5               	movwf	liga_buzzer@tempoSegundos
  2655  031C  120A  158A  24EC  120A  118A  	fcall	_liga_buzzer
  2656  0321                     l2658:
  2657                           
  2658                           ;main.c: 341:         LCD_escreve('8');
  2659  0321  3038               	movlw	56
  2660  0322  120A  158A  2130  120A  118A  	fcall	_LCD_escreve
  2661  0327                     l2660:
  2662                           
  2663                           ;main.c: 342:         if(userFalse){
  2664  0327  1283               	bcf	3,5	;RP0=0, select bank0
  2665  0328  1303               	bcf	3,6	;RP1=0, select bank0
  2666  0329  084F               	movf	_userFalse,w
  2667  032A  0450               	iorwf	_userFalse+1,w
  2668  032B  1903               	btfsc	3,2
  2669  032C  2B2E               	goto	u2761
  2670  032D  2B2F               	goto	u2760
  2671  032E                     u2761:
  2672  032E  2B33               	goto	l2664
  2673  032F                     u2760:
  2674  032F                     l2662:
  2675                           
  2676                           ;main.c: 343:             input = 8;
  2677  032F  3008               	movlw	8
  2678  0330  00D3               	movwf	_input
  2679  0331  3000               	movlw	0
  2680  0332  00D4               	movwf	_input+1
  2681  0333                     l2664:
  2682                           
  2683                           ;main.c: 349:     if (RB1 == 0){
  2684  0333  1886               	btfsc	6,1	;volatile
  2685  0334  2B36               	goto	u2771
  2686  0335  2B37               	goto	u2770
  2687  0336                     u2771:
  2688  0336  2B66               	goto	l2676
  2689  0337                     u2770:
  2690  0337                     l2666:
  2691                           
  2692                           ;main.c: 350:         _delay((unsigned long)((200)*(20000000/4000.0)));
  2693  0337  3006               	movlw	6
  2694  0338  1283               	bcf	3,5	;RP0=0, select bank0
  2695  0339  1303               	bcf	3,6	;RP1=0, select bank0
  2696  033A  00BD               	movwf	??_teclado+2
  2697  033B  3013               	movlw	19
  2698  033C  00BC               	movwf	??_teclado+1
  2699  033D  30AD               	movlw	173
  2700  033E  00BB               	movwf	??_teclado
  2701  033F                     u3687:
  2702  033F  0BBB               	decfsz	??_teclado,f
  2703  0340  2B3F               	goto	u3687
  2704  0341  0BBC               	decfsz	??_teclado+1,f
  2705  0342  2B3F               	goto	u3687
  2706  0343  0BBD               	decfsz	??_teclado+2,f
  2707  0344  2B3F               	goto	u3687
  2708  0345                     l2668:
  2709                           
  2710                           ;main.c: 351:         liga_buzzer(0.1);
  2711  0345  303D               	movlw	61
  2712  0346  1283               	bcf	3,5	;RP0=0, select bank0
  2713  0347  1303               	bcf	3,6	;RP1=0, select bank0
  2714  0348  00B8               	movwf	liga_buzzer@tempoSegundos+3
  2715  0349  30CC               	movlw	204
  2716  034A  00B7               	movwf	liga_buzzer@tempoSegundos+2
  2717  034B  30CC               	movlw	204
  2718  034C  00B6               	movwf	liga_buzzer@tempoSegundos+1
  2719  034D  30CD               	movlw	205
  2720  034E  00B5               	movwf	liga_buzzer@tempoSegundos
  2721  034F  120A  158A  24EC  120A  118A  	fcall	_liga_buzzer
  2722  0354                     l2670:
  2723                           
  2724                           ;main.c: 352:         LCD_escreve('9');
  2725  0354  3039               	movlw	57
  2726  0355  120A  158A  2130  120A  118A  	fcall	_LCD_escreve
  2727  035A                     l2672:
  2728                           
  2729                           ;main.c: 353:         if(userFalse){
  2730  035A  1283               	bcf	3,5	;RP0=0, select bank0
  2731  035B  1303               	bcf	3,6	;RP1=0, select bank0
  2732  035C  084F               	movf	_userFalse,w
  2733  035D  0450               	iorwf	_userFalse+1,w
  2734  035E  1903               	btfsc	3,2
  2735  035F  2B61               	goto	u2781
  2736  0360  2B62               	goto	u2780
  2737  0361                     u2781:
  2738  0361  2B66               	goto	l2676
  2739  0362                     u2780:
  2740  0362                     l2674:
  2741                           
  2742                           ;main.c: 354:             input = 9;
  2743  0362  3009               	movlw	9
  2744  0363  00D3               	movwf	_input
  2745  0364  3000               	movlw	0
  2746  0365  00D4               	movwf	_input+1
  2747  0366                     l2676:
  2748                           
  2749                           ;main.c: 360:     if (RB2 == 0){
  2750  0366  1906               	btfsc	6,2	;volatile
  2751  0367  2B69               	goto	u2791
  2752  0368  2B6A               	goto	u2790
  2753  0369                     u2791:
  2754  0369  2B8D               	goto	l2684
  2755  036A                     u2790:
  2756  036A                     l2678:
  2757                           
  2758                           ;main.c: 361:         _delay((unsigned long)((200)*(20000000/4000.0)));
  2759  036A  3006               	movlw	6
  2760  036B  1283               	bcf	3,5	;RP0=0, select bank0
  2761  036C  1303               	bcf	3,6	;RP1=0, select bank0
  2762  036D  00BD               	movwf	??_teclado+2
  2763  036E  3013               	movlw	19
  2764  036F  00BC               	movwf	??_teclado+1
  2765  0370  30AD               	movlw	173
  2766  0371  00BB               	movwf	??_teclado
  2767  0372                     u3697:
  2768  0372  0BBB               	decfsz	??_teclado,f
  2769  0373  2B72               	goto	u3697
  2770  0374  0BBC               	decfsz	??_teclado+1,f
  2771  0375  2B72               	goto	u3697
  2772  0376  0BBD               	decfsz	??_teclado+2,f
  2773  0377  2B72               	goto	u3697
  2774  0378                     l2680:
  2775                           
  2776                           ;main.c: 362:         liga_buzzer(0.1);
  2777  0378  303D               	movlw	61
  2778  0379  1283               	bcf	3,5	;RP0=0, select bank0
  2779  037A  1303               	bcf	3,6	;RP1=0, select bank0
  2780  037B  00B8               	movwf	liga_buzzer@tempoSegundos+3
  2781  037C  30CC               	movlw	204
  2782  037D  00B7               	movwf	liga_buzzer@tempoSegundos+2
  2783  037E  30CC               	movlw	204
  2784  037F  00B6               	movwf	liga_buzzer@tempoSegundos+1
  2785  0380  30CD               	movlw	205
  2786  0381  00B5               	movwf	liga_buzzer@tempoSegundos
  2787  0382  120A  158A  24EC  120A  118A  	fcall	_liga_buzzer
  2788  0387                     l2682:
  2789                           
  2790                           ;main.c: 363:         LCD_escreve('A');
  2791  0387  3041               	movlw	65
  2792  0388  120A  158A  2130  120A  118A  	fcall	_LCD_escreve
  2793  038D                     l2684:
  2794                           
  2795                           ;main.c: 368:     if (RB3 == 0){
  2796  038D  1283               	bcf	3,5	;RP0=0, select bank0
  2797  038E  1303               	bcf	3,6	;RP1=0, select bank0
  2798  038F  1986               	btfsc	6,3	;volatile
  2799  0390  2B92               	goto	u2801
  2800  0391  2B93               	goto	u2800
  2801  0392                     u2801:
  2802  0392  2BB6               	goto	l243
  2803  0393                     u2800:
  2804  0393                     l2686:
  2805                           
  2806                           ;main.c: 369:         _delay((unsigned long)((200)*(20000000/4000.0)));
  2807  0393  3006               	movlw	6
  2808  0394  1283               	bcf	3,5	;RP0=0, select bank0
  2809  0395  1303               	bcf	3,6	;RP1=0, select bank0
  2810  0396  00BD               	movwf	??_teclado+2
  2811  0397  3013               	movlw	19
  2812  0398  00BC               	movwf	??_teclado+1
  2813  0399  30AD               	movlw	173
  2814  039A  00BB               	movwf	??_teclado
  2815  039B                     u3707:
  2816  039B  0BBB               	decfsz	??_teclado,f
  2817  039C  2B9B               	goto	u3707
  2818  039D  0BBC               	decfsz	??_teclado+1,f
  2819  039E  2B9B               	goto	u3707
  2820  039F  0BBD               	decfsz	??_teclado+2,f
  2821  03A0  2B9B               	goto	u3707
  2822  03A1                     l2688:
  2823                           
  2824                           ;main.c: 370:         liga_buzzer(0.1);
  2825  03A1  303D               	movlw	61
  2826  03A2  1283               	bcf	3,5	;RP0=0, select bank0
  2827  03A3  1303               	bcf	3,6	;RP1=0, select bank0
  2828  03A4  00B8               	movwf	liga_buzzer@tempoSegundos+3
  2829  03A5  30CC               	movlw	204
  2830  03A6  00B7               	movwf	liga_buzzer@tempoSegundos+2
  2831  03A7  30CC               	movlw	204
  2832  03A8  00B6               	movwf	liga_buzzer@tempoSegundos+1
  2833  03A9  30CD               	movlw	205
  2834  03AA  00B5               	movwf	liga_buzzer@tempoSegundos
  2835  03AB  120A  158A  24EC  120A  118A  	fcall	_liga_buzzer
  2836  03B0                     l2690:
  2837                           
  2838                           ;main.c: 371:         LCD_escreve('B');
  2839  03B0  3042               	movlw	66
  2840  03B1  120A  158A  2130  120A  118A  	fcall	_LCD_escreve
  2841  03B6                     l243:	
  2842                           ;main.c: 372:     }
  2843                           
  2844                           
  2845                           ;main.c: 376:     PORTB = 0b01111111;
  2846  03B6  307F               	movlw	127
  2847  03B7  1283               	bcf	3,5	;RP0=0, select bank0
  2848  03B8  1303               	bcf	3,6	;RP1=0, select bank0
  2849  03B9  0086               	movwf	6	;volatile
  2850  03BA                     l2692:
  2851                           
  2852                           ;main.c: 380:     if (RB0 == 0){
  2853  03BA  1806               	btfsc	6,0	;volatile
  2854  03BB  2BBD               	goto	u2811
  2855  03BC  2BBE               	goto	u2810
  2856  03BD                     u2811:
  2857  03BD  2BE1               	goto	l2700
  2858  03BE                     u2810:
  2859  03BE                     l2694:
  2860                           
  2861                           ;main.c: 381:         _delay((unsigned long)((200)*(20000000/4000.0)));
  2862  03BE  3006               	movlw	6
  2863  03BF  1283               	bcf	3,5	;RP0=0, select bank0
  2864  03C0  1303               	bcf	3,6	;RP1=0, select bank0
  2865  03C1  00BD               	movwf	??_teclado+2
  2866  03C2  3013               	movlw	19
  2867  03C3  00BC               	movwf	??_teclado+1
  2868  03C4  30AD               	movlw	173
  2869  03C5  00BB               	movwf	??_teclado
  2870  03C6                     u3717:
  2871  03C6  0BBB               	decfsz	??_teclado,f
  2872  03C7  2BC6               	goto	u3717
  2873  03C8  0BBC               	decfsz	??_teclado+1,f
  2874  03C9  2BC6               	goto	u3717
  2875  03CA  0BBD               	decfsz	??_teclado+2,f
  2876  03CB  2BC6               	goto	u3717
  2877  03CC                     l2696:
  2878                           
  2879                           ;main.c: 382:         liga_buzzer(0.1);
  2880  03CC  303D               	movlw	61
  2881  03CD  1283               	bcf	3,5	;RP0=0, select bank0
  2882  03CE  1303               	bcf	3,6	;RP1=0, select bank0
  2883  03CF  00B8               	movwf	liga_buzzer@tempoSegundos+3
  2884  03D0  30CC               	movlw	204
  2885  03D1  00B7               	movwf	liga_buzzer@tempoSegundos+2
  2886  03D2  30CC               	movlw	204
  2887  03D3  00B6               	movwf	liga_buzzer@tempoSegundos+1
  2888  03D4  30CD               	movlw	205
  2889  03D5  00B5               	movwf	liga_buzzer@tempoSegundos
  2890  03D6  120A  158A  24EC  120A  118A  	fcall	_liga_buzzer
  2891  03DB                     l2698:
  2892                           
  2893                           ;main.c: 383:         LCD_escreve('C');
  2894  03DB  3043               	movlw	67
  2895  03DC  120A  158A  2130  120A  118A  	fcall	_LCD_escreve
  2896  03E1                     l2700:
  2897                           
  2898                           ;main.c: 388:     if (RB1 == 0){
  2899  03E1  1283               	bcf	3,5	;RP0=0, select bank0
  2900  03E2  1303               	bcf	3,6	;RP1=0, select bank0
  2901  03E3  1886               	btfsc	6,1	;volatile
  2902  03E4  2BE6               	goto	u2821
  2903  03E5  2BE7               	goto	u2820
  2904  03E6                     u2821:
  2905  03E6  2C0A               	goto	l2708
  2906  03E7                     u2820:
  2907  03E7                     l2702:
  2908                           
  2909                           ;main.c: 389:         _delay((unsigned long)((200)*(20000000/4000.0)));
  2910  03E7  3006               	movlw	6
  2911  03E8  1283               	bcf	3,5	;RP0=0, select bank0
  2912  03E9  1303               	bcf	3,6	;RP1=0, select bank0
  2913  03EA  00BD               	movwf	??_teclado+2
  2914  03EB  3013               	movlw	19
  2915  03EC  00BC               	movwf	??_teclado+1
  2916  03ED  30AD               	movlw	173
  2917  03EE  00BB               	movwf	??_teclado
  2918  03EF                     u3727:
  2919  03EF  0BBB               	decfsz	??_teclado,f
  2920  03F0  2BEF               	goto	u3727
  2921  03F1  0BBC               	decfsz	??_teclado+1,f
  2922  03F2  2BEF               	goto	u3727
  2923  03F3  0BBD               	decfsz	??_teclado+2,f
  2924  03F4  2BEF               	goto	u3727
  2925  03F5                     l2704:
  2926                           
  2927                           ;main.c: 390:         liga_buzzer(0.1);
  2928  03F5  303D               	movlw	61
  2929  03F6  1283               	bcf	3,5	;RP0=0, select bank0
  2930  03F7  1303               	bcf	3,6	;RP1=0, select bank0
  2931  03F8  00B8               	movwf	liga_buzzer@tempoSegundos+3
  2932  03F9  30CC               	movlw	204
  2933  03FA  00B7               	movwf	liga_buzzer@tempoSegundos+2
  2934  03FB  30CC               	movlw	204
  2935  03FC  00B6               	movwf	liga_buzzer@tempoSegundos+1
  2936  03FD  30CD               	movlw	205
  2937  03FE  00B5               	movwf	liga_buzzer@tempoSegundos
  2938  03FF  120A  158A  24EC  120A  118A  	fcall	_liga_buzzer
  2939  0404                     l2706:
  2940                           
  2941                           ;main.c: 391:         LCD_escreve('D');
  2942  0404  3044               	movlw	68
  2943  0405  120A  158A  2130  120A  118A  	fcall	_LCD_escreve
  2944  040A                     l2708:
  2945                           
  2946                           ;main.c: 396:     if (RB2 == 0){
  2947  040A  1283               	bcf	3,5	;RP0=0, select bank0
  2948  040B  1303               	bcf	3,6	;RP1=0, select bank0
  2949  040C  1906               	btfsc	6,2	;volatile
  2950  040D  2C0F               	goto	u2831
  2951  040E  2C10               	goto	u2830
  2952  040F                     u2831:
  2953  040F  2C33               	goto	l2716
  2954  0410                     u2830:
  2955  0410                     l2710:
  2956                           
  2957                           ;main.c: 397:         _delay((unsigned long)((200)*(20000000/4000.0)));
  2958  0410  3006               	movlw	6
  2959  0411  1283               	bcf	3,5	;RP0=0, select bank0
  2960  0412  1303               	bcf	3,6	;RP1=0, select bank0
  2961  0413  00BD               	movwf	??_teclado+2
  2962  0414  3013               	movlw	19
  2963  0415  00BC               	movwf	??_teclado+1
  2964  0416  30AD               	movlw	173
  2965  0417  00BB               	movwf	??_teclado
  2966  0418                     u3737:
  2967  0418  0BBB               	decfsz	??_teclado,f
  2968  0419  2C18               	goto	u3737
  2969  041A  0BBC               	decfsz	??_teclado+1,f
  2970  041B  2C18               	goto	u3737
  2971  041C  0BBD               	decfsz	??_teclado+2,f
  2972  041D  2C18               	goto	u3737
  2973  041E                     l2712:
  2974                           
  2975                           ;main.c: 398:         liga_buzzer(0.1);
  2976  041E  303D               	movlw	61
  2977  041F  1283               	bcf	3,5	;RP0=0, select bank0
  2978  0420  1303               	bcf	3,6	;RP1=0, select bank0
  2979  0421  00B8               	movwf	liga_buzzer@tempoSegundos+3
  2980  0422  30CC               	movlw	204
  2981  0423  00B7               	movwf	liga_buzzer@tempoSegundos+2
  2982  0424  30CC               	movlw	204
  2983  0425  00B6               	movwf	liga_buzzer@tempoSegundos+1
  2984  0426  30CD               	movlw	205
  2985  0427  00B5               	movwf	liga_buzzer@tempoSegundos
  2986  0428  120A  158A  24EC  120A  118A  	fcall	_liga_buzzer
  2987  042D                     l2714:
  2988                           
  2989                           ;main.c: 399:         LCD_escreve('E');
  2990  042D  3045               	movlw	69
  2991  042E  120A  158A  2130  120A  118A  	fcall	_LCD_escreve
  2992  0433                     l2716:
  2993                           
  2994                           ;main.c: 404:     if (RB3 == 0){
  2995  0433  1283               	bcf	3,5	;RP0=0, select bank0
  2996  0434  1303               	bcf	3,6	;RP1=0, select bank0
  2997  0435  1986               	btfsc	6,3	;volatile
  2998  0436  2C38               	goto	u2841
  2999  0437  2C39               	goto	u2840
  3000  0438                     u2841:
  3001  0438  2C5C               	goto	l248
  3002  0439                     u2840:
  3003  0439                     l2718:
  3004                           
  3005                           ;main.c: 405:         _delay((unsigned long)((200)*(20000000/4000.0)));
  3006  0439  3006               	movlw	6
  3007  043A  1283               	bcf	3,5	;RP0=0, select bank0
  3008  043B  1303               	bcf	3,6	;RP1=0, select bank0
  3009  043C  00BD               	movwf	??_teclado+2
  3010  043D  3013               	movlw	19
  3011  043E  00BC               	movwf	??_teclado+1
  3012  043F  30AD               	movlw	173
  3013  0440  00BB               	movwf	??_teclado
  3014  0441                     u3747:
  3015  0441  0BBB               	decfsz	??_teclado,f
  3016  0442  2C41               	goto	u3747
  3017  0443  0BBC               	decfsz	??_teclado+1,f
  3018  0444  2C41               	goto	u3747
  3019  0445  0BBD               	decfsz	??_teclado+2,f
  3020  0446  2C41               	goto	u3747
  3021  0447                     l2720:
  3022                           
  3023                           ;main.c: 406:         liga_buzzer(0.1);
  3024  0447  303D               	movlw	61
  3025  0448  1283               	bcf	3,5	;RP0=0, select bank0
  3026  0449  1303               	bcf	3,6	;RP1=0, select bank0
  3027  044A  00B8               	movwf	liga_buzzer@tempoSegundos+3
  3028  044B  30CC               	movlw	204
  3029  044C  00B7               	movwf	liga_buzzer@tempoSegundos+2
  3030  044D  30CC               	movlw	204
  3031  044E  00B6               	movwf	liga_buzzer@tempoSegundos+1
  3032  044F  30CD               	movlw	205
  3033  0450  00B5               	movwf	liga_buzzer@tempoSegundos
  3034  0451  120A  158A  24EC  120A  118A  	fcall	_liga_buzzer
  3035  0456                     l2722:
  3036                           
  3037                           ;main.c: 407:         LCD_escreve('F');
  3038  0456  3046               	movlw	70
  3039  0457  120A  158A  2130  120A  118A  	fcall	_LCD_escreve
  3040  045C                     l248:
  3041  045C  0008               	return
  3042  045D                     __end_of_teclado:
  3043                           
  3044                           	psect	text9
  3045  0CEC                     __ptext9:	
  3046 ;; *************** function _liga_buzzer *****************
  3047 ;; Defined at:
  3048 ;;		line 217 in file "main.c"
  3049 ;; Parameters:    Size  Location     Type
  3050 ;;  tempoSegundo    4   21[BANK0 ] float 
  3051 ;; Auto vars:     Size  Location     Type
  3052 ;;		None
  3053 ;; Return value:  Size  Location     Type
  3054 ;;                  1    wreg      void 
  3055 ;; Registers used:
  3056 ;;		wreg, status,2, status,0, btemp+1, pclath, cstack
  3057 ;; Tracked objects:
  3058 ;;		On entry : 0/0
  3059 ;;		On exit  : 0/0
  3060 ;;		Unchanged: 0/0
  3061 ;; Data sizes:     COMMON   BANK0   BANK1   BANK3   BANK2
  3062 ;;      Params:         0       4       0       0       0
  3063 ;;      Locals:         0       0       0       0       0
  3064 ;;      Temps:          0       2       0       0       0
  3065 ;;      Totals:         0       6       0       0       0
  3066 ;;Total ram usage:        6 bytes
  3067 ;; Hardware stack levels used: 1
  3068 ;; Hardware stack levels required when called: 2
  3069 ;; This function calls:
  3070 ;;		___flge
  3071 ;;		___flmul
  3072 ;;		___flsub
  3073 ;; This function is called by:
  3074 ;;		_teclado
  3075 ;;		_listaZonas
  3076 ;; This function uses a non-reentrant model
  3077 ;;
  3078                           
  3079                           
  3080                           ;psect for function _liga_buzzer
  3081  0CEC                     _liga_buzzer:
  3082  0CEC                     l2474:	
  3083                           ;incstack = 0
  3084                           ; Regs used in _liga_buzzer: [wreg+status,2+status,0+btemp+1+pclath+cstack]
  3085                           
  3086                           
  3087                           ;main.c: 218:     tempoSegundos = tempoSegundos * 1000;
  3088  0CEC  3044               	movlw	68
  3089  0CED  1283               	bcf	3,5	;RP0=0, select bank0
  3090  0CEE  1303               	bcf	3,6	;RP1=0, select bank0
  3091  0CEF  00A3               	movwf	___flmul@b+3
  3092  0CF0  307A               	movlw	122
  3093  0CF1  00A2               	movwf	___flmul@b+2
  3094  0CF2  3000               	movlw	0
  3095  0CF3  00A1               	movwf	___flmul@b+1
  3096  0CF4  3000               	movlw	0
  3097  0CF5  00A0               	movwf	___flmul@b
  3098  0CF6  0838               	movf	liga_buzzer@tempoSegundos+3,w
  3099  0CF7  00A7               	movwf	___flmul@a+3
  3100  0CF8  0837               	movf	liga_buzzer@tempoSegundos+2,w
  3101  0CF9  00A6               	movwf	___flmul@a+2
  3102  0CFA  0836               	movf	liga_buzzer@tempoSegundos+1,w
  3103  0CFB  00A5               	movwf	___flmul@a+1
  3104  0CFC  0835               	movf	liga_buzzer@tempoSegundos,w
  3105  0CFD  00A4               	movwf	___flmul@a
  3106  0CFE  120A  118A  245D  120A  158A  	fcall	___flmul
  3107  0D03  1283               	bcf	3,5	;RP0=0, select bank0
  3108  0D04  1303               	bcf	3,6	;RP1=0, select bank0
  3109  0D05  0823               	movf	?___flmul+3,w
  3110  0D06  00B8               	movwf	liga_buzzer@tempoSegundos+3
  3111  0D07  0822               	movf	?___flmul+2,w
  3112  0D08  00B7               	movwf	liga_buzzer@tempoSegundos+2
  3113  0D09  0821               	movf	?___flmul+1,w
  3114  0D0A  00B6               	movwf	liga_buzzer@tempoSegundos+1
  3115  0D0B  0820               	movf	?___flmul,w
  3116  0D0C  00B5               	movwf	liga_buzzer@tempoSegundos
  3117  0D0D                     l2476:
  3118                           
  3119                           ;main.c: 219:     _delay((unsigned long)((10)*(20000000/4000.0)));
  3120  0D0D  3041               	movlw	65
  3121  0D0E  1283               	bcf	3,5	;RP0=0, select bank0
  3122  0D0F  1303               	bcf	3,6	;RP1=0, select bank0
  3123  0D10  00BA               	movwf	??_liga_buzzer+1
  3124  0D11  30ED               	movlw	237
  3125  0D12  00B9               	movwf	??_liga_buzzer
  3126  0D13                     u3757:
  3127  0D13  0BB9               	decfsz	??_liga_buzzer,f
  3128  0D14  2D13               	goto	u3757
  3129  0D15  0BBA               	decfsz	??_liga_buzzer+1,f
  3130  0D16  2D13               	goto	u3757
  3131  0D17  2D18               	nop2
  3132                           
  3133                           ;main.c: 220:     while(tempoSegundos > 0){
  3134  0D18  2D48               	goto	l2484
  3135  0D19                     l2478:
  3136                           
  3137                           ;main.c: 221:        PORTE = 0;
  3138  0D19  1283               	bcf	3,5	;RP0=0, select bank0
  3139  0D1A  1303               	bcf	3,6	;RP1=0, select bank0
  3140  0D1B  0189               	clrf	9	;volatile
  3141  0D1C                     l2480:
  3142                           
  3143                           ;main.c: 222:         _delay((unsigned long)((1)*(20000000/4000.0)));
  3144  0D1C  3007               	movlw	7
  3145  0D1D  1283               	bcf	3,5	;RP0=0, select bank0
  3146  0D1E  1303               	bcf	3,6	;RP1=0, select bank0
  3147  0D1F  00BA               	movwf	??_liga_buzzer+1
  3148  0D20  307C               	movlw	124
  3149  0D21  00B9               	movwf	??_liga_buzzer
  3150  0D22                     u3767:
  3151  0D22  0BB9               	decfsz	??_liga_buzzer,f
  3152  0D23  2D22               	goto	u3767
  3153  0D24  0BBA               	decfsz	??_liga_buzzer+1,f
  3154  0D25  2D22               	goto	u3767
  3155  0D26  0000               	nop
  3156  0D27                     l2482:
  3157                           
  3158                           ;main.c: 223:         tempoSegundos--;
  3159  0D27  303F               	movlw	63
  3160  0D28  1283               	bcf	3,5	;RP0=0, select bank0
  3161  0D29  1303               	bcf	3,6	;RP1=0, select bank0
  3162  0D2A  00AB               	movwf	___flsub@a+3
  3163  0D2B  3080               	movlw	128
  3164  0D2C  00AA               	movwf	___flsub@a+2
  3165  0D2D  3000               	movlw	0
  3166  0D2E  00A9               	movwf	___flsub@a+1
  3167  0D2F  3000               	movlw	0
  3168  0D30  00A8               	movwf	___flsub@a
  3169  0D31  0838               	movf	liga_buzzer@tempoSegundos+3,w
  3170  0D32  00AF               	movwf	___flsub@b+3
  3171  0D33  0837               	movf	liga_buzzer@tempoSegundos+2,w
  3172  0D34  00AE               	movwf	___flsub@b+2
  3173  0D35  0836               	movf	liga_buzzer@tempoSegundos+1,w
  3174  0D36  00AD               	movwf	___flsub@b+1
  3175  0D37  0835               	movf	liga_buzzer@tempoSegundos,w
  3176  0D38  00AC               	movwf	___flsub@b
  3177  0D39  120A  158A  21C4  120A  158A  	fcall	___flsub
  3178  0D3E  1283               	bcf	3,5	;RP0=0, select bank0
  3179  0D3F  1303               	bcf	3,6	;RP1=0, select bank0
  3180  0D40  082B               	movf	?___flsub+3,w
  3181  0D41  00B8               	movwf	liga_buzzer@tempoSegundos+3
  3182  0D42  082A               	movf	?___flsub+2,w
  3183  0D43  00B7               	movwf	liga_buzzer@tempoSegundos+2
  3184  0D44  0829               	movf	?___flsub+1,w
  3185  0D45  00B6               	movwf	liga_buzzer@tempoSegundos+1
  3186  0D46  0828               	movf	?___flsub,w
  3187  0D47  00B5               	movwf	liga_buzzer@tempoSegundos
  3188  0D48                     l2484:
  3189                           
  3190                           ;main.c: 220:     while(tempoSegundos > 0){
  3191  0D48  3000               	movlw	0
  3192  0D49  00F3               	movwf	___flge@ff1+3
  3193  0D4A  3000               	movlw	0
  3194  0D4B  00F2               	movwf	___flge@ff1+2
  3195  0D4C  3000               	movlw	0
  3196  0D4D  00F1               	movwf	___flge@ff1+1
  3197  0D4E  3000               	movlw	0
  3198  0D4F  00F0               	movwf	___flge@ff1
  3199  0D50  1283               	bcf	3,5	;RP0=0, select bank0
  3200  0D51  1303               	bcf	3,6	;RP1=0, select bank0
  3201  0D52  0838               	movf	liga_buzzer@tempoSegundos+3,w
  3202  0D53  00F7               	movwf	___flge@ff2+3
  3203  0D54  0837               	movf	liga_buzzer@tempoSegundos+2,w
  3204  0D55  00F6               	movwf	___flge@ff2+2
  3205  0D56  0836               	movf	liga_buzzer@tempoSegundos+1,w
  3206  0D57  00F5               	movwf	___flge@ff2+1
  3207  0D58  0835               	movf	liga_buzzer@tempoSegundos,w
  3208  0D59  00F4               	movwf	___flge@ff2
  3209  0D5A  120A  118A  20B8  120A  158A  	fcall	___flge
  3210  0D5F  1C03               	btfss	3,0
  3211  0D60  2D62               	goto	u2551
  3212  0D61  2D63               	goto	u2550
  3213  0D62                     u2551:
  3214  0D62  2D19               	goto	l2478
  3215  0D63                     u2550:
  3216  0D63                     l2486:
  3217                           
  3218                           ;main.c: 225:     PORTE = 0x0F;
  3219  0D63  300F               	movlw	15
  3220  0D64  1283               	bcf	3,5	;RP0=0, select bank0
  3221  0D65  1303               	bcf	3,6	;RP1=0, select bank0
  3222  0D66  0089               	movwf	9	;volatile
  3223  0D67                     l217:
  3224  0D67  0008               	return
  3225  0D68                     __end_of_liga_buzzer:
  3226                           
  3227                           	psect	text10
  3228  09C4                     __ptext10:	
  3229 ;; *************** function ___flsub *****************
  3230 ;; Defined at:
  3231 ;;		line 242 in file "C:\Program Files\Microchip\xc8\v2.32\pic\sources\c90\common\sprcadd.c"
  3232 ;; Parameters:    Size  Location     Type
  3233 ;;  a               4    8[BANK0 ] void 
  3234 ;;  b               4   12[BANK0 ] void 
  3235 ;; Auto vars:     Size  Location     Type
  3236 ;;		None
  3237 ;; Return value:  Size  Location     Type
  3238 ;;                  4    8[BANK0 ] void 
  3239 ;; Registers used:
  3240 ;;		wreg, status,2, status,0, btemp+1, pclath, cstack
  3241 ;; Tracked objects:
  3242 ;;		On entry : 0/0
  3243 ;;		On exit  : 0/0
  3244 ;;		Unchanged: 0/0
  3245 ;; Data sizes:     COMMON   BANK0   BANK1   BANK3   BANK2
  3246 ;;      Params:         0       8       0       0       0
  3247 ;;      Locals:         0       0       0       0       0
  3248 ;;      Temps:          0       0       0       0       0
  3249 ;;      Totals:         0       8       0       0       0
  3250 ;;Total ram usage:        8 bytes
  3251 ;; Hardware stack levels used: 1
  3252 ;; Hardware stack levels required when called: 1
  3253 ;; This function calls:
  3254 ;;		___fladd
  3255 ;; This function is called by:
  3256 ;;		_liga_buzzer
  3257 ;; This function uses a non-reentrant model
  3258 ;;
  3259                           
  3260                           
  3261                           ;psect for function ___flsub
  3262  09C4                     ___flsub:
  3263  09C4                     l2284:	
  3264                           ;incstack = 0
  3265                           ; Regs used in ___flsub: [wreg+status,2+status,0+btemp+1+pclath+cstack]
  3266                           
  3267  09C4  3080               	movlw	128
  3268  09C5  1283               	bcf	3,5	;RP0=0, select bank0
  3269  09C6  1303               	bcf	3,6	;RP1=0, select bank0
  3270  09C7  06AB               	xorwf	___flsub@a+3,f
  3271  09C8                     l2286:
  3272  09C8  082F               	movf	___flsub@b+3,w
  3273  09C9  00F3               	movwf	___fladd@b+3
  3274  09CA  082E               	movf	___flsub@b+2,w
  3275  09CB  00F2               	movwf	___fladd@b+2
  3276  09CC  082D               	movf	___flsub@b+1,w
  3277  09CD  00F1               	movwf	___fladd@b+1
  3278  09CE  082C               	movf	___flsub@b,w
  3279  09CF  00F0               	movwf	___fladd@b
  3280  09D0  082B               	movf	___flsub@a+3,w
  3281  09D1  00F7               	movwf	___fladd@a+3
  3282  09D2  082A               	movf	___flsub@a+2,w
  3283  09D3  00F6               	movwf	___fladd@a+2
  3284  09D4  0829               	movf	___flsub@a+1,w
  3285  09D5  00F5               	movwf	___fladd@a+1
  3286  09D6  0828               	movf	___flsub@a,w
  3287  09D7  00F4               	movwf	___fladd@a
  3288  09D8  120A  158A  2568  120A  158A  	fcall	___fladd
  3289  09DD  0873               	movf	?___fladd+3,w
  3290  09DE  1283               	bcf	3,5	;RP0=0, select bank0
  3291  09DF  1303               	bcf	3,6	;RP1=0, select bank0
  3292  09E0  00AB               	movwf	?___flsub+3
  3293  09E1  0872               	movf	?___fladd+2,w
  3294  09E2  00AA               	movwf	?___flsub+2
  3295  09E3  0871               	movf	?___fladd+1,w
  3296  09E4  00A9               	movwf	?___flsub+1
  3297  09E5  0870               	movf	?___fladd,w
  3298  09E6  00A8               	movwf	?___flsub
  3299  09E7                     l739:
  3300  09E7  0008               	return
  3301  09E8                     __end_of___flsub:
  3302                           
  3303                           	psect	text11
  3304  0D68                     __ptext11:	
  3305 ;; *************** function ___fladd *****************
  3306 ;; Defined at:
  3307 ;;		line 10 in file "C:\Program Files\Microchip\xc8\v2.32\pic\sources\c90\common\sprcadd.c"
  3308 ;; Parameters:    Size  Location     Type
  3309 ;;  b               4    0[COMMON] void 
  3310 ;;  a               4    4[COMMON] void 
  3311 ;; Auto vars:     Size  Location     Type
  3312 ;;  grs             1   11[COMMON] unsigned char 
  3313 ;;  bexp            1   10[COMMON] unsigned char 
  3314 ;;  aexp            1    9[COMMON] unsigned char 
  3315 ;;  signs           1    8[COMMON] unsigned char 
  3316 ;; Return value:  Size  Location     Type
  3317 ;;                  4    0[COMMON] unsigned char 
  3318 ;; Registers used:
  3319 ;;		wreg, status,2, status,0, btemp+1
  3320 ;; Tracked objects:
  3321 ;;		On entry : 0/0
  3322 ;;		On exit  : 0/0
  3323 ;;		Unchanged: 0/0
  3324 ;; Data sizes:     COMMON   BANK0   BANK1   BANK3   BANK2
  3325 ;;      Params:         8       0       0       0       0
  3326 ;;      Locals:         4       0       0       0       0
  3327 ;;      Temps:          0       8       0       0       0
  3328 ;;      Totals:        12       8       0       0       0
  3329 ;;Total ram usage:       20 bytes
  3330 ;; Hardware stack levels used: 1
  3331 ;; This function calls:
  3332 ;;		Nothing
  3333 ;; This function is called by:
  3334 ;;		___flsub
  3335 ;; This function uses a non-reentrant model
  3336 ;;
  3337                           
  3338                           
  3339                           ;psect for function ___fladd
  3340  0D68                     ___fladd:
  3341  0D68                     l2044:	
  3342                           ;incstack = 0
  3343                           ; Regs used in ___fladd: [wreg+status,2+status,0+btemp+1]
  3344                           
  3345  0D68  0873               	movf	___fladd@b+3,w
  3346  0D69  3980               	andlw	128
  3347  0D6A  1283               	bcf	3,5	;RP0=0, select bank0
  3348  0D6B  1303               	bcf	3,6	;RP1=0, select bank0
  3349  0D6C  00A0               	movwf	??___fladd
  3350  0D6D  0820               	movf	??___fladd,w
  3351  0D6E  00F8               	movwf	___fladd@signs
  3352  0D6F                     l2046:
  3353  0D6F  0873               	movf	___fladd@b+3,w
  3354  0D70  00A0               	movwf	??___fladd
  3355  0D71  0720               	addwf	??___fladd,w
  3356  0D72  00A1               	movwf	??___fladd+1
  3357  0D73  0821               	movf	??___fladd+1,w
  3358  0D74  00FA               	movwf	___fladd@bexp
  3359  0D75                     l2048:
  3360  0D75  1FF2               	btfss	___fladd@b+2,7
  3361  0D76  2D78               	goto	u1591
  3362  0D77  2D79               	goto	u1590
  3363  0D78                     u1591:
  3364  0D78  2D7A               	goto	l2052
  3365  0D79                     u1590:
  3366  0D79                     l2050:
  3367  0D79  147A               	bsf	___fladd@bexp,0
  3368  0D7A                     l2052:
  3369  0D7A  087A               	movf	___fladd@bexp,w
  3370  0D7B  1903               	btfsc	3,2
  3371  0D7C  2D7E               	goto	u1601
  3372  0D7D  2D7F               	goto	u1600
  3373  0D7E                     u1601:
  3374  0D7E  2D8F               	goto	l2062
  3375  0D7F                     u1600:
  3376  0D7F                     l2054:
  3377  0D7F  0A7A               	incf	___fladd@bexp,w
  3378  0D80  1D03               	btfss	3,2
  3379  0D81  2D83               	goto	u1611
  3380  0D82  2D84               	goto	u1610
  3381  0D83                     u1611:
  3382  0D83  2D8C               	goto	l2058
  3383  0D84                     u1610:
  3384  0D84                     l2056:
  3385  0D84  3000               	movlw	0
  3386  0D85  00F3               	movwf	___fladd@b+3
  3387  0D86  3000               	movlw	0
  3388  0D87  00F2               	movwf	___fladd@b+2
  3389  0D88  3000               	movlw	0
  3390  0D89  00F1               	movwf	___fladd@b+1
  3391  0D8A  3000               	movlw	0
  3392  0D8B  00F0               	movwf	___fladd@b
  3393  0D8C                     l2058:
  3394  0D8C  17F2               	bsf	___fladd@b+2,7
  3395  0D8D                     l2060:
  3396  0D8D  01F3               	clrf	___fladd@b+3
  3397  0D8E  2D97               	goto	l2064
  3398  0D8F                     l2062:
  3399  0D8F  3000               	movlw	0
  3400  0D90  00F3               	movwf	___fladd@b+3
  3401  0D91  3000               	movlw	0
  3402  0D92  00F2               	movwf	___fladd@b+2
  3403  0D93  3000               	movlw	0
  3404  0D94  00F1               	movwf	___fladd@b+1
  3405  0D95  3000               	movlw	0
  3406  0D96  00F0               	movwf	___fladd@b
  3407  0D97                     l2064:
  3408  0D97  0877               	movf	___fladd@a+3,w
  3409  0D98  3980               	andlw	128
  3410  0D99  00A0               	movwf	??___fladd
  3411  0D9A  0820               	movf	??___fladd,w
  3412  0D9B  00F9               	movwf	___fladd@aexp
  3413  0D9C                     l2066:
  3414  0D9C  0879               	movf	___fladd@aexp,w
  3415  0D9D  0678               	xorwf	___fladd@signs,w
  3416  0D9E  1903               	skipnz
  3417  0D9F  2DA1               	goto	u1621
  3418  0DA0  2DA2               	goto	u1620
  3419  0DA1                     u1621:
  3420  0DA1  2DA3               	goto	l2070
  3421  0DA2                     u1620:
  3422  0DA2                     l2068:
  3423  0DA2  1778               	bsf	___fladd@signs,6
  3424  0DA3                     l2070:
  3425  0DA3  0877               	movf	___fladd@a+3,w
  3426  0DA4  00A0               	movwf	??___fladd
  3427  0DA5  0720               	addwf	??___fladd,w
  3428  0DA6  00A1               	movwf	??___fladd+1
  3429  0DA7  0821               	movf	??___fladd+1,w
  3430  0DA8  00F9               	movwf	___fladd@aexp
  3431  0DA9                     l2072:
  3432  0DA9  1FF6               	btfss	___fladd@a+2,7
  3433  0DAA  2DAC               	goto	u1631
  3434  0DAB  2DAD               	goto	u1630
  3435  0DAC                     u1631:
  3436  0DAC  2DAE               	goto	l2076
  3437  0DAD                     u1630:
  3438  0DAD                     l2074:
  3439  0DAD  1479               	bsf	___fladd@aexp,0
  3440  0DAE                     l2076:
  3441  0DAE  0879               	movf	___fladd@aexp,w
  3442  0DAF  1903               	btfsc	3,2
  3443  0DB0  2DB2               	goto	u1641
  3444  0DB1  2DB3               	goto	u1640
  3445  0DB2                     u1641:
  3446  0DB2  2DC3               	goto	l2086
  3447  0DB3                     u1640:
  3448  0DB3                     l2078:
  3449  0DB3  0A79               	incf	___fladd@aexp,w
  3450  0DB4  1D03               	btfss	3,2
  3451  0DB5  2DB7               	goto	u1651
  3452  0DB6  2DB8               	goto	u1650
  3453  0DB7                     u1651:
  3454  0DB7  2DC0               	goto	l2082
  3455  0DB8                     u1650:
  3456  0DB8                     l2080:
  3457  0DB8  3000               	movlw	0
  3458  0DB9  00F7               	movwf	___fladd@a+3
  3459  0DBA  3000               	movlw	0
  3460  0DBB  00F6               	movwf	___fladd@a+2
  3461  0DBC  3000               	movlw	0
  3462  0DBD  00F5               	movwf	___fladd@a+1
  3463  0DBE  3000               	movlw	0
  3464  0DBF  00F4               	movwf	___fladd@a
  3465  0DC0                     l2082:
  3466  0DC0  17F6               	bsf	___fladd@a+2,7
  3467  0DC1                     l2084:
  3468  0DC1  01F7               	clrf	___fladd@a+3
  3469  0DC2  2DCB               	goto	l693
  3470  0DC3                     l2086:
  3471  0DC3  3000               	movlw	0
  3472  0DC4  00F7               	movwf	___fladd@a+3
  3473  0DC5  3000               	movlw	0
  3474  0DC6  00F6               	movwf	___fladd@a+2
  3475  0DC7  3000               	movlw	0
  3476  0DC8  00F5               	movwf	___fladd@a+1
  3477  0DC9  3000               	movlw	0
  3478  0DCA  00F4               	movwf	___fladd@a
  3479  0DCB                     l693:
  3480  0DCB  087A               	movf	___fladd@bexp,w
  3481  0DCC  0279               	subwf	___fladd@aexp,w
  3482  0DCD  1803               	skipnc
  3483  0DCE  2DD0               	goto	u1661
  3484  0DCF  2DD1               	goto	u1660
  3485  0DD0                     u1661:
  3486  0DD0  2E15               	goto	l2122
  3487  0DD1                     u1660:
  3488  0DD1                     l2088:
  3489  0DD1  1F78               	btfss	___fladd@signs,6
  3490  0DD2  2DD4               	goto	u1671
  3491  0DD3  2DD5               	goto	u1670
  3492  0DD4                     u1671:
  3493  0DD4  2DD9               	goto	l2092
  3494  0DD5                     u1670:
  3495  0DD5                     l2090:
  3496  0DD5  3080               	movlw	128
  3497  0DD6  00A0               	movwf	??___fladd
  3498  0DD7  0820               	movf	??___fladd,w
  3499  0DD8  06F8               	xorwf	___fladd@signs,f
  3500  0DD9                     l2092:
  3501  0DD9  087A               	movf	___fladd@bexp,w
  3502  0DDA  00A0               	movwf	??___fladd
  3503  0DDB  0820               	movf	??___fladd,w
  3504  0DDC  00FB               	movwf	___fladd@grs
  3505  0DDD                     l2094:
  3506  0DDD  0879               	movf	___fladd@aexp,w
  3507  0DDE  00A0               	movwf	??___fladd
  3508  0DDF  0820               	movf	??___fladd,w
  3509  0DE0  00FA               	movwf	___fladd@bexp
  3510  0DE1                     l2096:
  3511  0DE1  087B               	movf	___fladd@grs,w
  3512  0DE2  00A0               	movwf	??___fladd
  3513  0DE3  0820               	movf	??___fladd,w
  3514  0DE4  00F9               	movwf	___fladd@aexp
  3515  0DE5                     l2098:
  3516  0DE5  0870               	movf	___fladd@b,w
  3517  0DE6  00A0               	movwf	??___fladd
  3518  0DE7  0820               	movf	??___fladd,w
  3519  0DE8  00FB               	movwf	___fladd@grs
  3520  0DE9                     l2100:
  3521  0DE9  0874               	movf	___fladd@a,w
  3522  0DEA  00A0               	movwf	??___fladd
  3523  0DEB  0820               	movf	??___fladd,w
  3524  0DEC  00F0               	movwf	___fladd@b
  3525  0DED                     l2102:
  3526  0DED  087B               	movf	___fladd@grs,w
  3527  0DEE  00A0               	movwf	??___fladd
  3528  0DEF  0820               	movf	??___fladd,w
  3529  0DF0  00F4               	movwf	___fladd@a
  3530  0DF1                     l2104:
  3531  0DF1  0871               	movf	___fladd@b+1,w
  3532  0DF2  00A0               	movwf	??___fladd
  3533  0DF3  0820               	movf	??___fladd,w
  3534  0DF4  00FB               	movwf	___fladd@grs
  3535  0DF5                     l2106:
  3536  0DF5  0875               	movf	___fladd@a+1,w
  3537  0DF6  00A0               	movwf	??___fladd
  3538  0DF7  0820               	movf	??___fladd,w
  3539  0DF8  00F1               	movwf	___fladd@b+1
  3540  0DF9                     l2108:
  3541  0DF9  087B               	movf	___fladd@grs,w
  3542  0DFA  00A0               	movwf	??___fladd
  3543  0DFB  0820               	movf	??___fladd,w
  3544  0DFC  00F5               	movwf	___fladd@a+1
  3545  0DFD                     l2110:
  3546  0DFD  0872               	movf	___fladd@b+2,w
  3547  0DFE  00A0               	movwf	??___fladd
  3548  0DFF  0820               	movf	??___fladd,w
  3549  0E00  00FB               	movwf	___fladd@grs
  3550  0E01                     l2112:
  3551  0E01  0876               	movf	___fladd@a+2,w
  3552  0E02  00A0               	movwf	??___fladd
  3553  0E03  0820               	movf	??___fladd,w
  3554  0E04  00F2               	movwf	___fladd@b+2
  3555  0E05                     l2114:
  3556  0E05  087B               	movf	___fladd@grs,w
  3557  0E06  00A0               	movwf	??___fladd
  3558  0E07  0820               	movf	??___fladd,w
  3559  0E08  00F6               	movwf	___fladd@a+2
  3560  0E09                     l2116:
  3561  0E09  0873               	movf	___fladd@b+3,w
  3562  0E0A  00A0               	movwf	??___fladd
  3563  0E0B  0820               	movf	??___fladd,w
  3564  0E0C  00FB               	movwf	___fladd@grs
  3565  0E0D                     l2118:
  3566  0E0D  0877               	movf	___fladd@a+3,w
  3567  0E0E  00A0               	movwf	??___fladd
  3568  0E0F  0820               	movf	??___fladd,w
  3569  0E10  00F3               	movwf	___fladd@b+3
  3570  0E11                     l2120:
  3571  0E11  087B               	movf	___fladd@grs,w
  3572  0E12  00A0               	movwf	??___fladd
  3573  0E13  0820               	movf	??___fladd,w
  3574  0E14  00F7               	movwf	___fladd@a+3
  3575  0E15                     l2122:
  3576  0E15  01FB               	clrf	___fladd@grs
  3577  0E16                     l2124:
  3578  0E16  0879               	movf	___fladd@aexp,w
  3579  0E17  00A0               	movwf	??___fladd
  3580  0E18  01A1               	clrf	??___fladd+1
  3581  0E19  0821               	movf	??___fladd+1,w
  3582  0E1A  00A3               	movwf	??___fladd+3
  3583  0E1B  087A               	movf	___fladd@bexp,w
  3584  0E1C  0220               	subwf	??___fladd,w
  3585  0E1D  00A2               	movwf	??___fladd+2
  3586  0E1E  1C03               	skipc
  3587  0E1F  03A3               	decf	??___fladd+3,f
  3588  0E20  0823               	movf	??___fladd+3,w
  3589  0E21  3A80               	xorlw	128
  3590  0E22  00FF               	movwf	btemp+1
  3591  0E23  3080               	movlw	128
  3592  0E24  027F               	subwf	btemp+1,w
  3593  0E25  1D03               	skipz
  3594  0E26  2E29               	goto	u1685
  3595  0E27  301A               	movlw	26
  3596  0E28  0222               	subwf	??___fladd+2,w
  3597  0E29                     u1685:
  3598  0E29  1C03               	skipc
  3599  0E2A  2E2C               	goto	u1681
  3600  0E2B  2E2D               	goto	u1680
  3601  0E2C                     u1681:
  3602  0E2C  2E6E               	goto	l2140
  3603  0E2D                     u1680:
  3604  0E2D                     l2126:
  3605  0E2D  0873               	movf	___fladd@b+3,w
  3606  0E2E  0472               	iorwf	___fladd@b+2,w
  3607  0E2F  0471               	iorwf	___fladd@b+1,w
  3608  0E30  0470               	iorwf	___fladd@b,w
  3609  0E31  1D03               	skipz
  3610  0E32  2E34               	goto	u1691
  3611  0E33  2E36               	goto	u1690
  3612  0E34                     u1691:
  3613  0E34  3001               	movlw	1
  3614  0E35  2E37               	goto	u1700
  3615  0E36                     u1690:
  3616  0E36  3000               	movlw	0
  3617  0E37                     u1700:
  3618  0E37  1283               	bcf	3,5	;RP0=0, select bank0
  3619  0E38  1303               	bcf	3,6	;RP1=0, select bank0
  3620  0E39  00A0               	movwf	??___fladd
  3621  0E3A  0820               	movf	??___fladd,w
  3622  0E3B  00FB               	movwf	___fladd@grs
  3623  0E3C  3000               	movlw	0
  3624  0E3D  00F3               	movwf	___fladd@b+3
  3625  0E3E  3000               	movlw	0
  3626  0E3F  00F2               	movwf	___fladd@b+2
  3627  0E40  3000               	movlw	0
  3628  0E41  00F1               	movwf	___fladd@b+1
  3629  0E42  3000               	movlw	0
  3630  0E43  00F0               	movwf	___fladd@b
  3631  0E44  0879               	movf	___fladd@aexp,w
  3632  0E45  00A0               	movwf	??___fladd
  3633  0E46  0820               	movf	??___fladd,w
  3634  0E47  00FA               	movwf	___fladd@bexp
  3635  0E48  2E74               	goto	l697
  3636  0E49                     l699:
  3637  0E49  1C7B               	btfss	___fladd@grs,0
  3638  0E4A  2E4C               	goto	u1711
  3639  0E4B  2E4D               	goto	u1710
  3640  0E4C                     u1711:
  3641  0E4C  2E58               	goto	l2130
  3642  0E4D                     u1710:
  3643  0E4D                     l2128:
  3644  0E4D  087B               	movf	___fladd@grs,w
  3645  0E4E  1283               	bcf	3,5	;RP0=0, select bank0
  3646  0E4F  1303               	bcf	3,6	;RP1=0, select bank0
  3647  0E50  00A0               	movwf	??___fladd
  3648  0E51  1003               	clrc
  3649  0E52  0C20               	rrf	??___fladd,w
  3650  0E53  3801               	iorlw	1
  3651  0E54  00A1               	movwf	??___fladd+1
  3652  0E55  0821               	movf	??___fladd+1,w
  3653  0E56  00FB               	movwf	___fladd@grs
  3654  0E57  2E5A               	goto	l2132
  3655  0E58                     l2130:
  3656  0E58  1003               	clrc
  3657  0E59  0CFB               	rrf	___fladd@grs,f
  3658  0E5A                     l2132:
  3659  0E5A  1C70               	btfss	___fladd@b,0
  3660  0E5B  2E5D               	goto	u1721
  3661  0E5C  2E5E               	goto	u1720
  3662  0E5D                     u1721:
  3663  0E5D  2E5F               	goto	l2136
  3664  0E5E                     u1720:
  3665  0E5E                     l2134:
  3666  0E5E  17FB               	bsf	___fladd@grs,7
  3667  0E5F                     l2136:
  3668  0E5F  3001               	movlw	1
  3669  0E60  1283               	bcf	3,5	;RP0=0, select bank0
  3670  0E61  1303               	bcf	3,6	;RP1=0, select bank0
  3671  0E62  00A0               	movwf	??___fladd
  3672  0E63                     u1735:
  3673  0E63  0D73               	rlf	___fladd@b+3,w
  3674  0E64  0CF3               	rrf	___fladd@b+3,f
  3675  0E65  0CF2               	rrf	___fladd@b+2,f
  3676  0E66  0CF1               	rrf	___fladd@b+1,f
  3677  0E67  0CF0               	rrf	___fladd@b,f
  3678  0E68  0BA0               	decfsz	??___fladd& (0+127),f
  3679  0E69  2E63               	goto	u1735
  3680  0E6A                     l2138:
  3681  0E6A  3001               	movlw	1
  3682  0E6B  00A0               	movwf	??___fladd
  3683  0E6C  0820               	movf	??___fladd,w
  3684  0E6D  07FA               	addwf	___fladd@bexp,f
  3685  0E6E                     l2140:
  3686  0E6E  0879               	movf	___fladd@aexp,w
  3687  0E6F  027A               	subwf	___fladd@bexp,w
  3688  0E70  1C03               	skipc
  3689  0E71  2E73               	goto	u1741
  3690  0E72  2E74               	goto	u1740
  3691  0E73                     u1741:
  3692  0E73  2E49               	goto	l699
  3693  0E74                     u1740:
  3694  0E74                     l697:
  3695  0E74  1B78               	btfsc	___fladd@signs,6
  3696  0E75  2E77               	goto	u1751
  3697  0E76  2E78               	goto	u1750
  3698  0E77                     u1751:
  3699  0E77  2EC7               	goto	l2166
  3700  0E78                     u1750:
  3701  0E78                     l2142:
  3702  0E78  087A               	movf	___fladd@bexp,w
  3703  0E79  1D03               	btfss	3,2
  3704  0E7A  2E7C               	goto	u1761
  3705  0E7B  2E7D               	goto	u1760
  3706  0E7C                     u1761:
  3707  0E7C  2E86               	goto	l2148
  3708  0E7D                     u1760:
  3709  0E7D                     l2144:
  3710  0E7D  3000               	movlw	0
  3711  0E7E  00F3               	movwf	?___fladd+3
  3712  0E7F  3000               	movlw	0
  3713  0E80  00F2               	movwf	?___fladd+2
  3714  0E81  3000               	movlw	0
  3715  0E82  00F1               	movwf	?___fladd+1
  3716  0E83  3000               	movlw	0
  3717  0E84  00F0               	movwf	?___fladd
  3718  0E85  2FFF               	goto	l706
  3719  0E86                     l2148:
  3720  0E86  0874               	movf	___fladd@a,w
  3721  0E87  07F0               	addwf	___fladd@b,f
  3722  0E88  0875               	movf	___fladd@a+1,w
  3723  0E89  1103               	clrz
  3724  0E8A  1803               	skipnc
  3725  0E8B  3E01               	addlw	1
  3726  0E8C  1903               	skipnz
  3727  0E8D  2E8F               	goto	u1771
  3728  0E8E  07F1               	addwf	___fladd@b+1,f
  3729  0E8F                     u1771:
  3730  0E8F  0876               	movf	___fladd@a+2,w
  3731  0E90  1103               	clrz
  3732  0E91  1803               	skipnc
  3733  0E92  3E01               	addlw	1
  3734  0E93  1903               	skipnz
  3735  0E94  2E96               	goto	u1772
  3736  0E95  07F2               	addwf	___fladd@b+2,f
  3737  0E96                     u1772:
  3738  0E96  0877               	movf	___fladd@a+3,w
  3739  0E97  1103               	clrz
  3740  0E98  1803               	skipnc
  3741  0E99  3E01               	addlw	1
  3742  0E9A  1903               	skipnz
  3743  0E9B  2E9D               	goto	u1773
  3744  0E9C  07F3               	addwf	___fladd@b+3,f
  3745  0E9D                     u1773:
  3746  0E9D                     l2150:
  3747  0E9D  1C73               	btfss	___fladd@b+3,0
  3748  0E9E  2EA0               	goto	u1781
  3749  0E9F  2EA1               	goto	u1780
  3750  0EA0                     u1781:
  3751  0EA0  2F7F               	goto	l2200
  3752  0EA1                     u1780:
  3753  0EA1                     l2152:
  3754  0EA1  1C7B               	btfss	___fladd@grs,0
  3755  0EA2  2EA4               	goto	u1791
  3756  0EA3  2EA5               	goto	u1790
  3757  0EA4                     u1791:
  3758  0EA4  2EB0               	goto	l2156
  3759  0EA5                     u1790:
  3760  0EA5                     l2154:
  3761  0EA5  087B               	movf	___fladd@grs,w
  3762  0EA6  1283               	bcf	3,5	;RP0=0, select bank0
  3763  0EA7  1303               	bcf	3,6	;RP1=0, select bank0
  3764  0EA8  00A0               	movwf	??___fladd
  3765  0EA9  1003               	clrc
  3766  0EAA  0C20               	rrf	??___fladd,w
  3767  0EAB  3801               	iorlw	1
  3768  0EAC  00A1               	movwf	??___fladd+1
  3769  0EAD  0821               	movf	??___fladd+1,w
  3770  0EAE  00FB               	movwf	___fladd@grs
  3771  0EAF  2EB2               	goto	l2158
  3772  0EB0                     l2156:
  3773  0EB0  1003               	clrc
  3774  0EB1  0CFB               	rrf	___fladd@grs,f
  3775  0EB2                     l2158:
  3776  0EB2  1C70               	btfss	___fladd@b,0
  3777  0EB3  2EB5               	goto	u1801
  3778  0EB4  2EB6               	goto	u1800
  3779  0EB5                     u1801:
  3780  0EB5  2EB7               	goto	l2162
  3781  0EB6                     u1800:
  3782  0EB6                     l2160:
  3783  0EB6  17FB               	bsf	___fladd@grs,7
  3784  0EB7                     l2162:
  3785  0EB7  3001               	movlw	1
  3786  0EB8  1283               	bcf	3,5	;RP0=0, select bank0
  3787  0EB9  1303               	bcf	3,6	;RP1=0, select bank0
  3788  0EBA  00A0               	movwf	??___fladd
  3789  0EBB                     u1815:
  3790  0EBB  0D73               	rlf	___fladd@b+3,w
  3791  0EBC  0CF3               	rrf	___fladd@b+3,f
  3792  0EBD  0CF2               	rrf	___fladd@b+2,f
  3793  0EBE  0CF1               	rrf	___fladd@b+1,f
  3794  0EBF  0CF0               	rrf	___fladd@b,f
  3795  0EC0  0BA0               	decfsz	??___fladd& (0+127),f
  3796  0EC1  2EBB               	goto	u1815
  3797  0EC2                     l2164:
  3798  0EC2  3001               	movlw	1
  3799  0EC3  00A0               	movwf	??___fladd
  3800  0EC4  0820               	movf	??___fladd,w
  3801  0EC5  07FA               	addwf	___fladd@bexp,f
  3802  0EC6  2F7F               	goto	l2200
  3803  0EC7                     l2166:
  3804  0EC7  0873               	movf	___fladd@b+3,w
  3805  0EC8  3A80               	xorlw	128
  3806  0EC9  00FF               	movwf	btemp+1
  3807  0ECA  0877               	movf	___fladd@a+3,w
  3808  0ECB  3A80               	xorlw	128
  3809  0ECC  027F               	subwf	btemp+1,w
  3810  0ECD  1D03               	skipz
  3811  0ECE  2ED9               	goto	u1823
  3812  0ECF  0876               	movf	___fladd@a+2,w
  3813  0ED0  0272               	subwf	___fladd@b+2,w
  3814  0ED1  1D03               	skipz
  3815  0ED2  2ED9               	goto	u1823
  3816  0ED3  0875               	movf	___fladd@a+1,w
  3817  0ED4  0271               	subwf	___fladd@b+1,w
  3818  0ED5  1D03               	skipz
  3819  0ED6  2ED9               	goto	u1823
  3820  0ED7  0874               	movf	___fladd@a,w
  3821  0ED8  0270               	subwf	___fladd@b,w
  3822  0ED9                     u1823:
  3823  0ED9  1803               	skipnc
  3824  0EDA  2EDC               	goto	u1821
  3825  0EDB  2EDD               	goto	u1820
  3826  0EDC                     u1821:
  3827  0EDC  2F37               	goto	l2176
  3828  0EDD                     u1820:
  3829  0EDD                     l2168:
  3830  0EDD  30FF               	movlw	255
  3831  0EDE  1283               	bcf	3,5	;RP0=0, select bank0
  3832  0EDF  1303               	bcf	3,6	;RP1=0, select bank0
  3833  0EE0  00A0               	movwf	??___fladd
  3834  0EE1  30FF               	movlw	255
  3835  0EE2  00A1               	movwf	??___fladd+1
  3836  0EE3  30FF               	movlw	255
  3837  0EE4  00A2               	movwf	??___fladd+2
  3838  0EE5  30FF               	movlw	255
  3839  0EE6  00A3               	movwf	??___fladd+3
  3840  0EE7  0874               	movf	___fladd@a,w
  3841  0EE8  00A4               	movwf	??___fladd+4
  3842  0EE9  0875               	movf	___fladd@a+1,w
  3843  0EEA  00A5               	movwf	??___fladd+5
  3844  0EEB  0876               	movf	___fladd@a+2,w
  3845  0EEC  00A6               	movwf	??___fladd+6
  3846  0EED  0877               	movf	___fladd@a+3,w
  3847  0EEE  00A7               	movwf	??___fladd+7
  3848  0EEF  0870               	movf	___fladd@b,w
  3849  0EF0  02A4               	subwf	??___fladd+4,f
  3850  0EF1  0871               	movf	___fladd@b+1,w
  3851  0EF2  1C03               	skipc
  3852  0EF3  0F71               	incfsz	___fladd@b+1,w
  3853  0EF4  2EF6               	goto	u1831
  3854  0EF5  2EF7               	goto	u1832
  3855  0EF6                     u1831:
  3856  0EF6  02A5               	subwf	??___fladd+5,f
  3857  0EF7                     u1832:
  3858  0EF7  0872               	movf	___fladd@b+2,w
  3859  0EF8  1C03               	skipc
  3860  0EF9  0F72               	incfsz	___fladd@b+2,w
  3861  0EFA  2EFC               	goto	u1833
  3862  0EFB  2EFD               	goto	u1834
  3863  0EFC                     u1833:
  3864  0EFC  02A6               	subwf	??___fladd+6,f
  3865  0EFD                     u1834:
  3866  0EFD  0873               	movf	___fladd@b+3,w
  3867  0EFE  1C03               	skipc
  3868  0EFF  0F73               	incfsz	___fladd@b+3,w
  3869  0F00  2F02               	goto	u1835
  3870  0F01  2F03               	goto	u1836
  3871  0F02                     u1835:
  3872  0F02  02A7               	subwf	??___fladd+7,f
  3873  0F03                     u1836:
  3874  0F03  0824               	movf	??___fladd+4,w
  3875  0F04  07A0               	addwf	??___fladd,f
  3876  0F05  0825               	movf	??___fladd+5,w
  3877  0F06  1803               	skipnc
  3878  0F07  0F25               	incfsz	??___fladd+5,w
  3879  0F08  2F0A               	goto	u1840
  3880  0F09  2F0B               	goto	u1841
  3881  0F0A                     u1840:
  3882  0F0A  07A1               	addwf	??___fladd+1,f
  3883  0F0B                     u1841:
  3884  0F0B  0826               	movf	??___fladd+6,w
  3885  0F0C  1803               	skipnc
  3886  0F0D  0F26               	incfsz	??___fladd+6,w
  3887  0F0E  2F10               	goto	u1842
  3888  0F0F  2F11               	goto	u1843
  3889  0F10                     u1842:
  3890  0F10  07A2               	addwf	??___fladd+2,f
  3891  0F11                     u1843:
  3892  0F11  0827               	movf	??___fladd+7,w
  3893  0F12  1803               	skipnc
  3894  0F13  0A27               	incf	??___fladd+7,w
  3895  0F14  07A3               	addwf	??___fladd+3,f
  3896  0F15  0823               	movf	??___fladd+3,w
  3897  0F16  00F3               	movwf	___fladd@b+3
  3898  0F17  0822               	movf	??___fladd+2,w
  3899  0F18  00F2               	movwf	___fladd@b+2
  3900  0F19  0821               	movf	??___fladd+1,w
  3901  0F1A  00F1               	movwf	___fladd@b+1
  3902  0F1B  0820               	movf	??___fladd,w
  3903  0F1C  00F0               	movwf	___fladd@b
  3904  0F1D                     l2170:
  3905  0F1D  3080               	movlw	128
  3906  0F1E  00A0               	movwf	??___fladd
  3907  0F1F  0820               	movf	??___fladd,w
  3908  0F20  06F8               	xorwf	___fladd@signs,f
  3909  0F21  09FB               	comf	___fladd@grs,f
  3910  0F22  0AFB               	incf	___fladd@grs,f
  3911  0F23                     l2172:
  3912  0F23  087B               	movf	___fladd@grs,w
  3913  0F24  1D03               	btfss	3,2
  3914  0F25  2F27               	goto	u1851
  3915  0F26  2F28               	goto	u1850
  3916  0F27                     u1851:
  3917  0F27  2F45               	goto	l714
  3918  0F28                     u1850:
  3919  0F28                     l2174:
  3920  0F28  3001               	movlw	1
  3921  0F29  07F0               	addwf	___fladd@b,f
  3922  0F2A  3000               	movlw	0
  3923  0F2B  1803               	skipnc
  3924  0F2C  3001               	movlw	1
  3925  0F2D  07F1               	addwf	___fladd@b+1,f
  3926  0F2E  3000               	movlw	0
  3927  0F2F  1803               	skipnc
  3928  0F30  3001               	movlw	1
  3929  0F31  07F2               	addwf	___fladd@b+2,f
  3930  0F32  3000               	movlw	0
  3931  0F33  1803               	skipnc
  3932  0F34  3001               	movlw	1
  3933  0F35  07F3               	addwf	___fladd@b+3,f
  3934  0F36  2F45               	goto	l714
  3935  0F37                     l2176:
  3936  0F37  0874               	movf	___fladd@a,w
  3937  0F38  02F0               	subwf	___fladd@b,f
  3938  0F39  0875               	movf	___fladd@a+1,w
  3939  0F3A  1C03               	skipc
  3940  0F3B  0F75               	incfsz	___fladd@a+1,w
  3941  0F3C  02F1               	subwf	___fladd@b+1,f
  3942  0F3D  0876               	movf	___fladd@a+2,w
  3943  0F3E  1C03               	skipc
  3944  0F3F  0F76               	incfsz	___fladd@a+2,w
  3945  0F40  02F2               	subwf	___fladd@b+2,f
  3946  0F41  0877               	movf	___fladd@a+3,w
  3947  0F42  1C03               	skipc
  3948  0F43  0F77               	incfsz	___fladd@a+3,w
  3949  0F44  02F3               	subwf	___fladd@b+3,f
  3950  0F45                     l714:
  3951  0F45  0873               	movf	___fladd@b+3,w
  3952  0F46  0472               	iorwf	___fladd@b+2,w
  3953  0F47  0471               	iorwf	___fladd@b+1,w
  3954  0F48  0470               	iorwf	___fladd@b,w
  3955  0F49  1D03               	skipz
  3956  0F4A  2F4C               	goto	u1861
  3957  0F4B  2F4D               	goto	u1860
  3958  0F4C                     u1861:
  3959  0F4C  2F7B               	goto	l2198
  3960  0F4D                     u1860:
  3961  0F4D                     l2178:
  3962  0F4D  087B               	movf	___fladd@grs,w
  3963  0F4E  1D03               	btfss	3,2
  3964  0F4F  2F51               	goto	u1871
  3965  0F50  2F52               	goto	u1870
  3966  0F51                     u1871:
  3967  0F51  2F7B               	goto	l2198
  3968  0F52                     u1870:
  3969  0F52                     l2180:
  3970  0F52  3000               	movlw	0
  3971  0F53  00F3               	movwf	?___fladd+3
  3972  0F54  3000               	movlw	0
  3973  0F55  00F2               	movwf	?___fladd+2
  3974  0F56  3000               	movlw	0
  3975  0F57  00F1               	movwf	?___fladd+1
  3976  0F58  3000               	movlw	0
  3977  0F59  00F0               	movwf	?___fladd
  3978  0F5A  2FFF               	goto	l706
  3979  0F5B                     l2184:
  3980  0F5B  3001               	movlw	1
  3981  0F5C  1283               	bcf	3,5	;RP0=0, select bank0
  3982  0F5D  1303               	bcf	3,6	;RP1=0, select bank0
  3983  0F5E  00A0               	movwf	??___fladd
  3984  0F5F                     u1885:
  3985  0F5F  1003               	clrc
  3986  0F60  0DF0               	rlf	___fladd@b,f
  3987  0F61  0DF1               	rlf	___fladd@b+1,f
  3988  0F62  0DF2               	rlf	___fladd@b+2,f
  3989  0F63  0DF3               	rlf	___fladd@b+3,f
  3990  0F64  0BA0               	decfsz	??___fladd,f
  3991  0F65  2F5F               	goto	u1885
  3992  0F66                     l2186:
  3993  0F66  1FFB               	btfss	___fladd@grs,7
  3994  0F67  2F69               	goto	u1891
  3995  0F68  2F6A               	goto	u1890
  3996  0F69                     u1891:
  3997  0F69  2F6B               	goto	l718
  3998  0F6A                     u1890:
  3999  0F6A                     l2188:
  4000  0F6A  1470               	bsf	___fladd@b,0
  4001  0F6B                     l718:
  4002  0F6B  1C7B               	btfss	___fladd@grs,0
  4003  0F6C  2F6E               	goto	u1901
  4004  0F6D  2F6F               	goto	u1900
  4005  0F6E                     u1901:
  4006  0F6E  2F72               	goto	l2192
  4007  0F6F                     u1900:
  4008  0F6F                     l2190:
  4009  0F6F  1403               	setc
  4010  0F70  0DFB               	rlf	___fladd@grs,f
  4011  0F71  2F74               	goto	l2194
  4012  0F72                     l2192:
  4013  0F72  1003               	clrc
  4014  0F73  0DFB               	rlf	___fladd@grs,f
  4015  0F74                     l2194:
  4016  0F74  087A               	movf	___fladd@bexp,w
  4017  0F75  1903               	btfsc	3,2
  4018  0F76  2F78               	goto	u1911
  4019  0F77  2F79               	goto	u1910
  4020  0F78                     u1911:
  4021  0F78  2F7B               	goto	l2198
  4022  0F79                     u1910:
  4023  0F79                     l2196:
  4024  0F79  3001               	movlw	1
  4025  0F7A  02FA               	subwf	___fladd@bexp,f
  4026  0F7B                     l2198:
  4027  0F7B  1FF2               	btfss	___fladd@b+2,7
  4028  0F7C  2F7E               	goto	u1921
  4029  0F7D  2F7F               	goto	u1920
  4030  0F7E                     u1921:
  4031  0F7E  2F5B               	goto	l2184
  4032  0F7F                     u1920:
  4033  0F7F                     l2200:
  4034  0F7F  01F9               	clrf	___fladd@aexp
  4035  0F80                     l2202:
  4036  0F80  1FFB               	btfss	___fladd@grs,7
  4037  0F81  2F83               	goto	u1931
  4038  0F82  2F84               	goto	u1930
  4039  0F83                     u1931:
  4040  0F83  2F92               	goto	l2210
  4041  0F84                     u1930:
  4042  0F84                     l2204:
  4043  0F84  087B               	movf	___fladd@grs,w
  4044  0F85  397F               	andlw	127
  4045  0F86  1903               	btfsc	3,2
  4046  0F87  2F89               	goto	u1941
  4047  0F88  2F8A               	goto	u1940
  4048  0F89                     u1941:
  4049  0F89  2F8D               	goto	l724
  4050  0F8A                     u1940:
  4051  0F8A                     l2206:
  4052  0F8A  01F9               	clrf	___fladd@aexp
  4053  0F8B  0AF9               	incf	___fladd@aexp,f
  4054  0F8C  2F92               	goto	l2210
  4055  0F8D                     l724:
  4056  0F8D  1C70               	btfss	___fladd@b,0
  4057  0F8E  2F90               	goto	u1951
  4058  0F8F  2F91               	goto	u1950
  4059  0F90                     u1951:
  4060  0F90  2F92               	goto	l2210
  4061  0F91                     u1950:
  4062  0F91  2F8A               	goto	l2206
  4063  0F92                     l2210:
  4064  0F92  0879               	movf	___fladd@aexp,w
  4065  0F93  1903               	btfsc	3,2
  4066  0F94  2F96               	goto	u1961
  4067  0F95  2F97               	goto	u1960
  4068  0F96                     u1961:
  4069  0F96  2FCD               	goto	l727
  4070  0F97                     u1960:
  4071  0F97                     l2212:
  4072  0F97  3001               	movlw	1
  4073  0F98  07F0               	addwf	___fladd@b,f
  4074  0F99  3000               	movlw	0
  4075  0F9A  1803               	skipnc
  4076  0F9B  3001               	movlw	1
  4077  0F9C  07F1               	addwf	___fladd@b+1,f
  4078  0F9D  3000               	movlw	0
  4079  0F9E  1803               	skipnc
  4080  0F9F  3001               	movlw	1
  4081  0FA0  07F2               	addwf	___fladd@b+2,f
  4082  0FA1  3000               	movlw	0
  4083  0FA2  1803               	skipnc
  4084  0FA3  3001               	movlw	1
  4085  0FA4  07F3               	addwf	___fladd@b+3,f
  4086  0FA5                     l2214:
  4087  0FA5  1C73               	btfss	___fladd@b+3,0
  4088  0FA6  2FA8               	goto	u1971
  4089  0FA7  2FA9               	goto	u1970
  4090  0FA8                     u1971:
  4091  0FA8  2FCD               	goto	l727
  4092  0FA9                     u1970:
  4093  0FA9                     l2216:
  4094  0FA9  0870               	movf	___fladd@b,w
  4095  0FAA  1283               	bcf	3,5	;RP0=0, select bank0
  4096  0FAB  1303               	bcf	3,6	;RP1=0, select bank0
  4097  0FAC  00A0               	movwf	??___fladd
  4098  0FAD  0871               	movf	___fladd@b+1,w
  4099  0FAE  00A1               	movwf	??___fladd+1
  4100  0FAF  0872               	movf	___fladd@b+2,w
  4101  0FB0  00A2               	movwf	??___fladd+2
  4102  0FB1  0873               	movf	___fladd@b+3,w
  4103  0FB2  00A3               	movwf	??___fladd+3
  4104  0FB3  3001               	movlw	1
  4105  0FB4  00A4               	movwf	??___fladd+4
  4106  0FB5                     u1985:
  4107  0FB5  0D23               	rlf	??___fladd+3,w
  4108  0FB6  0CA3               	rrf	??___fladd+3,f
  4109  0FB7  0CA2               	rrf	??___fladd+2,f
  4110  0FB8  0CA1               	rrf	??___fladd+1,f
  4111  0FB9  0CA0               	rrf	??___fladd,f
  4112  0FBA                     u1980:
  4113  0FBA  0BA4               	decfsz	??___fladd+4,f
  4114  0FBB  2FB5               	goto	u1985
  4115  0FBC  0823               	movf	??___fladd+3,w
  4116  0FBD  00F3               	movwf	___fladd@b+3
  4117  0FBE  0822               	movf	??___fladd+2,w
  4118  0FBF  00F2               	movwf	___fladd@b+2
  4119  0FC0  0821               	movf	??___fladd+1,w
  4120  0FC1  00F1               	movwf	___fladd@b+1
  4121  0FC2  0820               	movf	??___fladd,w
  4122  0FC3  00F0               	movwf	___fladd@b
  4123  0FC4  0A7A               	incf	___fladd@bexp,w
  4124  0FC5  1903               	btfsc	3,2
  4125  0FC6  2FC8               	goto	u1991
  4126  0FC7  2FC9               	goto	u1990
  4127  0FC8                     u1991:
  4128  0FC8  2FCD               	goto	l727
  4129  0FC9                     u1990:
  4130  0FC9                     l2218:
  4131  0FC9  3001               	movlw	1
  4132  0FCA  00A0               	movwf	??___fladd
  4133  0FCB  0820               	movf	??___fladd,w
  4134  0FCC  07FA               	addwf	___fladd@bexp,f
  4135  0FCD                     l727:
  4136  0FCD  0A7A               	incf	___fladd@bexp,w
  4137  0FCE  1903               	btfsc	3,2
  4138  0FCF  2FD1               	goto	u2001
  4139  0FD0  2FD2               	goto	u2000
  4140  0FD1                     u2001:
  4141  0FD1  2FD7               	goto	l2222
  4142  0FD2                     u2000:
  4143  0FD2                     l2220:
  4144  0FD2  087A               	movf	___fladd@bexp,w
  4145  0FD3  1D03               	btfss	3,2
  4146  0FD4  2FD6               	goto	u2011
  4147  0FD5  2FD7               	goto	u2010
  4148  0FD6                     u2011:
  4149  0FD6  2FE5               	goto	l2228
  4150  0FD7                     u2010:
  4151  0FD7                     l2222:
  4152  0FD7  3000               	movlw	0
  4153  0FD8  00F3               	movwf	___fladd@b+3
  4154  0FD9  3000               	movlw	0
  4155  0FDA  00F2               	movwf	___fladd@b+2
  4156  0FDB  3000               	movlw	0
  4157  0FDC  00F1               	movwf	___fladd@b+1
  4158  0FDD  3000               	movlw	0
  4159  0FDE  00F0               	movwf	___fladd@b
  4160  0FDF                     l2224:
  4161  0FDF  087A               	movf	___fladd@bexp,w
  4162  0FE0  1D03               	btfss	3,2
  4163  0FE1  2FE3               	goto	u2021
  4164  0FE2  2FE4               	goto	u2020
  4165  0FE3                     u2021:
  4166  0FE3  2FE5               	goto	l2228
  4167  0FE4                     u2020:
  4168  0FE4                     l2226:
  4169  0FE4  01F8               	clrf	___fladd@signs
  4170  0FE5                     l2228:
  4171  0FE5  1C7A               	btfss	___fladd@bexp,0
  4172  0FE6  2FE8               	goto	u2031
  4173  0FE7  2FE9               	goto	u2030
  4174  0FE8                     u2031:
  4175  0FE8  2FEB               	goto	l2232
  4176  0FE9                     u2030:
  4177  0FE9                     l2230:
  4178  0FE9  17F2               	bsf	___fladd@b+2,7
  4179  0FEA  2FF1               	goto	l735
  4180  0FEB                     l2232:
  4181  0FEB  307F               	movlw	127
  4182  0FEC  1283               	bcf	3,5	;RP0=0, select bank0
  4183  0FED  1303               	bcf	3,6	;RP1=0, select bank0
  4184  0FEE  00A0               	movwf	??___fladd
  4185  0FEF  0820               	movf	??___fladd,w
  4186  0FF0  05F2               	andwf	___fladd@b+2,f
  4187  0FF1                     l735:
  4188  0FF1  087A               	movf	___fladd@bexp,w
  4189  0FF2  1283               	bcf	3,5	;RP0=0, select bank0
  4190  0FF3  1303               	bcf	3,6	;RP1=0, select bank0
  4191  0FF4  00A0               	movwf	??___fladd
  4192  0FF5  1003               	clrc
  4193  0FF6  0C20               	rrf	??___fladd,w
  4194  0FF7  00A1               	movwf	??___fladd+1
  4195  0FF8  0821               	movf	??___fladd+1,w
  4196  0FF9  00F3               	movwf	___fladd@b+3
  4197  0FFA                     l2234:
  4198  0FFA  1FF8               	btfss	___fladd@signs,7
  4199  0FFB  2FFD               	goto	u2041
  4200  0FFC  2FFE               	goto	u2040
  4201  0FFD                     u2041:
  4202  0FFD  2FFF               	goto	l736
  4203  0FFE                     u2040:
  4204  0FFE                     l2236:
  4205  0FFE  17F3               	bsf	___fladd@b+3,7
  4206  0FFF                     l736:
  4207  0FFF                     l706:
  4208  0FFF  0008               	return
  4209  1000                     __end_of___fladd:
  4210                           
  4211                           	psect	text12
  4212  045D                     __ptext12:	
  4213 ;; *************** function ___flmul *****************
  4214 ;; Defined at:
  4215 ;;		line 8 in file "C:\Program Files\Microchip\xc8\v2.32\pic\sources\c90\common\sprcmul.c"
  4216 ;; Parameters:    Size  Location     Type
  4217 ;;  b               4    0[BANK0 ] unsigned char 
  4218 ;;  a               4    4[BANK0 ] unsigned char 
  4219 ;; Auto vars:     Size  Location     Type
  4220 ;;  prod            4   15[BANK0 ] struct .
  4221 ;;  grs             4    9[BANK0 ] unsigned long 
  4222 ;;  temp            2   19[BANK0 ] struct .
  4223 ;;  bexp            1   14[BANK0 ] unsigned char 
  4224 ;;  aexp            1   13[BANK0 ] unsigned char 
  4225 ;;  sign            1    8[BANK0 ] unsigned char 
  4226 ;; Return value:  Size  Location     Type
  4227 ;;                  4    0[BANK0 ] unsigned char 
  4228 ;; Registers used:
  4229 ;;		wreg, status,2, status,0, btemp+1, pclath, cstack
  4230 ;; Tracked objects:
  4231 ;;		On entry : 0/0
  4232 ;;		On exit  : 0/0
  4233 ;;		Unchanged: 0/0
  4234 ;; Data sizes:     COMMON   BANK0   BANK1   BANK3   BANK2
  4235 ;;      Params:         0       8       0       0       0
  4236 ;;      Locals:         0      13       0       0       0
  4237 ;;      Temps:          5       0       0       0       0
  4238 ;;      Totals:         5      21       0       0       0
  4239 ;;Total ram usage:       26 bytes
  4240 ;; Hardware stack levels used: 1
  4241 ;; Hardware stack levels required when called: 1
  4242 ;; This function calls:
  4243 ;;		__Umul8_16
  4244 ;; This function is called by:
  4245 ;;		_liga_buzzer
  4246 ;; This function uses a non-reentrant model
  4247 ;;
  4248                           
  4249                           
  4250                           ;psect for function ___flmul
  4251  045D                     ___flmul:
  4252  045D                     l2290:	
  4253                           ;incstack = 0
  4254                           ; Regs used in ___flmul: [wreg+status,2+status,0+btemp+1+pclath+cstack]
  4255                           
  4256  045D  1283               	bcf	3,5	;RP0=0, select bank0
  4257  045E  1303               	bcf	3,6	;RP1=0, select bank0
  4258  045F  0823               	movf	___flmul@b+3,w
  4259  0460  3980               	andlw	128
  4260  0461  00F9               	movwf	??___flmul
  4261  0462  0879               	movf	??___flmul,w
  4262  0463  00A8               	movwf	___flmul@sign
  4263  0464                     l2292:
  4264  0464  0823               	movf	___flmul@b+3,w
  4265  0465  00F9               	movwf	??___flmul
  4266  0466  0779               	addwf	??___flmul,w
  4267  0467  00FA               	movwf	??___flmul+1
  4268  0468  087A               	movf	??___flmul+1,w
  4269  0469  00AE               	movwf	___flmul@bexp
  4270  046A                     l2294:
  4271  046A  1FA2               	btfss	___flmul@b+2,7
  4272  046B  2C6D               	goto	u2151
  4273  046C  2C6E               	goto	u2150
  4274  046D                     u2151:
  4275  046D  2C6F               	goto	l2298
  4276  046E                     u2150:
  4277  046E                     l2296:
  4278  046E  142E               	bsf	___flmul@bexp,0
  4279  046F                     l2298:
  4280  046F  082E               	movf	___flmul@bexp,w
  4281  0470  1903               	btfsc	3,2
  4282  0471  2C73               	goto	u2161
  4283  0472  2C74               	goto	u2160
  4284  0473                     u2161:
  4285  0473  2C83               	goto	l2306
  4286  0474                     u2160:
  4287  0474                     l2300:
  4288  0474  0A2E               	incf	___flmul@bexp,w
  4289  0475  1D03               	btfss	3,2
  4290  0476  2C78               	goto	u2171
  4291  0477  2C79               	goto	u2170
  4292  0478                     u2171:
  4293  0478  2C81               	goto	l2304
  4294  0479                     u2170:
  4295  0479                     l2302:
  4296  0479  3000               	movlw	0
  4297  047A  00A3               	movwf	___flmul@b+3
  4298  047B  3000               	movlw	0
  4299  047C  00A2               	movwf	___flmul@b+2
  4300  047D  3000               	movlw	0
  4301  047E  00A1               	movwf	___flmul@b+1
  4302  047F  3000               	movlw	0
  4303  0480  00A0               	movwf	___flmul@b
  4304  0481                     l2304:
  4305  0481  17A2               	bsf	___flmul@b+2,7
  4306  0482  2C8B               	goto	l2308
  4307  0483                     l2306:
  4308  0483  3000               	movlw	0
  4309  0484  00A3               	movwf	___flmul@b+3
  4310  0485  3000               	movlw	0
  4311  0486  00A2               	movwf	___flmul@b+2
  4312  0487  3000               	movlw	0
  4313  0488  00A1               	movwf	___flmul@b+1
  4314  0489  3000               	movlw	0
  4315  048A  00A0               	movwf	___flmul@b
  4316  048B                     l2308:
  4317  048B  0827               	movf	___flmul@a+3,w
  4318  048C  3980               	andlw	128
  4319  048D  00F9               	movwf	??___flmul
  4320  048E  0879               	movf	??___flmul,w
  4321  048F  06A8               	xorwf	___flmul@sign,f
  4322  0490                     l2310:
  4323  0490  0827               	movf	___flmul@a+3,w
  4324  0491  00F9               	movwf	??___flmul
  4325  0492  0779               	addwf	??___flmul,w
  4326  0493  00FA               	movwf	??___flmul+1
  4327  0494  087A               	movf	??___flmul+1,w
  4328  0495  00AD               	movwf	___flmul@aexp
  4329  0496                     l2312:
  4330  0496  1FA6               	btfss	___flmul@a+2,7
  4331  0497  2C99               	goto	u2181
  4332  0498  2C9A               	goto	u2180
  4333  0499                     u2181:
  4334  0499  2C9B               	goto	l2316
  4335  049A                     u2180:
  4336  049A                     l2314:
  4337  049A  142D               	bsf	___flmul@aexp,0
  4338  049B                     l2316:
  4339  049B  082D               	movf	___flmul@aexp,w
  4340  049C  1903               	btfsc	3,2
  4341  049D  2C9F               	goto	u2191
  4342  049E  2CA0               	goto	u2190
  4343  049F                     u2191:
  4344  049F  2CAF               	goto	l2324
  4345  04A0                     u2190:
  4346  04A0                     l2318:
  4347  04A0  0A2D               	incf	___flmul@aexp,w
  4348  04A1  1D03               	btfss	3,2
  4349  04A2  2CA4               	goto	u2201
  4350  04A3  2CA5               	goto	u2200
  4351  04A4                     u2201:
  4352  04A4  2CAD               	goto	l2322
  4353  04A5                     u2200:
  4354  04A5                     l2320:
  4355  04A5  3000               	movlw	0
  4356  04A6  00A7               	movwf	___flmul@a+3
  4357  04A7  3000               	movlw	0
  4358  04A8  00A6               	movwf	___flmul@a+2
  4359  04A9  3000               	movlw	0
  4360  04AA  00A5               	movwf	___flmul@a+1
  4361  04AB  3000               	movlw	0
  4362  04AC  00A4               	movwf	___flmul@a
  4363  04AD                     l2322:
  4364  04AD  17A6               	bsf	___flmul@a+2,7
  4365  04AE  2CB7               	goto	l2326
  4366  04AF                     l2324:
  4367  04AF  3000               	movlw	0
  4368  04B0  00A7               	movwf	___flmul@a+3
  4369  04B1  3000               	movlw	0
  4370  04B2  00A6               	movwf	___flmul@a+2
  4371  04B3  3000               	movlw	0
  4372  04B4  00A5               	movwf	___flmul@a+1
  4373  04B5  3000               	movlw	0
  4374  04B6  00A4               	movwf	___flmul@a
  4375  04B7                     l2326:
  4376  04B7  082D               	movf	___flmul@aexp,w
  4377  04B8  1903               	btfsc	3,2
  4378  04B9  2CBB               	goto	u2211
  4379  04BA  2CBC               	goto	u2210
  4380  04BB                     u2211:
  4381  04BB  2CC1               	goto	l2330
  4382  04BC                     u2210:
  4383  04BC                     l2328:
  4384  04BC  082E               	movf	___flmul@bexp,w
  4385  04BD  1D03               	btfss	3,2
  4386  04BE  2CC0               	goto	u2221
  4387  04BF  2CC1               	goto	u2220
  4388  04C0                     u2221:
  4389  04C0  2CCA               	goto	l2334
  4390  04C1                     u2220:
  4391  04C1                     l2330:
  4392  04C1  3000               	movlw	0
  4393  04C2  00A3               	movwf	?___flmul+3
  4394  04C3  3000               	movlw	0
  4395  04C4  00A2               	movwf	?___flmul+2
  4396  04C5  3000               	movlw	0
  4397  04C6  00A1               	movwf	?___flmul+1
  4398  04C7  3000               	movlw	0
  4399  04C8  00A0               	movwf	?___flmul
  4400  04C9  2FBD               	goto	l789
  4401  04CA                     l2334:
  4402  04CA  0820               	movf	___flmul@b,w
  4403  04CB  00F9               	movwf	??___flmul
  4404  04CC  0879               	movf	??___flmul,w
  4405  04CD  00F0               	movwf	__Umul8_16@multiplicand
  4406  04CE  0826               	movf	___flmul@a+2,w
  4407  04CF  120A  118A  200A  120A  118A  	fcall	__Umul8_16
  4408  04D4  0871               	movf	?__Umul8_16+1,w
  4409  04D5  1283               	bcf	3,5	;RP0=0, select bank0
  4410  04D6  1303               	bcf	3,6	;RP1=0, select bank0
  4411  04D7  00B4               	movwf	___flmul@temp+1
  4412  04D8  0870               	movf	?__Umul8_16,w
  4413  04D9  00B3               	movwf	___flmul@temp
  4414  04DA                     l2336:
  4415  04DA  0833               	movf	___flmul@temp,w
  4416  04DB  00F9               	movwf	??___flmul
  4417  04DC  01FA               	clrf	??___flmul+1
  4418  04DD  01FB               	clrf	??___flmul+2
  4419  04DE  01FC               	clrf	??___flmul+3
  4420  04DF  087C               	movf	??___flmul+3,w
  4421  04E0  00AC               	movwf	___flmul@grs+3
  4422  04E1  087B               	movf	??___flmul+2,w
  4423  04E2  00AB               	movwf	___flmul@grs+2
  4424  04E3  087A               	movf	??___flmul+1,w
  4425  04E4  00AA               	movwf	___flmul@grs+1
  4426  04E5  0879               	movf	??___flmul,w
  4427  04E6  00A9               	movwf	___flmul@grs
  4428  04E7                     l2338:
  4429  04E7  0834               	movf	___flmul@temp+1,w
  4430  04E8  00F9               	movwf	??___flmul
  4431  04E9  01FA               	clrf	??___flmul+1
  4432  04EA  01FB               	clrf	??___flmul+2
  4433  04EB  01FC               	clrf	??___flmul+3
  4434  04EC  087C               	movf	??___flmul+3,w
  4435  04ED  00B2               	movwf	___flmul@prod+3
  4436  04EE  087B               	movf	??___flmul+2,w
  4437  04EF  00B1               	movwf	___flmul@prod+2
  4438  04F0  087A               	movf	??___flmul+1,w
  4439  04F1  00B0               	movwf	___flmul@prod+1
  4440  04F2  0879               	movf	??___flmul,w
  4441  04F3  00AF               	movwf	___flmul@prod
  4442  04F4  0821               	movf	___flmul@b+1,w
  4443  04F5  00F9               	movwf	??___flmul
  4444  04F6  0879               	movf	??___flmul,w
  4445  04F7  00F0               	movwf	__Umul8_16@multiplicand
  4446  04F8  0825               	movf	___flmul@a+1,w
  4447  04F9  120A  118A  200A  120A  118A  	fcall	__Umul8_16
  4448  04FE  0871               	movf	?__Umul8_16+1,w
  4449  04FF  1283               	bcf	3,5	;RP0=0, select bank0
  4450  0500  1303               	bcf	3,6	;RP1=0, select bank0
  4451  0501  00B4               	movwf	___flmul@temp+1
  4452  0502  0870               	movf	?__Umul8_16,w
  4453  0503  00B3               	movwf	___flmul@temp
  4454  0504                     l2340:
  4455  0504  0833               	movf	___flmul@temp,w
  4456  0505  00F9               	movwf	??___flmul
  4457  0506  01FA               	clrf	??___flmul+1
  4458  0507  01FB               	clrf	??___flmul+2
  4459  0508  01FC               	clrf	??___flmul+3
  4460  0509  0879               	movf	??___flmul,w
  4461  050A  07A9               	addwf	___flmul@grs,f
  4462  050B  087A               	movf	??___flmul+1,w
  4463  050C  1103               	clrz
  4464  050D  1803               	skipnc
  4465  050E  3E01               	addlw	1
  4466  050F  1903               	skipnz
  4467  0510  2D12               	goto	u2231
  4468  0511  07AA               	addwf	___flmul@grs+1,f
  4469  0512                     u2231:
  4470  0512  087B               	movf	??___flmul+2,w
  4471  0513  1103               	clrz
  4472  0514  1803               	skipnc
  4473  0515  3E01               	addlw	1
  4474  0516  1903               	skipnz
  4475  0517  2D19               	goto	u2232
  4476  0518  07AB               	addwf	___flmul@grs+2,f
  4477  0519                     u2232:
  4478  0519  087C               	movf	??___flmul+3,w
  4479  051A  1103               	clrz
  4480  051B  1803               	skipnc
  4481  051C  3E01               	addlw	1
  4482  051D  1903               	skipnz
  4483  051E  2D20               	goto	u2233
  4484  051F  07AC               	addwf	___flmul@grs+3,f
  4485  0520                     u2233:
  4486  0520                     l2342:
  4487  0520  0834               	movf	___flmul@temp+1,w
  4488  0521  00F9               	movwf	??___flmul
  4489  0522  01FA               	clrf	??___flmul+1
  4490  0523  01FB               	clrf	??___flmul+2
  4491  0524  01FC               	clrf	??___flmul+3
  4492  0525  0879               	movf	??___flmul,w
  4493  0526  07AF               	addwf	___flmul@prod,f
  4494  0527  087A               	movf	??___flmul+1,w
  4495  0528  1103               	clrz
  4496  0529  1803               	skipnc
  4497  052A  3E01               	addlw	1
  4498  052B  1903               	skipnz
  4499  052C  2D2E               	goto	u2241
  4500  052D  07B0               	addwf	___flmul@prod+1,f
  4501  052E                     u2241:
  4502  052E  087B               	movf	??___flmul+2,w
  4503  052F  1103               	clrz
  4504  0530  1803               	skipnc
  4505  0531  3E01               	addlw	1
  4506  0532  1903               	skipnz
  4507  0533  2D35               	goto	u2242
  4508  0534  07B1               	addwf	___flmul@prod+2,f
  4509  0535                     u2242:
  4510  0535  087C               	movf	??___flmul+3,w
  4511  0536  1103               	clrz
  4512  0537  1803               	skipnc
  4513  0538  3E01               	addlw	1
  4514  0539  1903               	skipnz
  4515  053A  2D3C               	goto	u2243
  4516  053B  07B2               	addwf	___flmul@prod+3,f
  4517  053C                     u2243:
  4518  053C  0822               	movf	___flmul@b+2,w
  4519  053D  00F9               	movwf	??___flmul
  4520  053E  0879               	movf	??___flmul,w
  4521  053F  00F0               	movwf	__Umul8_16@multiplicand
  4522  0540  0824               	movf	___flmul@a,w
  4523  0541  120A  118A  200A  120A  118A  	fcall	__Umul8_16
  4524  0546  0871               	movf	?__Umul8_16+1,w
  4525  0547  1283               	bcf	3,5	;RP0=0, select bank0
  4526  0548  1303               	bcf	3,6	;RP1=0, select bank0
  4527  0549  00B4               	movwf	___flmul@temp+1
  4528  054A  0870               	movf	?__Umul8_16,w
  4529  054B  00B3               	movwf	___flmul@temp
  4530  054C                     l2344:
  4531  054C  0833               	movf	___flmul@temp,w
  4532  054D  00F9               	movwf	??___flmul
  4533  054E  01FA               	clrf	??___flmul+1
  4534  054F  01FB               	clrf	??___flmul+2
  4535  0550  01FC               	clrf	??___flmul+3
  4536  0551  0879               	movf	??___flmul,w
  4537  0552  07A9               	addwf	___flmul@grs,f
  4538  0553  087A               	movf	??___flmul+1,w
  4539  0554  1103               	clrz
  4540  0555  1803               	skipnc
  4541  0556  3E01               	addlw	1
  4542  0557  1903               	skipnz
  4543  0558  2D5A               	goto	u2251
  4544  0559  07AA               	addwf	___flmul@grs+1,f
  4545  055A                     u2251:
  4546  055A  087B               	movf	??___flmul+2,w
  4547  055B  1103               	clrz
  4548  055C  1803               	skipnc
  4549  055D  3E01               	addlw	1
  4550  055E  1903               	skipnz
  4551  055F  2D61               	goto	u2252
  4552  0560  07AB               	addwf	___flmul@grs+2,f
  4553  0561                     u2252:
  4554  0561  087C               	movf	??___flmul+3,w
  4555  0562  1103               	clrz
  4556  0563  1803               	skipnc
  4557  0564  3E01               	addlw	1
  4558  0565  1903               	skipnz
  4559  0566  2D68               	goto	u2253
  4560  0567  07AC               	addwf	___flmul@grs+3,f
  4561  0568                     u2253:
  4562  0568                     l2346:
  4563  0568  0834               	movf	___flmul@temp+1,w
  4564  0569  00F9               	movwf	??___flmul
  4565  056A  01FA               	clrf	??___flmul+1
  4566  056B  01FB               	clrf	??___flmul+2
  4567  056C  01FC               	clrf	??___flmul+3
  4568  056D  0879               	movf	??___flmul,w
  4569  056E  07AF               	addwf	___flmul@prod,f
  4570  056F  087A               	movf	??___flmul+1,w
  4571  0570  1103               	clrz
  4572  0571  1803               	skipnc
  4573  0572  3E01               	addlw	1
  4574  0573  1903               	skipnz
  4575  0574  2D76               	goto	u2261
  4576  0575  07B0               	addwf	___flmul@prod+1,f
  4577  0576                     u2261:
  4578  0576  087B               	movf	??___flmul+2,w
  4579  0577  1103               	clrz
  4580  0578  1803               	skipnc
  4581  0579  3E01               	addlw	1
  4582  057A  1903               	skipnz
  4583  057B  2D7D               	goto	u2262
  4584  057C  07B1               	addwf	___flmul@prod+2,f
  4585  057D                     u2262:
  4586  057D  087C               	movf	??___flmul+3,w
  4587  057E  1103               	clrz
  4588  057F  1803               	skipnc
  4589  0580  3E01               	addlw	1
  4590  0581  1903               	skipnz
  4591  0582  2D84               	goto	u2263
  4592  0583  07B2               	addwf	___flmul@prod+3,f
  4593  0584                     u2263:
  4594  0584                     l2348:
  4595  0584  3008               	movlw	8
  4596  0585  00F9               	movwf	??___flmul
  4597  0586                     u2275:
  4598  0586  1003               	clrc
  4599  0587  0DA9               	rlf	___flmul@grs,f
  4600  0588  0DAA               	rlf	___flmul@grs+1,f
  4601  0589  0DAB               	rlf	___flmul@grs+2,f
  4602  058A  0DAC               	rlf	___flmul@grs+3,f
  4603  058B  0BF9               	decfsz	??___flmul,f
  4604  058C  2D86               	goto	u2275
  4605  058D                     l2350:
  4606  058D  0821               	movf	___flmul@b+1,w
  4607  058E  00F9               	movwf	??___flmul
  4608  058F  0879               	movf	??___flmul,w
  4609  0590  00F0               	movwf	__Umul8_16@multiplicand
  4610  0591  0824               	movf	___flmul@a,w
  4611  0592  120A  118A  200A  120A  118A  	fcall	__Umul8_16
  4612  0597  0871               	movf	?__Umul8_16+1,w
  4613  0598  1283               	bcf	3,5	;RP0=0, select bank0
  4614  0599  1303               	bcf	3,6	;RP1=0, select bank0
  4615  059A  00B4               	movwf	___flmul@temp+1
  4616  059B  0870               	movf	?__Umul8_16,w
  4617  059C  00B3               	movwf	___flmul@temp
  4618  059D                     l2352:
  4619  059D  0833               	movf	___flmul@temp,w
  4620  059E  00F9               	movwf	??___flmul
  4621  059F  0834               	movf	___flmul@temp+1,w
  4622  05A0  00FA               	movwf	??___flmul+1
  4623  05A1  01FB               	clrf	??___flmul+2
  4624  05A2  01FC               	clrf	??___flmul+3
  4625  05A3  0879               	movf	??___flmul,w
  4626  05A4  07A9               	addwf	___flmul@grs,f
  4627  05A5  087A               	movf	??___flmul+1,w
  4628  05A6  1103               	clrz
  4629  05A7  1803               	skipnc
  4630  05A8  3E01               	addlw	1
  4631  05A9  1903               	skipnz
  4632  05AA  2DAC               	goto	u2281
  4633  05AB  07AA               	addwf	___flmul@grs+1,f
  4634  05AC                     u2281:
  4635  05AC  087B               	movf	??___flmul+2,w
  4636  05AD  1103               	clrz
  4637  05AE  1803               	skipnc
  4638  05AF  3E01               	addlw	1
  4639  05B0  1903               	skipnz
  4640  05B1  2DB3               	goto	u2282
  4641  05B2  07AB               	addwf	___flmul@grs+2,f
  4642  05B3                     u2282:
  4643  05B3  087C               	movf	??___flmul+3,w
  4644  05B4  1103               	clrz
  4645  05B5  1803               	skipnc
  4646  05B6  3E01               	addlw	1
  4647  05B7  1903               	skipnz
  4648  05B8  2DBA               	goto	u2283
  4649  05B9  07AC               	addwf	___flmul@grs+3,f
  4650  05BA                     u2283:
  4651  05BA                     l2354:
  4652  05BA  0820               	movf	___flmul@b,w
  4653  05BB  00F9               	movwf	??___flmul
  4654  05BC  0879               	movf	??___flmul,w
  4655  05BD  00F0               	movwf	__Umul8_16@multiplicand
  4656  05BE  0825               	movf	___flmul@a+1,w
  4657  05BF  120A  118A  200A  120A  118A  	fcall	__Umul8_16
  4658  05C4  0871               	movf	?__Umul8_16+1,w
  4659  05C5  1283               	bcf	3,5	;RP0=0, select bank0
  4660  05C6  1303               	bcf	3,6	;RP1=0, select bank0
  4661  05C7  00B4               	movwf	___flmul@temp+1
  4662  05C8  0870               	movf	?__Umul8_16,w
  4663  05C9  00B3               	movwf	___flmul@temp
  4664  05CA                     l2356:
  4665  05CA  0833               	movf	___flmul@temp,w
  4666  05CB  00F9               	movwf	??___flmul
  4667  05CC  0834               	movf	___flmul@temp+1,w
  4668  05CD  00FA               	movwf	??___flmul+1
  4669  05CE  01FB               	clrf	??___flmul+2
  4670  05CF  01FC               	clrf	??___flmul+3
  4671  05D0  0879               	movf	??___flmul,w
  4672  05D1  07A9               	addwf	___flmul@grs,f
  4673  05D2  087A               	movf	??___flmul+1,w
  4674  05D3  1103               	clrz
  4675  05D4  1803               	skipnc
  4676  05D5  3E01               	addlw	1
  4677  05D6  1903               	skipnz
  4678  05D7  2DD9               	goto	u2291
  4679  05D8  07AA               	addwf	___flmul@grs+1,f
  4680  05D9                     u2291:
  4681  05D9  087B               	movf	??___flmul+2,w
  4682  05DA  1103               	clrz
  4683  05DB  1803               	skipnc
  4684  05DC  3E01               	addlw	1
  4685  05DD  1903               	skipnz
  4686  05DE  2DE0               	goto	u2292
  4687  05DF  07AB               	addwf	___flmul@grs+2,f
  4688  05E0                     u2292:
  4689  05E0  087C               	movf	??___flmul+3,w
  4690  05E1  1103               	clrz
  4691  05E2  1803               	skipnc
  4692  05E3  3E01               	addlw	1
  4693  05E4  1903               	skipnz
  4694  05E5  2DE7               	goto	u2293
  4695  05E6  07AC               	addwf	___flmul@grs+3,f
  4696  05E7                     u2293:
  4697  05E7                     l2358:
  4698  05E7  3008               	movlw	8
  4699  05E8  00F9               	movwf	??___flmul
  4700  05E9                     u2305:
  4701  05E9  1003               	clrc
  4702  05EA  0DA9               	rlf	___flmul@grs,f
  4703  05EB  0DAA               	rlf	___flmul@grs+1,f
  4704  05EC  0DAB               	rlf	___flmul@grs+2,f
  4705  05ED  0DAC               	rlf	___flmul@grs+3,f
  4706  05EE  0BF9               	decfsz	??___flmul,f
  4707  05EF  2DE9               	goto	u2305
  4708  05F0  0820               	movf	___flmul@b,w
  4709  05F1  00F9               	movwf	??___flmul
  4710  05F2  0879               	movf	??___flmul,w
  4711  05F3  00F0               	movwf	__Umul8_16@multiplicand
  4712  05F4  0824               	movf	___flmul@a,w
  4713  05F5  120A  118A  200A  120A  118A  	fcall	__Umul8_16
  4714  05FA  0871               	movf	?__Umul8_16+1,w
  4715  05FB  1283               	bcf	3,5	;RP0=0, select bank0
  4716  05FC  1303               	bcf	3,6	;RP1=0, select bank0
  4717  05FD  00B4               	movwf	___flmul@temp+1
  4718  05FE  0870               	movf	?__Umul8_16,w
  4719  05FF  00B3               	movwf	___flmul@temp
  4720  0600                     l2360:
  4721  0600  0833               	movf	___flmul@temp,w
  4722  0601  00F9               	movwf	??___flmul
  4723  0602  0834               	movf	___flmul@temp+1,w
  4724  0603  00FA               	movwf	??___flmul+1
  4725  0604  01FB               	clrf	??___flmul+2
  4726  0605  01FC               	clrf	??___flmul+3
  4727  0606  0879               	movf	??___flmul,w
  4728  0607  07A9               	addwf	___flmul@grs,f
  4729  0608  087A               	movf	??___flmul+1,w
  4730  0609  1103               	clrz
  4731  060A  1803               	skipnc
  4732  060B  3E01               	addlw	1
  4733  060C  1903               	skipnz
  4734  060D  2E0F               	goto	u2311
  4735  060E  07AA               	addwf	___flmul@grs+1,f
  4736  060F                     u2311:
  4737  060F  087B               	movf	??___flmul+2,w
  4738  0610  1103               	clrz
  4739  0611  1803               	skipnc
  4740  0612  3E01               	addlw	1
  4741  0613  1903               	skipnz
  4742  0614  2E16               	goto	u2312
  4743  0615  07AB               	addwf	___flmul@grs+2,f
  4744  0616                     u2312:
  4745  0616  087C               	movf	??___flmul+3,w
  4746  0617  1103               	clrz
  4747  0618  1803               	skipnc
  4748  0619  3E01               	addlw	1
  4749  061A  1903               	skipnz
  4750  061B  2E1D               	goto	u2313
  4751  061C  07AC               	addwf	___flmul@grs+3,f
  4752  061D                     u2313:
  4753  061D                     l2362:
  4754  061D  0821               	movf	___flmul@b+1,w
  4755  061E  00F9               	movwf	??___flmul
  4756  061F  0879               	movf	??___flmul,w
  4757  0620  00F0               	movwf	__Umul8_16@multiplicand
  4758  0621  0826               	movf	___flmul@a+2,w
  4759  0622  120A  118A  200A  120A  118A  	fcall	__Umul8_16
  4760  0627  0871               	movf	?__Umul8_16+1,w
  4761  0628  1283               	bcf	3,5	;RP0=0, select bank0
  4762  0629  1303               	bcf	3,6	;RP1=0, select bank0
  4763  062A  00B4               	movwf	___flmul@temp+1
  4764  062B  0870               	movf	?__Umul8_16,w
  4765  062C  00B3               	movwf	___flmul@temp
  4766  062D  0833               	movf	___flmul@temp,w
  4767  062E  00F9               	movwf	??___flmul
  4768  062F  0834               	movf	___flmul@temp+1,w
  4769  0630  00FA               	movwf	??___flmul+1
  4770  0631  01FB               	clrf	??___flmul+2
  4771  0632  01FC               	clrf	??___flmul+3
  4772  0633  0879               	movf	??___flmul,w
  4773  0634  07AF               	addwf	___flmul@prod,f
  4774  0635  087A               	movf	??___flmul+1,w
  4775  0636  1103               	clrz
  4776  0637  1803               	skipnc
  4777  0638  3E01               	addlw	1
  4778  0639  1903               	skipnz
  4779  063A  2E3C               	goto	u2321
  4780  063B  07B0               	addwf	___flmul@prod+1,f
  4781  063C                     u2321:
  4782  063C  087B               	movf	??___flmul+2,w
  4783  063D  1103               	clrz
  4784  063E  1803               	skipnc
  4785  063F  3E01               	addlw	1
  4786  0640  1903               	skipnz
  4787  0641  2E43               	goto	u2322
  4788  0642  07B1               	addwf	___flmul@prod+2,f
  4789  0643                     u2322:
  4790  0643  087C               	movf	??___flmul+3,w
  4791  0644  1103               	clrz
  4792  0645  1803               	skipnc
  4793  0646  3E01               	addlw	1
  4794  0647  1903               	skipnz
  4795  0648  2E4A               	goto	u2323
  4796  0649  07B2               	addwf	___flmul@prod+3,f
  4797  064A                     u2323:
  4798  064A                     l2364:
  4799  064A  0822               	movf	___flmul@b+2,w
  4800  064B  00F9               	movwf	??___flmul
  4801  064C  0879               	movf	??___flmul,w
  4802  064D  00F0               	movwf	__Umul8_16@multiplicand
  4803  064E  0825               	movf	___flmul@a+1,w
  4804  064F  120A  118A  200A  120A  118A  	fcall	__Umul8_16
  4805  0654  0871               	movf	?__Umul8_16+1,w
  4806  0655  1283               	bcf	3,5	;RP0=0, select bank0
  4807  0656  1303               	bcf	3,6	;RP1=0, select bank0
  4808  0657  00B4               	movwf	___flmul@temp+1
  4809  0658  0870               	movf	?__Umul8_16,w
  4810  0659  00B3               	movwf	___flmul@temp
  4811  065A                     l2366:
  4812  065A  0833               	movf	___flmul@temp,w
  4813  065B  00F9               	movwf	??___flmul
  4814  065C  0834               	movf	___flmul@temp+1,w
  4815  065D  00FA               	movwf	??___flmul+1
  4816  065E  01FB               	clrf	??___flmul+2
  4817  065F  01FC               	clrf	??___flmul+3
  4818  0660  0879               	movf	??___flmul,w
  4819  0661  07AF               	addwf	___flmul@prod,f
  4820  0662  087A               	movf	??___flmul+1,w
  4821  0663  1103               	clrz
  4822  0664  1803               	skipnc
  4823  0665  3E01               	addlw	1
  4824  0666  1903               	skipnz
  4825  0667  2E69               	goto	u2331
  4826  0668  07B0               	addwf	___flmul@prod+1,f
  4827  0669                     u2331:
  4828  0669  087B               	movf	??___flmul+2,w
  4829  066A  1103               	clrz
  4830  066B  1803               	skipnc
  4831  066C  3E01               	addlw	1
  4832  066D  1903               	skipnz
  4833  066E  2E70               	goto	u2332
  4834  066F  07B1               	addwf	___flmul@prod+2,f
  4835  0670                     u2332:
  4836  0670  087C               	movf	??___flmul+3,w
  4837  0671  1103               	clrz
  4838  0672  1803               	skipnc
  4839  0673  3E01               	addlw	1
  4840  0674  1903               	skipnz
  4841  0675  2E77               	goto	u2333
  4842  0676  07B2               	addwf	___flmul@prod+3,f
  4843  0677                     u2333:
  4844  0677  0822               	movf	___flmul@b+2,w
  4845  0678  00F9               	movwf	??___flmul
  4846  0679  0879               	movf	??___flmul,w
  4847  067A  00F0               	movwf	__Umul8_16@multiplicand
  4848  067B  0826               	movf	___flmul@a+2,w
  4849  067C  120A  118A  200A  120A  118A  	fcall	__Umul8_16
  4850  0681  0871               	movf	?__Umul8_16+1,w
  4851  0682  1283               	bcf	3,5	;RP0=0, select bank0
  4852  0683  1303               	bcf	3,6	;RP1=0, select bank0
  4853  0684  00B4               	movwf	___flmul@temp+1
  4854  0685  0870               	movf	?__Umul8_16,w
  4855  0686  00B3               	movwf	___flmul@temp
  4856  0687                     l2368:
  4857  0687  0833               	movf	___flmul@temp,w
  4858  0688  00F9               	movwf	??___flmul
  4859  0689  0834               	movf	___flmul@temp+1,w
  4860  068A  00FA               	movwf	??___flmul+1
  4861  068B  01FB               	clrf	??___flmul+2
  4862  068C  01FC               	clrf	??___flmul+3
  4863  068D  3008               	movlw	8
  4864  068E                     u2345:
  4865  068E  1003               	clrc
  4866  068F  0DF9               	rlf	??___flmul,f
  4867  0690  0DFA               	rlf	??___flmul+1,f
  4868  0691  0DFB               	rlf	??___flmul+2,f
  4869  0692  0DFC               	rlf	??___flmul+3,f
  4870  0693                     u2340:
  4871  0693  3EFF               	addlw	-1
  4872  0694  1D03               	skipz
  4873  0695  2E8E               	goto	u2345
  4874  0696  0879               	movf	??___flmul,w
  4875  0697  07AF               	addwf	___flmul@prod,f
  4876  0698  087A               	movf	??___flmul+1,w
  4877  0699  1103               	clrz
  4878  069A  1803               	skipnc
  4879  069B  3E01               	addlw	1
  4880  069C  1903               	skipnz
  4881  069D  2E9F               	goto	u2351
  4882  069E  07B0               	addwf	___flmul@prod+1,f
  4883  069F                     u2351:
  4884  069F  087B               	movf	??___flmul+2,w
  4885  06A0  1103               	clrz
  4886  06A1  1803               	skipnc
  4887  06A2  3E01               	addlw	1
  4888  06A3  1903               	skipnz
  4889  06A4  2EA6               	goto	u2352
  4890  06A5  07B1               	addwf	___flmul@prod+2,f
  4891  06A6                     u2352:
  4892  06A6  087C               	movf	??___flmul+3,w
  4893  06A7  1103               	clrz
  4894  06A8  1803               	skipnc
  4895  06A9  3E01               	addlw	1
  4896  06AA  1903               	skipnz
  4897  06AB  2EAD               	goto	u2353
  4898  06AC  07B2               	addwf	___flmul@prod+3,f
  4899  06AD                     u2353:
  4900  06AD                     l2370:
  4901  06AD  0829               	movf	___flmul@grs,w
  4902  06AE  00F9               	movwf	??___flmul
  4903  06AF  082A               	movf	___flmul@grs+1,w
  4904  06B0  00FA               	movwf	??___flmul+1
  4905  06B1  082B               	movf	___flmul@grs+2,w
  4906  06B2  00FB               	movwf	??___flmul+2
  4907  06B3  082C               	movf	___flmul@grs+3,w
  4908  06B4  00FC               	movwf	??___flmul+3
  4909  06B5  3018               	movlw	24
  4910  06B6                     u2365:
  4911  06B6  1003               	clrc
  4912  06B7  0CFC               	rrf	??___flmul+3,f
  4913  06B8  0CFB               	rrf	??___flmul+2,f
  4914  06B9  0CFA               	rrf	??___flmul+1,f
  4915  06BA  0CF9               	rrf	??___flmul,f
  4916  06BB                     u2360:
  4917  06BB  3EFF               	addlw	-1
  4918  06BC  1D03               	skipz
  4919  06BD  2EB6               	goto	u2365
  4920  06BE  0879               	movf	??___flmul,w
  4921  06BF  07AF               	addwf	___flmul@prod,f
  4922  06C0  087A               	movf	??___flmul+1,w
  4923  06C1  1103               	clrz
  4924  06C2  1803               	skipnc
  4925  06C3  3E01               	addlw	1
  4926  06C4  1903               	skipnz
  4927  06C5  2EC7               	goto	u2371
  4928  06C6  07B0               	addwf	___flmul@prod+1,f
  4929  06C7                     u2371:
  4930  06C7  087B               	movf	??___flmul+2,w
  4931  06C8  1103               	clrz
  4932  06C9  1803               	skipnc
  4933  06CA  3E01               	addlw	1
  4934  06CB  1903               	skipnz
  4935  06CC  2ECE               	goto	u2372
  4936  06CD  07B1               	addwf	___flmul@prod+2,f
  4937  06CE                     u2372:
  4938  06CE  087C               	movf	??___flmul+3,w
  4939  06CF  1103               	clrz
  4940  06D0  1803               	skipnc
  4941  06D1  3E01               	addlw	1
  4942  06D2  1903               	skipnz
  4943  06D3  2ED5               	goto	u2373
  4944  06D4  07B2               	addwf	___flmul@prod+3,f
  4945  06D5                     u2373:
  4946  06D5                     l2372:
  4947  06D5  3008               	movlw	8
  4948  06D6  00F9               	movwf	??___flmul
  4949  06D7                     u2385:
  4950  06D7  1003               	clrc
  4951  06D8  0DA9               	rlf	___flmul@grs,f
  4952  06D9  0DAA               	rlf	___flmul@grs+1,f
  4953  06DA  0DAB               	rlf	___flmul@grs+2,f
  4954  06DB  0DAC               	rlf	___flmul@grs+3,f
  4955  06DC  0BF9               	decfsz	??___flmul,f
  4956  06DD  2ED7               	goto	u2385
  4957  06DE                     l2374:
  4958  06DE  082E               	movf	___flmul@bexp,w
  4959  06DF  072D               	addwf	___flmul@aexp,w
  4960  06E0  00F9               	movwf	??___flmul
  4961  06E1  01FA               	clrf	??___flmul+1
  4962  06E2  0DFA               	rlf	??___flmul+1,f
  4963  06E3  0879               	movf	??___flmul,w
  4964  06E4  3E82               	addlw	130
  4965  06E5  00B3               	movwf	___flmul@temp
  4966  06E6  087A               	movf	??___flmul+1,w
  4967  06E7  1803               	skipnc
  4968  06E8  3E01               	addlw	1
  4969  06E9  3EFF               	addlw	255
  4970  06EA  00B4               	movwf	___flmul@temp+1
  4971  06EB  2F09               	goto	l2386
  4972  06EC                     l2376:
  4973  06EC  3001               	movlw	1
  4974  06ED  00F9               	movwf	??___flmul
  4975  06EE                     u2395:
  4976  06EE  1003               	clrc
  4977  06EF  0DAF               	rlf	___flmul@prod,f
  4978  06F0  0DB0               	rlf	___flmul@prod+1,f
  4979  06F1  0DB1               	rlf	___flmul@prod+2,f
  4980  06F2  0DB2               	rlf	___flmul@prod+3,f
  4981  06F3  0BF9               	decfsz	??___flmul,f
  4982  06F4  2EEE               	goto	u2395
  4983  06F5                     l2378:
  4984  06F5  1FAC               	btfss	___flmul@grs+3,7
  4985  06F6  2EF8               	goto	u2401
  4986  06F7  2EF9               	goto	u2400
  4987  06F8                     u2401:
  4988  06F8  2EFA               	goto	l2382
  4989  06F9                     u2400:
  4990  06F9                     l2380:
  4991  06F9  142F               	bsf	___flmul@prod,0
  4992  06FA                     l2382:
  4993  06FA  3001               	movlw	1
  4994  06FB  00F9               	movwf	??___flmul
  4995  06FC                     u2415:
  4996  06FC  1003               	clrc
  4997  06FD  0DA9               	rlf	___flmul@grs,f
  4998  06FE  0DAA               	rlf	___flmul@grs+1,f
  4999  06FF  0DAB               	rlf	___flmul@grs+2,f
  5000  0700  0DAC               	rlf	___flmul@grs+3,f
  5001  0701  0BF9               	decfsz	??___flmul,f
  5002  0702  2EFC               	goto	u2415
  5003  0703                     l2384:
  5004  0703  30FF               	movlw	255
  5005  0704  07B3               	addwf	___flmul@temp,f
  5006  0705  1803               	skipnc
  5007  0706  0AB4               	incf	___flmul@temp+1,f
  5008  0707  30FF               	movlw	255
  5009  0708  07B4               	addwf	___flmul@temp+1,f
  5010  0709                     l2386:
  5011  0709  1FB1               	btfss	___flmul@prod+2,7
  5012  070A  2F0C               	goto	u2421
  5013  070B  2F0D               	goto	u2420
  5014  070C                     u2421:
  5015  070C  2EEC               	goto	l2376
  5016  070D                     u2420:
  5017  070D                     l2388:
  5018  070D  01AD               	clrf	___flmul@aexp
  5019  070E                     l2390:
  5020  070E  1FAC               	btfss	___flmul@grs+3,7
  5021  070F  2F11               	goto	u2431
  5022  0710  2F12               	goto	u2430
  5023  0711                     u2431:
  5024  0711  2F2E               	goto	l2398
  5025  0712                     u2430:
  5026  0712                     l2392:
  5027  0712  30FF               	movlw	255
  5028  0713  0529               	andwf	___flmul@grs,w
  5029  0714  00F9               	movwf	??___flmul
  5030  0715  30FF               	movlw	255
  5031  0716  052A               	andwf	___flmul@grs+1,w
  5032  0717  00FA               	movwf	??___flmul+1
  5033  0718  30FF               	movlw	255
  5034  0719  052B               	andwf	___flmul@grs+2,w
  5035  071A  00FB               	movwf	??___flmul+2
  5036  071B  307F               	movlw	127
  5037  071C  052C               	andwf	___flmul@grs+3,w
  5038  071D  00FC               	movwf	??___flmul+3
  5039  071E  087C               	movf	??___flmul+3,w
  5040  071F  047B               	iorwf	??___flmul+2,w
  5041  0720  047A               	iorwf	??___flmul+1,w
  5042  0721  0479               	iorwf	??___flmul,w
  5043  0722  1903               	skipnz
  5044  0723  2F25               	goto	u2441
  5045  0724  2F26               	goto	u2440
  5046  0725                     u2441:
  5047  0725  2F29               	goto	l795
  5048  0726                     u2440:
  5049  0726                     l2394:
  5050  0726  01AD               	clrf	___flmul@aexp
  5051  0727  0AAD               	incf	___flmul@aexp,f
  5052  0728  2F2E               	goto	l2398
  5053  0729                     l795:
  5054  0729  1C2F               	btfss	___flmul@prod,0
  5055  072A  2F2C               	goto	u2451
  5056  072B  2F2D               	goto	u2450
  5057  072C                     u2451:
  5058  072C  2F2E               	goto	l2398
  5059  072D                     u2450:
  5060  072D  2F26               	goto	l2394
  5061  072E                     l2398:
  5062  072E  082D               	movf	___flmul@aexp,w
  5063  072F  1903               	btfsc	3,2
  5064  0730  2F32               	goto	u2461
  5065  0731  2F33               	goto	u2460
  5066  0732                     u2461:
  5067  0732  2F64               	goto	l2408
  5068  0733                     u2460:
  5069  0733                     l2400:
  5070  0733  3001               	movlw	1
  5071  0734  07AF               	addwf	___flmul@prod,f
  5072  0735  3000               	movlw	0
  5073  0736  1803               	skipnc
  5074  0737  3001               	movlw	1
  5075  0738  07B0               	addwf	___flmul@prod+1,f
  5076  0739  3000               	movlw	0
  5077  073A  1803               	skipnc
  5078  073B  3001               	movlw	1
  5079  073C  07B1               	addwf	___flmul@prod+2,f
  5080  073D  3000               	movlw	0
  5081  073E  1803               	skipnc
  5082  073F  3001               	movlw	1
  5083  0740  07B2               	addwf	___flmul@prod+3,f
  5084  0741                     l2402:
  5085  0741  1C32               	btfss	___flmul@prod+3,0
  5086  0742  2F44               	goto	u2471
  5087  0743  2F45               	goto	u2470
  5088  0744                     u2471:
  5089  0744  2F64               	goto	l2408
  5090  0745                     u2470:
  5091  0745                     l2404:
  5092  0745  082F               	movf	___flmul@prod,w
  5093  0746  00F9               	movwf	??___flmul
  5094  0747  0830               	movf	___flmul@prod+1,w
  5095  0748  00FA               	movwf	??___flmul+1
  5096  0749  0831               	movf	___flmul@prod+2,w
  5097  074A  00FB               	movwf	??___flmul+2
  5098  074B  0832               	movf	___flmul@prod+3,w
  5099  074C  00FC               	movwf	??___flmul+3
  5100  074D  3001               	movlw	1
  5101  074E  00FD               	movwf	??___flmul+4
  5102  074F                     u2485:
  5103  074F  0D7C               	rlf	??___flmul+3,w
  5104  0750  0CFC               	rrf	??___flmul+3,f
  5105  0751  0CFB               	rrf	??___flmul+2,f
  5106  0752  0CFA               	rrf	??___flmul+1,f
  5107  0753  0CF9               	rrf	??___flmul,f
  5108  0754                     u2480:
  5109  0754  0BFD               	decfsz	??___flmul+4,f
  5110  0755  2F4F               	goto	u2485
  5111  0756  087C               	movf	??___flmul+3,w
  5112  0757  00B2               	movwf	___flmul@prod+3
  5113  0758  087B               	movf	??___flmul+2,w
  5114  0759  00B1               	movwf	___flmul@prod+2
  5115  075A  087A               	movf	??___flmul+1,w
  5116  075B  00B0               	movwf	___flmul@prod+1
  5117  075C  0879               	movf	??___flmul,w
  5118  075D  00AF               	movwf	___flmul@prod
  5119  075E                     l2406:
  5120  075E  3001               	movlw	1
  5121  075F  07B3               	addwf	___flmul@temp,f
  5122  0760  1803               	skipnc
  5123  0761  0AB4               	incf	___flmul@temp+1,f
  5124  0762  3000               	movlw	0
  5125  0763  07B4               	addwf	___flmul@temp+1,f
  5126  0764                     l2408:
  5127  0764  0834               	movf	___flmul@temp+1,w
  5128  0765  3A80               	xorlw	128
  5129  0766  00FF               	movwf	btemp+1
  5130  0767  3080               	movlw	128
  5131  0768  027F               	subwf	btemp+1,w
  5132  0769  1D03               	skipz
  5133  076A  2F6D               	goto	u2495
  5134  076B  30FF               	movlw	255
  5135  076C  0233               	subwf	___flmul@temp,w
  5136  076D                     u2495:
  5137  076D  1C03               	skipc
  5138  076E  2F70               	goto	u2491
  5139  076F  2F71               	goto	u2490
  5140  0770                     u2491:
  5141  0770  2F7C               	goto	l2412
  5142  0771                     u2490:
  5143  0771                     l2410:
  5144  0771  307F               	movlw	127
  5145  0772  1283               	bcf	3,5	;RP0=0, select bank0
  5146  0773  1303               	bcf	3,6	;RP1=0, select bank0
  5147  0774  00B2               	movwf	___flmul@prod+3
  5148  0775  3080               	movlw	128
  5149  0776  00B1               	movwf	___flmul@prod+2
  5150  0777  3000               	movlw	0
  5151  0778  00B0               	movwf	___flmul@prod+1
  5152  0779  3000               	movlw	0
  5153  077A  00AF               	movwf	___flmul@prod
  5154  077B  2FB1               	goto	l801
  5155  077C                     l2412:
  5156  077C  1283               	bcf	3,5	;RP0=0, select bank0
  5157  077D  1303               	bcf	3,6	;RP1=0, select bank0
  5158  077E  0834               	movf	___flmul@temp+1,w
  5159  077F  3A80               	xorlw	128
  5160  0780  00FF               	movwf	btemp+1
  5161  0781  3080               	movlw	128
  5162  0782  027F               	subwf	btemp+1,w
  5163  0783  1D03               	skipz
  5164  0784  2F87               	goto	u2505
  5165  0785  3001               	movlw	1
  5166  0786  0233               	subwf	___flmul@temp,w
  5167  0787                     u2505:
  5168  0787  1803               	skipnc
  5169  0788  2F8A               	goto	u2501
  5170  0789  2F8B               	goto	u2500
  5171  078A                     u2501:
  5172  078A  2F97               	goto	l2418
  5173  078B                     u2500:
  5174  078B                     l2414:
  5175  078B  3000               	movlw	0
  5176  078C  1283               	bcf	3,5	;RP0=0, select bank0
  5177  078D  1303               	bcf	3,6	;RP1=0, select bank0
  5178  078E  00B2               	movwf	___flmul@prod+3
  5179  078F  3000               	movlw	0
  5180  0790  00B1               	movwf	___flmul@prod+2
  5181  0791  3000               	movlw	0
  5182  0792  00B0               	movwf	___flmul@prod+1
  5183  0793  3000               	movlw	0
  5184  0794  00AF               	movwf	___flmul@prod
  5185  0795                     l2416:
  5186  0795  01A8               	clrf	___flmul@sign
  5187  0796  2FB1               	goto	l801
  5188  0797                     l2418:
  5189  0797  1283               	bcf	3,5	;RP0=0, select bank0
  5190  0798  1303               	bcf	3,6	;RP1=0, select bank0
  5191  0799  0833               	movf	___flmul@temp,w
  5192  079A  00F9               	movwf	??___flmul
  5193  079B  0879               	movf	??___flmul,w
  5194  079C  00AE               	movwf	___flmul@bexp
  5195  079D  30FF               	movlw	255
  5196  079E  05AF               	andwf	___flmul@prod,f
  5197  079F  30FF               	movlw	255
  5198  07A0  05B0               	andwf	___flmul@prod+1,f
  5199  07A1  307F               	movlw	127
  5200  07A2  05B1               	andwf	___flmul@prod+2,f
  5201  07A3  3000               	movlw	0
  5202  07A4  05B2               	andwf	___flmul@prod+3,f
  5203  07A5                     l2420:
  5204  07A5  1C2E               	btfss	___flmul@bexp,0
  5205  07A6  2FA8               	goto	u2511
  5206  07A7  2FA9               	goto	u2510
  5207  07A8                     u2511:
  5208  07A8  2FAA               	goto	l2424
  5209  07A9                     u2510:
  5210  07A9                     l2422:
  5211  07A9  17B1               	bsf	___flmul@prod+2,7
  5212  07AA                     l2424:
  5213  07AA  082E               	movf	___flmul@bexp,w
  5214  07AB  00F9               	movwf	??___flmul
  5215  07AC  1003               	clrc
  5216  07AD  0C79               	rrf	??___flmul,w
  5217  07AE  00FA               	movwf	??___flmul+1
  5218  07AF  087A               	movf	??___flmul+1,w
  5219  07B0  00B2               	movwf	___flmul@prod+3
  5220  07B1                     l801:
  5221  07B1  0828               	movf	___flmul@sign,w
  5222  07B2  00F9               	movwf	??___flmul
  5223  07B3  0879               	movf	??___flmul,w
  5224  07B4  04B2               	iorwf	___flmul@prod+3,f
  5225  07B5                     l2426:
  5226  07B5  0832               	movf	___flmul@prod+3,w
  5227  07B6  00A3               	movwf	?___flmul+3
  5228  07B7  0831               	movf	___flmul@prod+2,w
  5229  07B8  00A2               	movwf	?___flmul+2
  5230  07B9  0830               	movf	___flmul@prod+1,w
  5231  07BA  00A1               	movwf	?___flmul+1
  5232  07BB  082F               	movf	___flmul@prod,w
  5233  07BC  00A0               	movwf	?___flmul
  5234  07BD                     l789:
  5235  07BD  0008               	return
  5236  07BE                     __end_of___flmul:
  5237                           
  5238                           	psect	text13
  5239  000A                     __ptext13:	
  5240 ;; *************** function __Umul8_16 *****************
  5241 ;; Defined at:
  5242 ;;		line 4 in file "C:\Program Files\Microchip\xc8\v2.32\pic\sources\c90\common\Umul8_16.c"
  5243 ;; Parameters:    Size  Location     Type
  5244 ;;  multiplier      1    wreg     unsigned char 
  5245 ;;  multiplicand    1    0[COMMON] unsigned char 
  5246 ;; Auto vars:     Size  Location     Type
  5247 ;;  multiplier      1    8[COMMON] unsigned char 
  5248 ;;  word_mpld       2    6[COMMON] unsigned int 
  5249 ;;  product         2    4[COMMON] unsigned int 
  5250 ;; Return value:  Size  Location     Type
  5251 ;;                  2    0[COMMON] unsigned int 
  5252 ;; Registers used:
  5253 ;;		wreg, status,2, status,0
  5254 ;; Tracked objects:
  5255 ;;		On entry : 0/0
  5256 ;;		On exit  : 0/0
  5257 ;;		Unchanged: 0/0
  5258 ;; Data sizes:     COMMON   BANK0   BANK1   BANK3   BANK2
  5259 ;;      Params:         2       0       0       0       0
  5260 ;;      Locals:         5       0       0       0       0
  5261 ;;      Temps:          2       0       0       0       0
  5262 ;;      Totals:         9       0       0       0       0
  5263 ;;Total ram usage:        9 bytes
  5264 ;; Hardware stack levels used: 1
  5265 ;; This function calls:
  5266 ;;		Nothing
  5267 ;; This function is called by:
  5268 ;;		___flmul
  5269 ;; This function uses a non-reentrant model
  5270 ;;
  5271                           
  5272                           
  5273                           ;psect for function __Umul8_16
  5274  000A                     __Umul8_16:
  5275                           
  5276                           ;incstack = 0
  5277                           ; Regs used in __Umul8_16: [wreg+status,2+status,0]
  5278                           ;__Umul8_16@multiplier stored from wreg
  5279  000A  00F8               	movwf	__Umul8_16@multiplier
  5280  000B                     l2238:
  5281  000B  01F4               	clrf	__Umul8_16@product
  5282  000C  01F5               	clrf	__Umul8_16@product+1
  5283  000D                     l2240:
  5284  000D  0870               	movf	__Umul8_16@multiplicand,w
  5285  000E  00F2               	movwf	??__Umul8_16
  5286  000F  01F3               	clrf	??__Umul8_16+1
  5287  0010  0872               	movf	??__Umul8_16,w
  5288  0011  00F6               	movwf	__Umul8_16@word_mpld
  5289  0012  0873               	movf	??__Umul8_16+1,w
  5290  0013  00F7               	movwf	__Umul8_16@word_mpld+1
  5291  0014                     l2242:
  5292  0014  1C78               	btfss	__Umul8_16@multiplier,0
  5293  0015  2817               	goto	u2051
  5294  0016  2818               	goto	u2050
  5295  0017                     u2051:
  5296  0017  281E               	goto	l808
  5297  0018                     u2050:
  5298  0018                     l2244:
  5299  0018  0876               	movf	__Umul8_16@word_mpld,w
  5300  0019  07F4               	addwf	__Umul8_16@product,f
  5301  001A  1803               	skipnc
  5302  001B  0AF5               	incf	__Umul8_16@product+1,f
  5303  001C  0877               	movf	__Umul8_16@word_mpld+1,w
  5304  001D  07F5               	addwf	__Umul8_16@product+1,f
  5305  001E                     l808:
  5306  001E  3001               	movlw	1
  5307  001F                     u2065:
  5308  001F  1003               	clrc
  5309  0020  0DF6               	rlf	__Umul8_16@word_mpld,f
  5310  0021  0DF7               	rlf	__Umul8_16@word_mpld+1,f
  5311  0022  3EFF               	addlw	-1
  5312  0023  1D03               	skipz
  5313  0024  281F               	goto	u2065
  5314  0025  1003               	clrc
  5315  0026  0CF8               	rrf	__Umul8_16@multiplier,f
  5316  0027                     l2246:
  5317  0027  0878               	movf	__Umul8_16@multiplier,w
  5318  0028  1D03               	btfss	3,2
  5319  0029  282B               	goto	u2071
  5320  002A  282C               	goto	u2070
  5321  002B                     u2071:
  5322  002B  2814               	goto	l2242
  5323  002C                     u2070:
  5324  002C                     l2248:
  5325  002C  0875               	movf	__Umul8_16@product+1,w
  5326  002D  00F1               	movwf	?__Umul8_16+1
  5327  002E  0874               	movf	__Umul8_16@product,w
  5328  002F  00F0               	movwf	?__Umul8_16
  5329  0030                     l810:
  5330  0030  0008               	return
  5331  0031                     __end_of__Umul8_16:
  5332                           
  5333                           	psect	text14
  5334  00B8                     __ptext14:	
  5335 ;; *************** function ___flge *****************
  5336 ;; Defined at:
  5337 ;;		line 4 in file "C:\Program Files\Microchip\xc8\v2.32\pic\sources\c90\common\flge.c"
  5338 ;; Parameters:    Size  Location     Type
  5339 ;;  ff1             4    0[COMMON] unsigned int 
  5340 ;;  ff2             4    4[COMMON] unsigned int 
  5341 ;; Auto vars:     Size  Location     Type
  5342 ;;		None
  5343 ;; Return value:  Size  Location     Type
  5344 ;;		None               void
  5345 ;; Registers used:
  5346 ;;		wreg, status,2, status,0
  5347 ;; Tracked objects:
  5348 ;;		On entry : 0/0
  5349 ;;		On exit  : 0/0
  5350 ;;		Unchanged: 0/0
  5351 ;; Data sizes:     COMMON   BANK0   BANK1   BANK3   BANK2
  5352 ;;      Params:         8       0       0       0       0
  5353 ;;      Locals:         0       0       0       0       0
  5354 ;;      Temps:          4       0       0       0       0
  5355 ;;      Totals:        12       0       0       0       0
  5356 ;;Total ram usage:       12 bytes
  5357 ;; Hardware stack levels used: 1
  5358 ;; This function calls:
  5359 ;;		Nothing
  5360 ;; This function is called by:
  5361 ;;		_liga_buzzer
  5362 ;; This function uses a non-reentrant model
  5363 ;;
  5364                           
  5365                           
  5366                           ;psect for function ___flge
  5367  00B8                     ___flge:
  5368  00B8                     l2264:	
  5369                           ;incstack = 0
  5370                           ; Regs used in ___flge: [wreg+status,2+status,0]
  5371                           
  5372  00B8  3000               	movlw	0
  5373  00B9  0570               	andwf	___flge@ff1,w
  5374  00BA  00F8               	movwf	??___flge
  5375  00BB  3000               	movlw	0
  5376  00BC  0571               	andwf	___flge@ff1+1,w
  5377  00BD  00F9               	movwf	??___flge+1
  5378  00BE  3080               	movlw	128
  5379  00BF  0572               	andwf	___flge@ff1+2,w
  5380  00C0  00FA               	movwf	??___flge+2
  5381  00C1  307F               	movlw	127
  5382  00C2  0573               	andwf	___flge@ff1+3,w
  5383  00C3  00FB               	movwf	??___flge+3
  5384  00C4  087B               	movf	??___flge+3,w
  5385  00C5  047A               	iorwf	??___flge+2,w
  5386  00C6  0479               	iorwf	??___flge+1,w
  5387  00C7  0478               	iorwf	??___flge,w
  5388  00C8  1D03               	skipz
  5389  00C9  28CB               	goto	u2081
  5390  00CA  28CC               	goto	u2080
  5391  00CB                     u2081:
  5392  00CB  28D4               	goto	l574
  5393  00CC                     u2080:
  5394  00CC                     l2266:
  5395  00CC  3000               	movlw	0
  5396  00CD  00F3               	movwf	___flge@ff1+3
  5397  00CE  3000               	movlw	0
  5398  00CF  00F2               	movwf	___flge@ff1+2
  5399  00D0  3000               	movlw	0
  5400  00D1  00F1               	movwf	___flge@ff1+1
  5401  00D2  3000               	movlw	0
  5402  00D3  00F0               	movwf	___flge@ff1
  5403  00D4                     l574:
  5404  00D4  3000               	movlw	0
  5405  00D5  0574               	andwf	___flge@ff2,w
  5406  00D6  00F8               	movwf	??___flge
  5407  00D7  3000               	movlw	0
  5408  00D8  0575               	andwf	___flge@ff2+1,w
  5409  00D9  00F9               	movwf	??___flge+1
  5410  00DA  3080               	movlw	128
  5411  00DB  0576               	andwf	___flge@ff2+2,w
  5412  00DC  00FA               	movwf	??___flge+2
  5413  00DD  307F               	movlw	127
  5414  00DE  0577               	andwf	___flge@ff2+3,w
  5415  00DF  00FB               	movwf	??___flge+3
  5416  00E0  087B               	movf	??___flge+3,w
  5417  00E1  047A               	iorwf	??___flge+2,w
  5418  00E2  0479               	iorwf	??___flge+1,w
  5419  00E3  0478               	iorwf	??___flge,w
  5420  00E4  1D03               	skipz
  5421  00E5  28E7               	goto	u2091
  5422  00E6  28E8               	goto	u2090
  5423  00E7                     u2091:
  5424  00E7  28F0               	goto	l2270
  5425  00E8                     u2090:
  5426  00E8                     l2268:
  5427  00E8  3000               	movlw	0
  5428  00E9  00F7               	movwf	___flge@ff2+3
  5429  00EA  3000               	movlw	0
  5430  00EB  00F6               	movwf	___flge@ff2+2
  5431  00EC  3000               	movlw	0
  5432  00ED  00F5               	movwf	___flge@ff2+1
  5433  00EE  3000               	movlw	0
  5434  00EF  00F4               	movwf	___flge@ff2
  5435  00F0                     l2270:
  5436  00F0  1FF3               	btfss	___flge@ff1+3,7
  5437  00F1  28F3               	goto	u2101
  5438  00F2  28F4               	goto	u2100
  5439  00F3                     u2101:
  5440  00F3  2918               	goto	l2274
  5441  00F4                     u2100:
  5442  00F4                     l2272:
  5443  00F4  3000               	movlw	0
  5444  00F5  00F8               	movwf	??___flge
  5445  00F6  3000               	movlw	0
  5446  00F7  00F9               	movwf	??___flge+1
  5447  00F8  3000               	movlw	0
  5448  00F9  00FA               	movwf	??___flge+2
  5449  00FA  3080               	movlw	128
  5450  00FB  00FB               	movwf	??___flge+3
  5451  00FC  0870               	movf	___flge@ff1,w
  5452  00FD  02F8               	subwf	??___flge,f
  5453  00FE  0871               	movf	___flge@ff1+1,w
  5454  00FF  1C03               	skipc
  5455  0100  0F71               	incfsz	___flge@ff1+1,w
  5456  0101  2903               	goto	u2111
  5457  0102  2904               	goto	u2112
  5458  0103                     u2111:
  5459  0103  02F9               	subwf	??___flge+1,f
  5460  0104                     u2112:
  5461  0104  0872               	movf	___flge@ff1+2,w
  5462  0105  1C03               	skipc
  5463  0106  0F72               	incfsz	___flge@ff1+2,w
  5464  0107  2909               	goto	u2113
  5465  0108  290A               	goto	u2114
  5466  0109                     u2113:
  5467  0109  02FA               	subwf	??___flge+2,f
  5468  010A                     u2114:
  5469  010A  0873               	movf	___flge@ff1+3,w
  5470  010B  1C03               	skipc
  5471  010C  0F73               	incfsz	___flge@ff1+3,w
  5472  010D  290F               	goto	u2115
  5473  010E  2910               	goto	u2116
  5474  010F                     u2115:
  5475  010F  02FB               	subwf	??___flge+3,f
  5476  0110                     u2116:
  5477  0110  087B               	movf	??___flge+3,w
  5478  0111  00F3               	movwf	___flge@ff1+3
  5479  0112  087A               	movf	??___flge+2,w
  5480  0113  00F2               	movwf	___flge@ff1+2
  5481  0114  0879               	movf	??___flge+1,w
  5482  0115  00F1               	movwf	___flge@ff1+1
  5483  0116  0878               	movf	??___flge,w
  5484  0117  00F0               	movwf	___flge@ff1
  5485  0118                     l2274:
  5486  0118  1FF7               	btfss	___flge@ff2+3,7
  5487  0119  291B               	goto	u2121
  5488  011A  291C               	goto	u2120
  5489  011B                     u2121:
  5490  011B  2940               	goto	l577
  5491  011C                     u2120:
  5492  011C                     l2276:
  5493  011C  3000               	movlw	0
  5494  011D  00F8               	movwf	??___flge
  5495  011E  3000               	movlw	0
  5496  011F  00F9               	movwf	??___flge+1
  5497  0120  3000               	movlw	0
  5498  0121  00FA               	movwf	??___flge+2
  5499  0122  3080               	movlw	128
  5500  0123  00FB               	movwf	??___flge+3
  5501  0124  0874               	movf	___flge@ff2,w
  5502  0125  02F8               	subwf	??___flge,f
  5503  0126  0875               	movf	___flge@ff2+1,w
  5504  0127  1C03               	skipc
  5505  0128  0F75               	incfsz	___flge@ff2+1,w
  5506  0129  292B               	goto	u2131
  5507  012A  292C               	goto	u2132
  5508  012B                     u2131:
  5509  012B  02F9               	subwf	??___flge+1,f
  5510  012C                     u2132:
  5511  012C  0876               	movf	___flge@ff2+2,w
  5512  012D  1C03               	skipc
  5513  012E  0F76               	incfsz	___flge@ff2+2,w
  5514  012F  2931               	goto	u2133
  5515  0130  2932               	goto	u2134
  5516  0131                     u2133:
  5517  0131  02FA               	subwf	??___flge+2,f
  5518  0132                     u2134:
  5519  0132  0877               	movf	___flge@ff2+3,w
  5520  0133  1C03               	skipc
  5521  0134  0F77               	incfsz	___flge@ff2+3,w
  5522  0135  2937               	goto	u2135
  5523  0136  2938               	goto	u2136
  5524  0137                     u2135:
  5525  0137  02FB               	subwf	??___flge+3,f
  5526  0138                     u2136:
  5527  0138  087B               	movf	??___flge+3,w
  5528  0139  00F7               	movwf	___flge@ff2+3
  5529  013A  087A               	movf	??___flge+2,w
  5530  013B  00F6               	movwf	___flge@ff2+2
  5531  013C  0879               	movf	??___flge+1,w
  5532  013D  00F5               	movwf	___flge@ff2+1
  5533  013E  0878               	movf	??___flge,w
  5534  013F  00F4               	movwf	___flge@ff2
  5535  0140                     l577:
  5536  0140  3080               	movlw	128
  5537  0141  06F3               	xorwf	___flge@ff1+3,f
  5538  0142  3080               	movlw	128
  5539  0143  06F7               	xorwf	___flge@ff2+3,f
  5540  0144  0877               	movf	___flge@ff2+3,w
  5541  0145  0273               	subwf	___flge@ff1+3,w
  5542  0146  1D03               	skipz
  5543  0147  2952               	goto	u2145
  5544  0148  0876               	movf	___flge@ff2+2,w
  5545  0149  0272               	subwf	___flge@ff1+2,w
  5546  014A  1D03               	skipz
  5547  014B  2952               	goto	u2145
  5548  014C  0875               	movf	___flge@ff2+1,w
  5549  014D  0271               	subwf	___flge@ff1+1,w
  5550  014E  1D03               	skipz
  5551  014F  2952               	goto	u2145
  5552  0150  0874               	movf	___flge@ff2,w
  5553  0151  0270               	subwf	___flge@ff1,w
  5554  0152                     u2145:
  5555  0152  1803               	skipnc
  5556  0153  2955               	goto	u2141
  5557  0154  2956               	goto	u2140
  5558  0155                     u2141:
  5559  0155  2958               	goto	l2280
  5560  0156                     u2140:
  5561  0156                     l2278:
  5562  0156  1003               	clrc
  5563  0157  2959               	goto	l578
  5564  0158                     l2280:
  5565  0158  1403               	setc
  5566  0159                     l578:
  5567  0159  0008               	return
  5568  015A                     __end_of___flge:
  5569                           
  5570                           	psect	text15
  5571  0C7C                     __ptext15:	
  5572 ;; *************** function _confereTeclado *****************
  5573 ;; Defined at:
  5574 ;;		line 114 in file "main.c"
  5575 ;; Parameters:    Size  Location     Type
  5576 ;;  numero          2    0[COMMON] unsigned int 
  5577 ;; Auto vars:     Size  Location     Type
  5578 ;;		None
  5579 ;; Return value:  Size  Location     Type
  5580 ;;                  1    wreg      unsigned char 
  5581 ;; Registers used:
  5582 ;;		wreg, fsr0l, fsr0h, status,2, status,0
  5583 ;; Tracked objects:
  5584 ;;		On entry : 0/0
  5585 ;;		On exit  : 0/0
  5586 ;;		Unchanged: 0/0
  5587 ;; Data sizes:     COMMON   BANK0   BANK1   BANK3   BANK2
  5588 ;;      Params:         2       0       0       0       0
  5589 ;;      Locals:         0       0       0       0       0
  5590 ;;      Temps:          0       0       0       0       0
  5591 ;;      Totals:         2       0       0       0       0
  5592 ;;Total ram usage:        2 bytes
  5593 ;; Hardware stack levels used: 1
  5594 ;; This function calls:
  5595 ;;		Nothing
  5596 ;; This function is called by:
  5597 ;;		_inputSenhaAlter
  5598 ;;		_validaUser
  5599 ;; This function uses a non-reentrant model
  5600 ;;
  5601                           
  5602                           
  5603                           ;psect for function _confereTeclado
  5604  0C7C                     _confereTeclado:
  5605  0C7C                     l2488:	
  5606                           ;incstack = 0
  5607                           ; Regs used in _confereTeclado: [wreg-fsr0h+status,2+status,0]
  5608                           
  5609                           
  5610                           ;main.c: 115:    switch (numero){
  5611  0C7C  2CC3               	goto	l2512
  5612  0C7D                     l2490:
  5613                           
  5614                           ;main.c: 117:             aux = '1';
  5615  0C7D  3031               	movlw	49
  5616  0C7E  1283               	bcf	3,5	;RP0=0, select bank0
  5617  0C7F  1303               	bcf	3,6	;RP1=0, select bank0
  5618  0C80  00E8               	movwf	_aux
  5619  0C81  3000               	movlw	0
  5620  0C82  00E9               	movwf	_aux+1
  5621                           
  5622                           ;main.c: 118:         break;
  5623  0C83  2CE8               	goto	l2514
  5624  0C84                     l2492:
  5625                           
  5626                           ;main.c: 120:             aux = '2';
  5627  0C84  3032               	movlw	50
  5628  0C85  1283               	bcf	3,5	;RP0=0, select bank0
  5629  0C86  1303               	bcf	3,6	;RP1=0, select bank0
  5630  0C87  00E8               	movwf	_aux
  5631  0C88  3000               	movlw	0
  5632  0C89  00E9               	movwf	_aux+1
  5633                           
  5634                           ;main.c: 121:         break;
  5635  0C8A  2CE8               	goto	l2514
  5636  0C8B                     l2494:
  5637                           
  5638                           ;main.c: 123:             aux = '3';
  5639  0C8B  3033               	movlw	51
  5640  0C8C  1283               	bcf	3,5	;RP0=0, select bank0
  5641  0C8D  1303               	bcf	3,6	;RP1=0, select bank0
  5642  0C8E  00E8               	movwf	_aux
  5643  0C8F  3000               	movlw	0
  5644  0C90  00E9               	movwf	_aux+1
  5645                           
  5646                           ;main.c: 124:         break;
  5647  0C91  2CE8               	goto	l2514
  5648  0C92                     l2496:
  5649                           
  5650                           ;main.c: 126:             aux = '4';
  5651  0C92  3034               	movlw	52
  5652  0C93  1283               	bcf	3,5	;RP0=0, select bank0
  5653  0C94  1303               	bcf	3,6	;RP1=0, select bank0
  5654  0C95  00E8               	movwf	_aux
  5655  0C96  3000               	movlw	0
  5656  0C97  00E9               	movwf	_aux+1
  5657                           
  5658                           ;main.c: 127:         break;
  5659  0C98  2CE8               	goto	l2514
  5660  0C99                     l2498:
  5661                           
  5662                           ;main.c: 129:             aux = '5';
  5663  0C99  3035               	movlw	53
  5664  0C9A  1283               	bcf	3,5	;RP0=0, select bank0
  5665  0C9B  1303               	bcf	3,6	;RP1=0, select bank0
  5666  0C9C  00E8               	movwf	_aux
  5667  0C9D  3000               	movlw	0
  5668  0C9E  00E9               	movwf	_aux+1
  5669                           
  5670                           ;main.c: 130:         break;
  5671  0C9F  2CE8               	goto	l2514
  5672  0CA0                     l2500:
  5673                           
  5674                           ;main.c: 132:             aux = '6';
  5675  0CA0  3036               	movlw	54
  5676  0CA1  1283               	bcf	3,5	;RP0=0, select bank0
  5677  0CA2  1303               	bcf	3,6	;RP1=0, select bank0
  5678  0CA3  00E8               	movwf	_aux
  5679  0CA4  3000               	movlw	0
  5680  0CA5  00E9               	movwf	_aux+1
  5681                           
  5682                           ;main.c: 133:         break;
  5683  0CA6  2CE8               	goto	l2514
  5684  0CA7                     l2502:
  5685                           
  5686                           ;main.c: 135:             aux = '7';
  5687  0CA7  3037               	movlw	55
  5688  0CA8  1283               	bcf	3,5	;RP0=0, select bank0
  5689  0CA9  1303               	bcf	3,6	;RP1=0, select bank0
  5690  0CAA  00E8               	movwf	_aux
  5691  0CAB  3000               	movlw	0
  5692  0CAC  00E9               	movwf	_aux+1
  5693                           
  5694                           ;main.c: 136:         break;
  5695  0CAD  2CE8               	goto	l2514
  5696  0CAE                     l2504:
  5697                           
  5698                           ;main.c: 138:             aux = '8';
  5699  0CAE  3038               	movlw	56
  5700  0CAF  1283               	bcf	3,5	;RP0=0, select bank0
  5701  0CB0  1303               	bcf	3,6	;RP1=0, select bank0
  5702  0CB1  00E8               	movwf	_aux
  5703  0CB2  3000               	movlw	0
  5704  0CB3  00E9               	movwf	_aux+1
  5705                           
  5706                           ;main.c: 139:         break;
  5707  0CB4  2CE8               	goto	l2514
  5708  0CB5                     l2506:
  5709                           
  5710                           ;main.c: 141:             aux = '9';
  5711  0CB5  3039               	movlw	57
  5712  0CB6  1283               	bcf	3,5	;RP0=0, select bank0
  5713  0CB7  1303               	bcf	3,6	;RP1=0, select bank0
  5714  0CB8  00E8               	movwf	_aux
  5715  0CB9  3000               	movlw	0
  5716  0CBA  00E9               	movwf	_aux+1
  5717                           
  5718                           ;main.c: 142:         break;
  5719  0CBB  2CE8               	goto	l2514
  5720  0CBC                     l2508:
  5721                           
  5722                           ;main.c: 144:             aux = '0';
  5723  0CBC  3030               	movlw	48
  5724  0CBD  1283               	bcf	3,5	;RP0=0, select bank0
  5725  0CBE  1303               	bcf	3,6	;RP1=0, select bank0
  5726  0CBF  00E8               	movwf	_aux
  5727  0CC0  3000               	movlw	0
  5728  0CC1  00E9               	movwf	_aux+1
  5729                           
  5730                           ;main.c: 145:         break;
  5731  0CC2  2CE8               	goto	l2514
  5732  0CC3                     l2512:
  5733                           
  5734                           ; Switch on 2 bytes has been partitioned into a top level switch of size 1, and 1 sub-sw
      +                          itches
  5735                           ; Switch size 1, requested type "simple"
  5736                           ; Number of cases is 1, Range of values is 0 to 0
  5737                           ; switch strategies available:
  5738                           ; Name         Instructions Cycles
  5739                           ; simple_byte            4     3 (average)
  5740                           ; direct_byte           11     8 (fixed)
  5741                           ; jumptable            260     6 (fixed)
  5742                           ;	Chosen strategy is simple_byte
  5743  0CC3  0871               	movf	confereTeclado@numero+1,w
  5744  0CC4  3A00               	xorlw	0	; case 0
  5745  0CC5  1903               	skipnz
  5746  0CC6  2CC8               	goto	l3528
  5747  0CC7  2CE8               	goto	l2514
  5748  0CC8                     l3528:
  5749                           
  5750                           ; Switch size 1, requested type "simple"
  5751                           ; Number of cases is 10, Range of values is 0 to 9
  5752                           ; switch strategies available:
  5753                           ; Name         Instructions Cycles
  5754                           ; simple_byte           31    16 (average)
  5755                           ; direct_byte           38     8 (fixed)
  5756                           ; jumptable            260     6 (fixed)
  5757                           ;	Chosen strategy is simple_byte
  5758  0CC8  0870               	movf	confereTeclado@numero,w
  5759  0CC9  3A00               	xorlw	0	; case 0
  5760  0CCA  1903               	skipnz
  5761  0CCB  2CBC               	goto	l2508
  5762  0CCC  3A01               	xorlw	1	; case 1
  5763  0CCD  1903               	skipnz
  5764  0CCE  2C7D               	goto	l2490
  5765  0CCF  3A03               	xorlw	3	; case 2
  5766  0CD0  1903               	skipnz
  5767  0CD1  2C84               	goto	l2492
  5768  0CD2  3A01               	xorlw	1	; case 3
  5769  0CD3  1903               	skipnz
  5770  0CD4  2C8B               	goto	l2494
  5771  0CD5  3A07               	xorlw	7	; case 4
  5772  0CD6  1903               	skipnz
  5773  0CD7  2C92               	goto	l2496
  5774  0CD8  3A01               	xorlw	1	; case 5
  5775  0CD9  1903               	skipnz
  5776  0CDA  2C99               	goto	l2498
  5777  0CDB  3A03               	xorlw	3	; case 6
  5778  0CDC  1903               	skipnz
  5779  0CDD  2CA0               	goto	l2500
  5780  0CDE  3A01               	xorlw	1	; case 7
  5781  0CDF  1903               	skipnz
  5782  0CE0  2CA7               	goto	l2502
  5783  0CE1  3A0F               	xorlw	15	; case 8
  5784  0CE2  1903               	skipnz
  5785  0CE3  2CAE               	goto	l2504
  5786  0CE4  3A01               	xorlw	1	; case 9
  5787  0CE5  1903               	skipnz
  5788  0CE6  2CB5               	goto	l2506
  5789  0CE7  2CE8               	goto	l2514
  5790  0CE8                     l2514:
  5791                           
  5792                           ;main.c: 147:    return aux;
  5793  0CE8  1283               	bcf	3,5	;RP0=0, select bank0
  5794  0CE9  1303               	bcf	3,6	;RP1=0, select bank0
  5795  0CEA  0868               	movf	_aux,w
  5796  0CEB                     l183:
  5797  0CEB  0008               	return
  5798  0CEC                     __end_of_confereTeclado:
  5799                           
  5800                           	psect	text16
  5801  0AC0                     __ptext16:	
  5802 ;; *************** function _Linha2 *****************
  5803 ;; Defined at:
  5804 ;;		line 418 in file "main.c"
  5805 ;; Parameters:    Size  Location     Type
  5806 ;;		None
  5807 ;; Auto vars:     Size  Location     Type
  5808 ;;  i               2    7[COMMON] int 
  5809 ;; Return value:  Size  Location     Type
  5810 ;;                  1    wreg      void 
  5811 ;; Registers used:
  5812 ;;		wreg, fsr0l, fsr0h, status,2, status,0, btemp+1, pclath, cstack
  5813 ;; Tracked objects:
  5814 ;;		On entry : 0/0
  5815 ;;		On exit  : 0/0
  5816 ;;		Unchanged: 0/0
  5817 ;; Data sizes:     COMMON   BANK0   BANK1   BANK3   BANK2
  5818 ;;      Params:         0       0       0       0       0
  5819 ;;      Locals:         2       0       0       0       0
  5820 ;;      Temps:          2       0       0       0       0
  5821 ;;      Totals:         4       0       0       0       0
  5822 ;;Total ram usage:        4 bytes
  5823 ;; Hardware stack levels used: 1
  5824 ;; Hardware stack levels required when called: 3
  5825 ;; This function calls:
  5826 ;;		_LCD_escreve
  5827 ;;		_LCD_linha2
  5828 ;;		_espacoLivre
  5829 ;;		_strlen
  5830 ;; This function is called by:
  5831 ;;		_alteraSenhaUser
  5832 ;; This function uses a non-reentrant model
  5833 ;;
  5834                           
  5835                           
  5836                           ;psect for function _Linha2
  5837  0AC0                     _Linha2:
  5838  0AC0                     l3236:	
  5839                           ;incstack = 0
  5840                           ; Regs used in _Linha2: [wreg-fsr0h+status,2+status,0+btemp+1+pclath+cstack]
  5841                           
  5842                           
  5843                           ;main.c: 419:     LCD_linha2();
  5844  0AC0  120A  158A  2100  120A  158A  	fcall	_LCD_linha2
  5845                           
  5846                           ;main.c: 420:     espacoLivre();
  5847  0AC5  120A  158A  21A3  120A  158A  	fcall	_espacoLivre
  5848  0ACA                     l3238:
  5849                           
  5850                           ;main.c: 421:     for (int i = 0; i <= strlen(msgMascara)-1; i++){
  5851  0ACA  01F7               	clrf	Linha2@i
  5852  0ACB  01F8               	clrf	Linha2@i+1
  5853  0ACC  2ADD               	goto	l3244
  5854  0ACD                     l3240:
  5855                           
  5856                           ;main.c: 422:         LCD_escreve(msgMascara[i]);
  5857  0ACD  0877               	movf	Linha2@i,w
  5858  0ACE  3E55               	addlw	(low (_msgMascara| 0))& (0+255)
  5859  0ACF  0084               	movwf	4
  5860  0AD0  1383               	bcf	3,7	;select IRP bank0
  5861  0AD1  0800               	movf	0,w
  5862  0AD2  120A  158A  2130  120A  158A  	fcall	_LCD_escreve
  5863  0AD7                     l3242:
  5864                           
  5865                           ;main.c: 423:     }
  5866  0AD7  3001               	movlw	1
  5867  0AD8  07F7               	addwf	Linha2@i,f
  5868  0AD9  1803               	skipnc
  5869  0ADA  0AF8               	incf	Linha2@i+1,f
  5870  0ADB  3000               	movlw	0
  5871  0ADC  07F8               	addwf	Linha2@i+1,f
  5872  0ADD                     l3244:
  5873  0ADD  3055               	movlw	(low (_msgMascara| 0))& (0+255)
  5874  0ADE  00F0               	movwf	strlen@s
  5875  0ADF  3000               	movlw	0
  5876  0AE0  00F1               	movwf	strlen@s+1
  5877  0AE1  120A  158A  2185  120A  158A  	fcall	_strlen
  5878  0AE6  0870               	movf	?_strlen,w
  5879  0AE7  3EFF               	addlw	255
  5880  0AE8  00F5               	movwf	??_Linha2
  5881  0AE9  0871               	movf	?_strlen+1,w
  5882  0AEA  1803               	skipnc
  5883  0AEB  3E01               	addlw	1
  5884  0AEC  3EFF               	addlw	255
  5885  0AED  00F6               	movwf	??_Linha2+1
  5886  0AEE  0878               	movf	Linha2@i+1,w
  5887  0AEF  0276               	subwf	??_Linha2+1,w
  5888  0AF0  1D03               	skipz
  5889  0AF1  2AF4               	goto	u3315
  5890  0AF2  0877               	movf	Linha2@i,w
  5891  0AF3  0275               	subwf	??_Linha2,w
  5892  0AF4                     u3315:
  5893  0AF4  1803               	skipnc
  5894  0AF5  2AF7               	goto	u3311
  5895  0AF6  2AF8               	goto	u3310
  5896  0AF7                     u3311:
  5897  0AF7  2ACD               	goto	l3240
  5898  0AF8                     u3310:
  5899  0AF8                     l3246:
  5900                           
  5901                           ;main.c: 424:     espacoLivre();
  5902  0AF8  120A  158A  21A3  120A  158A  	fcall	_espacoLivre
  5903  0AFD                     l260:
  5904  0AFD  0008               	return
  5905  0AFE                     __end_of_Linha2:
  5906                           
  5907                           	psect	text17
  5908  0985                     __ptext17:	
  5909 ;; *************** function _strlen *****************
  5910 ;; Defined at:
  5911 ;;		line 4 in file "C:\Program Files\Microchip\xc8\v2.32\pic\sources\c90\common\strlen.c"
  5912 ;; Parameters:    Size  Location     Type
  5913 ;;  s               2    0[COMMON] PTR const unsigned char 
  5914 ;;		 -> msgMascara(5), msgDigiteSenha(15), 
  5915 ;; Auto vars:     Size  Location     Type
  5916 ;;  cp              2    2[COMMON] PTR const unsigned char 
  5917 ;;		 -> msgMascara(5), msgDigiteSenha(15), 
  5918 ;; Return value:  Size  Location     Type
  5919 ;;                  2    0[COMMON] unsigned int 
  5920 ;; Registers used:
  5921 ;;		wreg, fsr0l, fsr0h, status,2, status,0
  5922 ;; Tracked objects:
  5923 ;;		On entry : 0/0
  5924 ;;		On exit  : 0/0
  5925 ;;		Unchanged: 0/0
  5926 ;; Data sizes:     COMMON   BANK0   BANK1   BANK3   BANK2
  5927 ;;      Params:         2       0       0       0       0
  5928 ;;      Locals:         2       0       0       0       0
  5929 ;;      Temps:          0       0       0       0       0
  5930 ;;      Totals:         4       0       0       0       0
  5931 ;;Total ram usage:        4 bytes
  5932 ;; Hardware stack levels used: 1
  5933 ;; This function calls:
  5934 ;;		Nothing
  5935 ;; This function is called by:
  5936 ;;		_Linha2
  5937 ;;		_telaInicial
  5938 ;; This function uses a non-reentrant model
  5939 ;;
  5940                           
  5941                           
  5942                           ;psect for function _strlen
  5943  0985                     _strlen:
  5944  0985                     l3210:	
  5945                           ;incstack = 0
  5946                           ; Regs used in _strlen: [wreg-fsr0h+status,2+status,0]
  5947                           
  5948  0985  0870               	movf	strlen@s,w
  5949  0986  00F2               	movwf	strlen@cp
  5950  0987  0871               	movf	strlen@s+1,w
  5951  0988  00F3               	movwf	strlen@cp+1
  5952  0989  2990               	goto	l3214
  5953  098A                     l3212:
  5954  098A  3001               	movlw	1
  5955  098B  07F2               	addwf	strlen@cp,f
  5956  098C  1803               	skipnc
  5957  098D  0AF3               	incf	strlen@cp+1,f
  5958  098E  3000               	movlw	0
  5959  098F  07F3               	addwf	strlen@cp+1,f
  5960  0990                     l3214:
  5961  0990  0872               	movf	strlen@cp,w
  5962  0991  0084               	movwf	4
  5963  0992  1783               	bsf	3,7
  5964  0993  1C73               	btfss	strlen@cp+1,0
  5965  0994  1383               	bcf	3,7
  5966  0995  0800               	movf	0,w
  5967  0996  1D03               	btfss	3,2
  5968  0997  2999               	goto	u3291
  5969  0998  299A               	goto	u3290
  5970  0999                     u3291:
  5971  0999  298A               	goto	l3212
  5972  099A                     u3290:
  5973  099A                     l3216:
  5974  099A  0870               	movf	strlen@s,w
  5975  099B  0272               	subwf	strlen@cp,w
  5976  099C  00F0               	movwf	?_strlen
  5977  099D  0871               	movf	strlen@s+1,w
  5978  099E  1C03               	skipc
  5979  099F  0A71               	incf	strlen@s+1,w
  5980  09A0  0273               	subwf	strlen@cp+1,w
  5981  09A1  00F1               	movwf	?_strlen+1
  5982  09A2                     l862:
  5983  09A2  0008               	return
  5984  09A3                     __end_of_strlen:
  5985                           
  5986                           	psect	text18
  5987  09A3                     __ptext18:	
  5988 ;; *************** function _espacoLivre *****************
  5989 ;; Defined at:
  5990 ;;		line 426 in file "main.c"
  5991 ;; Parameters:    Size  Location     Type
  5992 ;;		None
  5993 ;; Auto vars:     Size  Location     Type
  5994 ;;  i               2    3[COMMON] int 
  5995 ;; Return value:  Size  Location     Type
  5996 ;;                  1    wreg      void 
  5997 ;; Registers used:
  5998 ;;		wreg, status,2, status,0, btemp+1, pclath, cstack
  5999 ;; Tracked objects:
  6000 ;;		On entry : 0/0
  6001 ;;		On exit  : 0/0
  6002 ;;		Unchanged: 0/0
  6003 ;; Data sizes:     COMMON   BANK0   BANK1   BANK3   BANK2
  6004 ;;      Params:         0       0       0       0       0
  6005 ;;      Locals:         2       0       0       0       0
  6006 ;;      Temps:          0       0       0       0       0
  6007 ;;      Totals:         2       0       0       0       0
  6008 ;;Total ram usage:        2 bytes
  6009 ;; Hardware stack levels used: 1
  6010 ;; Hardware stack levels required when called: 2
  6011 ;; This function calls:
  6012 ;;		_LCD_escreve
  6013 ;;		_LCD_linha2
  6014 ;; This function is called by:
  6015 ;;		_Linha2
  6016 ;; This function uses a non-reentrant model
  6017 ;;
  6018                           
  6019                           
  6020                           ;psect for function _espacoLivre
  6021  09A3                     _espacoLivre:
  6022  09A3                     l2770:	
  6023                           ;incstack = 0
  6024                           ; Regs used in _espacoLivre: [wreg+status,2+status,0+btemp+1+pclath+cstack]
  6025                           
  6026                           
  6027                           ;main.c: 427:     LCD_linha2();
  6028  09A3  120A  158A  2100  120A  158A  	fcall	_LCD_linha2
  6029  09A8                     l2772:
  6030                           
  6031                           ;main.c: 428:     for (int i = 0; i < 6; i++){
  6032  09A8  01F3               	clrf	espacoLivre@i
  6033  09A9  01F4               	clrf	espacoLivre@i+1
  6034  09AA                     l2778:
  6035                           
  6036                           ;main.c: 429:         LCD_escreve(' ');
  6037  09AA  3020               	movlw	32
  6038  09AB  120A  158A  2130  120A  158A  	fcall	_LCD_escreve
  6039  09B0                     l2780:
  6040                           
  6041                           ;main.c: 430:     }
  6042  09B0  3001               	movlw	1
  6043  09B1  07F3               	addwf	espacoLivre@i,f
  6044  09B2  1803               	skipnc
  6045  09B3  0AF4               	incf	espacoLivre@i+1,f
  6046  09B4  3000               	movlw	0
  6047  09B5  07F4               	addwf	espacoLivre@i+1,f
  6048  09B6                     l2782:
  6049  09B6  0874               	movf	espacoLivre@i+1,w
  6050  09B7  3A80               	xorlw	128
  6051  09B8  00FF               	movwf	btemp+1
  6052  09B9  3080               	movlw	128
  6053  09BA  027F               	subwf	btemp+1,w
  6054  09BB  1D03               	skipz
  6055  09BC  29BF               	goto	u2885
  6056  09BD  3006               	movlw	6
  6057  09BE  0273               	subwf	espacoLivre@i,w
  6058  09BF                     u2885:
  6059  09BF  1C03               	skipc
  6060  09C0  29C2               	goto	u2881
  6061  09C1  29C3               	goto	u2880
  6062  09C2                     u2881:
  6063  09C2  29AA               	goto	l2778
  6064  09C3                     u2880:
  6065  09C3                     l265:
  6066  09C3  0008               	return
  6067  09C4                     __end_of_espacoLivre:
  6068                           
  6069                           	psect	text19
  6070  0900                     __ptext19:	
  6071 ;; *************** function _LCD_linha2 *****************
  6072 ;; Defined at:
  6073 ;;		line 73 in file "./lcd.h"
  6074 ;; Parameters:    Size  Location     Type
  6075 ;;		None
  6076 ;; Auto vars:     Size  Location     Type
  6077 ;;		None
  6078 ;; Return value:  Size  Location     Type
  6079 ;;                  1    wreg      void 
  6080 ;; Registers used:
  6081 ;;		wreg, status,2, status,0, btemp+1, pclath, cstack
  6082 ;; Tracked objects:
  6083 ;;		On entry : 0/0
  6084 ;;		On exit  : 0/0
  6085 ;;		Unchanged: 0/0
  6086 ;; Data sizes:     COMMON   BANK0   BANK1   BANK3   BANK2
  6087 ;;      Params:         0       0       0       0       0
  6088 ;;      Locals:         0       0       0       0       0
  6089 ;;      Temps:          0       0       0       0       0
  6090 ;;      Totals:         0       0       0       0       0
  6091 ;;Total ram usage:        0 bytes
  6092 ;; Hardware stack levels used: 1
  6093 ;; Hardware stack levels required when called: 1
  6094 ;; This function calls:
  6095 ;;		_delay
  6096 ;; This function is called by:
  6097 ;;		_valida_senha
  6098 ;;		_rotinaValidaSenha
  6099 ;;		_Linha2
  6100 ;;		_espacoLivre
  6101 ;;		_listaZonas
  6102 ;; This function uses a non-reentrant model
  6103 ;;
  6104                           
  6105                           
  6106                           ;psect for function _LCD_linha2
  6107  0900                     _LCD_linha2:
  6108  0900                     l2454:	
  6109                           ;incstack = 0
  6110                           ; Regs used in _LCD_linha2: [wreg+status,2+status,0+btemp+1+pclath+cstack]
  6111                           
  6112                           
  6113                           ;./lcd.h: 74:     PORTD = 0xC0;
  6114  0900  30C0               	movlw	192
  6115  0901  1283               	bcf	3,5	;RP0=0, select bank0
  6116  0902  1303               	bcf	3,6	;RP1=0, select bank0
  6117  0903  0088               	movwf	8	;volatile
  6118  0904                     l2456:
  6119                           
  6120                           ;./lcd.h: 75:     RA5 = 0;
  6121  0904  1285               	bcf	5,5	;volatile
  6122  0905                     l2458:
  6123                           
  6124                           ;./lcd.h: 76:     RA4 = 0;
  6125  0905  1205               	bcf	5,4	;volatile
  6126  0906                     l2460:
  6127                           
  6128                           ;./lcd.h: 77:     RA3=0;
  6129  0906  1185               	bcf	5,3	;volatile
  6130  0907                     l2462:
  6131                           
  6132                           ;./lcd.h: 78:     delay();
  6133  0907  120A  158A  2154  120A  158A  	fcall	_delay
  6134  090C                     l2464:
  6135                           
  6136                           ;./lcd.h: 79:  RA3 = 1;
  6137  090C  1283               	bcf	3,5	;RP0=0, select bank0
  6138  090D  1303               	bcf	3,6	;RP1=0, select bank0
  6139  090E  1585               	bsf	5,3	;volatile
  6140  090F                     l78:
  6141  090F  0008               	return
  6142  0910                     __end_of_LCD_linha2:
  6143                           
  6144                           	psect	text20
  6145  0930                     __ptext20:	
  6146 ;; *************** function _LCD_escreve *****************
  6147 ;; Defined at:
  6148 ;;		line 46 in file "./lcd.h"
  6149 ;; Parameters:    Size  Location     Type
  6150 ;;  x               1    wreg     unsigned char 
  6151 ;; Auto vars:     Size  Location     Type
  6152 ;;  x               1    2[COMMON] unsigned char 
  6153 ;; Return value:  Size  Location     Type
  6154 ;;                  1    wreg      void 
  6155 ;; Registers used:
  6156 ;;		wreg, status,2, status,0, btemp+1, pclath, cstack
  6157 ;; Tracked objects:
  6158 ;;		On entry : 0/0
  6159 ;;		On exit  : 0/0
  6160 ;;		Unchanged: 0/0
  6161 ;; Data sizes:     COMMON   BANK0   BANK1   BANK3   BANK2
  6162 ;;      Params:         0       0       0       0       0
  6163 ;;      Locals:         1       0       0       0       0
  6164 ;;      Temps:          0       0       0       0       0
  6165 ;;      Totals:         1       0       0       0       0
  6166 ;;Total ram usage:        1 bytes
  6167 ;; Hardware stack levels used: 1
  6168 ;; Hardware stack levels required when called: 1
  6169 ;; This function calls:
  6170 ;;		_delay
  6171 ;; This function is called by:
  6172 ;;		_valida_senha
  6173 ;;		_alteraSenhaUser
  6174 ;;		_teclado
  6175 ;;		_Linha2
  6176 ;;		_espacoLivre
  6177 ;;		_escreveMesagem
  6178 ;;		_LCD_escreveFrase
  6179 ;;		_telaInicial
  6180 ;;		_listaZonas
  6181 ;; This function uses a non-reentrant model
  6182 ;;
  6183                           
  6184                           
  6185                           ;psect for function _LCD_escreve
  6186  0930                     _LCD_escreve:
  6187                           
  6188                           ;incstack = 0
  6189                           ; Regs used in _LCD_escreve: [wreg+status,2+status,0+btemp+1+pclath+cstack]
  6190                           ;LCD_escreve@x stored from wreg
  6191  0930  00F2               	movwf	LCD_escreve@x
  6192  0931                     l2252:
  6193                           
  6194                           ;./lcd.h: 46: void LCD_escreve(char x);./lcd.h: 47: {;./lcd.h: 48:  PORTD = x;
  6195  0931  0872               	movf	LCD_escreve@x,w
  6196  0932  1283               	bcf	3,5	;RP0=0, select bank0
  6197  0933  1303               	bcf	3,6	;RP1=0, select bank0
  6198  0934  0088               	movwf	8	;volatile
  6199  0935                     l2254:
  6200                           
  6201                           ;./lcd.h: 49:  RA5 = 1;
  6202  0935  1685               	bsf	5,5	;volatile
  6203  0936                     l2256:
  6204                           
  6205                           ;./lcd.h: 50:  RA4 = 0;
  6206  0936  1205               	bcf	5,4	;volatile
  6207  0937                     l2258:
  6208                           
  6209                           ;./lcd.h: 51:  RA3 = 0;
  6210  0937  1185               	bcf	5,3	;volatile
  6211  0938                     l2260:
  6212                           
  6213                           ;./lcd.h: 52:  delay();
  6214  0938  120A  158A  2154  120A  158A  	fcall	_delay
  6215  093D                     l2262:
  6216                           
  6217                           ;./lcd.h: 53:  RA3 = 1;
  6218  093D  1283               	bcf	3,5	;RP0=0, select bank0
  6219  093E  1303               	bcf	3,6	;RP1=0, select bank0
  6220  093F  1585               	bsf	5,3	;volatile
  6221  0940                     l69:
  6222  0940  0008               	return
  6223  0941                     __end_of_LCD_escreve:
  6224                           
  6225                           	psect	text21
  6226  0A19                     __ptext21:	
  6227 ;; *************** function _LCD_init *****************
  6228 ;; Defined at:
  6229 ;;		line 31 in file "./lcd.h"
  6230 ;; Parameters:    Size  Location     Type
  6231 ;;		None
  6232 ;; Auto vars:     Size  Location     Type
  6233 ;;		None
  6234 ;; Return value:  Size  Location     Type
  6235 ;;                  1    wreg      void 
  6236 ;; Registers used:
  6237 ;;		wreg, status,2, status,0, btemp+1, pclath, cstack
  6238 ;; Tracked objects:
  6239 ;;		On entry : 0/0
  6240 ;;		On exit  : 0/0
  6241 ;;		Unchanged: 0/0
  6242 ;; Data sizes:     COMMON   BANK0   BANK1   BANK3   BANK2
  6243 ;;      Params:         0       0       0       0       0
  6244 ;;      Locals:         0       0       0       0       0
  6245 ;;      Temps:          0       0       0       0       0
  6246 ;;      Totals:         0       0       0       0       0
  6247 ;;Total ram usage:        0 bytes
  6248 ;; Hardware stack levels used: 1
  6249 ;; Hardware stack levels required when called: 2
  6250 ;; This function calls:
  6251 ;;		_LCD_enable
  6252 ;;		_init
  6253 ;; This function is called by:
  6254 ;;		_alteraSenhaUser
  6255 ;;		_listaZonas
  6256 ;; This function uses a non-reentrant model
  6257 ;;
  6258                           
  6259                           
  6260                           ;psect for function _LCD_init
  6261  0A19                     _LCD_init:
  6262  0A19                     l2784:	
  6263                           ;incstack = 0
  6264                           ; Regs used in _LCD_init: [wreg+status,2+status,0+btemp+1+pclath+cstack]
  6265                           
  6266                           
  6267                           ;./lcd.h: 33:     init();
  6268  0A19  120A  158A  20E6  120A  158A  	fcall	_init
  6269  0A1E                     l2786:
  6270                           
  6271                           ;./lcd.h: 34:  PORTD = 0X1;
  6272  0A1E  3001               	movlw	1
  6273  0A1F  1283               	bcf	3,5	;RP0=0, select bank0
  6274  0A20  1303               	bcf	3,6	;RP1=0, select bank0
  6275  0A21  0088               	movwf	8	;volatile
  6276  0A22                     l2788:
  6277                           
  6278                           ;./lcd.h: 35:  LCD_enable();
  6279  0A22  120A  158A  20F2  120A  158A  	fcall	_LCD_enable
  6280  0A27                     l2790:
  6281                           
  6282                           ;./lcd.h: 36:  PORTD = 0X38;
  6283  0A27  3038               	movlw	56
  6284  0A28  1283               	bcf	3,5	;RP0=0, select bank0
  6285  0A29  1303               	bcf	3,6	;RP1=0, select bank0
  6286  0A2A  0088               	movwf	8	;volatile
  6287  0A2B                     l2792:
  6288                           
  6289                           ;./lcd.h: 37:  LCD_enable();
  6290  0A2B  120A  158A  20F2  120A  158A  	fcall	_LCD_enable
  6291  0A30                     l2794:
  6292                           
  6293                           ;./lcd.h: 38:  PORTD = 0X0e;
  6294  0A30  300E               	movlw	14
  6295  0A31  1283               	bcf	3,5	;RP0=0, select bank0
  6296  0A32  1303               	bcf	3,6	;RP1=0, select bank0
  6297  0A33  0088               	movwf	8	;volatile
  6298  0A34                     l2796:
  6299                           
  6300                           ;./lcd.h: 39:  LCD_enable();
  6301  0A34  120A  158A  20F2  120A  158A  	fcall	_LCD_enable
  6302  0A39                     l2798:
  6303                           
  6304                           ;./lcd.h: 40:  PORTD = 0X06;
  6305  0A39  3006               	movlw	6
  6306  0A3A  1283               	bcf	3,5	;RP0=0, select bank0
  6307  0A3B  1303               	bcf	3,6	;RP1=0, select bank0
  6308  0A3C  0088               	movwf	8	;volatile
  6309  0A3D                     l2800:
  6310                           
  6311                           ;./lcd.h: 41:  LCD_enable();
  6312  0A3D  120A  158A  20F2  120A  158A  	fcall	_LCD_enable
  6313  0A42                     l2802:
  6314                           
  6315                           ;./lcd.h: 42:  PORTD = 0X80;
  6316  0A42  3080               	movlw	128
  6317  0A43  1283               	bcf	3,5	;RP0=0, select bank0
  6318  0A44  1303               	bcf	3,6	;RP1=0, select bank0
  6319  0A45  0088               	movwf	8	;volatile
  6320  0A46                     l2804:
  6321                           
  6322                           ;./lcd.h: 43:  LCD_enable();
  6323  0A46  120A  158A  20F2  120A  158A  	fcall	_LCD_enable
  6324  0A4B                     l66:
  6325  0A4B  0008               	return
  6326  0A4C                     __end_of_LCD_init:
  6327                           
  6328                           	psect	text22
  6329  08E6                     __ptext22:	
  6330 ;; *************** function _init *****************
  6331 ;; Defined at:
  6332 ;;		line 23 in file "./lcd.h"
  6333 ;; Parameters:    Size  Location     Type
  6334 ;;		None
  6335 ;; Auto vars:     Size  Location     Type
  6336 ;;		None
  6337 ;; Return value:  Size  Location     Type
  6338 ;;                  1    wreg      void 
  6339 ;; Registers used:
  6340 ;;		wreg, status,2
  6341 ;; Tracked objects:
  6342 ;;		On entry : 0/0
  6343 ;;		On exit  : 0/0
  6344 ;;		Unchanged: 0/0
  6345 ;; Data sizes:     COMMON   BANK0   BANK1   BANK3   BANK2
  6346 ;;      Params:         0       0       0       0       0
  6347 ;;      Locals:         0       0       0       0       0
  6348 ;;      Temps:          0       0       0       0       0
  6349 ;;      Totals:         0       0       0       0       0
  6350 ;;Total ram usage:        0 bytes
  6351 ;; Hardware stack levels used: 1
  6352 ;; This function calls:
  6353 ;;		Nothing
  6354 ;; This function is called by:
  6355 ;;		_LCD_init
  6356 ;; This function uses a non-reentrant model
  6357 ;;
  6358                           
  6359                           
  6360                           ;psect for function _init
  6361  08E6                     _init:
  6362  08E6                     l2724:	
  6363                           ;incstack = 0
  6364                           ; Regs used in _init: [wreg+status,2]
  6365                           
  6366                           
  6367                           ;./lcd.h: 25:  ADCON1 = 0X07;
  6368  08E6  3007               	movlw	7
  6369  08E7  1683               	bsf	3,5	;RP0=1, select bank1
  6370  08E8  1303               	bcf	3,6	;RP1=0, select bank1
  6371  08E9  009F               	movwf	31	;volatile
  6372  08EA                     l2726:
  6373                           
  6374                           ;./lcd.h: 26:      RA1=1;
  6375  08EA  1283               	bcf	3,5	;RP0=0, select bank0
  6376  08EB  1303               	bcf	3,6	;RP1=0, select bank0
  6377  08EC  1485               	bsf	5,1	;volatile
  6378  08ED                     l2728:
  6379                           
  6380                           ;./lcd.h: 27:  TRISA = 0X00;
  6381  08ED  1683               	bsf	3,5	;RP0=1, select bank1
  6382  08EE  1303               	bcf	3,6	;RP1=0, select bank1
  6383  08EF  0185               	clrf	5	;volatile
  6384  08F0                     l2730:
  6385                           
  6386                           ;./lcd.h: 28:  TRISD = 0X00;
  6387  08F0  0188               	clrf	8	;volatile
  6388  08F1                     l63:
  6389  08F1  0008               	return
  6390  08F2                     __end_of_init:
  6391                           
  6392                           	psect	text23
  6393  08F2                     __ptext23:	
  6394 ;; *************** function _LCD_enable *****************
  6395 ;; Defined at:
  6396 ;;		line 85 in file "./lcd.h"
  6397 ;; Parameters:    Size  Location     Type
  6398 ;;		None
  6399 ;; Auto vars:     Size  Location     Type
  6400 ;;		None
  6401 ;; Return value:  Size  Location     Type
  6402 ;;                  1    wreg      void 
  6403 ;; Registers used:
  6404 ;;		wreg, status,2, status,0, btemp+1, pclath, cstack
  6405 ;; Tracked objects:
  6406 ;;		On entry : 0/0
  6407 ;;		On exit  : 0/0
  6408 ;;		Unchanged: 0/0
  6409 ;; Data sizes:     COMMON   BANK0   BANK1   BANK3   BANK2
  6410 ;;      Params:         0       0       0       0       0
  6411 ;;      Locals:         0       0       0       0       0
  6412 ;;      Temps:          0       0       0       0       0
  6413 ;;      Totals:         0       0       0       0       0
  6414 ;;Total ram usage:        0 bytes
  6415 ;; Hardware stack levels used: 1
  6416 ;; Hardware stack levels required when called: 1
  6417 ;; This function calls:
  6418 ;;		_delay
  6419 ;; This function is called by:
  6420 ;;		_LCD_init
  6421 ;; This function uses a non-reentrant model
  6422 ;;
  6423                           
  6424                           
  6425                           ;psect for function _LCD_enable
  6426  08F2                     _LCD_enable:
  6427  08F2                     l2732:	
  6428                           ;incstack = 0
  6429                           ; Regs used in _LCD_enable: [wreg+status,2+status,0+btemp+1+pclath+cstack]
  6430                           
  6431                           
  6432                           ;./lcd.h: 87:  RA5 = 0;
  6433  08F2  1283               	bcf	3,5	;RP0=0, select bank0
  6434  08F3  1303               	bcf	3,6	;RP1=0, select bank0
  6435  08F4  1285               	bcf	5,5	;volatile
  6436                           
  6437                           ;./lcd.h: 88:  RA4 = 0;
  6438  08F5  1205               	bcf	5,4	;volatile
  6439                           
  6440                           ;./lcd.h: 89:  RA3 = 0;
  6441  08F6  1185               	bcf	5,3	;volatile
  6442  08F7                     l2734:
  6443                           
  6444                           ;./lcd.h: 90:  delay();
  6445  08F7  120A  158A  2154  120A  158A  	fcall	_delay
  6446  08FC                     l2736:
  6447                           
  6448                           ;./lcd.h: 91:  RA3 = 1;
  6449  08FC  1283               	bcf	3,5	;RP0=0, select bank0
  6450  08FD  1303               	bcf	3,6	;RP1=0, select bank0
  6451  08FE  1585               	bsf	5,3	;volatile
  6452  08FF                     l81:
  6453  08FF  0008               	return
  6454  0900                     __end_of_LCD_enable:
  6455                           
  6456                           	psect	text24
  6457  0954                     __ptext24:	
  6458 ;; *************** function _delay *****************
  6459 ;; Defined at:
  6460 ;;		line 94 in file "./lcd.h"
  6461 ;; Parameters:    Size  Location     Type
  6462 ;;		None
  6463 ;; Auto vars:     Size  Location     Type
  6464 ;;  i               2    0[COMMON] int 
  6465 ;; Return value:  Size  Location     Type
  6466 ;;                  1    wreg      void 
  6467 ;; Registers used:
  6468 ;;		wreg, status,2, btemp+1
  6469 ;; Tracked objects:
  6470 ;;		On entry : 0/0
  6471 ;;		On exit  : 0/0
  6472 ;;		Unchanged: 0/0
  6473 ;; Data sizes:     COMMON   BANK0   BANK1   BANK3   BANK2
  6474 ;;      Params:         0       0       0       0       0
  6475 ;;      Locals:         2       0       0       0       0
  6476 ;;      Temps:          0       0       0       0       0
  6477 ;;      Totals:         2       0       0       0       0
  6478 ;;Total ram usage:        2 bytes
  6479 ;; Hardware stack levels used: 1
  6480 ;; This function calls:
  6481 ;;		Nothing
  6482 ;; This function is called by:
  6483 ;;		_LCD_escreve
  6484 ;;		_LCD_limpa
  6485 ;;		_LCD_linha1
  6486 ;;		_LCD_linha2
  6487 ;;		_LCD_enable
  6488 ;; This function uses a non-reentrant model
  6489 ;;
  6490                           
  6491                           
  6492                           ;psect for function _delay
  6493  0954                     _delay:
  6494  0954                     l2034:	
  6495                           ;incstack = 0
  6496                           ; Regs used in _delay: [wreg+status,2+btemp+1]
  6497                           
  6498                           
  6499                           ;./lcd.h: 96:  int i;;./lcd.h: 97:  for (i = 0;i < 5000;i++);
  6500  0954  01F0               	clrf	delay@i
  6501  0955  01F1               	clrf	delay@i+1
  6502  0956                     l2040:
  6503  0956  3001               	movlw	1
  6504  0957  07F0               	addwf	delay@i,f
  6505  0958  1803               	skipnc
  6506  0959  0AF1               	incf	delay@i+1,f
  6507  095A  3000               	movlw	0
  6508  095B  07F1               	addwf	delay@i+1,f
  6509  095C                     l2042:
  6510  095C  0871               	movf	delay@i+1,w
  6511  095D  3A80               	xorlw	128
  6512  095E  00FF               	movwf	btemp+1
  6513  095F  3093               	movlw	147
  6514  0960  027F               	subwf	btemp+1,w
  6515  0961  1D03               	skipz
  6516  0962  2965               	goto	u1585
  6517  0963  3088               	movlw	136
  6518  0964  0270               	subwf	delay@i,w
  6519  0965                     u1585:
  6520  0965  1C03               	skipc
  6521  0966  2968               	goto	u1581
  6522  0967  2969               	goto	u1580
  6523  0968                     u1581:
  6524  0968  2956               	goto	l2040
  6525  0969                     u1580:
  6526  0969                     l86:
  6527  0969  0008               	return
  6528  096A                     __end_of_delay:
  6529  007E                     btemp	set	126	;btemp
  6530  007E                     wtemp0	set	126

Data Sizes:
    Strings     0
    Constant    0
    Data        229
    BSS         8
    Persistent  2
    Stack       0

Auto Spaces:
    Space          Size  Autos    Used
    COMMON           14     14      14
    BANK0            80     41      78
    BANK1            80      0      68
    BANK3            96      0      85
    BANK2            96      0      49

Pointer List with Targets:

    strlen@s	PTR const unsigned char  size(2) Largest target is 15
		 -> msgMascara(BANK0[5]), msgDigiteSenha(BANK3[15]), 

    strlen@cp	PTR const unsigned char  size(2) Largest target is 15
		 -> msgMascara(BANK0[5]), msgDigiteSenha(BANK3[15]), 

    escreveMesagem@texto	PTR unsigned char  size(2) Largest target is 17
		 -> msgReativar(BANK1[9]), msgDesativarZona(BANK3[15]), msgSenhaDisparo(BANK3[14]), msgSenhaCoacao(BANK1[13]), 
		 -> msgSenhaUsuario(BANK1[14]), msgSenhaConfig(BANK1[13]), msgSenhaCorreta(BANK3[14]), msgSenhaErrada(BANK3[13]), 
		 -> senhaUser(BANK0[5]), senhaConfig(BANK1[5]), msgDigiteNovaSenha(BANK3[14]), msgSenhaCancelada(BANK2[16]), 
		 -> msgSenhaAtualizada(BANK2[17]), msgAceitoOuNego(BANK1[9]), msgValidaSenha(BANK2[16]), 

    rotinaValidaSenha@senhaOp	PTR unsigned char  size(1) Largest target is 5
		 -> senhaUser(BANK0[5]), senhaConfig(BANK1[5]), 

    inputSenhaAlter@senhaDestino	PTR unsigned char  size(1) Largest target is 5
		 -> senhaUser(BANK0[5]), senhaConfig(BANK1[5]), 

    valida_senha@texto	PTR unsigned char  size(1) Largest target is 5
		 -> senhaUser(BANK0[5]), senhaConfig(BANK1[5]), 

    aux	PTR unsigned char  size(2) Largest target is 512
		 -> RAM(DATA[512]), RAM(DATA[512]), RAM(DATA[512]), RAM(DATA[512]), 
		 -> RAM(DATA[512]), RAM(DATA[512]), RAM(DATA[512]), RAM(DATA[512]), 
		 -> RAM(DATA[512]), RAM(DATA[512]), RAM(DATA[512]), RAM(DATA[512]), 
		 -> RAM(DATA[512]), NULL(NULL[0]), 


Critical Paths under _main in COMMON

    _valida_senha->_escreveMesagem
    _escreveMesagem->_LCD_escreve
    _LCD_linha1->_delay
    _LCD_limpa->_delay
    _liga_buzzer->___flmul
    ___flsub->___fladd
    ___flmul->__Umul8_16
    _Linha2->_espacoLivre
    _espacoLivre->_LCD_escreve
    _LCD_linha2->_delay
    _LCD_escreve->_delay
    _LCD_enable->_delay

Critical Paths under _main in BANK0

    _main->_alteraSenhaUser
    _alteraSenhaUser->_rotinaValidaSenha
    _rotinaValidaSenha->_inputSenhaAlter
    _inputSenhaAlter->_teclado
    _teclado->_liga_buzzer
    _liga_buzzer->___flmul
    ___flsub->___fladd

Critical Paths under _main in BANK1

    None.

Critical Paths under _main in BANK3

    None.

Critical Paths under _main in BANK2

    None.

Call Graph Tables:

 ---------------------------------------------------------------------------------
 (Depth) Function   	        Calls       Base Space   Used Autos Params    Refs
 ---------------------------------------------------------------------------------
 (0) _main                                                 0     0      0   11907
                    _alteraSenhaUser
 ---------------------------------------------------------------------------------
 (1) _alteraSenhaUser                                      2     0      2   11907
                                             39 BANK0      2     0      2
                        _LCD_escreve
                           _LCD_init
                          _LCD_limpa
                             _Linha2
                     _escreveMesagem
                  _rotinaValidaSenha
 ---------------------------------------------------------------------------------
 (2) _rotinaValidaSenha                                    4     4      0    9909
                                             35 BANK0      4     4      0
                          _LCD_limpa
                         _LCD_linha2
                     _escreveMesagem
                    _inputSenhaAlter
 ---------------------------------------------------------------------------------
 (3) _inputSenhaAlter                                      5     5      0    8645
                                             30 BANK0      5     5      0
                     _confereTeclado
                            _teclado
                       _valida_senha
 ---------------------------------------------------------------------------------
 (4) _valida_senha                                         8     6      2    1382
                                             10 COMMON     2     0      2
                                              0 BANK0      6     6      0
                        _LCD_escreve
                          _LCD_limpa
                         _LCD_linha1
                         _LCD_linha2
                     _escreveMesagem
 ---------------------------------------------------------------------------------
 (5) _escreveMesagem                                       7     5      2    1038
                                              3 COMMON     7     5      2
                        _LCD_escreve
 ---------------------------------------------------------------------------------
 (5) _LCD_linha1                                           0     0      0      46
                              _delay
 ---------------------------------------------------------------------------------
 (5) _LCD_limpa                                            0     0      0      46
                              _delay
 ---------------------------------------------------------------------------------
 (4) _teclado                                              3     3      0    6892
                                             27 BANK0      3     3      0
                        _LCD_escreve
                        _liga_buzzer
 ---------------------------------------------------------------------------------
 (5) _liga_buzzer                                          6     2      4    6824
                                             21 BANK0      6     2      4
                             ___flge
                            ___flmul
                            ___flsub
 ---------------------------------------------------------------------------------
 (6) ___flsub                                              8     0      8    2333
                                              8 BANK0      8     0      8
                            ___fladd
 ---------------------------------------------------------------------------------
 (7) ___fladd                                             20    12      8    2136
                                              0 COMMON    12     4      8
                                              0 BANK0      8     8      0
 ---------------------------------------------------------------------------------
 (6) ___flmul                                             26    18      8    2417
                                              9 COMMON     5     5      0
                                              0 BANK0     21    13      8
                          __Umul8_16
 ---------------------------------------------------------------------------------
 (7) __Umul8_16                                            9     7      2     799
                                              0 COMMON     9     7      2
 ---------------------------------------------------------------------------------
 (6) ___flge                                              12     4      8     334
                                              0 COMMON    12     4      8
 ---------------------------------------------------------------------------------
 (4) _confereTeclado                                       2     0      2     174
                                              0 COMMON     2     0      2
 ---------------------------------------------------------------------------------
 (2) _Linha2                                               4     4      0     552
                                              5 COMMON     4     4      0
                        _LCD_escreve
                         _LCD_linha2
                        _espacoLivre
                             _strlen
 ---------------------------------------------------------------------------------
 (3) _strlen                                               4     2      2     210
                                              0 COMMON     4     2      2
 ---------------------------------------------------------------------------------
 (3) _espacoLivre                                          2     2      0     160
                                              3 COMMON     2     2      0
                        _LCD_escreve
                         _LCD_linha2
 ---------------------------------------------------------------------------------
 (5) _LCD_linha2                                           0     0      0      46
                              _delay
 ---------------------------------------------------------------------------------
 (6) _LCD_escreve                                          1     1      0      68
                                              2 COMMON     1     1      0
                              _delay
 ---------------------------------------------------------------------------------
 (2) _LCD_init                                             0     0      0      46
                         _LCD_enable
                               _init
 ---------------------------------------------------------------------------------
 (3) _init                                                 0     0      0       0
 ---------------------------------------------------------------------------------
 (3) _LCD_enable                                           0     0      0      46
                              _delay
 ---------------------------------------------------------------------------------
 (7) _delay                                                2     2      0      46
                                              0 COMMON     2     2      0
 ---------------------------------------------------------------------------------
 Estimated maximum stack depth 7
 ---------------------------------------------------------------------------------

 Call Graph Graphs:

 _main (ROOT)
   _alteraSenhaUser
     _LCD_escreve
       _delay
     _LCD_init
       _LCD_enable
         _delay
       _init
     _LCD_limpa
       _delay
     _Linha2
       _LCD_escreve
       _LCD_linha2
         _delay
       _espacoLivre
         _LCD_escreve
         _LCD_linha2
       _strlen
     _escreveMesagem
       _LCD_escreve
     _rotinaValidaSenha
       _LCD_limpa
       _LCD_linha2
       _escreveMesagem
       _inputSenhaAlter
         _confereTeclado
         _teclado
           _LCD_escreve
           _liga_buzzer
             ___flge
             ___flmul
               __Umul8_16
             ___flsub
               ___fladd
         _valida_senha
           _LCD_escreve
           _LCD_limpa
           _LCD_linha1
             _delay
           _LCD_linha2
           _escreveMesagem

 Address spaces:
Name               Size   Autos  Total    Cost      Usage
BANK3               60      0      55       9       88.5%
BITBANK3            60      0       0       8        0.0%
SFR3                 0      0       0       4        0.0%
BITSFR3              0      0       0       4        0.0%
BANK2               60      0      31      11       51.0%
BITBANK2            60      0       0      10        0.0%
SFR2                 0      0       0       5        0.0%
BITSFR2              0      0       0       5        0.0%
BANK1               50      0      44       7       85.0%
BITBANK1            50      0       0       6        0.0%
SFR1                 0      0       0       2        0.0%
BITSFR1              0      0       0       2        0.0%
BANK0               50     29      4E       5       97.5%
BITBANK0            50      0       0       4        0.0%
SFR0                 0      0       0       1        0.0%
BITSFR0              0      0       0       1        0.0%
COMMON               E      E       E       1      100.0%
BITCOMMON            E      0       0       0        0.0%
CODE                 0      0       0       0        0.0%
DATA                 0      0     126      12        0.0%
ABS                  0      0     126       3        0.0%
NULL                 0      0       0       0        0.0%
STACK                0      0       0       2        0.0%
EEDATA             100      0       0       0        0.0%


Microchip Technology PIC Macro Assembler V2.32 build 20210201212658 
Symbol Table                                                                                   Sun Oct 03 23:55:51 2021

         _msgDigiteNovaSenha 01AE                            pc 0002           ?_rotinaValidaSenha 0070  
    alteraSenhaUser@opConfig 0047                           l63 08F1                           l72 091F  
                         l81 08FF                           l66 0A4B                           l75 092F  
                         l69 0940                           l86 0969                           l78 090F  
                         fsr 0004          __Umul8_16@word_mpld 0076              escreveMesagem@i 0078  
                ?_LCD_enable 0070                          l200 0C7B                          l211 0B3E  
                        l221 0191                          l205 0BCA                          l224 01C6  
                        l217 0D67                          l305 0A82                          l243 03B6  
                        l260 0AFD                          l236 02FE                          l228 0230  
                        l183 0CEB                          l248 045C                          l192 00B7  
                        l265 09C3                          l188 008C                          l801 07B1  
                        l810 0030                          l714 0F45                          l706 0FFF  
                        l724 0F8D                          l574 00D4                          l718 0F6B  
                        l735 0FF1                          l727 0FCD                          l808 001E  
                        l736 0FFF                          l577 0140                          l578 0159  
                        l739 09E7                          l693 0DCB                          l862 09A2  
                        l697 0E74                          l795 0729                          l699 0E49  
                        l789 07BD                          _RA1 0029                          _RB0 0030  
                        _RA3 002B                          _RB1 0031                          _RA4 002C  
                        _RB2 0032                          _RA5 002D                          _RB3 0033  
                ?_LCD_linha1 0070                  ?_LCD_linha2 0070          ??_rotinaValidaSenha 0043  
                        _aux 0068                          fsr0 0004                          indf 0000  
               ___flmul@aexp 002D                 ___flmul@bexp 002E                 ___flmul@sign 0028  
               ___flmul@temp 0033                 ___flmul@prod 002F      __size_of_escreveMesagem 0037  
                       l2100 0DE9                         l2110 0DFD                         l2102 0DED  
                       l2040 0956                         l2200 0F7F                         l2120 0E11  
                       l2112 0E01                         l2104 0DF1                         l2042 095C  
                       l2034 0954                         l2210 0F92                         l2202 0F80  
                       l2130 0E58                         l2114 0E05                         l2106 0DF5  
                       l2122 0E15                         l2050 0D79                         l2300 0474  
                       l2220 0FD2                         l2212 0F97                         l2204 0F84  
                       l2132 0E5A                         l2140 0E6E                         l2124 0E16  
                       l2116 0E09                         l2108 0DF9                         l2060 0D8D  
                       l2052 0D7A                         l2044 0D68                         l2310 0490  
                       l2302 0479                         l2230 0FE9                         l2222 0FD7  
                       l2214 0FA5                         l2206 0F8A                         l2150 0E9D  
                       l2142 0E78                         l2134 0E5E                         l2126 0E2D  
                       l2118 0E0D                         l2070 0DA3                         l2054 0D7F  
                       l2062 0D8F                         l2046 0D6F                         l2240 000D  
                       l2400 0733                         l2320 04A5                         l2312 0496  
                       l2304 0481                         l2232 0FEB                         l2224 0FDF  
                       l2216 0FA9                         l2160 0EB6                         l2152 0EA1  
                       l2144 0E7D                         l2136 0E5F                         l2128 0E4D  
                       l2080 0DB8                         l2072 0DA9                         l2064 0D97  
                       l2056 0D84                         l2048 0D75                         l3200 0C3A  
                       l3210 0985                         l2242 0014                         l2410 0771  
                       l2402 0741                         l2330 04C1                         l2322 04AD  
                       l2314 049A                         l2306 0483                         l2234 0FFA  
                       l2226 0FE4                         l2218 0FC9                         l2170 0F1D  
                       l2162 0EB7                         l2154 0EA5                         l2138 0E6A  
                       l2090 0DD5                         l2082 0DC0                         l2074 0DAD  
                       l2066 0D9C                         l2058 0D8C                         l3202 0C44  
                       l2260 0938                         l2252 0931                         l3212 098A  
                       l2500 0CA0                         l2244 0018                         l2420 07A5  
                       l2412 077C                         l2404 0745                         l2340 0504  
                       l2324 04AF                         l2316 049B                         l2308 048B  
                       l2236 0FFE                         l2228 0FE5                         l2180 0F52  
                       l2172 0F23                         l2164 0EC2                         l2156 0EB0  
                       l2148 0E86                         l2092 0DD9                         l2084 0DC1  
                       l2076 0DAE                         l2068 0DA2                         l3204 0C5A  
                       l3220 0B86                         l2262 093D                         l2254 0935  
                       l3214 0990                         l2502 0CA7                         l2270 00F0  
                       l2246 0027                         l2238 000B                         l2422 07A9  
                       l2414 078B                         l2406 075E                         l2350 058D  
                       l2342 0520                         l2334 04CA                         l2326 04B7  
                       l2318 04A0                         l2190 0F6F                         l2174 0F28  
                       l2158 0EB2                         l2166 0EC7                         l2094 0DDD  
                       l2078 0DB3                         l2086 0DC3                         l2430 0910  
                       l3150 0A4F                         l3206 0C60                         l3230 0BA7  
                       l3222 0B8C                         l2256 0936                         l3216 099A  
                       l3240 0ACD                         l2504 0CAE                         l2512 0CC3  
                       l2280 0158                         l2272 00F4                         l2264 00B8  
                       l2248 002C                         l2424 07AA                         l2416 0795  
                       l2408 0764                         l2360 0600                         l2352 059D  
                       l2344 054C                         l2336 04DA                         l2328 04BC  
                       l2192 0F72                         l2184 0F5B                         l2168 0EDD  
                       l2176 0F37                         l2096 0DE1                         l2088 0DD1  
                       l2600 0224                         l2440 091C                         l2432 0914  
                       l3152 0A66                         l3160 0042                         l3208 0C6D  
                       l3232 0BB3                         l3224 0B91                         l2258 0937  
                       l3242 0AD7                         l2506 0CB5                         l2514 0CE8  
                       l2274 0118                         l2266 00CC                         l2426 07B5  
                       l2418 0797                         l2370 06AD                         l2362 061D  
                       l2354 05BA                         l2346 0568                         l2338 04E7  
                       l2290 045D                         l2194 0F74                         l2186 0F66  
                       l2178 0F4D                         l2098 0DE5                         l2610 0253  
                       l2602 022C                         l2434 0915                         l2450 0927  
                       l2442 0920                         l3154 0A6C                         l3170 006F  
                       l3162 004B                         l3234 0BBC                         l3226 0B99  
                       l3250 0B08                         l2460 0906                         l3244 0ADD  
                       l3236 0AC0                         l2508 0CBC                         l2276 011C  
                       l2268 00E8                         l2380 06F9                         l2372 06D5  
                       l2364 064A                         l2356 05CA                         l2348 0584  
                       l2292 0464                         l2196 0F79                         l2188 0F6A  
                       l2284 09C4                         l2700 03E1                         l2620 0277  
                       l2612 0259                         l2604 0232                         l2436 0916  
                       l2452 092C                         l2444 0924                         l3148 0A4C  
                       l3180 0094                         l3172 007D                         l3164 005B  
                       l3156 0034                         l3228 0BA2                         l3260 0B2A  
                       l3252 0B11                         l2462 0907                         l2454 0900  
                       l3246 0AF8                         l3238 0ACA                         l2278 0156  
                       l2390 070E                         l2382 06FA                         l2374 06DE  
                       l2366 065A                         l2358 05E7                         l2294 046A  
                       l2198 0F7B                         l2286 09C8                         l2710 0410  
                       l2702 03E7                         l2630 029C                         l2622 0286  
                       l2614 0261                         l2606 0236                         l2438 0917  
                       l2446 0925                         l3174 0083                         l3182 009A  
                       l3166 0061                         l3158 0038                         l3262 0B2B  
                       l3254 0B16                         l3270 0A83                         l2800 0A3D  
                       l2464 090C                         l2456 0904                         l2392 0712  
                       l2384 0703                         l2376 06EC                         l2368 0687  
                       l2296 046E                         l2480 0D1C                         l2720 0447  
                       l2712 041E                         l2704 03F5                         l2632 02AA  
                       l2640 02CB                         l2624 028C                         l2608 0244  
                       l2616 0265                         l2560 0172                         l2448 0926  
                       l3184 00A3                         l3176 0085                         l3168 006A  
                       l3264 0B32                         l3256 0B1E                         l3248 0AFE  
                       l3280 0A96                         l3272 0A87                         l2730 08F0  
                       l2802 0A42                         l2458 0905                         l2490 0C7D  
                       l2394 0726                         l2378 06F5                         l2386 0709  
                       l2298 046F                         l2482 0D27                         l2474 0CEC  
                       l2722 0456                         l2714 042D                         l2706 0404  
                       l2650 02FA                         l2642 02CF                         l2634 02B9  
                       l2626 0294                         l2618 0269                         l2570 0197  
                       l2562 0181                         l2554 015A                         l3178 0090  
                       l3194 0C25                         l3266 0B38                         l3258 0B24  
                       l3290 0AA7                         l3274 0A89                         l2732 08F2  
                       l2724 08E6                         l2804 0A46                         l2492 0C84  
                       l2388 070D                         l2484 0D48                         l2476 0D0D  
                       l2716 0433                         l2708 040A                         l2660 0327  
                       l2652 0300                         l2644 02DD                         l2636 02BF  
                       l2628 0298                         l2572 01A5                         l2580 01CA  
                       l2564 0187                         l2556 0160                         l3196 0C2C  
                       l3188 0C23                         l3268 0B3E                         l3284 0A9D  
                       l3292 0AB4                         l3276 0A8D                         l2734 08F7  
                       l2726 08EA                         l2494 0C8B                         l2398 072E  
                       l2486 0D63                         l2478 0D19                         l2718 0439  
                       l2670 0354                         l2662 032F                         l2654 0304  
                       l2646 02EC                         l2638 02C7                         l2590 01F9  
                       l2582 01CE                         l2574 01B4                         l2566 018F  
                       l2558 0164                         l3198 0C31                         l3526 0AAC  
                       l3278 0A91                         l2736 08FC                         l2728 08ED  
                       l3528 0CC8                         l2496 0C92                         l2488 0C7C  
                       l2680 0378                         l2672 035A                         l2656 0312  
                       l2664 0333                         l2648 02F2                         l2584 01DC  
                       l2592 01FD                         l2576 01BA                         l2568 0193  
                       l2770 09A3                         l2498 0C99                         l2690 03B0  
                       l2682 0387                         l2674 0362                         l2666 0337  
                       l2658 0321                         l2594 0201                         l2586 01EB  
                       l2578 01C2                         l2780 09B0                         l2772 09A8  
                       l2692 03BA                         l2684 038D                         l2668 0345  
                       l2676 0366                         l2596 020F                         l2588 01F1  
                       l2790 0A27                         l2782 09B6                         l2694 03BE  
                       l2686 0393                         l2678 036A                         l2598 021E  
                       l2792 0A2B                         l2784 0A19                         l2696 03CC  
                       l2688 03A1                         l2794 0A30                         l2786 0A1E  
                       l2778 09AA                         l2698 03DB                         l2796 0A34  
                       l2788 0A22                         l2798 0A39                         u2000 0FD2  
                       u2001 0FD1                         u2010 0FD7                         u2011 0FD6  
                       u2100 00F4                         u2020 0FE4                         u2101 00F3  
                       u2021 0FE3                         u2030 0FE9                         u2111 0103  
                       u2031 0FE8                         u2120 011C                         u2112 0104  
                       u2200 04A5                         u2040 0FFE                         u2121 011B  
                       u2113 0109                         u2201 04A4                         u2041 0FFD  
                       u2114 010A                         u2050 0018                         u2210 04BC  
                       u2131 012B                         u2115 010F                         u2051 0017  
                       u2211 04BB                         u2140 0156                         u2132 012C  
                       u2116 0110                         u2220 04C1                         u2141 0155  
                       u2133 0131                         u2221 04C0                         u2134 0132  
                       u2070 002C                         u2150 046E                         u2135 0137  
                       u2071 002B                         u2311 060F                         u2231 0512  
                       u2151 046D                         u2136 0138                         u2080 00CC  
                       u2400 06F9                         u2312 0616                         u2232 0519  
                       u2160 0474                         u1600 0D7F                         u2145 0152  
                       u2081 00CB                         u2065 001F                         u2401 06F8  
                       u2321 063C                         u2313 061D                         u2305 05E9  
                       u2241 052E                         u2233 0520                         u2161 0473  
                       u1601 0D7E                         u2090 00E8                         u2322 0643  
                       u2242 0535                         u2170 0479                         u1610 0D84  
                       u3210 0A59                         u2091 00E7                         u2331 0669  
                       u2323 064A                         u2251 055A                         u2243 053C  
                       u2171 0478                         u1611 0D83                         u2500 078B  
                       u2420 070D                         u2340 0693                         u2332 0670  
                       u2252 0561                         u2180 049A                         u1700 0E37  
                       u1620 0DA2                         u3220 0A76                         u3300 0B99  
                       u2501 078A                         u2421 070C                         u2333 0677  
                       u2261 0576                         u2253 0568                         u2181 0499  
                       u1621 0DA1                         u3301 0B98                         u3310 0AF8  
                       u2510 07A9                         u2430 0712                         u2262 057D  
                       u2190 04A0                         u1710 0E4D                         u1630 0DAD  
                       u3230 0A82                         u3311 0AF7                         u2511 07A8  
                       u2431 0711                         u2415 06FC                         u2351 069F  
                       u2263 0584                         u2191 049F                         u1711 0E4C  
                       u1631 0DAC                         u3231 0A81                         u2440 0726  
                       u2360 06BB                         u2352 06A6                         u1800 0EB6  
                       u1720 0E5E                         u1640 0DB3                         u2600 018F  
                       u3240 0083                         u3320 0B1E                         u2505 0787  
                       u2441 0725                         u2353 06AD                         u2345 068E  
                       u2281 05AC                         u1801 0EB5                         u1721 0E5D  
                       u1641 0DB2                         u2601 018E                         u3241 0082  
                       u3321 0B1D                         u2450 072D                         u2282 05B3  
                       u1650 0DB8                         u2610 0197                         u3250 0090  
                       u3330 0B32                         u3315 0AF4                         u2451 072C  
                       u2371 06C7                         u2291 05D9                         u2283 05BA  
                       u2275 0586                         u1651 0DB7                         u2611 0196  
                       u3251 008F                         u3331 0B31                         u1580 0969  
                       u2460 0733                         u2372 06CE                         u2292 05E0  
                       u1900 0F6F                         u1820 0EDD                         u1740 0E74  
                       u1660 0DD1                         u2700 0294                         u2620 01C2  
                       u3260 00A3                         u3340 0A9C                         u1581 0968  
                       u2461 0732                         u2373 06D5                         u2365 06B6  
                       u2293 05E7                         u1901 0F6E                         u1821 0EDC  
                       u1741 0E73                         u1661 0DD0                         u2701 0293  
                       u2621 01C1                         u3261 00A2                         u3341 0A9B  
                       u2470 0745                         u1910 0F79                         u1750 0E78  
                       u1670 0DD5                         u1590 0D79                         u2550 0D63  
                       u2710 029C                         u2630 01CE                         u3270 0C3A  
                       u3350 0ABC                         u2471 0744                         u1911 0F78  
                       u1831 0EF6                         u1823 0ED9                         u1815 0EBB  
                       u1751 0E77                         u1735 0E63                         u1671 0DD4  
                       u1591 0D78                         u2551 0D62                         u2711 029B  
                       u2631 01CD                         u3271 0C39                         u3351 0ABB  
                       u2480 0754                         u1920 0F7F                         u1840 0F0A  
                       u1832 0EF7                         u1760 0E7D                         u1680 0E2D  
                       u2800 0393                         u2720 02C7                         u2640 01F9  
                       u3280 0C6D                         u1585 0965                         u2385 06D7  
                       u1921 0F7E                         u1841 0F0B                         u1833 0EFC  
                       u1761 0E7C                         u1681 0E2C                         u2801 0392  
                       u2721 02C6                         u2641 01F8                         u3281 0C6C  
                       u3290 099A                         u2490 0771                         u1930 0F84  
                       u1850 0F28                         u1842 0F10                         u1834 0EFD  
                       u1690 0E36                         u2810 03BE                         u2730 02CF  
                       u2650 0201                         u3291 0999                         u2491 0770  
                       u2395 06EE                         u1931 0F83                         u1851 0F27  
                       u1843 0F11                         u1835 0F02                         u1771 0E8F  
                       u1691 0E34                         u2811 03BD                         u2731 02CE  
                       u2651 0200                         u1940 0F8A                         u1860 0F4D  
                       u1836 0F03                         u1780 0EA1                         u1772 0E96  
                       u2820 03E7                         u2740 02FA                         u2660 022C  
                       u2485 074F                         u1941 0F89                         u1861 0F4C  
                       u1781 0EA0                         u1773 0E9D                         u1685 0E29  
                       u2821 03E6                         u2741 02F9                         u2661 022B  
                       u3285 0C69                         u1950 0F91                         u1870 0F52  
                       u1790 0EA5                         u2830 0410                         u2750 0304  
                       u2670 0236                         u2590 0164                         u2495 076D  
                       u1951 0F90                         u1871 0F51                         u1791 0EA4  
                       u2831 040F                         u2751 0303                         u2671 0235  
                       u3607 019F                         u2591 0163                         u1960 0F97  
                       u2840 0439                         u2760 032F                         u2680 0261  
                       u1961 0F96                         u2841 0438                         u2761 032E  
                       u2681 0260                         u3617 01D6                         u1970 0FA9  
                       u1890 0F6A                         u2770 0337                         u2690 0269  
                       u1971 0FA8                         u1891 0F69                         u3707 039B  
                       u2771 0336                         u2691 0268                         u3627 0209  
                       u1980 0FBA                         u2780 0362                         u1885 0F5F  
                       u3717 03C6                         u2781 0361                         u3637 023E  
                       u3557 0BC4                         u1990 0FC9                         u2790 036A  
                       u1991 0FC8                         u3727 03EF                         u2791 0369  
                       u3647 0271                         u3567 0C40                         u2880 09C3  
                       u2881 09C2                         u1985 0FB5                         u3737 0418  
                       u3657 02A4                         u3577 0077                         u3747 0441  
                       u3667 02D7                         u3587 00AB                         u2885 09BF  
                       u3757 0D13                         u3677 030C                         u3597 016C  
                       u3767 0D22                         u3687 033F                         u3697 0372  
               ?_LCD_escreve 0070                         _main 0A83                         _init 08E6  
                       _menu 004D                 ?_liga_buzzer 0035                         btemp 007E  
               ?_espacoLivre 0070             _senhaUserConfere 005A    __end_of_rotinaValidaSenha 0BCB  
                       start 0000           __size_of_LCD_limpa 0010             __end_of_LCD_init 0A4C  
            __end_of___fladd 1000                        ?_main 0070                        ?_init 0070  
            __end_of___flmul 07BE              __end_of___flsub 09E8                        _PORTB 0006  
                      _PORTD 0008                        _PORTE 0009                        _TRISA 0085  
                      _TRISB 0086                        _TRISD 0088                        _TRISE 0089  
                      _delay 0954                        _input 0053              __end_of_teclado 045D  
                      pclath 000A                        status 0003                        wtemp0 007E  
           ?_inputSenhaAlter 0070          __size_of_LCD_enable 000E          __size_of_LCD_linha1 0010  
        __size_of_LCD_linha2 0010              __initialization 07BE                 __end_of_main 0AC0  
               __end_of_init 08F2                       ??_main 007E                       ??_init 0070  
            _msgAceitoOuNego 00CD            __end_of_LCD_limpa 0920              _alteraSenhaUser 0AFE  
                     ?_delay 0070                       _ADCON0 001F                       _ADCON1 009F  
                     _ADRESH 001E                       _ADRESL 009E   __size_of_rotinaValidaSenha 0048  
                     _Linha2 0AC0                       ___flge 00B8                    ??___fladd 0020  
                  ??___flmul 0079                    ??___flsub 007C            _msgSenhaCancelada 0131  
                     _painel 0051                       delay@i 0070                       _strlen 0985  
           ??_confereTeclado 0072           __size_of__Umul8_16 0027                    ??_teclado 003B  
             _escreveMesagem 0A4C                   ___flge@ff1 0070                   ___flge@ff2 0074  
    __end_of__initialization 07FC                    ?_LCD_init 0070         __size_of_LCD_escreve 0011  
               LCD_escreve@x 0072         __size_of_liga_buzzer 007C         __size_of_espacoLivre 0021  
             __pcstackCOMMON 0070                 __pidataBANK0 096A                 __pidataBANK1 0B3F  
               __pidataBANK2 09E8                 __pidataBANK3 0BCB                __end_of_delay 096A  
    __end_of_alteraSenhaUser 0B3F                 ??_LCD_enable 0072                 ??_LCD_linha1 0072  
               ??_LCD_linha2 0072       __end_of_escreveMesagem 0A83                 espacoLivre@i 0073  
                    ??_delay 0070     rotinaValidaSenha@senhaOp 0046                   __pbssBANK0 0064  
        escreveMesagem@texto 0073                   ??_LCD_init 0072                      ?_Linha2 0070  
         __end_of_LCD_enable 0900            __end_of__Umul8_16 0031           __end_of_LCD_linha1 0930  
         __end_of_LCD_linha2 0910                   __pmaintext 0A83                      ?___flge 0070  
       confereTeclado@numero 0070                      ?_strlen 0070              ?_escreveMesagem 0073  
                    Linha2@i 0077                ?_valida_senha 007A     liga_buzzer@tempoSegundos 0035  
            __size_of_Linha2 003E              __size_of___flge 00A2           valida_senha@aceito 0024  
                    ___fladd 0D68                      ___flmul 045D                      ___flsub 09C4  
                    __ptext1 0AFE                      __ptext2 0B83                      __ptext3 0C20  
                    __ptext4 0031                      __ptext5 0A4C                      __ptext6 0920  
                    __ptext7 0910                      __ptext8 015A                      __ptext9 0CEC  
           ?_alteraSenhaUser 0047              __size_of_strlen 001E                   _msgMascara 0055  
                    _teclado 015A         end_of_initialization 07FC               ??_valida_senha 0020  
                  _LCD_limpa 0910     __size_of_inputSenhaAlter 005C                      strlen@s 0070  
                ___fladd@grs 007B           _msgSenhaAtualizada 0110                   ?_LCD_limpa 0070  
                ___flmul@grs 0029            __size_of_LCD_init 0033               __end_of_Linha2 0AFE  
             __end_of___flge 015A               __end_of_strlen 09A3          start_initialization 07BE  
             _valorSensorAux 0064                ??_LCD_escreve 0072                ??_liga_buzzer 0039  
              ??_espacoLivre 0073                     ??_Linha2 0075                     ??___flge 0078  
                 init_fetch0 0941                    __Umul8_16 000A                  __pdataBANK0 0049  
                __pdataBANK1 00A0                  __pdataBANK2 0110                  __pdataBANK3 0190  
           ??_escreveMesagem 0075         __end_of_valida_senha 00B8                     ??_strlen 0072  
                  ___fladd@a 0074                    ___fladd@b 0070            ??_inputSenhaAlter 003E  
                  ___flmul@a 0024                    ___flmul@b 0020                    ___flsub@a 0028  
                  ___flsub@b 002C                    ___latbits 0002                __pcstackBANK0 0020  
                ??_LCD_limpa 0072             inputSenhaAlter@i 0041      __size_of_confereTeclado 0070  
                  __pnvBANK0 006C          __end_of_LCD_escreve 0941          __end_of_liga_buzzer 0D68  
                   ?___fladd 0070          __end_of_espacoLivre 09C4                     ?___flmul 0020  
                   ?___flsub 0028                   ?__Umul8_16 0070               _msgDigiteSenha 0190  
                  _auxSensor 0049  inputSenhaAlter@senhaDestino 0040                     ?_teclado 0070  
                _alteraSenha 004B               __size_of_delay 0016            valida_senha@texto 0023  
                   _LCD_init 0A19                    _senhaUser 005F                     _GO_nDONE 00FA  
                  _userFalse 004F     __size_of_alteraSenhaUser 0041                  _LCD_escreve 0930  
                _liga_buzzer 0CEC                  _espacoLivre 09A3             _msgDesativarZona 019F  
      __size_of_valida_senha 0087                  ??__Umul8_16 0072             __size_of___fladd 0298  
            _msgSenhaDisparo 01BC             __size_of___flmul 0361             __size_of___flsub 0024  
            _msgSenhaCorreta 01CA              _msgSenhaUsuario 00A5             __size_of_teclado 0303  
                   __ptext10 09C4                     __ptext11 0D68                     __ptext20 0930  
                   __ptext12 045D                     __ptext21 0A19                     __ptext13 000A  
                   __ptext22 08E6                     __ptext14 00B8                     __ptext23 08F2  
                   __ptext15 0C7C                     __ptext24 0954                     __ptext16 0AC0  
                   __ptext17 0985                     __ptext18 09A3                     __ptext19 0900  
                   _opConfig 006C                 _valida_senha 0031               _confereTeclado 0C7C  
              __size_of_main 003D                __size_of_init 000C                  _msgReativar 00D6  
                   _senhaCoa 00A0              _inputSenhaAlter 0C20                   _LCD_enable 08F2  
                 _LCD_linha1 0920                   _LCD_linha2 0900                  _senhaConfig 00DF  
                   init_ram0 0945               _msgSenhaCoacao 00B3               _msgSenhaConfig 00C0  
             _msgSenhaErrada 01D8       __end_of_confereTeclado 0CEC                  _validaSenha 006A  
          ??_alteraSenhaUser 007E               _msgValidaSenha 0121                  _valorSensor 0066  
     __Umul8_16@multiplicand 0070                     strlen@cp 0072                ___fladd@signs 0078  
            ?_confereTeclado 0070                 ___fladd@aexp 0079                 ___fladd@bexp 007A  
       __Umul8_16@multiplier 0078      __end_of_inputSenhaAlter 0C7C            __Umul8_16@product 0074  
          _rotinaValidaSenha 0B83  
