

Microchip MPLAB XC8 Assembler V2.32 build 20210201212658 
                                                                                               Mon Oct 04 04:50:08 2021

Microchip MPLAB XC8 C Compiler v2.32 (Free license) build 20210201212658 Og1 
     1                           	processor	16F877A
     2                           	pagewidth 120
     3                           	opt	flic
     4                           	psect	idataBANK0,global,class=CODE,delta=2,noexec
     5                           	psect	idataBANK1,global,class=CODE,delta=2,noexec
     6                           	psect	idataBANK2,global,class=CODE,delta=2,noexec
     7                           	psect	idataBANK3,global,class=CODE,delta=2,noexec
     8                           	psect	cinit,global,class=CODE,merge=1,delta=2
     9                           	psect	bssBANK0,global,class=BANK0,space=1,delta=1,noexec
    10                           	psect	dataBANK0,global,class=BANK0,space=1,delta=1,noexec
    11                           	psect	dataBANK1,global,class=BANK1,space=1,delta=1,noexec
    12                           	psect	dataBANK3,global,class=BANK3,space=1,delta=1,noexec
    13                           	psect	dataBANK2,global,class=BANK2,space=1,delta=1,noexec
    14                           	psect	inittext,global,class=CODE,delta=2
    15                           	psect	cstackCOMMON,global,class=COMMON,space=1,delta=1,noexec
    16                           	psect	cstackBANK0,global,class=BANK0,space=1,delta=1,noexec
    17                           	psect	maintext,global,class=CODE,split=1,delta=2
    18                           	psect	text1,local,class=CODE,merge=1,delta=2
    19                           	psect	text2,local,class=CODE,merge=1,delta=2
    20                           	psect	text3,local,class=CODE,merge=1,delta=2,group=2
    21                           	psect	text4,local,class=CODE,merge=1,delta=2
    22                           	psect	text5,local,class=CODE,merge=1,delta=2
    23                           	psect	text6,local,class=CODE,merge=1,delta=2
    24                           	psect	text7,local,class=CODE,merge=1,delta=2
    25                           	psect	text8,local,class=CODE,merge=1,delta=2
    26                           	psect	text9,local,class=CODE,merge=1,delta=2
    27                           	psect	text10,local,class=CODE,merge=1,delta=2
    28                           	psect	text11,local,class=CODE,merge=1,delta=2
    29                           	psect	text12,local,class=CODE,merge=1,delta=2
    30                           	psect	text13,local,class=CODE,merge=1,delta=2
    31                           	psect	text14,local,class=CODE,merge=1,delta=2
    32                           	psect	text15,local,class=CODE,merge=1,delta=2
    33                           	psect	text16,local,class=CODE,merge=1,delta=2
    34                           	psect	text17,local,class=CODE,merge=1,delta=2
    35                           	psect	text18,local,class=CODE,merge=1,delta=2
    36                           	psect	text19,local,class=CODE,merge=1,delta=2,group=1
    37                           	psect	text20,local,class=CODE,merge=1,delta=2,group=1
    38                           	psect	text21,local,class=CODE,merge=1,delta=2,group=1
    39                           	psect	text22,local,class=CODE,merge=1,delta=2,group=1
    40                           	psect	text23,local,class=CODE,merge=1,delta=2,group=1
    41                           	psect	text24,local,class=CODE,merge=1,delta=2
    42                           	psect	text25,local,class=CODE,merge=1,delta=2
    43                           	psect	text26,local,class=CODE,merge=1,delta=2,group=2
    44                           	psect	text27,local,class=CODE,merge=1,delta=2
    45                           	psect	text28,local,class=CODE,merge=1,delta=2
    46                           	psect	text29,local,class=CODE,merge=1,delta=2
    47                           	psect	text30,local,class=CODE,merge=1,delta=2
    48                           	psect	text31,local,class=CODE,merge=1,delta=2
    49                           	psect	text32,local,class=CODE,merge=1,delta=2
    50                           	psect	text33,local,class=CODE,merge=1,delta=2
    51                           	dabs	1,0x7E,2
    52  0000                     
    53                           ; Version 2.20
    54                           ; Generated 12/02/2020 GMT
    55                           ; 
    56                           ; Copyright © 2020, Microchip Technology Inc. and its subsidiaries ("Microchip")
    57                           ; All rights reserved.
    58                           ; 
    59                           ; This software is developed by Microchip Technology Inc. and its subsidiaries ("Microch
      +                          ip").
    60                           ; 
    61                           ; Redistribution and use in source and binary forms, with or without modification, are
    62                           ; permitted provided that the following conditions are met:
    63                           ; 
    64                           ;     1. Redistributions of source code must retain the above copyright notice, this lis
      +                          t of
    65                           ;        conditions and the following disclaimer.
    66                           ; 
    67                           ;     2. Redistributions in binary form must reproduce the above copyright notice, this 
      +                          list
    68                           ;        of conditions and the following disclaimer in the documentation and/or other
    69                           ;        materials provided with the distribution.
    70                           ; 
    71                           ;     3. Microchip's name may not be used to endorse or promote products derived from th
      +                          is
    72                           ;        software without specific prior written permission.
    73                           ; 
    74                           ; THIS SOFTWARE IS PROVIDED BY MICROCHIP "AS IS" AND ANY EXPRESS OR IMPLIED WARRANTIES,
    75                           ; INCLUDING, BUT NOT LIMITED TO, THE IMPLIED WARRANTIES OF MERCHANTABILITY AND FITNESS F
      +                          OR
    76                           ; PURPOSE ARE DISCLAIMED.  IN NO EVENT SHALL MICROCHIP BE LIABLE FOR ANY DIRECT, INDIREC
      +                          T,
    77                           ; INCIDENTAL, SPECIAL, EXEMPLARY, OR CONSEQUENTIAL DAMAGES (INCLUDING BUT NOT LIMITED TO
    78                           ; PROCUREMENT OF SUBSTITUTE GOODS OR SERVICES; LOSS OF USE, DATA OR PROFITS; OR BUSINESS
    79                           ; INTERRUPTION) HOWSOEVER CAUSED AND ON ANY THEORY OF LIABILITY, WHETHER IN CONTRACT, ST
      +                          RICT
    80                           ; LIABILITY, OR TORT (INCLUDING NEGLIGENCE OR OTHERWISE) ARISING IN ANY WAY OUT OF THE U
      +                          SE OF
    81                           ; THIS SOFTWARE, EVEN IF ADVISED OF THE POSSIBILITY OF SUCH DAMAGE.
    82                           ; 
    83                           ; 
    84                           ; Code-generator required, PIC16F877A Definitions
    85                           ; 
    86                           ; SFR Addresses
    87  0000                     	;# 
    88  0001                     	;# 
    89  0002                     	;# 
    90  0003                     	;# 
    91  0004                     	;# 
    92  0005                     	;# 
    93  0006                     	;# 
    94  0007                     	;# 
    95  0008                     	;# 
    96  0009                     	;# 
    97  000A                     	;# 
    98  000B                     	;# 
    99  000C                     	;# 
   100  000D                     	;# 
   101  000E                     	;# 
   102  000E                     	;# 
   103  000F                     	;# 
   104  0010                     	;# 
   105  0011                     	;# 
   106  0012                     	;# 
   107  0013                     	;# 
   108  0014                     	;# 
   109  0015                     	;# 
   110  0015                     	;# 
   111  0016                     	;# 
   112  0017                     	;# 
   113  0018                     	;# 
   114  0019                     	;# 
   115  001A                     	;# 
   116  001B                     	;# 
   117  001B                     	;# 
   118  001C                     	;# 
   119  001D                     	;# 
   120  001E                     	;# 
   121  001F                     	;# 
   122  0081                     	;# 
   123  0085                     	;# 
   124  0086                     	;# 
   125  0087                     	;# 
   126  0088                     	;# 
   127  0089                     	;# 
   128  008C                     	;# 
   129  008D                     	;# 
   130  008E                     	;# 
   131  0091                     	;# 
   132  0092                     	;# 
   133  0093                     	;# 
   134  0094                     	;# 
   135  0098                     	;# 
   136  0099                     	;# 
   137  009C                     	;# 
   138  009D                     	;# 
   139  009E                     	;# 
   140  009F                     	;# 
   141  010C                     	;# 
   142  010D                     	;# 
   143  010E                     	;# 
   144  010F                     	;# 
   145  018C                     	;# 
   146  018D                     	;# 
   147  0000                     	;# 
   148  0001                     	;# 
   149  0002                     	;# 
   150  0003                     	;# 
   151  0004                     	;# 
   152  0005                     	;# 
   153  0006                     	;# 
   154  0007                     	;# 
   155  0008                     	;# 
   156  0009                     	;# 
   157  000A                     	;# 
   158  000B                     	;# 
   159  000C                     	;# 
   160  000D                     	;# 
   161  000E                     	;# 
   162  000E                     	;# 
   163  000F                     	;# 
   164  0010                     	;# 
   165  0011                     	;# 
   166  0012                     	;# 
   167  0013                     	;# 
   168  0014                     	;# 
   169  0015                     	;# 
   170  0015                     	;# 
   171  0016                     	;# 
   172  0017                     	;# 
   173  0018                     	;# 
   174  0019                     	;# 
   175  001A                     	;# 
   176  001B                     	;# 
   177  001B                     	;# 
   178  001C                     	;# 
   179  001D                     	;# 
   180  001E                     	;# 
   181  001F                     	;# 
   182  0081                     	;# 
   183  0085                     	;# 
   184  0086                     	;# 
   185  0087                     	;# 
   186  0088                     	;# 
   187  0089                     	;# 
   188  008C                     	;# 
   189  008D                     	;# 
   190  008E                     	;# 
   191  0091                     	;# 
   192  0092                     	;# 
   193  0093                     	;# 
   194  0094                     	;# 
   195  0098                     	;# 
   196  0099                     	;# 
   197  009C                     	;# 
   198  009D                     	;# 
   199  009E                     	;# 
   200  009F                     	;# 
   201  010C                     	;# 
   202  010D                     	;# 
   203  010E                     	;# 
   204  010F                     	;# 
   205  018C                     	;# 
   206  018D                     	;# 
   207                           
   208                           	psect	idataBANK0
   209  12E3                     __pidataBANK0:
   210                           
   211                           ;initializer for _auxSensor
   212  12E3  34CC               	retlw	204
   213  12E4  3400               	retlw	0
   214                           
   215                           ;initializer for _menu
   216  12E5  3401               	retlw	1
   217  12E6  3400               	retlw	0
   218                           
   219                           ;initializer for _userFalse
   220  12E7  3401               	retlw	1
   221  12E8  3400               	retlw	0
   222                           
   223                           ;initializer for _painel
   224  12E9  3401               	retlw	1
   225  12EA  3400               	retlw	0
   226                           
   227                           ;initializer for _input
   228  12EB  340A               	retlw	10
   229  12EC  3400               	retlw	0
   230                           
   231                           ;initializer for _zonaConfig
   232  12ED  3401               	retlw	1
   233  12EE  3400               	retlw	0
   234                           
   235                           ;initializer for _senhaUserConfere
   236  12EF  3430               	retlw	48
   237  12F0  3430               	retlw	48
   238  12F1  3430               	retlw	48
   239  12F2  3430               	retlw	48
   240  12F3  3400               	retlw	0
   241                           
   242                           ;initializer for _senhaUser
   243  12F4  3431               	retlw	49
   244  12F5  3432               	retlw	50
   245  12F6  3431               	retlw	49
   246  12F7  3432               	retlw	50
   247  12F8  3400               	retlw	0
   248                           
   249                           	psect	idataBANK1
   250  153B                     __pidataBANK1:
   251                           
   252                           ;initializer for _msgZonaDisparadas
   253  153B  3420               	retlw	32
   254  153C  3420               	retlw	32
   255  153D  3420               	retlw	32
   256  153E  3420               	retlw	32
   257  153F  3420               	retlw	32
   258  1540  3420               	retlw	32
   259  1541  3420               	retlw	32
   260  1542  3431               	retlw	49
   261  1543  3420               	retlw	32
   262  1544  3431               	retlw	49
   263  1545  3420               	retlw	32
   264  1546  3431               	retlw	49
   265  1547  3420               	retlw	32
   266  1548  3431               	retlw	49
   267  1549  3400               	retlw	0
   268                           
   269                           ;initializer for _msgConfigDispara
   270  154A  3420               	retlw	32
   271  154B  345A               	retlw	90
   272  154C  346F               	retlw	111
   273  154D  346E               	retlw	110
   274  154E  3461               	retlw	97
   275  154F  343A               	retlw	58
   276  1550  3420               	retlw	32
   277  1551  3431               	retlw	49
   278  1552  3420               	retlw	32
   279  1553  3432               	retlw	50
   280  1554  3420               	retlw	32
   281  1555  3433               	retlw	51
   282  1556  3420               	retlw	32
   283  1557  3434               	retlw	52
   284  1558  3400               	retlw	0
   285                           
   286                           ;initializer for _msgChamaAjuda
   287  1559  3453               	retlw	83
   288  155A  3461               	retlw	97
   289  155B  3469               	retlw	105
   290  155C  3420               	retlw	32
   291  155D  3452               	retlw	82
   292  155E  3461               	retlw	97
   293  155F  3474               	retlw	116
   294  1560  3461               	retlw	97
   295  1561  346F               	retlw	111
   296  1562  3400               	retlw	0
   297                           
   298                           ;initializer for _msgAceitoOuNego
   299  1563  3444               	retlw	68
   300  1564  3469               	retlw	105
   301  1565  3467               	retlw	103
   302  1566  3469               	retlw	105
   303  1567  3474               	retlw	116
   304  1568  3465               	retlw	101
   305  1569  343A               	retlw	58
   306  156A  3420               	retlw	32
   307  156B  3400               	retlw	0
   308                           
   309                           ;initializer for _msgReativar
   310  156C  3452               	retlw	82
   311  156D  3465               	retlw	101
   312  156E  3461               	retlw	97
   313  156F  3474               	retlw	116
   314  1570  3469               	retlw	105
   315  1571  3476               	retlw	118
   316  1572  3461               	retlw	97
   317  1573  3472               	retlw	114
   318  1574  3400               	retlw	0
   319                           
   320                           ;initializer for _msgMascara
   321  1575  345F               	retlw	95
   322  1576  345F               	retlw	95
   323  1577  345F               	retlw	95
   324  1578  345F               	retlw	95
   325  1579  3400               	retlw	0
   326                           
   327                           ;initializer for _senhaConfig
   328  157A  3430               	retlw	48
   329  157B  3430               	retlw	48
   330  157C  3430               	retlw	48
   331  157D  3430               	retlw	48
   332  157E  3400               	retlw	0
   333                           
   334                           ;initializer for _senhaCoa
   335  157F  3435               	retlw	53
   336  1580  3435               	retlw	53
   337  1581  3435               	retlw	53
   338  1582  3435               	retlw	53
   339  1583  3400               	retlw	0
   340                           
   341                           	psect	idataBANK2
   342  0809                     __pidataBANK2:
   343                           
   344                           ;initializer for _msgSenhaAtualizada
   345  0809  3453               	retlw	83
   346  080A  3465               	retlw	101
   347  080B  346E               	retlw	110
   348  080C  3468               	retlw	104
   349  080D  3461               	retlw	97
   350  080E  3420               	retlw	32
   351  080F  3441               	retlw	65
   352  0810  3474               	retlw	116
   353  0811  3475               	retlw	117
   354  0812  3461               	retlw	97
   355  0813  346C               	retlw	108
   356  0814  3469               	retlw	105
   357  0815  347A               	retlw	122
   358  0816  3461               	retlw	97
   359  0817  3464               	retlw	100
   360  0818  3461               	retlw	97
   361  0819  3400               	retlw	0
   362                           
   363                           ;initializer for _msgValidaSenha
   364  081A  344F               	retlw	79
   365  081B  346B               	retlw	107
   366  081C  343A               	retlw	58
   367  081D  3446               	retlw	70
   368  081E  3420               	retlw	32
   369  081F  346F               	retlw	111
   370  0820  3475               	retlw	117
   371  0821  3420               	retlw	32
   372  0822  344E               	retlw	78
   373  0823  3465               	retlw	101
   374  0824  3467               	retlw	103
   375  0825  3461               	retlw	97
   376  0826  3472               	retlw	114
   377  0827  343A               	retlw	58
   378  0828  3445               	retlw	69
   379  0829  3400               	retlw	0
   380                           
   381                           ;initializer for _msgSenhaCancelada
   382  082A  3453               	retlw	83
   383  082B  3465               	retlw	101
   384  082C  346E               	retlw	110
   385  082D  3468               	retlw	104
   386  082E  3461               	retlw	97
   387  082F  3420               	retlw	32
   388  0830  3463               	retlw	99
   389  0831  3461               	retlw	97
   390  0832  346E               	retlw	110
   391  0833  3463               	retlw	99
   392  0834  3465               	retlw	101
   393  0835  346C               	retlw	108
   394  0836  3461               	retlw	97
   395  0837  3464               	retlw	100
   396  0838  3461               	retlw	97
   397  0839  3400               	retlw	0
   398                           
   399                           ;initializer for _msgDigiteSenha
   400  083A  3444               	retlw	68
   401  083B  3469               	retlw	105
   402  083C  3467               	retlw	103
   403  083D  3469               	retlw	105
   404  083E  3474               	retlw	116
   405  083F  3465               	retlw	101
   406  0840  3420               	retlw	32
   407  0841  3461               	retlw	97
   408  0842  3420               	retlw	32
   409  0843  3473               	retlw	115
   410  0844  3465               	retlw	101
   411  0845  346E               	retlw	110
   412  0846  3468               	retlw	104
   413  0847  3461               	retlw	97
   414  0848  3400               	retlw	0
   415                           
   416                           ;initializer for _msgDigiteNovaSenha
   417  0849  3420               	retlw	32
   418  084A  3420               	retlw	32
   419  084B  3420               	retlw	32
   420  084C  344E               	retlw	78
   421  084D  346F               	retlw	111
   422  084E  3476               	retlw	118
   423  084F  3461               	retlw	97
   424  0850  3420               	retlw	32
   425  0851  3473               	retlw	115
   426  0852  3465               	retlw	101
   427  0853  346E               	retlw	110
   428  0854  3468               	retlw	104
   429  0855  3461               	retlw	97
   430  0856  3400               	retlw	0
   431                           
   432                           	psect	idataBANK3
   433  162D                     __pidataBANK3:
   434                           
   435                           ;initializer for _msgDesativarZona
   436  162D  3444               	retlw	68
   437  162E  3465               	retlw	101
   438  162F  3473               	retlw	115
   439  1630  3461               	retlw	97
   440  1631  3474               	retlw	116
   441  1632  3469               	retlw	105
   442  1633  3476               	retlw	118
   443  1634  3461               	retlw	97
   444  1635  3472               	retlw	114
   445  1636  3420               	retlw	32
   446  1637  345A               	retlw	90
   447  1638  346F               	retlw	111
   448  1639  346E               	retlw	110
   449  163A  3461               	retlw	97
   450  163B  3400               	retlw	0
   451                           
   452                           ;initializer for _msgSenhaDisparo
   453  163C  3453               	retlw	83
   454  163D  3465               	retlw	101
   455  163E  346E               	retlw	110
   456  163F  3468               	retlw	104
   457  1640  3461               	retlw	97
   458  1641  3420               	retlw	32
   459  1642  3444               	retlw	68
   460  1643  3469               	retlw	105
   461  1644  3473               	retlw	115
   462  1645  3470               	retlw	112
   463  1646  3461               	retlw	97
   464  1647  3472               	retlw	114
   465  1648  346F               	retlw	111
   466  1649  3400               	retlw	0
   467                           
   468                           ;initializer for _msgSenhaUsuario
   469  164A  3453               	retlw	83
   470  164B  3465               	retlw	101
   471  164C  346E               	retlw	110
   472  164D  3468               	retlw	104
   473  164E  3461               	retlw	97
   474  164F  3420               	retlw	32
   475  1650  3455               	retlw	85
   476  1651  3473               	retlw	115
   477  1652  3475               	retlw	117
   478  1653  3461               	retlw	97
   479  1654  3472               	retlw	114
   480  1655  3469               	retlw	105
   481  1656  346F               	retlw	111
   482  1657  3400               	retlw	0
   483                           
   484                           ;initializer for _msgSenhaCorreta
   485  1658  3453               	retlw	83
   486  1659  3465               	retlw	101
   487  165A  346E               	retlw	110
   488  165B  3468               	retlw	104
   489  165C  3461               	retlw	97
   490  165D  3420               	retlw	32
   491  165E  3463               	retlw	99
   492  165F  346F               	retlw	111
   493  1660  3472               	retlw	114
   494  1661  3472               	retlw	114
   495  1662  3465               	retlw	101
   496  1663  3474               	retlw	116
   497  1664  3461               	retlw	97
   498  1665  3400               	retlw	0
   499                           
   500                           ;initializer for _msgSenhaCoacao
   501  1666  3453               	retlw	83
   502  1667  3465               	retlw	101
   503  1668  346E               	retlw	110
   504  1669  3468               	retlw	104
   505  166A  3461               	retlw	97
   506  166B  3420               	retlw	32
   507  166C  3443               	retlw	67
   508  166D  346F               	retlw	111
   509  166E  3461               	retlw	97
   510  166F  3463               	retlw	99
   511  1670  3461               	retlw	97
   512  1671  346F               	retlw	111
   513  1672  3400               	retlw	0
   514                           
   515                           ;initializer for _msgSenhaConfig
   516  1673  3453               	retlw	83
   517  1674  3465               	retlw	101
   518  1675  346E               	retlw	110
   519  1676  3468               	retlw	104
   520  1677  3461               	retlw	97
   521  1678  3420               	retlw	32
   522  1679  3443               	retlw	67
   523  167A  346F               	retlw	111
   524  167B  346E               	retlw	110
   525  167C  3466               	retlw	102
   526  167D  3469               	retlw	105
   527  167E  3467               	retlw	103
   528  167F  3400               	retlw	0
   529                           
   530                           ;initializer for _msgSenhaErrada
   531  1680  3453               	retlw	83
   532  1681  3465               	retlw	101
   533  1682  346E               	retlw	110
   534  1683  3468               	retlw	104
   535  1684  3461               	retlw	97
   536  1685  3420               	retlw	32
   537  1686  3465               	retlw	101
   538  1687  3472               	retlw	114
   539  1688  3472               	retlw	114
   540  1689  3461               	retlw	97
   541  168A  3464               	retlw	100
   542  168B  3461               	retlw	97
   543  168C  3400               	retlw	0
   544  001E                     _ADRESH	set	30
   545  001F                     _ADCON0	set	31
   546  0006                     _PORTB	set	6
   547  0009                     _PORTE	set	9
   548  0008                     _PORTD	set	8
   549  00FA                     _GO_nDONE	set	250
   550  0033                     _RB3	set	51
   551  0032                     _RB2	set	50
   552  0031                     _RB1	set	49
   553  0030                     _RB0	set	48
   554  002B                     _RA3	set	43
   555  002C                     _RA4	set	44
   556  002D                     _RA5	set	45
   557  0029                     _RA1	set	41
   558  009E                     _ADRESL	set	158
   559  0086                     _TRISB	set	134
   560  0089                     _TRISE	set	137
   561  0088                     _TRISD	set	136
   562  0085                     _TRISA	set	133
   563  009F                     _ADCON1	set	159
   564                           
   565                           	psect	cinit
   566  07BA                     start_initialization:	
   567                           ; #config settings
   568                           
   569  07BA                     __initialization:
   570                           
   571                           ; Initialize objects allocated to BANK3
   572  07BA  1783               	bsf	3,7	;select IRP bank2
   573  07BB  30F0               	movlw	low (__pdataBANK3+96)
   574  07BC  00FD               	movwf	btemp+-1
   575  07BD  3016               	movlw	high __pidataBANK3
   576  07BE  00FE               	movwf	btemp
   577  07BF  302D               	movlw	low __pidataBANK3
   578  07C0  00FF               	movwf	btemp+1
   579  07C1  3090               	movlw	low __pdataBANK3
   580  07C2  0084               	movwf	4
   581  07C3  160A  118A  22BE  120A  118A  	fcall	init_ram0
   582                           
   583                           ; Initialize objects allocated to BANK2
   584  07C8  305E               	movlw	low (__pdataBANK2+78)
   585  07C9  00FD               	movwf	btemp+-1
   586  07CA  3008               	movlw	high __pidataBANK2
   587  07CB  00FE               	movwf	btemp
   588  07CC  3009               	movlw	low __pidataBANK2
   589  07CD  00FF               	movwf	btemp+1
   590  07CE  3010               	movlw	low __pdataBANK2
   591  07CF  0084               	movwf	4
   592  07D0  160A  118A  22BE  120A  118A  	fcall	init_ram0
   593                           
   594                           ; Initialize objects allocated to BANK1
   595  07D5  1383               	bcf	3,7	;select IRP bank0
   596  07D6  30E9               	movlw	low (__pdataBANK1+73)
   597  07D7  00FD               	movwf	btemp+-1
   598  07D8  3015               	movlw	high __pidataBANK1
   599  07D9  00FE               	movwf	btemp
   600  07DA  303B               	movlw	low __pidataBANK1
   601  07DB  00FF               	movwf	btemp+1
   602  07DC  30A0               	movlw	low __pdataBANK1
   603  07DD  0084               	movwf	4
   604  07DE  160A  118A  22BE  120A  118A  	fcall	init_ram0
   605                           
   606                           ; Initialize objects allocated to BANK0
   607  07E3  3064               	movlw	low (__pdataBANK0+22)
   608  07E4  00FD               	movwf	btemp+-1
   609  07E5  3012               	movlw	high __pidataBANK0
   610  07E6  00FE               	movwf	btemp
   611  07E7  30E3               	movlw	low __pidataBANK0
   612  07E8  00FF               	movwf	btemp+1
   613  07E9  304E               	movlw	low __pdataBANK0
   614  07EA  0084               	movwf	4
   615  07EB  160A  118A  22BE  120A  118A  	fcall	init_ram0
   616                           
   617                           ; Clear objects allocated to BANK0
   618  07F0  01E4               	clrf	__pbssBANK0& (0+127)
   619  07F1  01E5               	clrf	(__pbssBANK0+1)& (0+127)
   620  07F2  01E6               	clrf	(__pbssBANK0+2)& (0+127)
   621  07F3  01E7               	clrf	(__pbssBANK0+3)& (0+127)
   622  07F4  01E8               	clrf	(__pbssBANK0+4)& (0+127)
   623  07F5  01E9               	clrf	(__pbssBANK0+5)& (0+127)
   624  07F6  01EA               	clrf	(__pbssBANK0+6)& (0+127)
   625  07F7  01EB               	clrf	(__pbssBANK0+7)& (0+127)
   626  07F8  01EC               	clrf	(__pbssBANK0+8)& (0+127)
   627  07F9  01ED               	clrf	(__pbssBANK0+9)& (0+127)
   628  07FA  01EE               	clrf	(__pbssBANK0+10)& (0+127)
   629  07FB  01EF               	clrf	(__pbssBANK0+11)& (0+127)
   630  07FC                     end_of_initialization:	
   631                           ;End of C runtime variable initialization code
   632                           
   633  07FC                     __end_of__initialization:
   634  07FC  0183               	clrf	3
   635  07FD  120A  158A  2A50   	ljmp	_main	;jump to C main() function
   636                           
   637                           	psect	bssBANK0
   638  0064                     __pbssBANK0:
   639  0064                     _valorSensorAux:
   640  0064                     	ds	2
   641  0066                     _valorSensor:
   642  0066                     	ds	2
   643  0068                     _opConfig:
   644  0068                     	ds	2
   645  006A                     _aux:
   646  006A                     	ds	2
   647  006C                     _validaSenha:
   648  006C                     	ds	2
   649  006E                     _senhaCoaAtivo:
   650  006E                     	ds	2
   651                           
   652                           	psect	dataBANK0
   653  004E                     __pdataBANK0:
   654  004E                     _auxSensor:
   655  004E                     	ds	2
   656  0050                     _menu:
   657  0050                     	ds	2
   658  0052                     _userFalse:
   659  0052                     	ds	2
   660  0054                     _painel:
   661  0054                     	ds	2
   662  0056                     _input:
   663  0056                     	ds	2
   664  0058                     _zonaConfig:
   665  0058                     	ds	2
   666  005A                     _senhaUserConfere:
   667  005A                     	ds	5
   668  005F                     _senhaUser:
   669  005F                     	ds	5
   670                           
   671                           	psect	dataBANK1
   672  00A0                     __pdataBANK1:
   673  00A0                     _msgZonaDisparadas:
   674  00A0                     	ds	15
   675  00AF                     _msgConfigDispara:
   676  00AF                     	ds	15
   677  00BE                     _msgChamaAjuda:
   678  00BE                     	ds	10
   679  00C8                     _msgAceitoOuNego:
   680  00C8                     	ds	9
   681  00D1                     _msgReativar:
   682  00D1                     	ds	9
   683  00DA                     _msgMascara:
   684  00DA                     	ds	5
   685  00DF                     _senhaConfig:
   686  00DF                     	ds	5
   687  00E4                     _senhaCoa:
   688  00E4                     	ds	5
   689                           
   690                           	psect	dataBANK3
   691  0190                     __pdataBANK3:
   692  0190                     _msgDesativarZona:
   693  0190                     	ds	15
   694  019F                     _msgSenhaDisparo:
   695  019F                     	ds	14
   696  01AD                     _msgSenhaUsuario:
   697  01AD                     	ds	14
   698  01BB                     _msgSenhaCorreta:
   699  01BB                     	ds	14
   700  01C9                     _msgSenhaCoacao:
   701  01C9                     	ds	13
   702  01D6                     _msgSenhaConfig:
   703  01D6                     	ds	13
   704  01E3                     _msgSenhaErrada:
   705  01E3                     	ds	13
   706                           
   707                           	psect	dataBANK2
   708  0110                     __pdataBANK2:
   709  0110                     _msgSenhaAtualizada:
   710  0110                     	ds	17
   711  0121                     _msgValidaSenha:
   712  0121                     	ds	16
   713  0131                     _msgSenhaCancelada:
   714  0131                     	ds	16
   715  0141                     _msgDigiteSenha:
   716  0141                     	ds	15
   717  0150                     _msgDigiteNovaSenha:
   718  0150                     	ds	14
   719                           
   720                           	psect	inittext
   721  12BA                     init_fetch0:	
   722                           ;	Called with low address in FSR and high address in W
   723                           
   724  12BA  087E               	movf	btemp,w
   725  12BB  008A               	movwf	10
   726  12BC  087F               	movf	btemp+1,w
   727  12BD  0082               	movwf	2
   728  12BE                     init_ram0:	
   729                           ;Called with:
   730                           ;	high address of idata address in btemp 
   731                           ;	low address of idata address in btemp+1 
   732                           ;	low address of data in FSR
   733                           ;	high address + 1 of data in btemp-1
   734                           
   735  12BE  160A  118A  22BA  160A  118A  	fcall	init_fetch0
   736  12C3  0080               	movwf	0
   737  12C4  0A84               	incf	4,f
   738  12C5  0804               	movf	4,w
   739  12C6  067D               	xorwf	btemp+-1,w
   740  12C7  1903               	btfsc	3,2
   741  12C8  3400               	retlw	0
   742  12C9  0AFF               	incf	btemp+1,f
   743  12CA  1903               	btfsc	3,2
   744  12CB  0AFE               	incf	btemp,f
   745  12CC  2ABE               	goto	init_ram0
   746                           
   747                           	psect	cstackCOMMON
   748  0070                     __pcstackCOMMON:
   749  0070                     ?___flge:
   750  0070                     ?_LCD_enable:	
   751                           ; 1 bit 
   752                           
   753  0070                     ?_delay:	
   754                           ; 1 bytes @ 0x0
   755                           
   756  0070                     ??_delay:	
   757                           ; 1 bytes @ 0x0
   758                           
   759  0070                     ?_inicioADC:	
   760                           ; 1 bytes @ 0x0
   761                           
   762  0070                     ??_inicioADC:	
   763                           ; 1 bytes @ 0x0
   764                           
   765  0070                     ?_validaUser:	
   766                           ; 1 bytes @ 0x0
   767                           
   768  0070                     ?_infoZonas:	
   769                           ; 1 bytes @ 0x0
   770                           
   771  0070                     ?_configZonas:	
   772                           ; 1 bytes @ 0x0
   773                           
   774  0070                     ?_teclado:	
   775                           ; 1 bytes @ 0x0
   776                           
   777  0070                     ?_Linha2:	
   778                           ; 1 bytes @ 0x0
   779                           
   780  0070                     ?_espacoLivre:	
   781                           ; 1 bytes @ 0x0
   782                           
   783  0070                     ?_init:	
   784                           ; 1 bytes @ 0x0
   785                           
   786  0070                     ??_init:	
   787                           ; 1 bytes @ 0x0
   788                           
   789  0070                     ?_LCD_init:	
   790                           ; 1 bytes @ 0x0
   791                           
   792  0070                     ?_LCD_escreve:	
   793                           ; 1 bytes @ 0x0
   794                           
   795  0070                     ?_LCD_limpa:	
   796                           ; 1 bytes @ 0x0
   797                           
   798  0070                     ?_LCD_linha1:	
   799                           ; 1 bytes @ 0x0
   800                           
   801  0070                     ?_LCD_linha2:	
   802                           ; 1 bytes @ 0x0
   803                           
   804  0070                     ?_main:	
   805                           ; 1 bytes @ 0x0
   806                           
   807  0070                     ?_setaZona:	
   808                           ; 1 bytes @ 0x0
   809                           
   810  0070                     ?_confereTeclado:	
   811                           ; 1 bytes @ 0x0
   812                           
   813  0070                     ?_inputSenhaAlter:	
   814                           ; 1 bytes @ 0x0
   815                           
   816  0070                     ?_rotinaValidaSenha:	
   817                           ; 1 bytes @ 0x0
   818                           
   819  0070                     ?_telaInicial:	
   820                           ; 1 bytes @ 0x0
   821                           
   822  0070                     ?_leituraADC:	
   823                           ; 1 bytes @ 0x0
   824                           
   825  0070                     ?_strlen:	
   826                           ; 2 bytes @ 0x0
   827                           
   828  0070                     ?_strcmp:	
   829                           ; 2 bytes @ 0x0
   830                           
   831  0070                     ?__Umul8_16:	
   832                           ; 2 bytes @ 0x0
   833                           
   834  0070                     ?___fladd:	
   835                           ; 2 bytes @ 0x0
   836                           
   837  0070                     setaZona@msgConfigDispara:	
   838                           ; 4 bytes @ 0x0
   839                           
   840  0070                     __Umul8_16@multiplicand:	
   841                           ; 1 bytes @ 0x0
   842                           
   843  0070                     strcmp@s2:	
   844                           ; 1 bytes @ 0x0
   845                           
   846  0070                     delay@i:	
   847                           ; 1 bytes @ 0x0
   848                           
   849  0070                     confereTeclado@numero:	
   850                           ; 2 bytes @ 0x0
   851                           
   852  0070                     strlen@s:	
   853                           ; 2 bytes @ 0x0
   854                           
   855  0070                     ___flge@ff1:	
   856                           ; 2 bytes @ 0x0
   857                           
   858  0070                     ___fladd@b:	
   859                           ; 4 bytes @ 0x0
   860                           
   861                           
   862                           ; 4 bytes @ 0x0
   863  0070                     	ds	1
   864  0071                     setaZona@pos:
   865                           
   866                           ; 2 bytes @ 0x1
   867  0071                     	ds	1
   868  0072                     ??_LCD_enable:
   869  0072                     ??_leituraADC:	
   870                           ; 1 bytes @ 0x2
   871                           
   872  0072                     ??_strlen:	
   873                           ; 1 bytes @ 0x2
   874                           
   875  0072                     ??_strcmp:	
   876                           ; 1 bytes @ 0x2
   877                           
   878  0072                     ??__Umul8_16:	
   879                           ; 1 bytes @ 0x2
   880                           
   881  0072                     ??_LCD_init:	
   882                           ; 1 bytes @ 0x2
   883                           
   884  0072                     ??_LCD_escreve:	
   885                           ; 1 bytes @ 0x2
   886                           
   887  0072                     ??_LCD_limpa:	
   888                           ; 1 bytes @ 0x2
   889                           
   890  0072                     ??_LCD_linha1:	
   891                           ; 1 bytes @ 0x2
   892                           
   893  0072                     ??_LCD_linha2:	
   894                           ; 1 bytes @ 0x2
   895                           
   896  0072                     ??_confereTeclado:	
   897                           ; 1 bytes @ 0x2
   898                           
   899  0072                     LCD_escreve@x:	
   900                           ; 1 bytes @ 0x2
   901                           
   902  0072                     strlen@cp:	
   903                           ; 1 bytes @ 0x2
   904                           
   905                           
   906                           ; 2 bytes @ 0x2
   907  0072                     	ds	1
   908  0073                     ?_escreveMesagem:
   909  0073                     ??_espacoLivre:	
   910                           ; 1 bytes @ 0x3
   911                           
   912  0073                     ??_setaZona:	
   913                           ; 1 bytes @ 0x3
   914                           
   915  0073                     espacoLivre@i:	
   916                           ; 1 bytes @ 0x3
   917                           
   918  0073                     escreveMesagem@texto:	
   919                           ; 2 bytes @ 0x3
   920                           
   921                           
   922                           ; 2 bytes @ 0x3
   923  0073                     	ds	1
   924  0074                     ??_telaInicial:
   925  0074                     leituraADC@leitura:	
   926                           ; 1 bytes @ 0x4
   927                           
   928  0074                     __Umul8_16@product:	
   929                           ; 2 bytes @ 0x4
   930                           
   931  0074                     ___flge@ff2:	
   932                           ; 2 bytes @ 0x4
   933                           
   934  0074                     ___fladd@a:	
   935                           ; 4 bytes @ 0x4
   936                           
   937                           
   938                           ; 4 bytes @ 0x4
   939  0074                     	ds	1
   940  0075                     ??_escreveMesagem:
   941  0075                     ??_Linha2:	
   942                           ; 1 bytes @ 0x5
   943                           
   944  0075                     strcmp@r:	
   945                           ; 1 bytes @ 0x5
   946                           
   947                           
   948                           ; 1 bytes @ 0x5
   949  0075                     	ds	1
   950  0076                     leituraADC@canal:
   951  0076                     strcmp@s1:	
   952                           ; 1 bytes @ 0x6
   953                           
   954  0076                     setaZona@i:	
   955                           ; 1 bytes @ 0x6
   956                           
   957  0076                     telaInicial@i:	
   958                           ; 2 bytes @ 0x6
   959                           
   960  0076                     __Umul8_16@word_mpld:	
   961                           ; 2 bytes @ 0x6
   962                           
   963                           
   964                           ; 2 bytes @ 0x6
   965  0076                     	ds	1
   966  0077                     Linha2@i:
   967                           
   968                           ; 2 bytes @ 0x7
   969  0077                     	ds	1
   970  0078                     ??___flge:
   971  0078                     ___fladd@signs:	
   972                           ; 1 bytes @ 0x8
   973                           
   974  0078                     __Umul8_16@multiplier:	
   975                           ; 1 bytes @ 0x8
   976                           
   977  0078                     setaZona@i_184:	
   978                           ; 1 bytes @ 0x8
   979                           
   980  0078                     escreveMesagem@i:	
   981                           ; 2 bytes @ 0x8
   982                           
   983                           
   984                           ; 2 bytes @ 0x8
   985  0078                     	ds	1
   986  0079                     ??___flmul:
   987  0079                     ___fladd@aexp:	
   988                           ; 1 bytes @ 0x9
   989                           
   990                           
   991                           ; 1 bytes @ 0x9
   992  0079                     	ds	1
   993  007A                     ??_infoZonas:
   994  007A                     ?_valida_senha:	
   995                           ; 1 bytes @ 0xA
   996                           
   997  007A                     setaZona@msgZonaDisparadas:	
   998                           ; 2 bytes @ 0xA
   999                           
  1000  007A                     ___fladd@bexp:	
  1001                           ; 1 bytes @ 0xA
  1002                           
  1003                           
  1004                           ; 1 bytes @ 0xA
  1005  007A                     	ds	1
  1006  007B                     ___fladd@grs:
  1007                           
  1008                           ; 1 bytes @ 0xB
  1009  007B                     	ds	1
  1010  007C                     ??___flsub:
  1011                           
  1012                           ; 1 bytes @ 0xC
  1013  007C                     	ds	2
  1014                           
  1015                           	psect	cstackBANK0
  1016  0020                     __pcstackBANK0:
  1017  0020                     ??_configZonas:
  1018  0020                     ??_valida_senha:	
  1019                           ; 1 bytes @ 0x0
  1020                           
  1021  0020                     ??___fladd:	
  1022                           ; 1 bytes @ 0x0
  1023                           
  1024  0020                     ?___flmul:	
  1025                           ; 1 bytes @ 0x0
  1026                           
  1027  0020                     ___flmul@b:	
  1028                           ; 4 bytes @ 0x0
  1029                           
  1030                           
  1031                           ; 4 bytes @ 0x0
  1032  0020                     	ds	3
  1033  0023                     valida_senha@texto:
  1034                           
  1035                           ; 1 bytes @ 0x3
  1036  0023                     	ds	1
  1037  0024                     valida_senha@aceito:
  1038  0024                     ___flmul@a:	
  1039                           ; 2 bytes @ 0x4
  1040                           
  1041                           
  1042                           ; 4 bytes @ 0x4
  1043  0024                     	ds	4
  1044  0028                     ?___flsub:
  1045  0028                     ___flmul@sign:	
  1046                           ; 4 bytes @ 0x8
  1047                           
  1048  0028                     ___flsub@a:	
  1049                           ; 1 bytes @ 0x8
  1050                           
  1051                           
  1052                           ; 4 bytes @ 0x8
  1053  0028                     	ds	1
  1054  0029                     ___flmul@grs:
  1055                           
  1056                           ; 4 bytes @ 0x9
  1057  0029                     	ds	3
  1058  002C                     ___flsub@b:
  1059                           
  1060                           ; 4 bytes @ 0xC
  1061  002C                     	ds	1
  1062  002D                     ___flmul@aexp:
  1063                           
  1064                           ; 1 bytes @ 0xD
  1065  002D                     	ds	1
  1066  002E                     ___flmul@bexp:
  1067                           
  1068                           ; 1 bytes @ 0xE
  1069  002E                     	ds	1
  1070  002F                     ___flmul@prod:
  1071                           
  1072                           ; 4 bytes @ 0xF
  1073  002F                     	ds	4
  1074  0033                     ___flmul@temp:
  1075                           
  1076                           ; 2 bytes @ 0x13
  1077  0033                     	ds	2
  1078  0035                     ?_liga_buzzer:
  1079  0035                     liga_buzzer@tempoSegundos:	
  1080                           ; 1 bytes @ 0x15
  1081                           
  1082                           
  1083                           ; 4 bytes @ 0x15
  1084  0035                     	ds	4
  1085  0039                     ??_liga_buzzer:
  1086                           
  1087                           ; 1 bytes @ 0x19
  1088  0039                     	ds	2
  1089  003B                     ?_listaZonas:
  1090  003B                     ??_teclado:	
  1091                           ; 1 bytes @ 0x1B
  1092                           
  1093  003B                     listaZonas@valorSensor:	
  1094                           ; 1 bytes @ 0x1B
  1095                           
  1096                           
  1097                           ; 2 bytes @ 0x1B
  1098  003B                     	ds	2
  1099  003D                     ??_listaZonas:
  1100                           
  1101                           ; 1 bytes @ 0x1D
  1102  003D                     	ds	1
  1103  003E                     ??_validaUser:
  1104  003E                     ??_inputSenhaAlter:	
  1105                           ; 1 bytes @ 0x1E
  1106                           
  1107                           
  1108                           ; 1 bytes @ 0x1E
  1109  003E                     	ds	2
  1110  0040                     inputSenhaAlter@senhaDestino:
  1111                           
  1112                           ; 1 bytes @ 0x20
  1113  0040                     	ds	1
  1114  0041                     inputSenhaAlter@i:
  1115  0041                     validaUser@n:	
  1116                           ; 2 bytes @ 0x21
  1117                           
  1118                           
  1119                           ; 2 bytes @ 0x21
  1120  0041                     	ds	2
  1121  0043                     ??_rotinaValidaSenha:
  1122                           
  1123                           ; 1 bytes @ 0x23
  1124  0043                     	ds	3
  1125  0046                     rotinaValidaSenha@senhaOp:
  1126                           
  1127                           ; 1 bytes @ 0x26
  1128  0046                     	ds	1
  1129  0047                     ?_alteraSenhas:
  1130  0047                     alteraSenhas@opConfig:	
  1131                           ; 1 bytes @ 0x27
  1132                           
  1133                           
  1134                           ; 2 bytes @ 0x27
  1135  0047                     	ds	2
  1136  0049                     ??_alteraSenhas:
  1137                           
  1138                           ; 1 bytes @ 0x29
  1139  0049                     	ds	2
  1140  004B                     ??_main:
  1141                           
  1142                           ; 1 bytes @ 0x2B
  1143  004B                     	ds	3
  1144                           
  1145                           	psect	maintext
  1146  0A50                     __pmaintext:	
  1147 ;;
  1148 ;;Main: autosize = 0, tempsize = 3, incstack = 0, save=0
  1149 ;;
  1150 ;; *************** function _main *****************
  1151 ;; Defined at:
  1152 ;;		line 71 in file "main.c"
  1153 ;; Parameters:    Size  Location     Type
  1154 ;;		None
  1155 ;; Auto vars:     Size  Location     Type
  1156 ;;		None
  1157 ;; Return value:  Size  Location     Type
  1158 ;;                  1    wreg      void 
  1159 ;; Registers used:
  1160 ;;		wreg, fsr0l, fsr0h, status,2, status,0, btemp+1, pclath, cstack
  1161 ;; Tracked objects:
  1162 ;;		On entry : B00/0
  1163 ;;		On exit  : 0/0
  1164 ;;		Unchanged: 0/0
  1165 ;; Data sizes:     COMMON   BANK0   BANK1   BANK3   BANK2
  1166 ;;      Params:         0       0       0       0       0
  1167 ;;      Locals:         0       0       0       0       0
  1168 ;;      Temps:          0       3       0       0       0
  1169 ;;      Totals:         0       3       0       0       0
  1170 ;;Total ram usage:        3 bytes
  1171 ;; Hardware stack levels required when called: 7
  1172 ;; This function calls:
  1173 ;;		_LCD_init
  1174 ;;		_LCD_limpa
  1175 ;;		_LCD_linha1
  1176 ;;		_alteraSenhas
  1177 ;;		_configZonas
  1178 ;;		_escreveMesagem
  1179 ;;		_infoZonas
  1180 ;;		_inicioADC
  1181 ;;		_leituraADC
  1182 ;;		_liga_buzzer
  1183 ;;		_listaZonas
  1184 ;;		_validaUser
  1185 ;; This function is called by:
  1186 ;;		Startup code after reset
  1187 ;; This function uses a non-reentrant model
  1188 ;;
  1189                           
  1190                           
  1191                           ;psect for function _main
  1192  0A50                     _main:
  1193  0A50                     l3883:	
  1194                           ;incstack = 0
  1195                           ; Regs used in _main: [wreg-fsr0h+status,2+status,0+btemp+1+pclath+cstack]
  1196                           
  1197                           
  1198                           ;main.c: 72:     TRISE = 0x00;
  1199  0A50  1683               	bsf	3,5	;RP0=1, select bank1
  1200  0A51  1303               	bcf	3,6	;RP1=0, select bank1
  1201  0A52  0189               	clrf	9	;volatile
  1202                           
  1203                           ;main.c: 73:     TRISD = 0x00;
  1204  0A53  0188               	clrf	8	;volatile
  1205  0A54                     l3885:
  1206                           
  1207                           ;main.c: 74:     TRISB = 0x0F;
  1208  0A54  300F               	movlw	15
  1209  0A55  0086               	movwf	6	;volatile
  1210  0A56                     l3887:
  1211                           
  1212                           ;main.c: 75:     PORTE = 0x01;
  1213  0A56  3001               	movlw	1
  1214  0A57  1283               	bcf	3,5	;RP0=0, select bank0
  1215  0A58  1303               	bcf	3,6	;RP1=0, select bank0
  1216  0A59  0089               	movwf	9	;volatile
  1217  0A5A                     l3889:
  1218                           
  1219                           ;main.c: 76:     inicioADC();
  1220  0A5A  160A  118A  225E  120A  158A  	fcall	_inicioADC
  1221  0A5F  2A65               	goto	l3893
  1222  0A60                     l3891:
  1223                           
  1224                           ;main.c: 79:            validaUser();
  1225  0A60  120A  118A  200B  120A  158A  	fcall	_validaUser
  1226  0A65                     l3893:
  1227                           
  1228                           ;main.c: 78:         while (userFalse){
  1229  0A65  1283               	bcf	3,5	;RP0=0, select bank0
  1230  0A66  1303               	bcf	3,6	;RP1=0, select bank0
  1231  0A67  0852               	movf	_userFalse,w
  1232  0A68  0453               	iorwf	_userFalse+1,w
  1233  0A69  1D03               	btfss	3,2
  1234  0A6A  2A6C               	goto	u4061
  1235  0A6B  2A6D               	goto	u4060
  1236  0A6C                     u4061:
  1237  0A6C  2A60               	goto	l3891
  1238  0A6D                     u4060:
  1239  0A6D  2AC0               	goto	l3913
  1240  0A6E                     l3895:
  1241                           
  1242                           ;main.c: 82:             LCD_init();
  1243  0A6E  160A  118A  240B  120A  158A  	fcall	_LCD_init
  1244                           
  1245                           ;main.c: 83:             LCD_limpa();
  1246  0A73  160A  118A  2289  120A  158A  	fcall	_LCD_limpa
  1247                           
  1248                           ;main.c: 84:             LCD_linha1();
  1249  0A78  160A  118A  2299  120A  158A  	fcall	_LCD_linha1
  1250  0A7D                     l3897:
  1251                           
  1252                           ;main.c: 85:             escreveMesagem(msgChamaAjuda);
  1253  0A7D  30BE               	movlw	(low (_msgChamaAjuda| 0))& (0+255)
  1254  0A7E  00F3               	movwf	escreveMesagem@texto
  1255  0A7F  3000               	movlw	0
  1256  0A80  00F4               	movwf	escreveMesagem@texto+1
  1257  0A81  160A  118A  243E  120A  158A  	fcall	_escreveMesagem
  1258  0A86                     l3899:
  1259                           
  1260                           ;main.c: 86:             _delay((unsigned long)((2000)*(20000000/4000.0)));
  1261  0A86  3033               	movlw	51
  1262  0A87  1283               	bcf	3,5	;RP0=0, select bank0
  1263  0A88  1303               	bcf	3,6	;RP1=0, select bank0
  1264  0A89  00CD               	movwf	??_main+2
  1265  0A8A  30BB               	movlw	187
  1266  0A8B  00CC               	movwf	??_main+1
  1267  0A8C  30DF               	movlw	223
  1268  0A8D  00CB               	movwf	??_main
  1269  0A8E                     u4117:
  1270  0A8E  0BCB               	decfsz	??_main,f
  1271  0A8F  2A8E               	goto	u4117
  1272  0A90  0BCC               	decfsz	??_main+1,f
  1273  0A91  2A8E               	goto	u4117
  1274  0A92  0BCD               	decfsz	??_main+2,f
  1275  0A93  2A8E               	goto	u4117
  1276  0A94                     l3901:
  1277                           
  1278                           ;main.c: 87:             infoZonas();
  1279  0A94  160A  118A  23AD  120A  158A  	fcall	_infoZonas
  1280  0A99                     l3903:
  1281                           
  1282                           ;main.c: 88:             PORTB = 0b01111111;
  1283  0A99  307F               	movlw	127
  1284  0A9A  1283               	bcf	3,5	;RP0=0, select bank0
  1285  0A9B  1303               	bcf	3,6	;RP1=0, select bank0
  1286  0A9C  0086               	movwf	6	;volatile
  1287  0A9D                     l3905:
  1288                           
  1289                           ;main.c: 89:             if(RB0 == 0){
  1290  0A9D  1806               	btfsc	6,0	;volatile
  1291  0A9E  2AA0               	goto	u4071
  1292  0A9F  2AA1               	goto	u4070
  1293  0AA0                     u4071:
  1294  0AA0  2AC0               	goto	l3913
  1295  0AA1                     u4070:
  1296  0AA1                     l3907:
  1297                           
  1298                           ;main.c: 90:                 _delay((unsigned long)((100)*(20000000/4000.0)));
  1299  0AA1  3003               	movlw	3
  1300  0AA2  1283               	bcf	3,5	;RP0=0, select bank0
  1301  0AA3  1303               	bcf	3,6	;RP1=0, select bank0
  1302  0AA4  00CD               	movwf	??_main+2
  1303  0AA5  308A               	movlw	138
  1304  0AA6  00CC               	movwf	??_main+1
  1305  0AA7  3055               	movlw	85
  1306  0AA8  00CB               	movwf	??_main
  1307  0AA9                     u4127:
  1308  0AA9  0BCB               	decfsz	??_main,f
  1309  0AAA  2AA9               	goto	u4127
  1310  0AAB  0BCC               	decfsz	??_main+1,f
  1311  0AAC  2AA9               	goto	u4127
  1312  0AAD  0BCD               	decfsz	??_main+2,f
  1313  0AAE  2AA9               	goto	u4127
  1314  0AAF                     l3909:
  1315                           
  1316                           ;main.c: 91:                 senhaCoaAtivo = 0;
  1317  0AAF  1283               	bcf	3,5	;RP0=0, select bank0
  1318  0AB0  1303               	bcf	3,6	;RP1=0, select bank0
  1319  0AB1  01EE               	clrf	_senhaCoaAtivo
  1320  0AB2  01EF               	clrf	_senhaCoaAtivo+1
  1321  0AB3                     l3911:
  1322                           
  1323                           ;main.c: 92:                 liga_buzzer(0.1);
  1324  0AB3  303D               	movlw	61
  1325  0AB4  00B8               	movwf	liga_buzzer@tempoSegundos+3
  1326  0AB5  30CC               	movlw	204
  1327  0AB6  00B7               	movwf	liga_buzzer@tempoSegundos+2
  1328  0AB7  30CC               	movlw	204
  1329  0AB8  00B6               	movwf	liga_buzzer@tempoSegundos+1
  1330  0AB9  30CD               	movlw	205
  1331  0ABA  00B5               	movwf	liga_buzzer@tempoSegundos
  1332  0ABB  160A  118A  26FD  120A  158A  	fcall	_liga_buzzer
  1333  0AC0                     l3913:
  1334                           
  1335                           ;main.c: 81:         while(senhaCoaAtivo){
  1336  0AC0  1283               	bcf	3,5	;RP0=0, select bank0
  1337  0AC1  1303               	bcf	3,6	;RP1=0, select bank0
  1338  0AC2  086E               	movf	_senhaCoaAtivo,w
  1339  0AC3  046F               	iorwf	_senhaCoaAtivo+1,w
  1340  0AC4  1D03               	btfss	3,2
  1341  0AC5  2AC7               	goto	u4081
  1342  0AC6  2AC8               	goto	u4080
  1343  0AC7                     u4081:
  1344  0AC7  2A6E               	goto	l3895
  1345  0AC8                     u4080:
  1346  0AC8  2B1E               	goto	l3937
  1347  0AC9                     l3915:
  1348                           
  1349                           ;main.c: 96:             valorSensor = leituraADC(2);
  1350  0AC9  3002               	movlw	2
  1351  0ACA  160A  118A  23DC  120A  158A  	fcall	_leituraADC
  1352  0ACF  0871               	movf	?_leituraADC+1,w
  1353  0AD0  1283               	bcf	3,5	;RP0=0, select bank0
  1354  0AD1  1303               	bcf	3,6	;RP1=0, select bank0
  1355  0AD2  00E7               	movwf	_valorSensor+1
  1356  0AD3  0870               	movf	?_leituraADC,w
  1357  0AD4  00E6               	movwf	_valorSensor
  1358  0AD5                     l3917:
  1359                           
  1360                           ;main.c: 97:             listaZonas(valorSensor);
  1361  0AD5  0867               	movf	_valorSensor+1,w
  1362  0AD6  00BC               	movwf	listaZonas@valorSensor+1
  1363  0AD7  0866               	movf	_valorSensor,w
  1364  0AD8  00BB               	movwf	listaZonas@valorSensor
  1365  0AD9  120A  158A  232A  120A  158A  	fcall	_listaZonas
  1366  0ADE                     l3919:
  1367                           
  1368                           ;main.c: 98:             _delay((unsigned long)((50)*(20000000/4000.0)));
  1369  0ADE  3002               	movlw	2
  1370  0ADF  1283               	bcf	3,5	;RP0=0, select bank0
  1371  0AE0  1303               	bcf	3,6	;RP1=0, select bank0
  1372  0AE1  00CD               	movwf	??_main+2
  1373  0AE2  3045               	movlw	69
  1374  0AE3  00CC               	movwf	??_main+1
  1375  0AE4  30A9               	movlw	169
  1376  0AE5  00CB               	movwf	??_main
  1377  0AE6                     u4137:
  1378  0AE6  0BCB               	decfsz	??_main,f
  1379  0AE7  2AE6               	goto	u4137
  1380  0AE8  0BCC               	decfsz	??_main+1,f
  1381  0AE9  2AE6               	goto	u4137
  1382  0AEA  0BCD               	decfsz	??_main+2,f
  1383  0AEB  2AE6               	goto	u4137
  1384  0AEC                     l3921:
  1385                           
  1386                           ;main.c: 99:             if (opConfig > 0){
  1387  0AEC  1283               	bcf	3,5	;RP0=0, select bank0
  1388  0AED  1303               	bcf	3,6	;RP1=0, select bank0
  1389  0AEE  0868               	movf	_opConfig,w
  1390  0AEF  0469               	iorwf	_opConfig+1,w
  1391  0AF0  1903               	btfsc	3,2
  1392  0AF1  2AF3               	goto	u4091
  1393  0AF2  2AF4               	goto	u4090
  1394  0AF3                     u4091:
  1395  0AF3  2B1E               	goto	l3937
  1396  0AF4                     u4090:
  1397  0AF4  2B05               	goto	l3935
  1398  0AF5                     l3925:
  1399                           
  1400                           ;main.c: 102:                         alteraSenhas(opConfig);
  1401  0AF5  0869               	movf	_opConfig+1,w
  1402  0AF6  00C8               	movwf	alteraSenhas@opConfig+1
  1403  0AF7  0868               	movf	_opConfig,w
  1404  0AF8  00C7               	movwf	alteraSenhas@opConfig
  1405  0AF9  160A  118A  2584  120A  158A  	fcall	_alteraSenhas
  1406                           
  1407                           ;main.c: 103:                         break;
  1408  0AFE  2B1E               	goto	l3937
  1409  0AFF                     l3931:
  1410                           
  1411                           ;main.c: 111:                         configZonas();
  1412  0AFF  120A  158A  2057  120A  158A  	fcall	_configZonas
  1413                           
  1414                           ;main.c: 112:                         break;
  1415  0B04  2B1E               	goto	l3937
  1416  0B05                     l3935:
  1417                           
  1418                           ; Switch on 2 bytes has been partitioned into a top level switch of size 1, and 1 sub-sw
      +                          itches
  1419                           ; Switch size 1, requested type "simple"
  1420                           ; Number of cases is 1, Range of values is 0 to 0
  1421                           ; switch strategies available:
  1422                           ; Name         Instructions Cycles
  1423                           ; simple_byte            4     3 (average)
  1424                           ; direct_byte           11     8 (fixed)
  1425                           ; jumptable            260     6 (fixed)
  1426                           ;	Chosen strategy is simple_byte
  1427  0B05  0869               	movf	_opConfig+1,w
  1428  0B06  3A00               	xorlw	0	; case 0
  1429  0B07  1903               	skipnz
  1430  0B08  2B0A               	goto	l3995
  1431  0B09  2B1E               	goto	l3937
  1432  0B0A                     l3995:
  1433                           
  1434                           ; Switch size 1, requested type "simple"
  1435                           ; Number of cases is 6, Range of values is 1 to 6
  1436                           ; switch strategies available:
  1437                           ; Name         Instructions Cycles
  1438                           ; simple_byte           19    10 (average)
  1439                           ; direct_byte           29    11 (fixed)
  1440                           ; jumptable            263     9 (fixed)
  1441                           ;	Chosen strategy is simple_byte
  1442  0B0A  0868               	movf	_opConfig,w
  1443  0B0B  3A01               	xorlw	1	; case 1
  1444  0B0C  1903               	skipnz
  1445  0B0D  2AF5               	goto	l3925
  1446  0B0E  3A03               	xorlw	3	; case 2
  1447  0B0F  1903               	skipnz
  1448  0B10  2AF5               	goto	l3925
  1449  0B11  3A01               	xorlw	1	; case 3
  1450  0B12  1903               	skipnz
  1451  0B13  2AF5               	goto	l3925
  1452  0B14  3A07               	xorlw	7	; case 4
  1453  0B15  1903               	skipnz
  1454  0B16  2AFF               	goto	l3931
  1455  0B17  3A01               	xorlw	1	; case 5
  1456  0B18  1903               	skipnz
  1457  0B19  2B1E               	goto	l3937
  1458  0B1A  3A03               	xorlw	3	; case 6
  1459  0B1B  1903               	skipnz
  1460  0B1C  2B1E               	goto	l3937
  1461  0B1D  2B1E               	goto	l3937
  1462  0B1E                     l3937:
  1463                           
  1464                           ;main.c: 95:         while (menu){
  1465  0B1E  1283               	bcf	3,5	;RP0=0, select bank0
  1466  0B1F  1303               	bcf	3,6	;RP1=0, select bank0
  1467  0B20  0850               	movf	_menu,w
  1468  0B21  0451               	iorwf	_menu+1,w
  1469  0B22  1D03               	btfss	3,2
  1470  0B23  2B25               	goto	u4101
  1471  0B24  2B26               	goto	u4100
  1472  0B25                     u4101:
  1473  0B25  2AC9               	goto	l3915
  1474  0B26                     u4100:
  1475  0B26  2A65               	goto	l3893
  1476  0B27  120A  118A  2800   	ljmp	start
  1477  0B2A                     __end_of_main:
  1478                           
  1479                           	psect	text1
  1480  000B                     __ptext1:	
  1481 ;; *************** function _validaUser *****************
  1482 ;; Defined at:
  1483 ;;		line 500 in file "main.c"
  1484 ;; Parameters:    Size  Location     Type
  1485 ;;		None
  1486 ;; Auto vars:     Size  Location     Type
  1487 ;;  pos             1    0        unsigned char 
  1488 ;;  n               2   33[BANK0 ] int 
  1489 ;; Return value:  Size  Location     Type
  1490 ;;                  1    wreg      void 
  1491 ;; Registers used:
  1492 ;;		wreg, fsr0l, fsr0h, status,2, status,0, btemp+1, pclath, cstack
  1493 ;; Tracked objects:
  1494 ;;		On entry : 0/0
  1495 ;;		On exit  : 0/0
  1496 ;;		Unchanged: 0/0
  1497 ;; Data sizes:     COMMON   BANK0   BANK1   BANK3   BANK2
  1498 ;;      Params:         0       0       0       0       0
  1499 ;;      Locals:         0       2       0       0       0
  1500 ;;      Temps:          0       3       0       0       0
  1501 ;;      Totals:         0       5       0       0       0
  1502 ;;Total ram usage:        5 bytes
  1503 ;; Hardware stack levels used: 1
  1504 ;; Hardware stack levels required when called: 4
  1505 ;; This function calls:
  1506 ;;		_LCD_init
  1507 ;;		_LCD_limpa
  1508 ;;		_LCD_linha1
  1509 ;;		_Linha2
  1510 ;;		_confereTeclado
  1511 ;;		_escreveMesagem
  1512 ;;		_setaZona
  1513 ;;		_strcmp
  1514 ;;		_teclado
  1515 ;;		_telaInicial
  1516 ;; This function is called by:
  1517 ;;		_main
  1518 ;; This function uses a non-reentrant model
  1519 ;;
  1520                           
  1521                           
  1522                           ;psect for function _validaUser
  1523  000B                     _validaUser:
  1524  000B                     l3639:	
  1525                           ;incstack = 0
  1526                           ; Regs used in _validaUser: [wreg-fsr0h+status,2+status,0+btemp+1+pclath+cstack]
  1527                           
  1528                           
  1529                           ;main.c: 501:     LCD_init();
  1530  000B  160A  118A  240B  120A  118A  	fcall	_LCD_init
  1531  0010                     l3641:
  1532                           
  1533                           ;main.c: 502:     _delay((unsigned long)((20)*(20000000/4000.0)));
  1534  0010  3082               	movlw	130
  1535  0011  1283               	bcf	3,5	;RP0=0, select bank0
  1536  0012  1303               	bcf	3,6	;RP1=0, select bank0
  1537  0013  00BF               	movwf	??_validaUser+1
  1538  0014  30DD               	movlw	221
  1539  0015  00BE               	movwf	??_validaUser
  1540  0016                     u4147:
  1541  0016  0BBE               	decfsz	??_validaUser,f
  1542  0017  2816               	goto	u4147
  1543  0018  0BBF               	decfsz	??_validaUser+1,f
  1544  0019  2816               	goto	u4147
  1545  001A                     l3643:
  1546                           
  1547                           ;main.c: 503:     LCD_limpa();
  1548  001A  160A  118A  2289  120A  118A  	fcall	_LCD_limpa
  1549                           
  1550                           ;main.c: 504:     _delay((unsigned long)((20)*(20000000/4000.0)));
  1551  001F  3082               	movlw	130
  1552  0020  1283               	bcf	3,5	;RP0=0, select bank0
  1553  0021  1303               	bcf	3,6	;RP1=0, select bank0
  1554  0022  00BF               	movwf	??_validaUser+1
  1555  0023  30DD               	movlw	221
  1556  0024  00BE               	movwf	??_validaUser
  1557  0025                     u4157:
  1558  0025  0BBE               	decfsz	??_validaUser,f
  1559  0026  2825               	goto	u4157
  1560  0027  0BBF               	decfsz	??_validaUser+1,f
  1561  0028  2825               	goto	u4157
  1562  0029                     l3645:
  1563                           
  1564                           ;main.c: 505:     telaInicial();
  1565  0029  160A  118A  24B3  120A  118A  	fcall	_telaInicial
  1566  002E                     l3647:
  1567                           
  1568                           ;main.c: 506:     Linha2();
  1569  002E  160A  118A  2475  120A  118A  	fcall	_Linha2
  1570                           
  1571                           ;main.c: 507:     while(userFalse){
  1572  0033  2953               	goto	l3721
  1573  0034                     l3649:
  1574                           
  1575                           ;main.c: 508:         for(int n = 0; n < 8; n++){
  1576  0034  01C1               	clrf	validaUser@n
  1577  0035  01C2               	clrf	validaUser@n+1
  1578  0036                     l3655:
  1579                           
  1580                           ;main.c: 509:             input = 10;
  1581  0036  300A               	movlw	10
  1582  0037  1283               	bcf	3,5	;RP0=0, select bank0
  1583  0038  1303               	bcf	3,6	;RP1=0, select bank0
  1584  0039  00D6               	movwf	_input
  1585  003A  3000               	movlw	0
  1586  003B  00D7               	movwf	_input+1
  1587                           
  1588                           ;main.c: 510:             while (input == 10){
  1589  003C  2842               	goto	l3659
  1590  003D                     l3657:
  1591                           
  1592                           ;main.c: 511:                 teclado();
  1593  003D  120A  118A  215C  120A  118A  	fcall	_teclado
  1594  0042                     l3659:
  1595                           
  1596                           ;main.c: 510:             while (input == 10){
  1597  0042  300A               	movlw	10
  1598  0043  1283               	bcf	3,5	;RP0=0, select bank0
  1599  0044  1303               	bcf	3,6	;RP1=0, select bank0
  1600  0045  0656               	xorwf	_input,w
  1601  0046  0457               	iorwf	_input+1,w
  1602  0047  1903               	btfsc	3,2
  1603  0048  284A               	goto	u3791
  1604  0049  284B               	goto	u3790
  1605  004A                     u3791:
  1606  004A  283D               	goto	l3657
  1607  004B                     u3790:
  1608  004B                     l3661:
  1609                           
  1610                           ;main.c: 513:             senhaUserConfere[n] = confereTeclado(input);
  1611  004B  0857               	movf	_input+1,w
  1612  004C  00F1               	movwf	confereTeclado@numero+1
  1613  004D  0856               	movf	_input,w
  1614  004E  00F0               	movwf	confereTeclado@numero
  1615  004F  160A  118A  268D  120A  118A  	fcall	_confereTeclado
  1616  0054  1283               	bcf	3,5	;RP0=0, select bank0
  1617  0055  1303               	bcf	3,6	;RP1=0, select bank0
  1618  0056  00BE               	movwf	??_validaUser
  1619  0057  0841               	movf	validaUser@n,w
  1620  0058  3E5A               	addlw	(low (_senhaUserConfere| 0))& (0+255)
  1621  0059  0084               	movwf	4
  1622  005A  083E               	movf	??_validaUser,w
  1623  005B  1383               	bcf	3,7	;select IRP bank0
  1624  005C  0080               	movwf	0
  1625  005D                     l3663:
  1626                           
  1627                           ;main.c: 514:             if (n == 3){
  1628  005D  3003               	movlw	3
  1629  005E  0641               	xorwf	validaUser@n,w
  1630  005F  0442               	iorwf	validaUser@n+1,w
  1631  0060  1D03               	btfss	3,2
  1632  0061  2863               	goto	u3801
  1633  0062  2864               	goto	u3800
  1634  0063                     u3801:
  1635  0063  28AF               	goto	l3681
  1636  0064                     u3800:
  1637  0064                     l3665:
  1638                           
  1639                           ;main.c: 515:                 if ((strcmp(senhaUser, senhaUserConfere) != 0) &&
  1640  0064  305A               	movlw	(low (_senhaUserConfere| 0))& (0+255)
  1641  0065  00BE               	movwf	??_validaUser
  1642  0066  083E               	movf	??_validaUser,w
  1643  0067  00F0               	movwf	strcmp@s2
  1644  0068  305F               	movlw	(low (_senhaUser| 0))& (0+255)
  1645  0069  160A  118A  2383  120A  118A  	fcall	_strcmp
  1646  006E  0870               	movf	?_strcmp,w
  1647  006F  0471               	iorwf	?_strcmp+1,w
  1648  0070  1903               	btfsc	3,2
  1649  0071  2873               	goto	u3811
  1650  0072  2874               	goto	u3810
  1651  0073                     u3811:
  1652  0073  28AF               	goto	l3681
  1653  0074                     u3810:
  1654  0074                     l3667:
  1655  0074  305A               	movlw	(low (_senhaUserConfere| 0))& (0+255)
  1656  0075  1283               	bcf	3,5	;RP0=0, select bank0
  1657  0076  1303               	bcf	3,6	;RP1=0, select bank0
  1658  0077  00BE               	movwf	??_validaUser
  1659  0078  083E               	movf	??_validaUser,w
  1660  0079  00F0               	movwf	strcmp@s2
  1661  007A  30E4               	movlw	(low (_senhaCoa| 0))& (0+255)
  1662  007B  160A  118A  2383  120A  118A  	fcall	_strcmp
  1663  0080  0870               	movf	?_strcmp,w
  1664  0081  0471               	iorwf	?_strcmp+1,w
  1665  0082  1903               	btfsc	3,2
  1666  0083  2885               	goto	u3821
  1667  0084  2886               	goto	u3820
  1668  0085                     u3821:
  1669  0085  28AF               	goto	l3681
  1670  0086                     u3820:
  1671  0086                     l3669:
  1672                           
  1673                           ;main.c: 516:                         (strcmp(senhaCoa, senhaUserConfere) != 0)){;main.c
      +                          : 517:                     userFalse = 1;
  1674  0086  3001               	movlw	1
  1675  0087  1283               	bcf	3,5	;RP0=0, select bank0
  1676  0088  1303               	bcf	3,6	;RP1=0, select bank0
  1677  0089  00D2               	movwf	_userFalse
  1678  008A  3000               	movlw	0
  1679  008B  00D3               	movwf	_userFalse+1
  1680  008C                     l3671:
  1681                           
  1682                           ;main.c: 518:                     menu = 0;
  1683  008C  01D0               	clrf	_menu
  1684  008D  01D1               	clrf	_menu+1
  1685  008E                     l3673:
  1686                           
  1687                           ;main.c: 519:                     LCD_limpa();
  1688  008E  160A  118A  2289  120A  118A  	fcall	_LCD_limpa
  1689  0093                     l3675:
  1690                           
  1691                           ;main.c: 520:                     LCD_linha1();
  1692  0093  160A  118A  2299  120A  118A  	fcall	_LCD_linha1
  1693  0098                     l3677:
  1694                           
  1695                           ;main.c: 521:                     escreveMesagem(msgSenhaErrada);
  1696  0098  30E3               	movlw	(low (_msgSenhaErrada| (0+256)))& (0+255)
  1697  0099  00F3               	movwf	escreveMesagem@texto
  1698  009A  3001               	movlw	1
  1699  009B  00F4               	movwf	escreveMesagem@texto+1
  1700  009C  160A  118A  243E  120A  118A  	fcall	_escreveMesagem
  1701  00A1                     l3679:
  1702                           
  1703                           ;main.c: 522:                     _delay((unsigned long)((2000)*(20000000/4000.0)));
  1704  00A1  3033               	movlw	51
  1705  00A2  1283               	bcf	3,5	;RP0=0, select bank0
  1706  00A3  1303               	bcf	3,6	;RP1=0, select bank0
  1707  00A4  00C0               	movwf	??_validaUser+2
  1708  00A5  30BB               	movlw	187
  1709  00A6  00BF               	movwf	??_validaUser+1
  1710  00A7  30DF               	movlw	223
  1711  00A8  00BE               	movwf	??_validaUser
  1712  00A9                     u4167:
  1713  00A9  0BBE               	decfsz	??_validaUser,f
  1714  00AA  28A9               	goto	u4167
  1715  00AB  0BBF               	decfsz	??_validaUser+1,f
  1716  00AC  28A9               	goto	u4167
  1717  00AD  0BC0               	decfsz	??_validaUser+2,f
  1718  00AE  28A9               	goto	u4167
  1719  00AF                     l3681:
  1720                           
  1721                           ;main.c: 525:             if (strcmp(senhaUser, senhaUserConfere)==0){
  1722  00AF  305A               	movlw	(low (_senhaUserConfere| 0))& (0+255)
  1723  00B0  1283               	bcf	3,5	;RP0=0, select bank0
  1724  00B1  1303               	bcf	3,6	;RP1=0, select bank0
  1725  00B2  00BE               	movwf	??_validaUser
  1726  00B3  083E               	movf	??_validaUser,w
  1727  00B4  00F0               	movwf	strcmp@s2
  1728  00B5  305F               	movlw	(low (_senhaUser| 0))& (0+255)
  1729  00B6  160A  118A  2383  120A  118A  	fcall	_strcmp
  1730  00BB  0870               	movf	?_strcmp,w
  1731  00BC  0471               	iorwf	?_strcmp+1,w
  1732  00BD  1D03               	btfss	3,2
  1733  00BE  28C0               	goto	u3831
  1734  00BF  28C1               	goto	u3830
  1735  00C0                     u3831:
  1736  00C0  28EF               	goto	l3697
  1737  00C1                     u3830:
  1738  00C1                     l3683:
  1739                           
  1740                           ;main.c: 526:                 userFalse = 0;
  1741  00C1  1283               	bcf	3,5	;RP0=0, select bank0
  1742  00C2  1303               	bcf	3,6	;RP1=0, select bank0
  1743  00C3  01D2               	clrf	_userFalse
  1744  00C4  01D3               	clrf	_userFalse+1
  1745  00C5                     l3685:
  1746                           
  1747                           ;main.c: 527:                 menu = 1;
  1748  00C5  3001               	movlw	1
  1749  00C6  00D0               	movwf	_menu
  1750  00C7  3000               	movlw	0
  1751  00C8  00D1               	movwf	_menu+1
  1752  00C9                     l3687:
  1753                           
  1754                           ;main.c: 528:                 n = 10;
  1755  00C9  300A               	movlw	10
  1756  00CA  00C1               	movwf	validaUser@n
  1757  00CB  3000               	movlw	0
  1758  00CC  00C2               	movwf	validaUser@n+1
  1759  00CD                     l3689:
  1760                           
  1761                           ;main.c: 529:                 LCD_limpa();
  1762  00CD  160A  118A  2289  120A  118A  	fcall	_LCD_limpa
  1763  00D2                     l3691:
  1764                           
  1765                           ;main.c: 530:                 LCD_linha1();
  1766  00D2  160A  118A  2299  120A  118A  	fcall	_LCD_linha1
  1767  00D7                     l3693:
  1768                           
  1769                           ;main.c: 531:                 escreveMesagem(msgSenhaCorreta);
  1770  00D7  30BB               	movlw	(low (_msgSenhaCorreta| (0+256)))& (0+255)
  1771  00D8  00F3               	movwf	escreveMesagem@texto
  1772  00D9  3001               	movlw	1
  1773  00DA  00F4               	movwf	escreveMesagem@texto+1
  1774  00DB  160A  118A  243E  120A  118A  	fcall	_escreveMesagem
  1775  00E0                     l3695:
  1776                           
  1777                           ;main.c: 532:                 _delay((unsigned long)((2000)*(20000000/4000.0)));
  1778  00E0  3033               	movlw	51
  1779  00E1  1283               	bcf	3,5	;RP0=0, select bank0
  1780  00E2  1303               	bcf	3,6	;RP1=0, select bank0
  1781  00E3  00C0               	movwf	??_validaUser+2
  1782  00E4  30BB               	movlw	187
  1783  00E5  00BF               	movwf	??_validaUser+1
  1784  00E6  30DF               	movlw	223
  1785  00E7  00BE               	movwf	??_validaUser
  1786  00E8                     u4177:
  1787  00E8  0BBE               	decfsz	??_validaUser,f
  1788  00E9  28E8               	goto	u4177
  1789  00EA  0BBF               	decfsz	??_validaUser+1,f
  1790  00EB  28E8               	goto	u4177
  1791  00EC  0BC0               	decfsz	??_validaUser+2,f
  1792  00ED  28E8               	goto	u4177
  1793                           
  1794                           ;main.c: 533:             }
  1795  00EE  293E               	goto	l3717
  1796  00EF                     l3697:
  1797  00EF  305A               	movlw	(low (_senhaUserConfere| 0))& (0+255)
  1798  00F0  1283               	bcf	3,5	;RP0=0, select bank0
  1799  00F1  1303               	bcf	3,6	;RP1=0, select bank0
  1800  00F2  00BE               	movwf	??_validaUser
  1801  00F3  083E               	movf	??_validaUser,w
  1802  00F4  00F0               	movwf	strcmp@s2
  1803  00F5  30E4               	movlw	(low (_senhaCoa| 0))& (0+255)
  1804  00F6  160A  118A  2383  120A  118A  	fcall	_strcmp
  1805  00FB  0870               	movf	?_strcmp,w
  1806  00FC  0471               	iorwf	?_strcmp+1,w
  1807  00FD  1D03               	btfss	3,2
  1808  00FE  2900               	goto	u3841
  1809  00FF  2901               	goto	u3840
  1810  0100                     u3841:
  1811  0100  293E               	goto	l3717
  1812  0101                     u3840:
  1813  0101                     l3699:
  1814                           
  1815                           ;main.c: 535:                 unsigned char pos;;main.c: 536:                 userFalse 
      +                          = 0;
  1816  0101  1283               	bcf	3,5	;RP0=0, select bank0
  1817  0102  1303               	bcf	3,6	;RP1=0, select bank0
  1818  0103  01D2               	clrf	_userFalse
  1819  0104  01D3               	clrf	_userFalse+1
  1820  0105                     l3701:
  1821                           
  1822                           ;main.c: 537:                 n = 10;
  1823  0105  300A               	movlw	10
  1824  0106  00C1               	movwf	validaUser@n
  1825  0107  3000               	movlw	0
  1826  0108  00C2               	movwf	validaUser@n+1
  1827  0109                     l3703:
  1828  0109                     l3705:
  1829                           
  1830                           ;main.c: 539:                 senhaCoaAtivo = 1;
  1831  0109  3001               	movlw	1
  1832  010A  00EE               	movwf	_senhaCoaAtivo
  1833  010B  3000               	movlw	0
  1834  010C  00EF               	movwf	_senhaCoaAtivo+1
  1835  010D                     l3707:
  1836                           
  1837                           ;main.c: 540:                 LCD_limpa();
  1838  010D  160A  118A  2289  120A  118A  	fcall	_LCD_limpa
  1839  0112                     l3709:
  1840                           
  1841                           ;main.c: 541:                 LCD_linha1();
  1842  0112  160A  118A  2299  120A  118A  	fcall	_LCD_linha1
  1843  0117                     l3711:
  1844                           
  1845                           ;main.c: 542:                 escreveMesagem(msgSenhaCorreta);
  1846  0117  30BB               	movlw	(low (_msgSenhaCorreta| (0+256)))& (0+255)
  1847  0118  00F3               	movwf	escreveMesagem@texto
  1848  0119  3001               	movlw	1
  1849  011A  00F4               	movwf	escreveMesagem@texto+1
  1850  011B  160A  118A  243E  120A  118A  	fcall	_escreveMesagem
  1851  0120                     l3713:
  1852                           
  1853                           ;main.c: 543:                 _delay((unsigned long)((2000)*(20000000/4000.0)));
  1854  0120  3033               	movlw	51
  1855  0121  1283               	bcf	3,5	;RP0=0, select bank0
  1856  0122  1303               	bcf	3,6	;RP1=0, select bank0
  1857  0123  00C0               	movwf	??_validaUser+2
  1858  0124  30BB               	movlw	187
  1859  0125  00BF               	movwf	??_validaUser+1
  1860  0126  30DF               	movlw	223
  1861  0127  00BE               	movwf	??_validaUser
  1862  0128                     u4187:
  1863  0128  0BBE               	decfsz	??_validaUser,f
  1864  0129  2928               	goto	u4187
  1865  012A  0BBF               	decfsz	??_validaUser+1,f
  1866  012B  2928               	goto	u4187
  1867  012C  0BC0               	decfsz	??_validaUser+2,f
  1868  012D  2928               	goto	u4187
  1869  012E                     l3715:
  1870                           
  1871                           ;main.c: 544:                 setaZona(msgZonaDisparadas, msgConfigDispara, pos);
  1872  012E  30AF               	movlw	(low (_msgConfigDispara| 0))& (0+255)
  1873  012F  1283               	bcf	3,5	;RP0=0, select bank0
  1874  0130  1303               	bcf	3,6	;RP1=0, select bank0
  1875  0131  00BE               	movwf	??_validaUser
  1876  0132  083E               	movf	??_validaUser,w
  1877  0133  00F0               	movwf	setaZona@msgConfigDispara
  1878  0134  3031               	movlw	49
  1879  0135  00F1               	movwf	setaZona@pos
  1880  0136  3000               	movlw	0
  1881  0137  00F2               	movwf	setaZona@pos+1
  1882  0138  30A0               	movlw	(low (_msgZonaDisparadas| 0))& (0+255)
  1883  0139  120A  158A  2192  120A  118A  	fcall	_setaZona
  1884  013E                     l3717:
  1885                           
  1886                           ;main.c: 546:         }
  1887  013E  3001               	movlw	1
  1888  013F  1283               	bcf	3,5	;RP0=0, select bank0
  1889  0140  1303               	bcf	3,6	;RP1=0, select bank0
  1890  0141  07C1               	addwf	validaUser@n,f
  1891  0142  1803               	skipnc
  1892  0143  0AC2               	incf	validaUser@n+1,f
  1893  0144  3000               	movlw	0
  1894  0145  07C2               	addwf	validaUser@n+1,f
  1895  0146                     l3719:
  1896  0146  0842               	movf	validaUser@n+1,w
  1897  0147  3A80               	xorlw	128
  1898  0148  00FF               	movwf	btemp+1
  1899  0149  3080               	movlw	128
  1900  014A  027F               	subwf	btemp+1,w
  1901  014B  1D03               	skipz
  1902  014C  294F               	goto	u3855
  1903  014D  3008               	movlw	8
  1904  014E  0241               	subwf	validaUser@n,w
  1905  014F                     u3855:
  1906  014F  1C03               	skipc
  1907  0150  2952               	goto	u3851
  1908  0151  2953               	goto	u3850
  1909  0152                     u3851:
  1910  0152  2836               	goto	l3655
  1911  0153                     u3850:
  1912  0153                     l3721:
  1913                           
  1914                           ;main.c: 507:     while(userFalse){
  1915  0153  1283               	bcf	3,5	;RP0=0, select bank0
  1916  0154  1303               	bcf	3,6	;RP1=0, select bank0
  1917  0155  0852               	movf	_userFalse,w
  1918  0156  0453               	iorwf	_userFalse+1,w
  1919  0157  1D03               	btfss	3,2
  1920  0158  295A               	goto	u3861
  1921  0159  295B               	goto	u3860
  1922  015A                     u3861:
  1923  015A  2834               	goto	l3649
  1924  015B                     u3860:
  1925  015B                     l342:
  1926  015B  0008               	return
  1927  015C                     __end_of_validaUser:
  1928                           
  1929                           	psect	text2
  1930  14B3                     __ptext2:	
  1931 ;; *************** function _telaInicial *****************
  1932 ;; Defined at:
  1933 ;;		line 478 in file "main.c"
  1934 ;; Parameters:    Size  Location     Type
  1935 ;;		None
  1936 ;; Auto vars:     Size  Location     Type
  1937 ;;  i               2    6[COMMON] int 
  1938 ;; Return value:  Size  Location     Type
  1939 ;;                  1    wreg      void 
  1940 ;; Registers used:
  1941 ;;		wreg, fsr0l, fsr0h, status,2, status,0, btemp+1, pclath, cstack
  1942 ;; Tracked objects:
  1943 ;;		On entry : 0/0
  1944 ;;		On exit  : 0/0
  1945 ;;		Unchanged: 0/0
  1946 ;; Data sizes:     COMMON   BANK0   BANK1   BANK3   BANK2
  1947 ;;      Params:         0       0       0       0       0
  1948 ;;      Locals:         2       0       0       0       0
  1949 ;;      Temps:          2       0       0       0       0
  1950 ;;      Totals:         4       0       0       0       0
  1951 ;;Total ram usage:        4 bytes
  1952 ;; Hardware stack levels used: 1
  1953 ;; Hardware stack levels required when called: 2
  1954 ;; This function calls:
  1955 ;;		_LCD_escreve
  1956 ;;		_LCD_linha1
  1957 ;;		_strlen
  1958 ;; This function is called by:
  1959 ;;		_validaUser
  1960 ;; This function uses a non-reentrant model
  1961 ;;
  1962                           
  1963                           
  1964                           ;psect for function _telaInicial
  1965  14B3                     _telaInicial:
  1966  14B3                     l3627:	
  1967                           ;incstack = 0
  1968                           ; Regs used in _telaInicial: [wreg-fsr0h+status,2+status,0+btemp+1+pclath+cstack]
  1969                           
  1970                           
  1971                           ;main.c: 479:     LCD_linha1();
  1972  14B3  160A  118A  2299  160A  118A  	fcall	_LCD_linha1
  1973                           
  1974                           ;main.c: 480:     LCD_escreve(' ');
  1975  14B8  3020               	movlw	32
  1976  14B9  160A  118A  22A9  160A  118A  	fcall	_LCD_escreve
  1977  14BE                     l3629:
  1978                           
  1979                           ;main.c: 481:     for (int i = 0; i <= strlen(msgDigiteSenha)-1; i++){
  1980  14BE  01F6               	clrf	telaInicial@i
  1981  14BF  01F7               	clrf	telaInicial@i+1
  1982  14C0  2CD1               	goto	l3635
  1983  14C1                     l3631:
  1984                           
  1985                           ;main.c: 482:         LCD_escreve(msgDigiteSenha[i]);
  1986  14C1  0876               	movf	telaInicial@i,w
  1987  14C2  3E41               	addlw	(low (_msgDigiteSenha| (0+256)))& (0+255)
  1988  14C3  0084               	movwf	4
  1989  14C4  1783               	bsf	3,7	;select IRP bank2
  1990  14C5  0800               	movf	0,w
  1991  14C6  160A  118A  22A9  160A  118A  	fcall	_LCD_escreve
  1992  14CB                     l3633:
  1993                           
  1994                           ;main.c: 483:     }
  1995  14CB  3001               	movlw	1
  1996  14CC  07F6               	addwf	telaInicial@i,f
  1997  14CD  1803               	skipnc
  1998  14CE  0AF7               	incf	telaInicial@i+1,f
  1999  14CF  3000               	movlw	0
  2000  14D0  07F7               	addwf	telaInicial@i+1,f
  2001  14D1                     l3635:
  2002  14D1  3041               	movlw	(low (_msgDigiteSenha| (0+256)))& (0+255)
  2003  14D2  00F0               	movwf	strlen@s
  2004  14D3  3001               	movlw	1
  2005  14D4  00F1               	movwf	strlen@s+1
  2006  14D5  160A  118A  22F9  160A  118A  	fcall	_strlen
  2007  14DA  0870               	movf	?_strlen,w
  2008  14DB  3EFF               	addlw	255
  2009  14DC  00F4               	movwf	??_telaInicial
  2010  14DD  0871               	movf	?_strlen+1,w
  2011  14DE  1803               	skipnc
  2012  14DF  3E01               	addlw	1
  2013  14E0  3EFF               	addlw	255
  2014  14E1  00F5               	movwf	??_telaInicial+1
  2015  14E2  0877               	movf	telaInicial@i+1,w
  2016  14E3  0275               	subwf	??_telaInicial+1,w
  2017  14E4  1D03               	skipz
  2018  14E5  2CE8               	goto	u3785
  2019  14E6  0876               	movf	telaInicial@i,w
  2020  14E7  0274               	subwf	??_telaInicial,w
  2021  14E8                     u3785:
  2022  14E8  1803               	skipnc
  2023  14E9  2CEB               	goto	u3781
  2024  14EA  2CEC               	goto	u3780
  2025  14EB                     u3781:
  2026  14EB  2CC1               	goto	l3631
  2027  14EC                     u3780:
  2028  14EC                     l3637:
  2029                           
  2030                           ;main.c: 484:     LCD_escreve(' ');
  2031  14EC  3020               	movlw	32
  2032  14ED  160A  118A  22A9  160A  118A  	fcall	_LCD_escreve
  2033  14F2                     l315:
  2034  14F2  0008               	return
  2035  14F3                     __end_of_telaInicial:
  2036                           
  2037                           	psect	text3
  2038  1383                     __ptext3:	
  2039 ;; *************** function _strcmp *****************
  2040 ;; Defined at:
  2041 ;;		line 33 in file "C:\Program Files\Microchip\xc8\v2.32\pic\sources\c90\common\strcmp.c"
  2042 ;; Parameters:    Size  Location     Type
  2043 ;;  s1              1    wreg     PTR const unsigned char 
  2044 ;;		 -> senhaCoa(5), senhaUser(5), 
  2045 ;;  s2              1    0[COMMON] PTR const unsigned char 
  2046 ;;		 -> senhaUserConfere(5), 
  2047 ;; Auto vars:     Size  Location     Type
  2048 ;;  s1              1    6[COMMON] PTR const unsigned char 
  2049 ;;		 -> senhaCoa(5), senhaUser(5), 
  2050 ;;  r               1    5[COMMON] char 
  2051 ;; Return value:  Size  Location     Type
  2052 ;;                  2    0[COMMON] int 
  2053 ;; Registers used:
  2054 ;;		wreg, fsr0l, fsr0h, status,2, status,0
  2055 ;; Tracked objects:
  2056 ;;		On entry : 0/0
  2057 ;;		On exit  : 0/0
  2058 ;;		Unchanged: 0/0
  2059 ;; Data sizes:     COMMON   BANK0   BANK1   BANK3   BANK2
  2060 ;;      Params:         2       0       0       0       0
  2061 ;;      Locals:         2       0       0       0       0
  2062 ;;      Temps:          3       0       0       0       0
  2063 ;;      Totals:         7       0       0       0       0
  2064 ;;Total ram usage:        7 bytes
  2065 ;; Hardware stack levels used: 1
  2066 ;; This function calls:
  2067 ;;		Nothing
  2068 ;; This function is called by:
  2069 ;;		_validaUser
  2070 ;; This function uses a non-reentrant model
  2071 ;;
  2072                           
  2073                           
  2074                           ;psect for function _strcmp
  2075  1383                     _strcmp:
  2076                           
  2077                           ;incstack = 0
  2078                           ; Regs used in _strcmp: [wreg-fsr0h+status,2+status,0]
  2079                           ;strcmp@s1 stored from wreg
  2080  1383  00F6               	movwf	strcmp@s1
  2081  1384                     l3115:
  2082  1384  2B8D               	goto	l3121
  2083  1385                     l3117:
  2084  1385  3001               	movlw	1
  2085  1386  00F2               	movwf	??_strcmp
  2086  1387  0872               	movf	??_strcmp,w
  2087  1388  07F6               	addwf	strcmp@s1,f
  2088  1389                     l3119:
  2089  1389  3001               	movlw	1
  2090  138A  00F2               	movwf	??_strcmp
  2091  138B  0872               	movf	??_strcmp,w
  2092  138C  07F0               	addwf	strcmp@s2,f
  2093  138D                     l3121:
  2094  138D  0870               	movf	strcmp@s2,w
  2095  138E  0084               	movwf	4
  2096  138F  1383               	bcf	3,7	;select IRP bank0
  2097  1390  0800               	movf	0,w
  2098  1391  00F2               	movwf	??_strcmp
  2099  1392  0876               	movf	strcmp@s1,w
  2100  1393  0084               	movwf	4
  2101  1394  0800               	movf	0,w
  2102  1395  00F3               	movwf	??_strcmp+1
  2103  1396  0872               	movf	??_strcmp,w
  2104  1397  0273               	subwf	??_strcmp+1,w
  2105  1398  00F4               	movwf	??_strcmp+2
  2106  1399  0874               	movf	??_strcmp+2,w
  2107  139A  00F5               	movwf	strcmp@r
  2108  139B  0875               	movf	strcmp@r,w
  2109  139C  1D03               	btfss	3,2
  2110  139D  2B9F               	goto	u3261
  2111  139E  2BA0               	goto	u3260
  2112  139F                     u3261:
  2113  139F  2BA7               	goto	l3125
  2114  13A0                     u3260:
  2115  13A0                     l3123:
  2116  13A0  0876               	movf	strcmp@s1,w
  2117  13A1  0084               	movwf	4
  2118  13A2  0800               	movf	0,w
  2119  13A3  1D03               	btfss	3,2
  2120  13A4  2BA6               	goto	u3271
  2121  13A5  2BA7               	goto	u3270
  2122  13A6                     u3271:
  2123  13A6  2B85               	goto	l3117
  2124  13A7                     u3270:
  2125  13A7                     l3125:
  2126  13A7  0875               	movf	strcmp@r,w
  2127  13A8  00F0               	movwf	?_strcmp
  2128  13A9  01F1               	clrf	?_strcmp+1
  2129  13AA  1BF0               	btfsc	?_strcmp,7
  2130  13AB  03F1               	decf	?_strcmp+1,f
  2131  13AC                     l919:
  2132  13AC  0008               	return
  2133  13AD                     __end_of_strcmp:
  2134                           
  2135                           	psect	text4
  2136  0B2A                     __ptext4:	
  2137 ;; *************** function _listaZonas *****************
  2138 ;; Defined at:
  2139 ;;		line 549 in file "main.c"
  2140 ;; Parameters:    Size  Location     Type
  2141 ;;  valorSensor     2   27[BANK0 ] unsigned int 
  2142 ;; Auto vars:     Size  Location     Type
  2143 ;;		None
  2144 ;; Return value:  Size  Location     Type
  2145 ;;                  1    wreg      void 
  2146 ;; Registers used:
  2147 ;;		wreg, fsr0l, fsr0h, status,2, status,0, btemp+1, pclath, cstack
  2148 ;; Tracked objects:
  2149 ;;		On entry : 0/0
  2150 ;;		On exit  : 0/0
  2151 ;;		Unchanged: 0/0
  2152 ;; Data sizes:     COMMON   BANK0   BANK1   BANK3   BANK2
  2153 ;;      Params:         0       2       0       0       0
  2154 ;;      Locals:         0       0       0       0       0
  2155 ;;      Temps:          0       3       0       0       0
  2156 ;;      Totals:         0       5       0       0       0
  2157 ;;Total ram usage:        5 bytes
  2158 ;; Hardware stack levels used: 1
  2159 ;; Hardware stack levels required when called: 3
  2160 ;; This function calls:
  2161 ;;		_LCD_escreve
  2162 ;;		_LCD_init
  2163 ;;		_LCD_limpa
  2164 ;;		_LCD_linha1
  2165 ;;		_LCD_linha2
  2166 ;;		_escreveMesagem
  2167 ;;		_liga_buzzer
  2168 ;; This function is called by:
  2169 ;;		_main
  2170 ;; This function uses a non-reentrant model
  2171 ;;
  2172                           
  2173                           
  2174                           ;psect for function _listaZonas
  2175  0B2A                     _listaZonas:
  2176  0B2A                     l3723:	
  2177                           ;incstack = 0
  2178                           ; Regs used in _listaZonas: [wreg-fsr0h+status,2+status,0+btemp+1+pclath+cstack]
  2179                           
  2180                           
  2181                           ;main.c: 550:     PORTB = 0b10111111;
  2182  0B2A  30BF               	movlw	191
  2183  0B2B  1283               	bcf	3,5	;RP0=0, select bank0
  2184  0B2C  1303               	bcf	3,6	;RP1=0, select bank0
  2185  0B2D  0086               	movwf	6	;volatile
  2186                           
  2187                           ;main.c: 551:     if (valorSensor <= auxSensor){
  2188  0B2E  3000               	movlw	0
  2189  0B2F  023C               	subwf	listaZonas@valorSensor+1,w
  2190  0B30  30CD               	movlw	205
  2191  0B31  1903               	skipnz
  2192  0B32  023B               	subwf	listaZonas@valorSensor,w
  2193  0B33  1803               	skipnc
  2194  0B34  2B36               	goto	u3871
  2195  0B35  2B37               	goto	u3870
  2196  0B36                     u3871:
  2197  0B36  2B8D               	goto	l3739
  2198  0B37                     u3870:
  2199  0B37                     l3725:
  2200                           
  2201                           ;main.c: 552:         LCD_init();
  2202  0B37  160A  118A  240B  120A  158A  	fcall	_LCD_init
  2203                           
  2204                           ;main.c: 553:         LCD_limpa();
  2205  0B3C  160A  118A  2289  120A  158A  	fcall	_LCD_limpa
  2206                           
  2207                           ;main.c: 554:         LCD_linha1();
  2208  0B41  160A  118A  2299  120A  158A  	fcall	_LCD_linha1
  2209                           
  2210                           ;main.c: 555:         LCD_escreve('>');
  2211  0B46  303E               	movlw	62
  2212  0B47  160A  118A  22A9  120A  158A  	fcall	_LCD_escreve
  2213  0B4C                     l3727:
  2214                           
  2215                           ;main.c: 556:         escreveMesagem(msgSenhaConfig);
  2216  0B4C  30D6               	movlw	(low (_msgSenhaConfig| (0+256)))& (0+255)
  2217  0B4D  00F3               	movwf	escreveMesagem@texto
  2218  0B4E  3001               	movlw	1
  2219  0B4F  00F4               	movwf	escreveMesagem@texto+1
  2220  0B50  160A  118A  243E  120A  158A  	fcall	_escreveMesagem
  2221  0B55                     l3729:
  2222                           
  2223                           ;main.c: 557:         LCD_linha2();
  2224  0B55  160A  118A  2279  120A  158A  	fcall	_LCD_linha2
  2225                           
  2226                           ;main.c: 558:         escreveMesagem(msgSenhaUsuario);
  2227  0B5A  30AD               	movlw	(low (_msgSenhaUsuario| (0+256)))& (0+255)
  2228  0B5B  00F3               	movwf	escreveMesagem@texto
  2229  0B5C  3001               	movlw	1
  2230  0B5D  00F4               	movwf	escreveMesagem@texto+1
  2231  0B5E  160A  118A  243E  120A  158A  	fcall	_escreveMesagem
  2232  0B63                     l3731:
  2233                           
  2234                           ;main.c: 559:         if (RB2 == 0){
  2235  0B63  1283               	bcf	3,5	;RP0=0, select bank0
  2236  0B64  1303               	bcf	3,6	;RP1=0, select bank0
  2237  0B65  1906               	btfsc	6,2	;volatile
  2238  0B66  2B68               	goto	u3881
  2239  0B67  2B69               	goto	u3880
  2240  0B68                     u3881:
  2241  0B68  2D67               	goto	l362
  2242  0B69                     u3880:
  2243  0B69                     l3733:
  2244                           
  2245                           ;main.c: 560:             _delay((unsigned long)((100)*(20000000/4000.0)));
  2246  0B69  3003               	movlw	3
  2247  0B6A  1283               	bcf	3,5	;RP0=0, select bank0
  2248  0B6B  1303               	bcf	3,6	;RP1=0, select bank0
  2249  0B6C  00BF               	movwf	??_listaZonas+2
  2250  0B6D  308A               	movlw	138
  2251  0B6E  00BE               	movwf	??_listaZonas+1
  2252  0B6F  3055               	movlw	85
  2253  0B70  00BD               	movwf	??_listaZonas
  2254  0B71                     u4197:
  2255  0B71  0BBD               	decfsz	??_listaZonas,f
  2256  0B72  2B71               	goto	u4197
  2257  0B73  0BBE               	decfsz	??_listaZonas+1,f
  2258  0B74  2B71               	goto	u4197
  2259  0B75  0BBF               	decfsz	??_listaZonas+2,f
  2260  0B76  2B71               	goto	u4197
  2261  0B77                     l3735:
  2262                           
  2263                           ;main.c: 561:             liga_buzzer(0.1);
  2264  0B77  303D               	movlw	61
  2265  0B78  1283               	bcf	3,5	;RP0=0, select bank0
  2266  0B79  1303               	bcf	3,6	;RP1=0, select bank0
  2267  0B7A  00B8               	movwf	liga_buzzer@tempoSegundos+3
  2268  0B7B  30CC               	movlw	204
  2269  0B7C  00B7               	movwf	liga_buzzer@tempoSegundos+2
  2270  0B7D  30CC               	movlw	204
  2271  0B7E  00B6               	movwf	liga_buzzer@tempoSegundos+1
  2272  0B7F  30CD               	movlw	205
  2273  0B80  00B5               	movwf	liga_buzzer@tempoSegundos
  2274  0B81  160A  118A  26FD  120A  158A  	fcall	_liga_buzzer
  2275  0B86                     l3737:
  2276                           
  2277                           ;main.c: 562:             opConfig = 1;
  2278  0B86  3001               	movlw	1
  2279  0B87  1283               	bcf	3,5	;RP0=0, select bank0
  2280  0B88  1303               	bcf	3,6	;RP1=0, select bank0
  2281  0B89  00E8               	movwf	_opConfig
  2282  0B8A  3000               	movlw	0
  2283  0B8B  00E9               	movwf	_opConfig+1
  2284  0B8C  2D67               	goto	l362
  2285  0B8D                     l3739:
  2286  0B8D  3001               	movlw	1
  2287  0B8E  023C               	subwf	listaZonas@valorSensor+1,w
  2288  0B8F  3099               	movlw	153
  2289  0B90  1903               	skipnz
  2290  0B91  023B               	subwf	listaZonas@valorSensor,w
  2291  0B92  1803               	skipnc
  2292  0B93  2B95               	goto	u3891
  2293  0B94  2B96               	goto	u3890
  2294  0B95                     u3891:
  2295  0B95  2BEC               	goto	l3759
  2296  0B96                     u3890:
  2297  0B96                     l3741:
  2298                           
  2299                           ;main.c: 566:         LCD_init();
  2300  0B96  160A  118A  240B  120A  158A  	fcall	_LCD_init
  2301                           
  2302                           ;main.c: 567:         LCD_limpa();
  2303  0B9B  160A  118A  2289  120A  158A  	fcall	_LCD_limpa
  2304                           
  2305                           ;main.c: 568:         LCD_linha1();
  2306  0BA0  160A  118A  2299  120A  158A  	fcall	_LCD_linha1
  2307  0BA5                     l3743:
  2308                           
  2309                           ;main.c: 569:         escreveMesagem(msgSenhaConfig);
  2310  0BA5  30D6               	movlw	(low (_msgSenhaConfig| (0+256)))& (0+255)
  2311  0BA6  00F3               	movwf	escreveMesagem@texto
  2312  0BA7  3001               	movlw	1
  2313  0BA8  00F4               	movwf	escreveMesagem@texto+1
  2314  0BA9  160A  118A  243E  120A  158A  	fcall	_escreveMesagem
  2315  0BAE                     l3745:
  2316                           
  2317                           ;main.c: 570:         LCD_linha2();
  2318  0BAE  160A  118A  2279  120A  158A  	fcall	_LCD_linha2
  2319  0BB3                     l3747:
  2320                           
  2321                           ;main.c: 571:         LCD_escreve('>');
  2322  0BB3  303E               	movlw	62
  2323  0BB4  160A  118A  22A9  120A  158A  	fcall	_LCD_escreve
  2324  0BB9                     l3749:
  2325                           
  2326                           ;main.c: 572:         escreveMesagem(msgSenhaUsuario);
  2327  0BB9  30AD               	movlw	(low (_msgSenhaUsuario| (0+256)))& (0+255)
  2328  0BBA  00F3               	movwf	escreveMesagem@texto
  2329  0BBB  3001               	movlw	1
  2330  0BBC  00F4               	movwf	escreveMesagem@texto+1
  2331  0BBD  160A  118A  243E  120A  158A  	fcall	_escreveMesagem
  2332  0BC2                     l3751:
  2333                           
  2334                           ;main.c: 573:         if (RB2 == 0){
  2335  0BC2  1283               	bcf	3,5	;RP0=0, select bank0
  2336  0BC3  1303               	bcf	3,6	;RP1=0, select bank0
  2337  0BC4  1906               	btfsc	6,2	;volatile
  2338  0BC5  2BC7               	goto	u3901
  2339  0BC6  2BC8               	goto	u3900
  2340  0BC7                     u3901:
  2341  0BC7  2D67               	goto	l362
  2342  0BC8                     u3900:
  2343  0BC8                     l3753:
  2344                           
  2345                           ;main.c: 574:             _delay((unsigned long)((100)*(20000000/4000.0)));
  2346  0BC8  3003               	movlw	3
  2347  0BC9  1283               	bcf	3,5	;RP0=0, select bank0
  2348  0BCA  1303               	bcf	3,6	;RP1=0, select bank0
  2349  0BCB  00BF               	movwf	??_listaZonas+2
  2350  0BCC  308A               	movlw	138
  2351  0BCD  00BE               	movwf	??_listaZonas+1
  2352  0BCE  3055               	movlw	85
  2353  0BCF  00BD               	movwf	??_listaZonas
  2354  0BD0                     u4207:
  2355  0BD0  0BBD               	decfsz	??_listaZonas,f
  2356  0BD1  2BD0               	goto	u4207
  2357  0BD2  0BBE               	decfsz	??_listaZonas+1,f
  2358  0BD3  2BD0               	goto	u4207
  2359  0BD4  0BBF               	decfsz	??_listaZonas+2,f
  2360  0BD5  2BD0               	goto	u4207
  2361  0BD6                     l3755:
  2362                           
  2363                           ;main.c: 575:             liga_buzzer(0.1);
  2364  0BD6  303D               	movlw	61
  2365  0BD7  1283               	bcf	3,5	;RP0=0, select bank0
  2366  0BD8  1303               	bcf	3,6	;RP1=0, select bank0
  2367  0BD9  00B8               	movwf	liga_buzzer@tempoSegundos+3
  2368  0BDA  30CC               	movlw	204
  2369  0BDB  00B7               	movwf	liga_buzzer@tempoSegundos+2
  2370  0BDC  30CC               	movlw	204
  2371  0BDD  00B6               	movwf	liga_buzzer@tempoSegundos+1
  2372  0BDE  30CD               	movlw	205
  2373  0BDF  00B5               	movwf	liga_buzzer@tempoSegundos
  2374  0BE0  160A  118A  26FD  120A  158A  	fcall	_liga_buzzer
  2375  0BE5                     l3757:
  2376                           
  2377                           ;main.c: 576:             opConfig = 2;
  2378  0BE5  3002               	movlw	2
  2379  0BE6  1283               	bcf	3,5	;RP0=0, select bank0
  2380  0BE7  1303               	bcf	3,6	;RP1=0, select bank0
  2381  0BE8  00E8               	movwf	_opConfig
  2382  0BE9  3000               	movlw	0
  2383  0BEA  00E9               	movwf	_opConfig+1
  2384  0BEB  2D67               	goto	l362
  2385  0BEC                     l3759:
  2386  0BEC  3002               	movlw	2
  2387  0BED  023C               	subwf	listaZonas@valorSensor+1,w
  2388  0BEE  3065               	movlw	101
  2389  0BEF  1903               	skipnz
  2390  0BF0  023B               	subwf	listaZonas@valorSensor,w
  2391  0BF1  1803               	skipnc
  2392  0BF2  2BF4               	goto	u3911
  2393  0BF3  2BF5               	goto	u3910
  2394  0BF4                     u3911:
  2395  0BF4  2C4B               	goto	l3775
  2396  0BF5                     u3910:
  2397  0BF5                     l3761:
  2398                           
  2399                           ;main.c: 580:         LCD_init();
  2400  0BF5  160A  118A  240B  120A  158A  	fcall	_LCD_init
  2401                           
  2402                           ;main.c: 581:         LCD_limpa();
  2403  0BFA  160A  118A  2289  120A  158A  	fcall	_LCD_limpa
  2404                           
  2405                           ;main.c: 582:         LCD_linha1();
  2406  0BFF  160A  118A  2299  120A  158A  	fcall	_LCD_linha1
  2407                           
  2408                           ;main.c: 583:         LCD_escreve('>');
  2409  0C04  303E               	movlw	62
  2410  0C05  160A  118A  22A9  120A  158A  	fcall	_LCD_escreve
  2411  0C0A                     l3763:
  2412                           
  2413                           ;main.c: 584:         escreveMesagem(msgSenhaCoacao);
  2414  0C0A  30C9               	movlw	(low (_msgSenhaCoacao| (0+256)))& (0+255)
  2415  0C0B  00F3               	movwf	escreveMesagem@texto
  2416  0C0C  3001               	movlw	1
  2417  0C0D  00F4               	movwf	escreveMesagem@texto+1
  2418  0C0E  160A  118A  243E  120A  158A  	fcall	_escreveMesagem
  2419  0C13                     l3765:
  2420                           
  2421                           ;main.c: 585:         LCD_linha2();
  2422  0C13  160A  118A  2279  120A  158A  	fcall	_LCD_linha2
  2423                           
  2424                           ;main.c: 586:         escreveMesagem(msgSenhaDisparo);
  2425  0C18  309F               	movlw	(low (_msgSenhaDisparo| (0+256)))& (0+255)
  2426  0C19  00F3               	movwf	escreveMesagem@texto
  2427  0C1A  3001               	movlw	1
  2428  0C1B  00F4               	movwf	escreveMesagem@texto+1
  2429  0C1C  160A  118A  243E  120A  158A  	fcall	_escreveMesagem
  2430  0C21                     l3767:
  2431                           
  2432                           ;main.c: 587:         if (RB2 == 0){
  2433  0C21  1283               	bcf	3,5	;RP0=0, select bank0
  2434  0C22  1303               	bcf	3,6	;RP1=0, select bank0
  2435  0C23  1906               	btfsc	6,2	;volatile
  2436  0C24  2C26               	goto	u3921
  2437  0C25  2C27               	goto	u3920
  2438  0C26                     u3921:
  2439  0C26  2D67               	goto	l362
  2440  0C27                     u3920:
  2441  0C27                     l3769:
  2442                           
  2443                           ;main.c: 588:             _delay((unsigned long)((100)*(20000000/4000.0)));
  2444  0C27  3003               	movlw	3
  2445  0C28  1283               	bcf	3,5	;RP0=0, select bank0
  2446  0C29  1303               	bcf	3,6	;RP1=0, select bank0
  2447  0C2A  00BF               	movwf	??_listaZonas+2
  2448  0C2B  308A               	movlw	138
  2449  0C2C  00BE               	movwf	??_listaZonas+1
  2450  0C2D  3055               	movlw	85
  2451  0C2E  00BD               	movwf	??_listaZonas
  2452  0C2F                     u4217:
  2453  0C2F  0BBD               	decfsz	??_listaZonas,f
  2454  0C30  2C2F               	goto	u4217
  2455  0C31  0BBE               	decfsz	??_listaZonas+1,f
  2456  0C32  2C2F               	goto	u4217
  2457  0C33  0BBF               	decfsz	??_listaZonas+2,f
  2458  0C34  2C2F               	goto	u4217
  2459  0C35                     l3771:
  2460                           
  2461                           ;main.c: 589:             liga_buzzer(0.1);
  2462  0C35  303D               	movlw	61
  2463  0C36  1283               	bcf	3,5	;RP0=0, select bank0
  2464  0C37  1303               	bcf	3,6	;RP1=0, select bank0
  2465  0C38  00B8               	movwf	liga_buzzer@tempoSegundos+3
  2466  0C39  30CC               	movlw	204
  2467  0C3A  00B7               	movwf	liga_buzzer@tempoSegundos+2
  2468  0C3B  30CC               	movlw	204
  2469  0C3C  00B6               	movwf	liga_buzzer@tempoSegundos+1
  2470  0C3D  30CD               	movlw	205
  2471  0C3E  00B5               	movwf	liga_buzzer@tempoSegundos
  2472  0C3F  160A  118A  26FD  120A  158A  	fcall	_liga_buzzer
  2473  0C44                     l3773:
  2474                           
  2475                           ;main.c: 590:             opConfig = 3;
  2476  0C44  3003               	movlw	3
  2477  0C45  1283               	bcf	3,5	;RP0=0, select bank0
  2478  0C46  1303               	bcf	3,6	;RP1=0, select bank0
  2479  0C47  00E8               	movwf	_opConfig
  2480  0C48  3000               	movlw	0
  2481  0C49  00E9               	movwf	_opConfig+1
  2482  0C4A  2D67               	goto	l362
  2483  0C4B                     l3775:
  2484  0C4B  3003               	movlw	3
  2485  0C4C  023C               	subwf	listaZonas@valorSensor+1,w
  2486  0C4D  3031               	movlw	49
  2487  0C4E  1903               	skipnz
  2488  0C4F  023B               	subwf	listaZonas@valorSensor,w
  2489  0C50  1803               	skipnc
  2490  0C51  2C53               	goto	u3931
  2491  0C52  2C54               	goto	u3930
  2492  0C53                     u3931:
  2493  0C53  2CAA               	goto	l3795
  2494  0C54                     u3930:
  2495  0C54                     l3777:
  2496                           
  2497                           ;main.c: 594:         LCD_init();
  2498  0C54  160A  118A  240B  120A  158A  	fcall	_LCD_init
  2499                           
  2500                           ;main.c: 595:         LCD_limpa();
  2501  0C59  160A  118A  2289  120A  158A  	fcall	_LCD_limpa
  2502                           
  2503                           ;main.c: 596:         LCD_linha1();
  2504  0C5E  160A  118A  2299  120A  158A  	fcall	_LCD_linha1
  2505  0C63                     l3779:
  2506                           
  2507                           ;main.c: 597:         escreveMesagem(msgSenhaCoacao);
  2508  0C63  30C9               	movlw	(low (_msgSenhaCoacao| (0+256)))& (0+255)
  2509  0C64  00F3               	movwf	escreveMesagem@texto
  2510  0C65  3001               	movlw	1
  2511  0C66  00F4               	movwf	escreveMesagem@texto+1
  2512  0C67  160A  118A  243E  120A  158A  	fcall	_escreveMesagem
  2513  0C6C                     l3781:
  2514                           
  2515                           ;main.c: 598:         LCD_linha2();
  2516  0C6C  160A  118A  2279  120A  158A  	fcall	_LCD_linha2
  2517  0C71                     l3783:
  2518                           
  2519                           ;main.c: 599:         LCD_escreve('>');
  2520  0C71  303E               	movlw	62
  2521  0C72  160A  118A  22A9  120A  158A  	fcall	_LCD_escreve
  2522  0C77                     l3785:
  2523                           
  2524                           ;main.c: 600:         escreveMesagem(msgSenhaDisparo);
  2525  0C77  309F               	movlw	(low (_msgSenhaDisparo| (0+256)))& (0+255)
  2526  0C78  00F3               	movwf	escreveMesagem@texto
  2527  0C79  3001               	movlw	1
  2528  0C7A  00F4               	movwf	escreveMesagem@texto+1
  2529  0C7B  160A  118A  243E  120A  158A  	fcall	_escreveMesagem
  2530  0C80                     l3787:
  2531                           
  2532                           ;main.c: 601:         if (RB2 == 0){
  2533  0C80  1283               	bcf	3,5	;RP0=0, select bank0
  2534  0C81  1303               	bcf	3,6	;RP1=0, select bank0
  2535  0C82  1906               	btfsc	6,2	;volatile
  2536  0C83  2C85               	goto	u3941
  2537  0C84  2C86               	goto	u3940
  2538  0C85                     u3941:
  2539  0C85  2D67               	goto	l362
  2540  0C86                     u3940:
  2541  0C86                     l3789:
  2542                           
  2543                           ;main.c: 602:             _delay((unsigned long)((100)*(20000000/4000.0)));
  2544  0C86  3003               	movlw	3
  2545  0C87  1283               	bcf	3,5	;RP0=0, select bank0
  2546  0C88  1303               	bcf	3,6	;RP1=0, select bank0
  2547  0C89  00BF               	movwf	??_listaZonas+2
  2548  0C8A  308A               	movlw	138
  2549  0C8B  00BE               	movwf	??_listaZonas+1
  2550  0C8C  3055               	movlw	85
  2551  0C8D  00BD               	movwf	??_listaZonas
  2552  0C8E                     u4227:
  2553  0C8E  0BBD               	decfsz	??_listaZonas,f
  2554  0C8F  2C8E               	goto	u4227
  2555  0C90  0BBE               	decfsz	??_listaZonas+1,f
  2556  0C91  2C8E               	goto	u4227
  2557  0C92  0BBF               	decfsz	??_listaZonas+2,f
  2558  0C93  2C8E               	goto	u4227
  2559  0C94                     l3791:
  2560                           
  2561                           ;main.c: 603:             liga_buzzer(0.1);
  2562  0C94  303D               	movlw	61
  2563  0C95  1283               	bcf	3,5	;RP0=0, select bank0
  2564  0C96  1303               	bcf	3,6	;RP1=0, select bank0
  2565  0C97  00B8               	movwf	liga_buzzer@tempoSegundos+3
  2566  0C98  30CC               	movlw	204
  2567  0C99  00B7               	movwf	liga_buzzer@tempoSegundos+2
  2568  0C9A  30CC               	movlw	204
  2569  0C9B  00B6               	movwf	liga_buzzer@tempoSegundos+1
  2570  0C9C  30CD               	movlw	205
  2571  0C9D  00B5               	movwf	liga_buzzer@tempoSegundos
  2572  0C9E  160A  118A  26FD  120A  158A  	fcall	_liga_buzzer
  2573  0CA3                     l3793:
  2574                           
  2575                           ;main.c: 604:             opConfig = 4;
  2576  0CA3  3004               	movlw	4
  2577  0CA4  1283               	bcf	3,5	;RP0=0, select bank0
  2578  0CA5  1303               	bcf	3,6	;RP1=0, select bank0
  2579  0CA6  00E8               	movwf	_opConfig
  2580  0CA7  3000               	movlw	0
  2581  0CA8  00E9               	movwf	_opConfig+1
  2582  0CA9  2D67               	goto	l362
  2583  0CAA                     l3795:
  2584  0CAA  3003               	movlw	3
  2585  0CAB  023C               	subwf	listaZonas@valorSensor+1,w
  2586  0CAC  30FD               	movlw	253
  2587  0CAD  1903               	skipnz
  2588  0CAE  023B               	subwf	listaZonas@valorSensor,w
  2589  0CAF  1803               	skipnc
  2590  0CB0  2CB2               	goto	u3951
  2591  0CB1  2CB3               	goto	u3950
  2592  0CB2                     u3951:
  2593  0CB2  2D09               	goto	l3811
  2594  0CB3                     u3950:
  2595  0CB3                     l3797:
  2596                           
  2597                           ;main.c: 608:         LCD_init();
  2598  0CB3  160A  118A  240B  120A  158A  	fcall	_LCD_init
  2599                           
  2600                           ;main.c: 609:         LCD_limpa();
  2601  0CB8  160A  118A  2289  120A  158A  	fcall	_LCD_limpa
  2602                           
  2603                           ;main.c: 610:         LCD_linha1();
  2604  0CBD  160A  118A  2299  120A  158A  	fcall	_LCD_linha1
  2605                           
  2606                           ;main.c: 611:         LCD_escreve('>');
  2607  0CC2  303E               	movlw	62
  2608  0CC3  160A  118A  22A9  120A  158A  	fcall	_LCD_escreve
  2609  0CC8                     l3799:
  2610                           
  2611                           ;main.c: 612:         escreveMesagem(msgDesativarZona);
  2612  0CC8  3090               	movlw	(low (_msgDesativarZona| (0+256)))& (0+255)
  2613  0CC9  00F3               	movwf	escreveMesagem@texto
  2614  0CCA  3001               	movlw	1
  2615  0CCB  00F4               	movwf	escreveMesagem@texto+1
  2616  0CCC  160A  118A  243E  120A  158A  	fcall	_escreveMesagem
  2617  0CD1                     l3801:
  2618                           
  2619                           ;main.c: 613:         LCD_linha2();
  2620  0CD1  160A  118A  2279  120A  158A  	fcall	_LCD_linha2
  2621                           
  2622                           ;main.c: 614:         escreveMesagem(msgReativar);
  2623  0CD6  30D1               	movlw	(low (_msgReativar| 0))& (0+255)
  2624  0CD7  00F3               	movwf	escreveMesagem@texto
  2625  0CD8  3000               	movlw	0
  2626  0CD9  00F4               	movwf	escreveMesagem@texto+1
  2627  0CDA  160A  118A  243E  120A  158A  	fcall	_escreveMesagem
  2628  0CDF                     l3803:
  2629                           
  2630                           ;main.c: 615:         if (RB2 == 0){
  2631  0CDF  1283               	bcf	3,5	;RP0=0, select bank0
  2632  0CE0  1303               	bcf	3,6	;RP1=0, select bank0
  2633  0CE1  1906               	btfsc	6,2	;volatile
  2634  0CE2  2CE4               	goto	u3961
  2635  0CE3  2CE5               	goto	u3960
  2636  0CE4                     u3961:
  2637  0CE4  2D67               	goto	l362
  2638  0CE5                     u3960:
  2639  0CE5                     l3805:
  2640                           
  2641                           ;main.c: 616:             _delay((unsigned long)((100)*(20000000/4000.0)));
  2642  0CE5  3003               	movlw	3
  2643  0CE6  1283               	bcf	3,5	;RP0=0, select bank0
  2644  0CE7  1303               	bcf	3,6	;RP1=0, select bank0
  2645  0CE8  00BF               	movwf	??_listaZonas+2
  2646  0CE9  308A               	movlw	138
  2647  0CEA  00BE               	movwf	??_listaZonas+1
  2648  0CEB  3055               	movlw	85
  2649  0CEC  00BD               	movwf	??_listaZonas
  2650  0CED                     u4237:
  2651  0CED  0BBD               	decfsz	??_listaZonas,f
  2652  0CEE  2CED               	goto	u4237
  2653  0CEF  0BBE               	decfsz	??_listaZonas+1,f
  2654  0CF0  2CED               	goto	u4237
  2655  0CF1  0BBF               	decfsz	??_listaZonas+2,f
  2656  0CF2  2CED               	goto	u4237
  2657  0CF3                     l3807:
  2658                           
  2659                           ;main.c: 617:             liga_buzzer(0.1);
  2660  0CF3  303D               	movlw	61
  2661  0CF4  1283               	bcf	3,5	;RP0=0, select bank0
  2662  0CF5  1303               	bcf	3,6	;RP1=0, select bank0
  2663  0CF6  00B8               	movwf	liga_buzzer@tempoSegundos+3
  2664  0CF7  30CC               	movlw	204
  2665  0CF8  00B7               	movwf	liga_buzzer@tempoSegundos+2
  2666  0CF9  30CC               	movlw	204
  2667  0CFA  00B6               	movwf	liga_buzzer@tempoSegundos+1
  2668  0CFB  30CD               	movlw	205
  2669  0CFC  00B5               	movwf	liga_buzzer@tempoSegundos
  2670  0CFD  160A  118A  26FD  120A  158A  	fcall	_liga_buzzer
  2671  0D02                     l3809:
  2672                           
  2673                           ;main.c: 618:             opConfig = 5;
  2674  0D02  3005               	movlw	5
  2675  0D03  1283               	bcf	3,5	;RP0=0, select bank0
  2676  0D04  1303               	bcf	3,6	;RP1=0, select bank0
  2677  0D05  00E8               	movwf	_opConfig
  2678  0D06  3000               	movlw	0
  2679  0D07  00E9               	movwf	_opConfig+1
  2680  0D08  2D67               	goto	l362
  2681  0D09                     l3811:
  2682  0D09  3004               	movlw	4
  2683  0D0A  023C               	subwf	listaZonas@valorSensor+1,w
  2684  0D0B  30C9               	movlw	201
  2685  0D0C  1903               	skipnz
  2686  0D0D  023B               	subwf	listaZonas@valorSensor,w
  2687  0D0E  1803               	skipnc
  2688  0D0F  2D11               	goto	u3971
  2689  0D10  2D12               	goto	u3970
  2690  0D11                     u3971:
  2691  0D11  2D67               	goto	l362
  2692  0D12                     u3970:
  2693  0D12                     l3813:
  2694                           
  2695                           ;main.c: 622:         LCD_init();
  2696  0D12  160A  118A  240B  120A  158A  	fcall	_LCD_init
  2697                           
  2698                           ;main.c: 623:         LCD_limpa();
  2699  0D17  160A  118A  2289  120A  158A  	fcall	_LCD_limpa
  2700                           
  2701                           ;main.c: 624:         LCD_linha1();
  2702  0D1C  160A  118A  2299  120A  158A  	fcall	_LCD_linha1
  2703  0D21                     l3815:
  2704                           
  2705                           ;main.c: 625:         escreveMesagem(msgDesativarZona);
  2706  0D21  3090               	movlw	(low (_msgDesativarZona| (0+256)))& (0+255)
  2707  0D22  00F3               	movwf	escreveMesagem@texto
  2708  0D23  3001               	movlw	1
  2709  0D24  00F4               	movwf	escreveMesagem@texto+1
  2710  0D25  160A  118A  243E  120A  158A  	fcall	_escreveMesagem
  2711  0D2A                     l3817:
  2712                           
  2713                           ;main.c: 626:         LCD_linha2();
  2714  0D2A  160A  118A  2279  120A  158A  	fcall	_LCD_linha2
  2715  0D2F                     l3819:
  2716                           
  2717                           ;main.c: 627:         LCD_escreve('>');
  2718  0D2F  303E               	movlw	62
  2719  0D30  160A  118A  22A9  120A  158A  	fcall	_LCD_escreve
  2720  0D35                     l3821:
  2721                           
  2722                           ;main.c: 628:         escreveMesagem(msgReativar);
  2723  0D35  30D1               	movlw	(low (_msgReativar| 0))& (0+255)
  2724  0D36  00F3               	movwf	escreveMesagem@texto
  2725  0D37  3000               	movlw	0
  2726  0D38  00F4               	movwf	escreveMesagem@texto+1
  2727  0D39  160A  118A  243E  120A  158A  	fcall	_escreveMesagem
  2728  0D3E                     l3823:
  2729                           
  2730                           ;main.c: 629:         if (RB2 == 0){
  2731  0D3E  1283               	bcf	3,5	;RP0=0, select bank0
  2732  0D3F  1303               	bcf	3,6	;RP1=0, select bank0
  2733  0D40  1906               	btfsc	6,2	;volatile
  2734  0D41  2D43               	goto	u3981
  2735  0D42  2D44               	goto	u3980
  2736  0D43                     u3981:
  2737  0D43  2D67               	goto	l362
  2738  0D44                     u3980:
  2739  0D44                     l3825:
  2740                           
  2741                           ;main.c: 630:             _delay((unsigned long)((100)*(20000000/4000.0)));
  2742  0D44  3003               	movlw	3
  2743  0D45  1283               	bcf	3,5	;RP0=0, select bank0
  2744  0D46  1303               	bcf	3,6	;RP1=0, select bank0
  2745  0D47  00BF               	movwf	??_listaZonas+2
  2746  0D48  308A               	movlw	138
  2747  0D49  00BE               	movwf	??_listaZonas+1
  2748  0D4A  3055               	movlw	85
  2749  0D4B  00BD               	movwf	??_listaZonas
  2750  0D4C                     u4247:
  2751  0D4C  0BBD               	decfsz	??_listaZonas,f
  2752  0D4D  2D4C               	goto	u4247
  2753  0D4E  0BBE               	decfsz	??_listaZonas+1,f
  2754  0D4F  2D4C               	goto	u4247
  2755  0D50  0BBF               	decfsz	??_listaZonas+2,f
  2756  0D51  2D4C               	goto	u4247
  2757  0D52                     l3827:
  2758                           
  2759                           ;main.c: 631:             liga_buzzer(0.1);
  2760  0D52  303D               	movlw	61
  2761  0D53  1283               	bcf	3,5	;RP0=0, select bank0
  2762  0D54  1303               	bcf	3,6	;RP1=0, select bank0
  2763  0D55  00B8               	movwf	liga_buzzer@tempoSegundos+3
  2764  0D56  30CC               	movlw	204
  2765  0D57  00B7               	movwf	liga_buzzer@tempoSegundos+2
  2766  0D58  30CC               	movlw	204
  2767  0D59  00B6               	movwf	liga_buzzer@tempoSegundos+1
  2768  0D5A  30CD               	movlw	205
  2769  0D5B  00B5               	movwf	liga_buzzer@tempoSegundos
  2770  0D5C  160A  118A  26FD  120A  158A  	fcall	_liga_buzzer
  2771  0D61                     l3829:
  2772                           
  2773                           ;main.c: 632:             opConfig = 6;
  2774  0D61  3006               	movlw	6
  2775  0D62  1283               	bcf	3,5	;RP0=0, select bank0
  2776  0D63  1303               	bcf	3,6	;RP1=0, select bank0
  2777  0D64  00E8               	movwf	_opConfig
  2778  0D65  3000               	movlw	0
  2779  0D66  00E9               	movwf	_opConfig+1
  2780  0D67                     l362:
  2781  0D67  0008               	return
  2782  0D68                     __end_of_listaZonas:
  2783                           
  2784                           	psect	text5
  2785  13DC                     __ptext5:	
  2786 ;; *************** function _leituraADC *****************
  2787 ;; Defined at:
  2788 ;;		line 650 in file "main.c"
  2789 ;; Parameters:    Size  Location     Type
  2790 ;;  canal           1    wreg     unsigned char 
  2791 ;; Auto vars:     Size  Location     Type
  2792 ;;  canal           1    6[COMMON] unsigned char 
  2793 ;;  leitura         2    4[COMMON] unsigned int 
  2794 ;; Return value:  Size  Location     Type
  2795 ;;                  2    0[COMMON] unsigned int 
  2796 ;; Registers used:
  2797 ;;		wreg, status,2, status,0
  2798 ;; Tracked objects:
  2799 ;;		On entry : 0/0
  2800 ;;		On exit  : 0/0
  2801 ;;		Unchanged: 0/0
  2802 ;; Data sizes:     COMMON   BANK0   BANK1   BANK3   BANK2
  2803 ;;      Params:         2       0       0       0       0
  2804 ;;      Locals:         3       0       0       0       0
  2805 ;;      Temps:          2       0       0       0       0
  2806 ;;      Totals:         7       0       0       0       0
  2807 ;;Total ram usage:        7 bytes
  2808 ;; Hardware stack levels used: 1
  2809 ;; This function calls:
  2810 ;;		Nothing
  2811 ;; This function is called by:
  2812 ;;		_main
  2813 ;; This function uses a non-reentrant model
  2814 ;;
  2815                           
  2816                           
  2817                           ;psect for function _leituraADC
  2818  13DC                     _leituraADC:
  2819                           
  2820                           ;incstack = 0
  2821                           ; Regs used in _leituraADC: [wreg+status,2+status,0]
  2822                           ;leituraADC@canal stored from wreg
  2823  13DC  00F6               	movwf	leituraADC@canal
  2824  13DD                     l3215:
  2825                           
  2826                           ;main.c: 651:     unsigned int leitura;;main.c: 653:     ADCON0 &= 0xC5;
  2827  13DD  30C5               	movlw	197
  2828  13DE  00F2               	movwf	??_leituraADC
  2829  13DF  0872               	movf	??_leituraADC,w
  2830  13E0  1283               	bcf	3,5	;RP0=0, select bank0
  2831  13E1  1303               	bcf	3,6	;RP1=0, select bank0
  2832  13E2  059F               	andwf	31,f	;volatile
  2833                           
  2834                           ;main.c: 654:     ADCON0 |= (canal<<3);
  2835  13E3  0876               	movf	leituraADC@canal,w	;volatile
  2836  13E4  00F2               	movwf	??_leituraADC
  2837  13E5  3002               	movlw	2
  2838  13E6                     u3365:
  2839  13E6  1003               	clrc
  2840  13E7  0DF2               	rlf	??_leituraADC,f
  2841  13E8  3EFF               	addlw	-1
  2842  13E9  1D03               	skipz
  2843  13EA  2BE6               	goto	u3365
  2844  13EB  1003               	clrc
  2845  13EC  0D72               	rlf	??_leituraADC,w
  2846  13ED  00F3               	movwf	??_leituraADC+1
  2847  13EE  0873               	movf	??_leituraADC+1,w
  2848  13EF  049F               	iorwf	31,f	;volatile
  2849  13F0                     l3217:
  2850                           
  2851                           ;main.c: 655:     _delay((unsigned long)((2)*(20000000/4000.0)));
  2852  13F0  300D               	movlw	13
  2853  13F1  00F3               	movwf	??_leituraADC+1
  2854  13F2  30FB               	movlw	251
  2855  13F3  00F2               	movwf	??_leituraADC
  2856  13F4                     u4257:
  2857  13F4  0BF2               	decfsz	??_leituraADC,f
  2858  13F5  2BF4               	goto	u4257
  2859  13F6  0BF3               	decfsz	??_leituraADC+1,f
  2860  13F7  2BF4               	goto	u4257
  2861  13F8  2BF9               	nop2
  2862  13F9                     l3219:
  2863                           
  2864                           ;main.c: 658:     GO_nDONE = 1;
  2865  13F9  1283               	bcf	3,5	;RP0=0, select bank0
  2866  13FA  1303               	bcf	3,6	;RP1=0, select bank0
  2867  13FB  151F               	bsf	31,2	;volatile
  2868  13FC                     l374:	
  2869                           ;main.c: 661:     while (GO_nDONE);
  2870                           
  2871  13FC  191F               	btfsc	31,2	;volatile
  2872  13FD  2BFF               	goto	u3371
  2873  13FE  2C00               	goto	u3370
  2874  13FF                     u3371:
  2875  13FF  2BFC               	goto	l374
  2876  1400                     u3370:
  2877  1400                     l3221:
  2878                           
  2879                           ;main.c: 663:     leitura = (ADRESH<<8) + ADRESL;
  2880  1400  081E               	movf	30,w	;volatile
  2881  1401  00F5               	movwf	leituraADC@leitura+1
  2882  1402  1683               	bsf	3,5	;RP0=1, select bank1
  2883  1403  1303               	bcf	3,6	;RP1=0, select bank1
  2884  1404  081E               	movf	30,w	;volatile
  2885  1405  00F4               	movwf	leituraADC@leitura
  2886                           
  2887                           ;main.c: 664:     return leitura;
  2888  1406  0875               	movf	leituraADC@leitura+1,w
  2889  1407  00F1               	movwf	?_leituraADC+1
  2890  1408  0874               	movf	leituraADC@leitura,w
  2891  1409  00F0               	movwf	?_leituraADC
  2892  140A                     l377:
  2893  140A  0008               	return
  2894  140B                     __end_of_leituraADC:
  2895                           
  2896                           	psect	text6
  2897  125E                     __ptext6:	
  2898 ;; *************** function _inicioADC *****************
  2899 ;; Defined at:
  2900 ;;		line 641 in file "main.c"
  2901 ;; Parameters:    Size  Location     Type
  2902 ;;		None
  2903 ;; Auto vars:     Size  Location     Type
  2904 ;;		None
  2905 ;; Return value:  Size  Location     Type
  2906 ;;                  1    wreg      void 
  2907 ;; Registers used:
  2908 ;;		wreg
  2909 ;; Tracked objects:
  2910 ;;		On entry : 0/0
  2911 ;;		On exit  : 0/0
  2912 ;;		Unchanged: 0/0
  2913 ;; Data sizes:     COMMON   BANK0   BANK1   BANK3   BANK2
  2914 ;;      Params:         0       0       0       0       0
  2915 ;;      Locals:         0       0       0       0       0
  2916 ;;      Temps:          0       0       0       0       0
  2917 ;;      Totals:         0       0       0       0       0
  2918 ;;Total ram usage:        0 bytes
  2919 ;; Hardware stack levels used: 1
  2920 ;; This function calls:
  2921 ;;		Nothing
  2922 ;; This function is called by:
  2923 ;;		_main
  2924 ;; This function uses a non-reentrant model
  2925 ;;
  2926                           
  2927                           
  2928                           ;psect for function _inicioADC
  2929  125E                     _inicioADC:
  2930  125E                     l3129:	
  2931                           ;incstack = 0
  2932                           ; Regs used in _inicioADC: [wreg]
  2933                           
  2934                           
  2935                           ;main.c: 642:     TRISA = 0xFF;
  2936  125E  30FF               	movlw	255
  2937  125F  1683               	bsf	3,5	;RP0=1, select bank1
  2938  1260  1303               	bcf	3,6	;RP1=0, select bank1
  2939  1261  0085               	movwf	5	;volatile
  2940                           
  2941                           ;main.c: 644:     ADCON0 = 0x81;
  2942  1262  3081               	movlw	129
  2943  1263  1283               	bcf	3,5	;RP0=0, select bank0
  2944  1264  1303               	bcf	3,6	;RP1=0, select bank0
  2945  1265  009F               	movwf	31	;volatile
  2946                           
  2947                           ;main.c: 648:     ADCON1 = 0x80;
  2948  1266  3080               	movlw	128
  2949  1267  1683               	bsf	3,5	;RP0=1, select bank1
  2950  1268  1303               	bcf	3,6	;RP1=0, select bank1
  2951  1269  009F               	movwf	31	;volatile
  2952  126A                     l371:
  2953  126A  0008               	return
  2954  126B                     __end_of_inicioADC:
  2955                           
  2956                           	psect	text7
  2957  0857                     __ptext7:	
  2958 ;; *************** function _configZonas *****************
  2959 ;; Defined at:
  2960 ;;		line 157 in file "main.c"
  2961 ;; Parameters:    Size  Location     Type
  2962 ;;		None
  2963 ;; Auto vars:     Size  Location     Type
  2964 ;;  pos             1    0        unsigned char 
  2965 ;; Return value:  Size  Location     Type
  2966 ;;                  1    wreg      void 
  2967 ;; Registers used:
  2968 ;;		wreg, fsr0l, fsr0h, status,2, status,0, btemp+1, pclath, cstack
  2969 ;; Tracked objects:
  2970 ;;		On entry : 0/0
  2971 ;;		On exit  : 0/0
  2972 ;;		Unchanged: 0/0
  2973 ;; Data sizes:     COMMON   BANK0   BANK1   BANK3   BANK2
  2974 ;;      Params:         0       0       0       0       0
  2975 ;;      Locals:         0       0       0       0       0
  2976 ;;      Temps:          0       3       0       0       0
  2977 ;;      Totals:         0       3       0       0       0
  2978 ;;Total ram usage:        3 bytes
  2979 ;; Hardware stack levels used: 1
  2980 ;; Hardware stack levels required when called: 4
  2981 ;; This function calls:
  2982 ;;		_infoZonas
  2983 ;;		_setaZona
  2984 ;; This function is called by:
  2985 ;;		_main
  2986 ;; This function uses a non-reentrant model
  2987 ;;
  2988                           
  2989                           
  2990                           ;psect for function _configZonas
  2991  0857                     _configZonas:
  2992  0857                     l3851:	
  2993                           ;incstack = 0
  2994                           ; Regs used in _configZonas: [wreg-fsr0h+status,2+status,0+btemp+1+pclath+cstack]
  2995                           
  2996                           
  2997                           ;main.c: 158:     infoZonas();
  2998  0857  160A  118A  23AD  120A  158A  	fcall	_infoZonas
  2999  085C                     l3853:
  3000                           
  3001                           ;main.c: 159:     PORTB = 0b11101111;
  3002  085C  30EF               	movlw	239
  3003  085D  1283               	bcf	3,5	;RP0=0, select bank0
  3004  085E  1303               	bcf	3,6	;RP1=0, select bank0
  3005  085F  0086               	movwf	6	;volatile
  3006  0860                     l3855:
  3007  0860                     l3857:	
  3008                           ;main.c: 161:     while (zonaConfig){
  3009                           
  3010                           
  3011                           ;main.c: 162:         _delay((unsigned long)((250)*(20000000/4000.0)));
  3012  0860  3007               	movlw	7
  3013  0861  1283               	bcf	3,5	;RP0=0, select bank0
  3014  0862  1303               	bcf	3,6	;RP1=0, select bank0
  3015  0863  00A2               	movwf	??_configZonas+2
  3016  0864  3058               	movlw	88
  3017  0865  00A1               	movwf	??_configZonas+1
  3018  0866  3059               	movlw	89
  3019  0867  00A0               	movwf	??_configZonas
  3020  0868                     u4267:
  3021  0868  0BA0               	decfsz	??_configZonas,f
  3022  0869  2868               	goto	u4267
  3023  086A  0BA1               	decfsz	??_configZonas+1,f
  3024  086B  2868               	goto	u4267
  3025  086C  0BA2               	decfsz	??_configZonas+2,f
  3026  086D  2868               	goto	u4267
  3027  086E                     l3859:
  3028                           
  3029                           ;main.c: 163:         if (RB0 == 0){
  3030  086E  1283               	bcf	3,5	;RP0=0, select bank0
  3031  086F  1303               	bcf	3,6	;RP1=0, select bank0
  3032  0870  1806               	btfsc	6,0	;volatile
  3033  0871  2873               	goto	u4021
  3034  0872  2874               	goto	u4020
  3035  0873                     u4021:
  3036  0873  288E               	goto	l3865
  3037  0874                     u4020:
  3038  0874                     l3861:
  3039                           
  3040                           ;main.c: 165:             _delay((unsigned long)((2)*(20000000/4000.0)));
  3041  0874  300D               	movlw	13
  3042  0875  1283               	bcf	3,5	;RP0=0, select bank0
  3043  0876  1303               	bcf	3,6	;RP1=0, select bank0
  3044  0877  00A1               	movwf	??_configZonas+1
  3045  0878  30FB               	movlw	251
  3046  0879  00A0               	movwf	??_configZonas
  3047  087A                     u4277:
  3048  087A  0BA0               	decfsz	??_configZonas,f
  3049  087B  287A               	goto	u4277
  3050  087C  0BA1               	decfsz	??_configZonas+1,f
  3051  087D  287A               	goto	u4277
  3052  087E                     l3863:
  3053                           
  3054                           ;main.c: 166:             setaZona(msgZonaDisparadas, msgConfigDispara, pos);
  3055  087E  30AF               	movlw	(low (_msgConfigDispara| 0))& (0+255)
  3056  087F  1283               	bcf	3,5	;RP0=0, select bank0
  3057  0880  1303               	bcf	3,6	;RP1=0, select bank0
  3058  0881  00A0               	movwf	??_configZonas
  3059  0882  0820               	movf	??_configZonas,w
  3060  0883  00F0               	movwf	setaZona@msgConfigDispara
  3061  0884  3031               	movlw	49
  3062  0885  00F1               	movwf	setaZona@pos
  3063  0886  3000               	movlw	0
  3064  0887  00F2               	movwf	setaZona@pos+1
  3065  0888  30A0               	movlw	(low (_msgZonaDisparadas| 0))& (0+255)
  3066  0889  120A  158A  2192  120A  158A  	fcall	_setaZona
  3067  088E                     l3865:
  3068                           
  3069                           ;main.c: 168:         if (RB1 == 0){
  3070  088E  1283               	bcf	3,5	;RP0=0, select bank0
  3071  088F  1303               	bcf	3,6	;RP1=0, select bank0
  3072  0890  1886               	btfsc	6,1	;volatile
  3073  0891  2893               	goto	u4031
  3074  0892  2894               	goto	u4030
  3075  0893                     u4031:
  3076  0893  28AE               	goto	l3871
  3077  0894                     u4030:
  3078  0894                     l3867:
  3079                           
  3080                           ;main.c: 170:             _delay((unsigned long)((2)*(20000000/4000.0)));
  3081  0894  300D               	movlw	13
  3082  0895  1283               	bcf	3,5	;RP0=0, select bank0
  3083  0896  1303               	bcf	3,6	;RP1=0, select bank0
  3084  0897  00A1               	movwf	??_configZonas+1
  3085  0898  30FB               	movlw	251
  3086  0899  00A0               	movwf	??_configZonas
  3087  089A                     u4287:
  3088  089A  0BA0               	decfsz	??_configZonas,f
  3089  089B  289A               	goto	u4287
  3090  089C  0BA1               	decfsz	??_configZonas+1,f
  3091  089D  289A               	goto	u4287
  3092  089E                     l3869:
  3093                           
  3094                           ;main.c: 171:             setaZona(msgZonaDisparadas, msgConfigDispara, pos);
  3095  089E  30AF               	movlw	(low (_msgConfigDispara| 0))& (0+255)
  3096  089F  1283               	bcf	3,5	;RP0=0, select bank0
  3097  08A0  1303               	bcf	3,6	;RP1=0, select bank0
  3098  08A1  00A0               	movwf	??_configZonas
  3099  08A2  0820               	movf	??_configZonas,w
  3100  08A3  00F0               	movwf	setaZona@msgConfigDispara
  3101  08A4  3032               	movlw	50
  3102  08A5  00F1               	movwf	setaZona@pos
  3103  08A6  3000               	movlw	0
  3104  08A7  00F2               	movwf	setaZona@pos+1
  3105  08A8  30A0               	movlw	(low (_msgZonaDisparadas| 0))& (0+255)
  3106  08A9  120A  158A  2192  120A  158A  	fcall	_setaZona
  3107  08AE                     l3871:
  3108                           
  3109                           ;main.c: 173:         if (RB2 == 0){
  3110  08AE  1283               	bcf	3,5	;RP0=0, select bank0
  3111  08AF  1303               	bcf	3,6	;RP1=0, select bank0
  3112  08B0  1906               	btfsc	6,2	;volatile
  3113  08B1  28B3               	goto	u4041
  3114  08B2  28B4               	goto	u4040
  3115  08B3                     u4041:
  3116  08B3  28CE               	goto	l3877
  3117  08B4                     u4040:
  3118  08B4                     l3873:
  3119                           
  3120                           ;main.c: 175:             _delay((unsigned long)((2)*(20000000/4000.0)));
  3121  08B4  300D               	movlw	13
  3122  08B5  1283               	bcf	3,5	;RP0=0, select bank0
  3123  08B6  1303               	bcf	3,6	;RP1=0, select bank0
  3124  08B7  00A1               	movwf	??_configZonas+1
  3125  08B8  30FB               	movlw	251
  3126  08B9  00A0               	movwf	??_configZonas
  3127  08BA                     u4297:
  3128  08BA  0BA0               	decfsz	??_configZonas,f
  3129  08BB  28BA               	goto	u4297
  3130  08BC  0BA1               	decfsz	??_configZonas+1,f
  3131  08BD  28BA               	goto	u4297
  3132  08BE                     l3875:
  3133                           
  3134                           ;main.c: 176:             setaZona(msgZonaDisparadas, msgConfigDispara, pos);
  3135  08BE  30AF               	movlw	(low (_msgConfigDispara| 0))& (0+255)
  3136  08BF  1283               	bcf	3,5	;RP0=0, select bank0
  3137  08C0  1303               	bcf	3,6	;RP1=0, select bank0
  3138  08C1  00A0               	movwf	??_configZonas
  3139  08C2  0820               	movf	??_configZonas,w
  3140  08C3  00F0               	movwf	setaZona@msgConfigDispara
  3141  08C4  3033               	movlw	51
  3142  08C5  00F1               	movwf	setaZona@pos
  3143  08C6  3000               	movlw	0
  3144  08C7  00F2               	movwf	setaZona@pos+1
  3145  08C8  30A0               	movlw	(low (_msgZonaDisparadas| 0))& (0+255)
  3146  08C9  120A  158A  2192  120A  158A  	fcall	_setaZona
  3147  08CE                     l3877:
  3148                           
  3149                           ;main.c: 178:         if (RB3 == 0){
  3150  08CE  1283               	bcf	3,5	;RP0=0, select bank0
  3151  08CF  1303               	bcf	3,6	;RP1=0, select bank0
  3152  08D0  1986               	btfsc	6,3	;volatile
  3153  08D1  28D3               	goto	u4051
  3154  08D2  28D4               	goto	u4050
  3155  08D3                     u4051:
  3156  08D3  2860               	goto	l3857
  3157  08D4                     u4050:
  3158  08D4                     l3879:
  3159                           
  3160                           ;main.c: 180:             _delay((unsigned long)((2)*(20000000/4000.0)));
  3161  08D4  300D               	movlw	13
  3162  08D5  1283               	bcf	3,5	;RP0=0, select bank0
  3163  08D6  1303               	bcf	3,6	;RP1=0, select bank0
  3164  08D7  00A1               	movwf	??_configZonas+1
  3165  08D8  30FB               	movlw	251
  3166  08D9  00A0               	movwf	??_configZonas
  3167  08DA                     u4307:
  3168  08DA  0BA0               	decfsz	??_configZonas,f
  3169  08DB  28DA               	goto	u4307
  3170  08DC  0BA1               	decfsz	??_configZonas+1,f
  3171  08DD  28DA               	goto	u4307
  3172  08DE                     l3881:
  3173                           
  3174                           ;main.c: 181:             setaZona(msgZonaDisparadas, msgConfigDispara, pos);
  3175  08DE  30AF               	movlw	(low (_msgConfigDispara| 0))& (0+255)
  3176  08DF  1283               	bcf	3,5	;RP0=0, select bank0
  3177  08E0  1303               	bcf	3,6	;RP1=0, select bank0
  3178  08E1  00A0               	movwf	??_configZonas
  3179  08E2  0820               	movf	??_configZonas,w
  3180  08E3  00F0               	movwf	setaZona@msgConfigDispara
  3181  08E4  3034               	movlw	52
  3182  08E5  00F1               	movwf	setaZona@pos
  3183  08E6  3000               	movlw	0
  3184  08E7  00F2               	movwf	setaZona@pos+1
  3185  08E8  30A0               	movlw	(low (_msgZonaDisparadas| 0))& (0+255)
  3186  08E9  120A  158A  2192  120A  158A  	fcall	_setaZona
  3187  08EE  2860               	goto	l3857
  3188  08EF  0008               	return
  3189  08F0                     __end_of_configZonas:
  3190                           
  3191                           	psect	text8
  3192  0992                     __ptext8:	
  3193 ;; *************** function _setaZona *****************
  3194 ;; Defined at:
  3195 ;;		line 124 in file "main.c"
  3196 ;; Parameters:    Size  Location     Type
  3197 ;;  msgZonaDispa    1    wreg     PTR unsigned char 
  3198 ;;		 -> msgZonaDisparadas(15), 
  3199 ;;  msgConfigDis    1    0[COMMON] PTR unsigned char 
  3200 ;;		 -> msgConfigDispara(15), 
  3201 ;;  pos             2    1[COMMON] PTR unsigned char 
  3202 ;;		 -> RAM(512), 
  3203 ;; Auto vars:     Size  Location     Type
  3204 ;;  msgZonaDispa    1   10[COMMON] PTR unsigned char 
  3205 ;;		 -> msgZonaDisparadas(15), 
  3206 ;;  i               2    8[COMMON] int 
  3207 ;;  i               2    6[COMMON] int 
  3208 ;; Return value:  Size  Location     Type
  3209 ;;                  1    wreg      void 
  3210 ;; Registers used:
  3211 ;;		wreg, fsr0l, fsr0h, status,2, status,0
  3212 ;; Tracked objects:
  3213 ;;		On entry : 0/0
  3214 ;;		On exit  : 0/0
  3215 ;;		Unchanged: 0/0
  3216 ;; Data sizes:     COMMON   BANK0   BANK1   BANK3   BANK2
  3217 ;;      Params:         3       0       0       0       0
  3218 ;;      Locals:         5       0       0       0       0
  3219 ;;      Temps:          3       0       0       0       0
  3220 ;;      Totals:        11       0       0       0       0
  3221 ;;Total ram usage:       11 bytes
  3222 ;; Hardware stack levels used: 1
  3223 ;; This function calls:
  3224 ;;		Nothing
  3225 ;; This function is called by:
  3226 ;;		_configZonas
  3227 ;;		_validaUser
  3228 ;; This function uses a non-reentrant model
  3229 ;;
  3230                           
  3231                           
  3232                           ;psect for function _setaZona
  3233  0992                     _setaZona:
  3234                           
  3235                           ;incstack = 0
  3236                           ; Regs used in _setaZona: [wreg-fsr0h+status,2+status,0]
  3237                           ;setaZona@msgZonaDisparadas stored from wreg
  3238  0992  00FA               	movwf	setaZona@msgZonaDisparadas
  3239  0993                     l3039:
  3240                           
  3241                           ;main.c: 125:     if (senhaCoaAtivo){
  3242  0993  1283               	bcf	3,5	;RP0=0, select bank0
  3243  0994  1303               	bcf	3,6	;RP1=0, select bank0
  3244  0995  086E               	movf	_senhaCoaAtivo,w
  3245  0996  046F               	iorwf	_senhaCoaAtivo+1,w
  3246  0997  1903               	btfsc	3,2
  3247  0998  299A               	goto	u3141
  3248  0999  299B               	goto	u3140
  3249  099A                     u3141:
  3250  099A  29E5               	goto	l3057
  3251  099B                     u3140:
  3252  099B                     l3041:
  3253                           
  3254                           ;main.c: 126:         for (int i = 0; msgZonaDisparadas[i] != '\0'; i++){
  3255  099B  01F6               	clrf	setaZona@i
  3256  099C  01F7               	clrf	setaZona@i+1
  3257  099D  29D9               	goto	l3055
  3258  099E                     l3043:
  3259                           
  3260                           ;main.c: 127:             if(msgZonaDisparadas[i] == '1' && msgConfigDispara[i] == pos){
  3261  099E  0876               	movf	setaZona@i,w
  3262  099F  077A               	addwf	setaZona@msgZonaDisparadas,w
  3263  09A0  00F3               	movwf	??_setaZona
  3264  09A1  0873               	movf	??_setaZona,w
  3265  09A2  0084               	movwf	4
  3266  09A3  3031               	movlw	49
  3267  09A4  0600               	xorwf	0,w
  3268  09A5  1D03               	btfss	3,2
  3269  09A6  29A8               	goto	u3151
  3270  09A7  29A9               	goto	u3150
  3271  09A8                     u3151:
  3272  09A8  29D3               	goto	l3053
  3273  09A9                     u3150:
  3274  09A9                     l3045:
  3275  09A9  0876               	movf	setaZona@i,w
  3276  09AA  0770               	addwf	setaZona@msgConfigDispara,w
  3277  09AB  00F3               	movwf	??_setaZona
  3278  09AC  0873               	movf	??_setaZona,w
  3279  09AD  0084               	movwf	4
  3280  09AE  0800               	movf	0,w
  3281  09AF  00F4               	movwf	??_setaZona+1
  3282  09B0  01F5               	clrf	??_setaZona+2
  3283  09B1  0872               	movf	setaZona@pos+1,w
  3284  09B2  0675               	xorwf	??_setaZona+2,w
  3285  09B3  1D03               	skipz
  3286  09B4  29B7               	goto	u3165
  3287  09B5  0871               	movf	setaZona@pos,w
  3288  09B6  0674               	xorwf	??_setaZona+1,w
  3289  09B7                     u3165:
  3290  09B7  1D03               	skipz
  3291  09B8  29BA               	goto	u3161
  3292  09B9  29BB               	goto	u3160
  3293  09BA                     u3161:
  3294  09BA  29D3               	goto	l3053
  3295  09BB                     u3160:
  3296  09BB                     l3047:
  3297                           
  3298                           ;main.c: 128:                 msgZonaDisparadas[i] = '0';
  3299  09BB  3030               	movlw	48
  3300  09BC  00F3               	movwf	??_setaZona
  3301  09BD  0876               	movf	setaZona@i,w
  3302  09BE  077A               	addwf	setaZona@msgZonaDisparadas,w
  3303  09BF  00F4               	movwf	??_setaZona+1
  3304  09C0  0874               	movf	??_setaZona+1,w
  3305  09C1  0084               	movwf	4
  3306  09C2  0873               	movf	??_setaZona,w
  3307  09C3  0080               	movwf	0
  3308  09C4                     l3049:
  3309                           
  3310                           ;main.c: 129:                 _delay((unsigned long)((2)*(20000000/4000.0)));
  3311  09C4  300D               	movlw	13
  3312  09C5  00F4               	movwf	??_setaZona+1
  3313  09C6  30FB               	movlw	251
  3314  09C7  00F3               	movwf	??_setaZona
  3315  09C8                     u4317:
  3316  09C8  0BF3               	decfsz	??_setaZona,f
  3317  09C9  29C8               	goto	u4317
  3318  09CA  0BF4               	decfsz	??_setaZona+1,f
  3319  09CB  29C8               	goto	u4317
  3320  09CC  29CD               	nop2
  3321  09CD                     l3051:
  3322                           
  3323                           ;main.c: 130:                 pos++;
  3324  09CD  3001               	movlw	1
  3325  09CE  07F1               	addwf	setaZona@pos,f
  3326  09CF  1803               	skipnc
  3327  09D0  0AF2               	incf	setaZona@pos+1,f
  3328  09D1  3000               	movlw	0
  3329  09D2  07F2               	addwf	setaZona@pos+1,f
  3330  09D3                     l3053:
  3331                           
  3332                           ;main.c: 132:         }
  3333  09D3  3001               	movlw	1
  3334  09D4  07F6               	addwf	setaZona@i,f
  3335  09D5  1803               	skipnc
  3336  09D6  0AF7               	incf	setaZona@i+1,f
  3337  09D7  3000               	movlw	0
  3338  09D8  07F7               	addwf	setaZona@i+1,f
  3339  09D9                     l3055:
  3340  09D9  0876               	movf	setaZona@i,w
  3341  09DA  077A               	addwf	setaZona@msgZonaDisparadas,w
  3342  09DB  00F3               	movwf	??_setaZona
  3343  09DC  0873               	movf	??_setaZona,w
  3344  09DD  0084               	movwf	4
  3345  09DE  1383               	bcf	3,7	;select IRP bank0
  3346  09DF  0800               	movf	0,w
  3347  09E0  1D03               	btfss	3,2
  3348  09E1  29E3               	goto	u3171
  3349  09E2  29E4               	goto	u3170
  3350  09E3                     u3171:
  3351  09E3  299E               	goto	l3043
  3352  09E4                     u3170:
  3353  09E4  2A4F               	goto	l216
  3354  09E5                     l3057:
  3355                           
  3356                           ;main.c: 135:         for (int i = 0; msgZonaDisparadas[i] != '\0'; i++){
  3357  09E5  01F8               	clrf	setaZona@i_184
  3358  09E6  01F9               	clrf	setaZona@i_184+1
  3359  09E7  2A44               	goto	l210
  3360  09E8                     l3059:
  3361                           
  3362                           ;main.c: 136:             if(msgZonaDisparadas[i] == '0' && msgConfigDispara[i] == pos){
  3363  09E8  0878               	movf	setaZona@i_184,w
  3364  09E9  077A               	addwf	setaZona@msgZonaDisparadas,w
  3365  09EA  00F3               	movwf	??_setaZona
  3366  09EB  0873               	movf	??_setaZona,w
  3367  09EC  0084               	movwf	4
  3368  09ED  3030               	movlw	48
  3369  09EE  0600               	xorwf	0,w
  3370  09EF  1D03               	btfss	3,2
  3371  09F0  29F2               	goto	u3181
  3372  09F1  29F3               	goto	u3180
  3373  09F2                     u3181:
  3374  09F2  2A0F               	goto	l3065
  3375  09F3                     u3180:
  3376  09F3                     l3061:
  3377  09F3  0878               	movf	setaZona@i_184,w
  3378  09F4  0770               	addwf	setaZona@msgConfigDispara,w
  3379  09F5  00F3               	movwf	??_setaZona
  3380  09F6  0873               	movf	??_setaZona,w
  3381  09F7  0084               	movwf	4
  3382  09F8  0800               	movf	0,w
  3383  09F9  00F4               	movwf	??_setaZona+1
  3384  09FA  01F5               	clrf	??_setaZona+2
  3385  09FB  0872               	movf	setaZona@pos+1,w
  3386  09FC  0675               	xorwf	??_setaZona+2,w
  3387  09FD  1D03               	skipz
  3388  09FE  2A01               	goto	u3195
  3389  09FF  0871               	movf	setaZona@pos,w
  3390  0A00  0674               	xorwf	??_setaZona+1,w
  3391  0A01                     u3195:
  3392  0A01  1D03               	skipz
  3393  0A02  2A04               	goto	u3191
  3394  0A03  2A05               	goto	u3190
  3395  0A04                     u3191:
  3396  0A04  2A0F               	goto	l3065
  3397  0A05                     u3190:
  3398  0A05                     l3063:
  3399                           
  3400                           ;main.c: 137:                 msgZonaDisparadas[i] = '1';
  3401  0A05  3031               	movlw	49
  3402  0A06  00F3               	movwf	??_setaZona
  3403  0A07  0878               	movf	setaZona@i_184,w
  3404  0A08  077A               	addwf	setaZona@msgZonaDisparadas,w
  3405  0A09  00F4               	movwf	??_setaZona+1
  3406  0A0A  0874               	movf	??_setaZona+1,w
  3407  0A0B  0084               	movwf	4
  3408  0A0C  0873               	movf	??_setaZona,w
  3409  0A0D  0080               	movwf	0
  3410                           
  3411                           ;main.c: 138:             }
  3412  0A0E  2A35               	goto	l3071
  3413  0A0F                     l3065:
  3414  0A0F  0878               	movf	setaZona@i_184,w
  3415  0A10  077A               	addwf	setaZona@msgZonaDisparadas,w
  3416  0A11  00F3               	movwf	??_setaZona
  3417  0A12  0873               	movf	??_setaZona,w
  3418  0A13  0084               	movwf	4
  3419  0A14  3031               	movlw	49
  3420  0A15  0600               	xorwf	0,w
  3421  0A16  1D03               	btfss	3,2
  3422  0A17  2A19               	goto	u3201
  3423  0A18  2A1A               	goto	u3200
  3424  0A19                     u3201:
  3425  0A19  2A35               	goto	l3071
  3426  0A1A                     u3200:
  3427  0A1A                     l3067:
  3428  0A1A  0878               	movf	setaZona@i_184,w
  3429  0A1B  0770               	addwf	setaZona@msgConfigDispara,w
  3430  0A1C  00F3               	movwf	??_setaZona
  3431  0A1D  0873               	movf	??_setaZona,w
  3432  0A1E  0084               	movwf	4
  3433  0A1F  0800               	movf	0,w
  3434  0A20  00F4               	movwf	??_setaZona+1
  3435  0A21  01F5               	clrf	??_setaZona+2
  3436  0A22  0872               	movf	setaZona@pos+1,w
  3437  0A23  0675               	xorwf	??_setaZona+2,w
  3438  0A24  1D03               	skipz
  3439  0A25  2A28               	goto	u3215
  3440  0A26  0871               	movf	setaZona@pos,w
  3441  0A27  0674               	xorwf	??_setaZona+1,w
  3442  0A28                     u3215:
  3443  0A28  1D03               	skipz
  3444  0A29  2A2B               	goto	u3211
  3445  0A2A  2A2C               	goto	u3210
  3446  0A2B                     u3211:
  3447  0A2B  2A35               	goto	l3071
  3448  0A2C                     u3210:
  3449  0A2C                     l3069:
  3450                           
  3451                           ;main.c: 140:                 msgZonaDisparadas[i] = '0';
  3452  0A2C  3030               	movlw	48
  3453  0A2D  00F3               	movwf	??_setaZona
  3454  0A2E  0878               	movf	setaZona@i_184,w
  3455  0A2F  077A               	addwf	setaZona@msgZonaDisparadas,w
  3456  0A30  00F4               	movwf	??_setaZona+1
  3457  0A31  0874               	movf	??_setaZona+1,w
  3458  0A32  0084               	movwf	4
  3459  0A33  0873               	movf	??_setaZona,w
  3460  0A34  0080               	movwf	0
  3461  0A35                     l3071:
  3462                           
  3463                           ;main.c: 142:             _delay((unsigned long)((2)*(20000000/4000.0)));
  3464  0A35  300D               	movlw	13
  3465  0A36  00F4               	movwf	??_setaZona+1
  3466  0A37  30FB               	movlw	251
  3467  0A38  00F3               	movwf	??_setaZona
  3468  0A39                     u4327:
  3469  0A39  0BF3               	decfsz	??_setaZona,f
  3470  0A3A  2A39               	goto	u4327
  3471  0A3B  0BF4               	decfsz	??_setaZona+1,f
  3472  0A3C  2A39               	goto	u4327
  3473  0A3D  2A3E               	nop2
  3474  0A3E                     l3073:
  3475                           
  3476                           ;main.c: 143:         }
  3477  0A3E  3001               	movlw	1
  3478  0A3F  07F8               	addwf	setaZona@i_184,f
  3479  0A40  1803               	skipnc
  3480  0A41  0AF9               	incf	setaZona@i_184+1,f
  3481  0A42  3000               	movlw	0
  3482  0A43  07F9               	addwf	setaZona@i_184+1,f
  3483  0A44                     l210:
  3484  0A44  0878               	movf	setaZona@i_184,w
  3485  0A45  077A               	addwf	setaZona@msgZonaDisparadas,w
  3486  0A46  00F3               	movwf	??_setaZona
  3487  0A47  0873               	movf	??_setaZona,w
  3488  0A48  0084               	movwf	4
  3489  0A49  1383               	bcf	3,7	;select IRP bank0
  3490  0A4A  0800               	movf	0,w
  3491  0A4B  1D03               	btfss	3,2
  3492  0A4C  2A4E               	goto	u3221
  3493  0A4D  2A4F               	goto	u3220
  3494  0A4E                     u3221:
  3495  0A4E  29E8               	goto	l3059
  3496  0A4F                     u3220:
  3497  0A4F                     l216:
  3498  0A4F  0008               	return
  3499  0A50                     __end_of_setaZona:
  3500                           
  3501                           	psect	text9
  3502  13AD                     __ptext9:	
  3503 ;; *************** function _infoZonas *****************
  3504 ;; Defined at:
  3505 ;;		line 149 in file "main.c"
  3506 ;; Parameters:    Size  Location     Type
  3507 ;;		None
  3508 ;; Auto vars:     Size  Location     Type
  3509 ;;		None
  3510 ;; Return value:  Size  Location     Type
  3511 ;;                  1    wreg      void 
  3512 ;; Registers used:
  3513 ;;		wreg, fsr0l, fsr0h, status,2, status,0, btemp+1, pclath, cstack
  3514 ;; Tracked objects:
  3515 ;;		On entry : 0/0
  3516 ;;		On exit  : 0/0
  3517 ;;		Unchanged: 0/0
  3518 ;; Data sizes:     COMMON   BANK0   BANK1   BANK3   BANK2
  3519 ;;      Params:         0       0       0       0       0
  3520 ;;      Locals:         0       0       0       0       0
  3521 ;;      Temps:          3       0       0       0       0
  3522 ;;      Totals:         3       0       0       0       0
  3523 ;;Total ram usage:        3 bytes
  3524 ;; Hardware stack levels used: 1
  3525 ;; Hardware stack levels required when called: 3
  3526 ;; This function calls:
  3527 ;;		_LCD_limpa
  3528 ;;		_LCD_linha1
  3529 ;;		_LCD_linha2
  3530 ;;		_escreveMesagem
  3531 ;; This function is called by:
  3532 ;;		_main
  3533 ;;		_configZonas
  3534 ;; This function uses a non-reentrant model
  3535 ;;
  3536                           
  3537                           
  3538                           ;psect for function _infoZonas
  3539  13AD                     _infoZonas:
  3540  13AD                     l3591:	
  3541                           ;incstack = 0
  3542                           ; Regs used in _infoZonas: [wreg-fsr0h+status,2+status,0+btemp+1+pclath+cstack]
  3543                           
  3544                           
  3545                           ;main.c: 150:     LCD_limpa();
  3546  13AD  160A  118A  2289  160A  118A  	fcall	_LCD_limpa
  3547                           
  3548                           ;main.c: 151:     LCD_linha1();
  3549  13B2  160A  118A  2299  160A  118A  	fcall	_LCD_linha1
  3550  13B7                     l3593:
  3551                           
  3552                           ;main.c: 152:     escreveMesagem(msgConfigDispara);
  3553  13B7  30AF               	movlw	(low (_msgConfigDispara| 0))& (0+255)
  3554  13B8  00F3               	movwf	escreveMesagem@texto
  3555  13B9  3000               	movlw	0
  3556  13BA  00F4               	movwf	escreveMesagem@texto+1
  3557  13BB  160A  118A  243E  160A  118A  	fcall	_escreveMesagem
  3558  13C0                     l3595:
  3559                           
  3560                           ;main.c: 153:     LCD_linha2();
  3561  13C0  160A  118A  2279  160A  118A  	fcall	_LCD_linha2
  3562                           
  3563                           ;main.c: 154:     escreveMesagem(msgZonaDisparadas);
  3564  13C5  30A0               	movlw	(low (_msgZonaDisparadas| 0))& (0+255)
  3565  13C6  00F3               	movwf	escreveMesagem@texto
  3566  13C7  3000               	movlw	0
  3567  13C8  00F4               	movwf	escreveMesagem@texto+1
  3568  13C9  160A  118A  243E  160A  118A  	fcall	_escreveMesagem
  3569  13CE                     l3597:
  3570                           
  3571                           ;main.c: 155:     _delay((unsigned long)((3000)*(20000000/4000.0)));
  3572  13CE  304D               	movlw	77
  3573  13CF  00FC               	movwf	??_infoZonas+2
  3574  13D0  3019               	movlw	25
  3575  13D1  00FB               	movwf	??_infoZonas+1
  3576  13D2  304F               	movlw	79
  3577  13D3  00FA               	movwf	??_infoZonas
  3578  13D4                     u4337:
  3579  13D4  0BFA               	decfsz	??_infoZonas,f
  3580  13D5  2BD4               	goto	u4337
  3581  13D6  0BFB               	decfsz	??_infoZonas+1,f
  3582  13D7  2BD4               	goto	u4337
  3583  13D8  0BFC               	decfsz	??_infoZonas+2,f
  3584  13D9  2BD4               	goto	u4337
  3585  13DA  2BDB               	nop2
  3586  13DB                     l219:
  3587  13DB  0008               	return
  3588  13DC                     __end_of_infoZonas:
  3589                           
  3590                           	psect	text10
  3591  1584                     __ptext10:	
  3592 ;; *************** function _alteraSenhas *****************
  3593 ;; Defined at:
  3594 ;;		line 269 in file "main.c"
  3595 ;; Parameters:    Size  Location     Type
  3596 ;;  opConfig        2   39[BANK0 ] unsigned int 
  3597 ;; Auto vars:     Size  Location     Type
  3598 ;;		None
  3599 ;; Return value:  Size  Location     Type
  3600 ;;                  1    wreg      void 
  3601 ;; Registers used:
  3602 ;;		wreg, fsr0l, fsr0h, status,2, status,0, btemp+1, pclath, cstack
  3603 ;; Tracked objects:
  3604 ;;		On entry : 0/0
  3605 ;;		On exit  : 0/0
  3606 ;;		Unchanged: 0/0
  3607 ;; Data sizes:     COMMON   BANK0   BANK1   BANK3   BANK2
  3608 ;;      Params:         0       2       0       0       0
  3609 ;;      Locals:         0       0       0       0       0
  3610 ;;      Temps:          0       2       0       0       0
  3611 ;;      Totals:         0       4       0       0       0
  3612 ;;Total ram usage:        4 bytes
  3613 ;; Hardware stack levels used: 1
  3614 ;; Hardware stack levels required when called: 6
  3615 ;; This function calls:
  3616 ;;		_LCD_init
  3617 ;;		_LCD_limpa
  3618 ;;		_Linha2
  3619 ;;		_escreveMesagem
  3620 ;;		_rotinaValidaSenha
  3621 ;; This function is called by:
  3622 ;;		_main
  3623 ;; This function uses a non-reentrant model
  3624 ;;
  3625                           
  3626                           
  3627                           ;psect for function _alteraSenhas
  3628  1584                     _alteraSenhas:
  3629  1584                     l3831:	
  3630                           ;incstack = 0
  3631                           ; Regs used in _alteraSenhas: [wreg-fsr0h+status,2+status,0+btemp+1+pclath+cstack]
  3632                           
  3633                           
  3634                           ;main.c: 270:     LCD_init();
  3635  1584  160A  118A  240B  160A  118A  	fcall	_LCD_init
  3636                           
  3637                           ;main.c: 271:     LCD_limpa();
  3638  1589  160A  118A  2289  160A  118A  	fcall	_LCD_limpa
  3639  158E                     l3833:
  3640                           
  3641                           ;main.c: 272:     _delay((unsigned long)((2)*(20000000/4000.0)));
  3642  158E  300D               	movlw	13
  3643  158F  1283               	bcf	3,5	;RP0=0, select bank0
  3644  1590  1303               	bcf	3,6	;RP1=0, select bank0
  3645  1591  00CA               	movwf	??_alteraSenhas+1
  3646  1592  30FB               	movlw	251
  3647  1593  00C9               	movwf	??_alteraSenhas
  3648  1594                     u4347:
  3649  1594  0BC9               	decfsz	??_alteraSenhas,f
  3650  1595  2D94               	goto	u4347
  3651  1596  0BCA               	decfsz	??_alteraSenhas+1,f
  3652  1597  2D94               	goto	u4347
  3653  1598                     l3835:
  3654                           
  3655                           ;main.c: 273:     escreveMesagem(msgDigiteNovaSenha);
  3656  1598  3050               	movlw	(low (_msgDigiteNovaSenha| (0+256)))& (0+255)
  3657  1599  00F3               	movwf	escreveMesagem@texto
  3658  159A  3001               	movlw	1
  3659  159B  00F4               	movwf	escreveMesagem@texto+1
  3660  159C  160A  118A  243E  160A  118A  	fcall	_escreveMesagem
  3661  15A1                     l3837:
  3662                           
  3663                           ;main.c: 274:     Linha2();
  3664  15A1  160A  118A  2475  160A  118A  	fcall	_Linha2
  3665  15A6                     l3839:
  3666                           
  3667                           ;main.c: 275:     if (opConfig == 1){
  3668  15A6  1283               	bcf	3,5	;RP0=0, select bank0
  3669  15A7  1303               	bcf	3,6	;RP1=0, select bank0
  3670  15A8  0347               	decf	alteraSenhas@opConfig,w
  3671  15A9  0448               	iorwf	alteraSenhas@opConfig+1,w
  3672  15AA  1D03               	btfss	3,2
  3673  15AB  2DAD               	goto	u3991
  3674  15AC  2DAE               	goto	u3990
  3675  15AD                     u3991:
  3676  15AD  2DB5               	goto	l3843
  3677  15AE                     u3990:
  3678  15AE                     l3841:
  3679                           
  3680                           ;main.c: 276:         rotinaValidaSenha(senhaConfig);
  3681  15AE  30DF               	movlw	(low (_senhaConfig| 0))& (0+255)
  3682  15AF  160A  118A  24F3  160A  118A  	fcall	_rotinaValidaSenha
  3683                           
  3684                           ;main.c: 277:     }
  3685  15B4  2DD0               	goto	l274
  3686  15B5                     l3843:
  3687  15B5  3002               	movlw	2
  3688  15B6  0647               	xorwf	alteraSenhas@opConfig,w
  3689  15B7  0448               	iorwf	alteraSenhas@opConfig+1,w
  3690  15B8  1D03               	btfss	3,2
  3691  15B9  2DBB               	goto	u4001
  3692  15BA  2DBC               	goto	u4000
  3693  15BB                     u4001:
  3694  15BB  2DC3               	goto	l3847
  3695  15BC                     u4000:
  3696  15BC                     l3845:
  3697                           
  3698                           ;main.c: 279:         rotinaValidaSenha(senhaUser);
  3699  15BC  305F               	movlw	(low (_senhaUser| 0))& (0+255)
  3700  15BD  160A  118A  24F3  160A  118A  	fcall	_rotinaValidaSenha
  3701                           
  3702                           ;main.c: 280:     }
  3703  15C2  2DD0               	goto	l274
  3704  15C3                     l3847:
  3705  15C3  3003               	movlw	3
  3706  15C4  0647               	xorwf	alteraSenhas@opConfig,w
  3707  15C5  0448               	iorwf	alteraSenhas@opConfig+1,w
  3708  15C6  1D03               	btfss	3,2
  3709  15C7  2DC9               	goto	u4011
  3710  15C8  2DCA               	goto	u4010
  3711  15C9                     u4011:
  3712  15C9  2DD0               	goto	l274
  3713  15CA                     u4010:
  3714  15CA                     l3849:
  3715                           
  3716                           ;main.c: 282:         rotinaValidaSenha(senhaCoa);
  3717  15CA  30E4               	movlw	(low (_senhaCoa| 0))& (0+255)
  3718  15CB  160A  118A  24F3  160A  118A  	fcall	_rotinaValidaSenha
  3719  15D0                     l274:
  3720  15D0  0008               	return
  3721  15D1                     __end_of_alteraSenhas:
  3722                           
  3723                           	psect	text11
  3724  14F3                     __ptext11:	
  3725 ;; *************** function _rotinaValidaSenha *****************
  3726 ;; Defined at:
  3727 ;;		line 256 in file "main.c"
  3728 ;; Parameters:    Size  Location     Type
  3729 ;;  senhaOp         1    wreg     PTR unsigned char 
  3730 ;;		 -> senhaCoa(5), senhaUser(5), senhaConfig(5), 
  3731 ;; Auto vars:     Size  Location     Type
  3732 ;;  senhaOp         1   38[BANK0 ] PTR unsigned char 
  3733 ;;		 -> senhaCoa(5), senhaUser(5), senhaConfig(5), 
  3734 ;; Return value:  Size  Location     Type
  3735 ;;                  1    wreg      void 
  3736 ;; Registers used:
  3737 ;;		wreg, fsr0l, fsr0h, status,2, status,0, btemp+1, pclath, cstack
  3738 ;; Tracked objects:
  3739 ;;		On entry : 0/0
  3740 ;;		On exit  : 0/0
  3741 ;;		Unchanged: 0/0
  3742 ;; Data sizes:     COMMON   BANK0   BANK1   BANK3   BANK2
  3743 ;;      Params:         0       0       0       0       0
  3744 ;;      Locals:         0       1       0       0       0
  3745 ;;      Temps:          0       3       0       0       0
  3746 ;;      Totals:         0       4       0       0       0
  3747 ;;Total ram usage:        4 bytes
  3748 ;; Hardware stack levels used: 1
  3749 ;; Hardware stack levels required when called: 5
  3750 ;; This function calls:
  3751 ;;		_LCD_limpa
  3752 ;;		_LCD_linha2
  3753 ;;		_escreveMesagem
  3754 ;;		_inputSenhaAlter
  3755 ;; This function is called by:
  3756 ;;		_alteraSenhas
  3757 ;; This function uses a non-reentrant model
  3758 ;;
  3759                           
  3760                           
  3761                           ;psect for function _rotinaValidaSenha
  3762  14F3                     _rotinaValidaSenha:
  3763                           
  3764                           ;incstack = 0
  3765                           ; Regs used in _rotinaValidaSenha: [wreg-fsr0h+status,2+status,0+btemp+1+pclath+cstack]
  3766                           ;rotinaValidaSenha@senhaOp stored from wreg
  3767  14F3  1283               	bcf	3,5	;RP0=0, select bank0
  3768  14F4  1303               	bcf	3,6	;RP1=0, select bank0
  3769  14F5  00C6               	movwf	rotinaValidaSenha@senhaOp
  3770  14F6                     l3599:
  3771                           
  3772                           ;main.c: 257:     inputSenhaAlter(senhaOp);
  3773  14F6  0846               	movf	rotinaValidaSenha@senhaOp,w
  3774  14F7  160A  118A  25D1  160A  118A  	fcall	_inputSenhaAlter
  3775  14FC                     l3601:
  3776                           
  3777                           ;main.c: 258:         LCD_limpa();
  3778  14FC  160A  118A  2289  160A  118A  	fcall	_LCD_limpa
  3779  1501                     l3603:
  3780                           
  3781                           ;main.c: 259:         if (validaSenha){
  3782  1501  1283               	bcf	3,5	;RP0=0, select bank0
  3783  1502  1303               	bcf	3,6	;RP1=0, select bank0
  3784  1503  086C               	movf	_validaSenha,w
  3785  1504  046D               	iorwf	_validaSenha+1,w
  3786  1505  1903               	btfsc	3,2
  3787  1506  2D08               	goto	u3761
  3788  1507  2D09               	goto	u3760
  3789  1508                     u3761:
  3790  1508  2D23               	goto	l3611
  3791  1509                     u3760:
  3792  1509                     l3605:
  3793                           
  3794                           ;main.c: 260:             escreveMesagem(msgSenhaAtualizada);
  3795  1509  3010               	movlw	(low (_msgSenhaAtualizada| (0+256)))& (0+255)
  3796  150A  00F3               	movwf	escreveMesagem@texto
  3797  150B  3001               	movlw	1
  3798  150C  00F4               	movwf	escreveMesagem@texto+1
  3799  150D  160A  118A  243E  160A  118A  	fcall	_escreveMesagem
  3800  1512                     l3607:
  3801                           
  3802                           ;main.c: 261:             LCD_linha2();
  3803  1512  160A  118A  2279  160A  118A  	fcall	_LCD_linha2
  3804  1517                     l3609:
  3805                           
  3806                           ;main.c: 262:             escreveMesagem(senhaOp);
  3807  1517  1283               	bcf	3,5	;RP0=0, select bank0
  3808  1518  1303               	bcf	3,6	;RP1=0, select bank0
  3809  1519  0846               	movf	rotinaValidaSenha@senhaOp,w
  3810  151A  00F3               	movwf	escreveMesagem@texto
  3811  151B  3000               	movlw	0
  3812  151C  00F4               	movwf	escreveMesagem@texto+1
  3813  151D  160A  118A  243E  160A  118A  	fcall	_escreveMesagem
  3814                           
  3815                           ;main.c: 263:         }
  3816  1522  2D2C               	goto	l3613
  3817  1523                     l3611:
  3818                           
  3819                           ;main.c: 265:             escreveMesagem(msgSenhaCancelada);
  3820  1523  3031               	movlw	(low (_msgSenhaCancelada| (0+256)))& (0+255)
  3821  1524  00F3               	movwf	escreveMesagem@texto
  3822  1525  3001               	movlw	1
  3823  1526  00F4               	movwf	escreveMesagem@texto+1
  3824  1527  160A  118A  243E  160A  118A  	fcall	_escreveMesagem
  3825  152C                     l3613:
  3826                           
  3827                           ;main.c: 267:         _delay((unsigned long)((2000)*(20000000/4000.0)));
  3828  152C  3033               	movlw	51
  3829  152D  1283               	bcf	3,5	;RP0=0, select bank0
  3830  152E  1303               	bcf	3,6	;RP1=0, select bank0
  3831  152F  00C5               	movwf	??_rotinaValidaSenha+2
  3832  1530  30BB               	movlw	187
  3833  1531  00C4               	movwf	??_rotinaValidaSenha+1
  3834  1532  30DF               	movlw	223
  3835  1533  00C3               	movwf	??_rotinaValidaSenha
  3836  1534                     u4357:
  3837  1534  0BC3               	decfsz	??_rotinaValidaSenha,f
  3838  1535  2D34               	goto	u4357
  3839  1536  0BC4               	decfsz	??_rotinaValidaSenha+1,f
  3840  1537  2D34               	goto	u4357
  3841  1538  0BC5               	decfsz	??_rotinaValidaSenha+2,f
  3842  1539  2D34               	goto	u4357
  3843  153A                     l266:
  3844  153A  0008               	return
  3845  153B                     __end_of_rotinaValidaSenha:
  3846                           
  3847                           	psect	text12
  3848  15D1                     __ptext12:	
  3849 ;; *************** function _inputSenhaAlter *****************
  3850 ;; Defined at:
  3851 ;;		line 247 in file "main.c"
  3852 ;; Parameters:    Size  Location     Type
  3853 ;;  senhaDestino    1    wreg     PTR unsigned char 
  3854 ;;		 -> senhaCoa(5), senhaUser(5), senhaConfig(5), 
  3855 ;; Auto vars:     Size  Location     Type
  3856 ;;  senhaDestino    1   32[BANK0 ] PTR unsigned char 
  3857 ;;		 -> senhaCoa(5), senhaUser(5), senhaConfig(5), 
  3858 ;;  i               2   33[BANK0 ] int 
  3859 ;; Return value:  Size  Location     Type
  3860 ;;                  1    wreg      void 
  3861 ;; Registers used:
  3862 ;;		wreg, fsr0l, fsr0h, status,2, status,0, btemp+1, pclath, cstack
  3863 ;; Tracked objects:
  3864 ;;		On entry : 0/0
  3865 ;;		On exit  : 0/0
  3866 ;;		Unchanged: 0/0
  3867 ;; Data sizes:     COMMON   BANK0   BANK1   BANK3   BANK2
  3868 ;;      Params:         0       0       0       0       0
  3869 ;;      Locals:         0       3       0       0       0
  3870 ;;      Temps:          0       2       0       0       0
  3871 ;;      Totals:         0       5       0       0       0
  3872 ;;Total ram usage:        5 bytes
  3873 ;; Hardware stack levels used: 1
  3874 ;; Hardware stack levels required when called: 4
  3875 ;; This function calls:
  3876 ;;		_confereTeclado
  3877 ;;		_teclado
  3878 ;;		_valida_senha
  3879 ;; This function is called by:
  3880 ;;		_rotinaValidaSenha
  3881 ;; This function uses a non-reentrant model
  3882 ;;
  3883                           
  3884                           
  3885                           ;psect for function _inputSenhaAlter
  3886  15D1                     _inputSenhaAlter:
  3887                           
  3888                           ;incstack = 0
  3889                           ; Regs used in _inputSenhaAlter: [wreg-fsr0h+status,2+status,0+btemp+1+pclath+cstack]
  3890                           ;inputSenhaAlter@senhaDestino stored from wreg
  3891  15D1  1283               	bcf	3,5	;RP0=0, select bank0
  3892  15D2  1303               	bcf	3,6	;RP1=0, select bank0
  3893  15D3  00C0               	movwf	inputSenhaAlter@senhaDestino
  3894  15D4                     l3559:
  3895                           
  3896                           ;main.c: 248:     for (int i = 0; i < 4; i++){
  3897  15D4  01C1               	clrf	inputSenhaAlter@i
  3898  15D5  01C2               	clrf	inputSenhaAlter@i+1
  3899  15D6                     l3565:
  3900                           
  3901                           ;main.c: 249:         input = 10;
  3902  15D6  300A               	movlw	10
  3903  15D7  1283               	bcf	3,5	;RP0=0, select bank0
  3904  15D8  1303               	bcf	3,6	;RP1=0, select bank0
  3905  15D9  00D6               	movwf	_input
  3906  15DA  3000               	movlw	0
  3907  15DB  00D7               	movwf	_input+1
  3908                           
  3909                           ;main.c: 250:         while (input == 10){teclado();}
  3910  15DC  2DE2               	goto	l3569
  3911  15DD                     l3567:
  3912  15DD  120A  118A  215C  160A  118A  	fcall	_teclado
  3913  15E2                     l3569:
  3914  15E2  300A               	movlw	10
  3915  15E3  1283               	bcf	3,5	;RP0=0, select bank0
  3916  15E4  1303               	bcf	3,6	;RP1=0, select bank0
  3917  15E5  0656               	xorwf	_input,w
  3918  15E6  0457               	iorwf	_input+1,w
  3919  15E7  1903               	btfsc	3,2
  3920  15E8  2DEA               	goto	u3731
  3921  15E9  2DEB               	goto	u3730
  3922  15EA                     u3731:
  3923  15EA  2DDD               	goto	l3567
  3924  15EB                     u3730:
  3925  15EB                     l3571:
  3926                           
  3927                           ;main.c: 251:         _delay((unsigned long)((2)*(20000000/4000.0)));
  3928  15EB  300D               	movlw	13
  3929  15EC  1283               	bcf	3,5	;RP0=0, select bank0
  3930  15ED  1303               	bcf	3,6	;RP1=0, select bank0
  3931  15EE  00BF               	movwf	??_inputSenhaAlter+1
  3932  15EF  30FB               	movlw	251
  3933  15F0  00BE               	movwf	??_inputSenhaAlter
  3934  15F1                     u4367:
  3935  15F1  0BBE               	decfsz	??_inputSenhaAlter,f
  3936  15F2  2DF1               	goto	u4367
  3937  15F3  0BBF               	decfsz	??_inputSenhaAlter+1,f
  3938  15F4  2DF1               	goto	u4367
  3939  15F5                     l3573:
  3940                           
  3941                           ;main.c: 252:         senhaDestino[i] = confereTeclado(input);
  3942  15F5  1283               	bcf	3,5	;RP0=0, select bank0
  3943  15F6  1303               	bcf	3,6	;RP1=0, select bank0
  3944  15F7  0857               	movf	_input+1,w
  3945  15F8  00F1               	movwf	confereTeclado@numero+1
  3946  15F9  0856               	movf	_input,w
  3947  15FA  00F0               	movwf	confereTeclado@numero
  3948  15FB  160A  118A  268D  160A  118A  	fcall	_confereTeclado
  3949  1600  1283               	bcf	3,5	;RP0=0, select bank0
  3950  1601  1303               	bcf	3,6	;RP1=0, select bank0
  3951  1602  00BE               	movwf	??_inputSenhaAlter
  3952  1603  0841               	movf	inputSenhaAlter@i,w
  3953  1604  0740               	addwf	inputSenhaAlter@senhaDestino,w
  3954  1605  00BF               	movwf	??_inputSenhaAlter+1
  3955  1606  083F               	movf	??_inputSenhaAlter+1,w
  3956  1607  0084               	movwf	4
  3957  1608  083E               	movf	??_inputSenhaAlter,w
  3958  1609  1383               	bcf	3,7	;select IRP bank0
  3959  160A  0080               	movwf	0
  3960  160B                     l3575:
  3961                           
  3962                           ;main.c: 253:     }
  3963  160B  3001               	movlw	1
  3964  160C  07C1               	addwf	inputSenhaAlter@i,f
  3965  160D  1803               	skipnc
  3966  160E  0AC2               	incf	inputSenhaAlter@i+1,f
  3967  160F  3000               	movlw	0
  3968  1610  07C2               	addwf	inputSenhaAlter@i+1,f
  3969  1611                     l3577:
  3970  1611  0842               	movf	inputSenhaAlter@i+1,w
  3971  1612  3A80               	xorlw	128
  3972  1613  00FF               	movwf	btemp+1
  3973  1614  3080               	movlw	128
  3974  1615  027F               	subwf	btemp+1,w
  3975  1616  1D03               	skipz
  3976  1617  2E1A               	goto	u3745
  3977  1618  3004               	movlw	4
  3978  1619  0241               	subwf	inputSenhaAlter@i,w
  3979  161A                     u3745:
  3980  161A  1C03               	skipc
  3981  161B  2E1D               	goto	u3741
  3982  161C  2E1E               	goto	u3740
  3983  161D                     u3741:
  3984  161D  2DD6               	goto	l3565
  3985  161E                     u3740:
  3986  161E                     l3579:
  3987                           
  3988                           ;main.c: 254:     validaSenha = valida_senha(senhaDestino);
  3989  161E  1283               	bcf	3,5	;RP0=0, select bank0
  3990  161F  1303               	bcf	3,6	;RP1=0, select bank0
  3991  1620  0840               	movf	inputSenhaAlter@senhaDestino,w
  3992  1621  160A  118A  2779  160A  118A  	fcall	_valida_senha
  3993  1626  087B               	movf	?_valida_senha+1,w
  3994  1627  1283               	bcf	3,5	;RP0=0, select bank0
  3995  1628  1303               	bcf	3,6	;RP1=0, select bank0
  3996  1629  00ED               	movwf	_validaSenha+1
  3997  162A  087A               	movf	?_valida_senha,w
  3998  162B  00EC               	movwf	_validaSenha
  3999  162C                     l261:
  4000  162C  0008               	return
  4001  162D                     __end_of_inputSenhaAlter:
  4002                           
  4003                           	psect	text13
  4004  1779                     __ptext13:	
  4005 ;; *************** function _valida_senha *****************
  4006 ;; Defined at:
  4007 ;;		line 220 in file "main.c"
  4008 ;; Parameters:    Size  Location     Type
  4009 ;;  texto           1    wreg     PTR unsigned char 
  4010 ;;		 -> senhaCoa(5), senhaUser(5), senhaConfig(5), 
  4011 ;; Auto vars:     Size  Location     Type
  4012 ;;  texto           1    3[BANK0 ] PTR unsigned char 
  4013 ;;		 -> senhaCoa(5), senhaUser(5), senhaConfig(5), 
  4014 ;;  aceito          2    4[BANK0 ] unsigned int 
  4015 ;; Return value:  Size  Location     Type
  4016 ;;                  2   10[COMMON] unsigned int 
  4017 ;; Registers used:
  4018 ;;		wreg, fsr0l, fsr0h, status,2, status,0, btemp+1, pclath, cstack
  4019 ;; Tracked objects:
  4020 ;;		On entry : 0/0
  4021 ;;		On exit  : 0/0
  4022 ;;		Unchanged: 0/0
  4023 ;; Data sizes:     COMMON   BANK0   BANK1   BANK3   BANK2
  4024 ;;      Params:         2       0       0       0       0
  4025 ;;      Locals:         0       3       0       0       0
  4026 ;;      Temps:          0       3       0       0       0
  4027 ;;      Totals:         2       6       0       0       0
  4028 ;;Total ram usage:        8 bytes
  4029 ;; Hardware stack levels used: 1
  4030 ;; Hardware stack levels required when called: 3
  4031 ;; This function calls:
  4032 ;;		_LCD_escreve
  4033 ;;		_LCD_limpa
  4034 ;;		_LCD_linha1
  4035 ;;		_LCD_linha2
  4036 ;;		_escreveMesagem
  4037 ;; This function is called by:
  4038 ;;		_inputSenhaAlter
  4039 ;; This function uses a non-reentrant model
  4040 ;;
  4041                           
  4042                           
  4043                           ;psect for function _valida_senha
  4044  1779                     _valida_senha:
  4045                           
  4046                           ;incstack = 0
  4047                           ; Regs used in _valida_senha: [wreg-fsr0h+status,2+status,0+btemp+1+pclath+cstack]
  4048                           ;valida_senha@texto stored from wreg
  4049  1779  1283               	bcf	3,5	;RP0=0, select bank0
  4050  177A  1303               	bcf	3,6	;RP1=0, select bank0
  4051  177B  00A3               	movwf	valida_senha@texto
  4052  177C                     l3527:
  4053                           
  4054                           ;main.c: 221:     unsigned int aceito = 3;
  4055  177C  3003               	movlw	3
  4056  177D  00A4               	movwf	valida_senha@aceito
  4057  177E  3000               	movlw	0
  4058  177F  00A5               	movwf	valida_senha@aceito+1
  4059  1780                     l3529:
  4060                           
  4061                           ;main.c: 222:     LCD_limpa();
  4062  1780  160A  118A  2289  160A  118A  	fcall	_LCD_limpa
  4063                           
  4064                           ;main.c: 223:     LCD_linha1();
  4065  1785  160A  118A  2299  160A  118A  	fcall	_LCD_linha1
  4066  178A                     l3531:
  4067                           
  4068                           ;main.c: 224:     escreveMesagem(msgValidaSenha);
  4069  178A  3021               	movlw	(low (_msgValidaSenha| (0+256)))& (0+255)
  4070  178B  00F3               	movwf	escreveMesagem@texto
  4071  178C  3001               	movlw	1
  4072  178D  00F4               	movwf	escreveMesagem@texto+1
  4073  178E  160A  118A  243E  160A  118A  	fcall	_escreveMesagem
  4074  1793                     l3533:
  4075                           
  4076                           ;main.c: 225:     LCD_linha2();
  4077  1793  160A  118A  2279  160A  118A  	fcall	_LCD_linha2
  4078                           
  4079                           ;main.c: 226:     escreveMesagem(texto);
  4080  1798  1283               	bcf	3,5	;RP0=0, select bank0
  4081  1799  1303               	bcf	3,6	;RP1=0, select bank0
  4082  179A  0823               	movf	valida_senha@texto,w
  4083  179B  00F3               	movwf	escreveMesagem@texto
  4084  179C  3000               	movlw	0
  4085  179D  00F4               	movwf	escreveMesagem@texto+1
  4086  179E  160A  118A  243E  160A  118A  	fcall	_escreveMesagem
  4087  17A3                     l3535:
  4088                           
  4089                           ;main.c: 227:     LCD_escreve(' ');
  4090  17A3  3020               	movlw	32
  4091  17A4  160A  118A  22A9  160A  118A  	fcall	_LCD_escreve
  4092  17A9                     l3537:
  4093                           
  4094                           ;main.c: 228:     escreveMesagem(msgAceitoOuNego);
  4095  17A9  30C8               	movlw	(low (_msgAceitoOuNego| 0))& (0+255)
  4096  17AA  00F3               	movwf	escreveMesagem@texto
  4097  17AB  3000               	movlw	0
  4098  17AC  00F4               	movwf	escreveMesagem@texto+1
  4099  17AD  160A  118A  243E  160A  118A  	fcall	_escreveMesagem
  4100  17B2                     l3539:
  4101                           
  4102                           ;main.c: 229:     PORTB = 0b01111111;
  4103  17B2  307F               	movlw	127
  4104  17B3  1283               	bcf	3,5	;RP0=0, select bank0
  4105  17B4  1303               	bcf	3,6	;RP1=0, select bank0
  4106  17B5  0086               	movwf	6	;volatile
  4107                           
  4108                           ;main.c: 230:     while (aceito == 3){
  4109  17B6  2FE2               	goto	l3553
  4110  17B7                     l3541:
  4111                           
  4112                           ;main.c: 231:         _delay((unsigned long)((200)*(20000000/4000.0)));
  4113  17B7  3006               	movlw	6
  4114  17B8  1283               	bcf	3,5	;RP0=0, select bank0
  4115  17B9  1303               	bcf	3,6	;RP1=0, select bank0
  4116  17BA  00A2               	movwf	??_valida_senha+2
  4117  17BB  3013               	movlw	19
  4118  17BC  00A1               	movwf	??_valida_senha+1
  4119  17BD  30AD               	movlw	173
  4120  17BE  00A0               	movwf	??_valida_senha
  4121  17BF                     u4377:
  4122  17BF  0BA0               	decfsz	??_valida_senha,f
  4123  17C0  2FBF               	goto	u4377
  4124  17C1  0BA1               	decfsz	??_valida_senha+1,f
  4125  17C2  2FBF               	goto	u4377
  4126  17C3  0BA2               	decfsz	??_valida_senha+2,f
  4127  17C4  2FBF               	goto	u4377
  4128  17C5                     l3543:
  4129                           
  4130                           ;main.c: 233:         if (RB2 == 0){
  4131  17C5  1283               	bcf	3,5	;RP0=0, select bank0
  4132  17C6  1303               	bcf	3,6	;RP1=0, select bank0
  4133  17C7  1906               	btfsc	6,2	;volatile
  4134  17C8  2FCA               	goto	u3701
  4135  17C9  2FCB               	goto	u3700
  4136  17CA                     u3701:
  4137  17CA  2FD4               	goto	l249
  4138  17CB                     u3700:
  4139  17CB                     l3545:
  4140                           
  4141                           ;main.c: 234:             aceito = 0;
  4142  17CB  01A4               	clrf	valida_senha@aceito
  4143  17CC  01A5               	clrf	valida_senha@aceito+1
  4144  17CD                     l3547:
  4145                           
  4146                           ;main.c: 235:             LCD_escreve('E');
  4147  17CD  3045               	movlw	69
  4148  17CE  160A  118A  22A9  160A  118A  	fcall	_LCD_escreve
  4149                           
  4150                           ;main.c: 236:         }
  4151  17D3  2FE2               	goto	l3553
  4152  17D4                     l249:	
  4153                           ;main.c: 237:         else if (RB3 == 0){
  4154                           
  4155  17D4  1986               	btfsc	6,3	;volatile
  4156  17D5  2FD7               	goto	u3711
  4157  17D6  2FD8               	goto	u3710
  4158  17D7                     u3711:
  4159  17D7  2FE2               	goto	l3553
  4160  17D8                     u3710:
  4161  17D8                     l3549:
  4162                           
  4163                           ;main.c: 239:             aceito = 1;
  4164  17D8  3001               	movlw	1
  4165  17D9  00A4               	movwf	valida_senha@aceito
  4166  17DA  3000               	movlw	0
  4167  17DB  00A5               	movwf	valida_senha@aceito+1
  4168  17DC                     l3551:
  4169                           
  4170                           ;main.c: 240:             LCD_escreve('F');
  4171  17DC  3046               	movlw	70
  4172  17DD  160A  118A  22A9  160A  118A  	fcall	_LCD_escreve
  4173  17E2                     l3553:
  4174                           
  4175                           ;main.c: 230:     while (aceito == 3){
  4176  17E2  3003               	movlw	3
  4177  17E3  1283               	bcf	3,5	;RP0=0, select bank0
  4178  17E4  1303               	bcf	3,6	;RP1=0, select bank0
  4179  17E5  0624               	xorwf	valida_senha@aceito,w
  4180  17E6  0425               	iorwf	valida_senha@aceito+1,w
  4181  17E7  1903               	btfsc	3,2
  4182  17E8  2FEA               	goto	u3721
  4183  17E9  2FEB               	goto	u3720
  4184  17EA                     u3721:
  4185  17EA  2FB7               	goto	l3541
  4186  17EB                     u3720:
  4187  17EB                     l3555:
  4188                           
  4189                           ;main.c: 243:     _delay((unsigned long)((2000)*(20000000/4000.0)));
  4190  17EB  3033               	movlw	51
  4191  17EC  1283               	bcf	3,5	;RP0=0, select bank0
  4192  17ED  1303               	bcf	3,6	;RP1=0, select bank0
  4193  17EE  00A2               	movwf	??_valida_senha+2
  4194  17EF  30BB               	movlw	187
  4195  17F0  00A1               	movwf	??_valida_senha+1
  4196  17F1  30DF               	movlw	223
  4197  17F2  00A0               	movwf	??_valida_senha
  4198  17F3                     u4387:
  4199  17F3  0BA0               	decfsz	??_valida_senha,f
  4200  17F4  2FF3               	goto	u4387
  4201  17F5  0BA1               	decfsz	??_valida_senha+1,f
  4202  17F6  2FF3               	goto	u4387
  4203  17F7  0BA2               	decfsz	??_valida_senha+2,f
  4204  17F8  2FF3               	goto	u4387
  4205                           
  4206                           ;main.c: 244:     return aceito;
  4207  17F9  1283               	bcf	3,5	;RP0=0, select bank0
  4208  17FA  1303               	bcf	3,6	;RP1=0, select bank0
  4209  17FB  0825               	movf	valida_senha@aceito+1,w
  4210  17FC  00FB               	movwf	?_valida_senha+1
  4211  17FD  0824               	movf	valida_senha@aceito,w
  4212  17FE  00FA               	movwf	?_valida_senha
  4213  17FF                     l253:
  4214  17FF  0008               	return
  4215  1800                     __end_of_valida_senha:
  4216                           
  4217                           	psect	text14
  4218  143E                     __ptext14:	
  4219 ;; *************** function _escreveMesagem *****************
  4220 ;; Defined at:
  4221 ;;		line 636 in file "main.c"
  4222 ;; Parameters:    Size  Location     Type
  4223 ;;  texto           2    3[COMMON] PTR unsigned char 
  4224 ;;		 -> msgReativar(9), msgDesativarZona(15), msgSenhaDisparo(14), msgSenhaCoacao(13), 
  4225 ;;		 -> msgSenhaUsuario(14), msgSenhaConfig(13), msgSenhaCorreta(14), msgSenhaErrada(13), 
  4226 ;;		 -> senhaCoa(5), senhaUser(5), senhaConfig(5), msgDigiteNovaSenha(14), 
  4227 ;;		 -> msgSenhaCancelada(16), msgSenhaAtualizada(17), msgAceitoOuNego(9), msgValidaSenha(16), 
  4228 ;;		 -> msgZonaDisparadas(15), msgConfigDispara(15), msgChamaAjuda(10), 
  4229 ;; Auto vars:     Size  Location     Type
  4230 ;;  i               2    8[COMMON] int 
  4231 ;; Return value:  Size  Location     Type
  4232 ;;                  1    wreg      void 
  4233 ;; Registers used:
  4234 ;;		wreg, fsr0l, fsr0h, status,2, status,0, btemp+1, pclath, cstack
  4235 ;; Tracked objects:
  4236 ;;		On entry : 0/0
  4237 ;;		On exit  : 0/0
  4238 ;;		Unchanged: 0/0
  4239 ;; Data sizes:     COMMON   BANK0   BANK1   BANK3   BANK2
  4240 ;;      Params:         2       0       0       0       0
  4241 ;;      Locals:         2       0       0       0       0
  4242 ;;      Temps:          3       0       0       0       0
  4243 ;;      Totals:         7       0       0       0       0
  4244 ;;Total ram usage:        7 bytes
  4245 ;; Hardware stack levels used: 1
  4246 ;; Hardware stack levels required when called: 2
  4247 ;; This function calls:
  4248 ;;		_LCD_escreve
  4249 ;; This function is called by:
  4250 ;;		_main
  4251 ;;		_infoZonas
  4252 ;;		_valida_senha
  4253 ;;		_rotinaValidaSenha
  4254 ;;		_alteraSenhas
  4255 ;;		_validaUser
  4256 ;;		_listaZonas
  4257 ;; This function uses a non-reentrant model
  4258 ;;
  4259                           
  4260                           
  4261                           ;psect for function _escreveMesagem
  4262  143E                     _escreveMesagem:
  4263  143E                     l3519:	
  4264                           ;incstack = 0
  4265                           ; Regs used in _escreveMesagem: [wreg-fsr0h+status,2+status,0+btemp+1+pclath+cstack]
  4266                           
  4267                           
  4268                           ;main.c: 637:     for (int i = 0; texto[i] != '\0'; i++){
  4269  143E  01F8               	clrf	escreveMesagem@i
  4270  143F  01F9               	clrf	escreveMesagem@i+1
  4271  1440  2C5E               	goto	l3525
  4272  1441                     l3521:
  4273                           
  4274                           ;main.c: 638:         LCD_escreve(texto[i]);
  4275  1441  0878               	movf	escreveMesagem@i,w
  4276  1442  0773               	addwf	escreveMesagem@texto,w
  4277  1443  00F6               	movwf	??_escreveMesagem+1
  4278  1444  0874               	movf	escreveMesagem@texto+1,w
  4279  1445  00F5               	movwf	??_escreveMesagem
  4280  1446  1803               	skipnc
  4281  1447  0AF5               	incf	??_escreveMesagem,f
  4282  1448  1FF8               	btfss	escreveMesagem@i,7
  4283  1449  2C4B               	goto	u3670
  4284  144A  03F5               	decf	??_escreveMesagem,f
  4285  144B                     u3670:
  4286  144B  0875               	movf	??_escreveMesagem,w
  4287  144C  00F7               	movwf	??_escreveMesagem+2
  4288  144D  0876               	movf	??_escreveMesagem+1,w
  4289  144E  0084               	movwf	4
  4290  144F  1783               	bsf	3,7
  4291  1450  1C77               	btfss	??_escreveMesagem+2,0
  4292  1451  1383               	bcf	3,7
  4293  1452  0800               	movf	0,w
  4294  1453  160A  118A  22A9  160A  118A  	fcall	_LCD_escreve
  4295  1458                     l3523:
  4296                           
  4297                           ;main.c: 639:     }
  4298  1458  3001               	movlw	1
  4299  1459  07F8               	addwf	escreveMesagem@i,f
  4300  145A  1803               	skipnc
  4301  145B  0AF9               	incf	escreveMesagem@i+1,f
  4302  145C  3000               	movlw	0
  4303  145D  07F9               	addwf	escreveMesagem@i+1,f
  4304  145E                     l3525:
  4305  145E  0878               	movf	escreveMesagem@i,w
  4306  145F  0773               	addwf	escreveMesagem@texto,w
  4307  1460  00F6               	movwf	??_escreveMesagem+1
  4308  1461  0874               	movf	escreveMesagem@texto+1,w
  4309  1462  00F5               	movwf	??_escreveMesagem
  4310  1463  1803               	skipnc
  4311  1464  0AF5               	incf	??_escreveMesagem,f
  4312  1465  1FF8               	btfss	escreveMesagem@i,7
  4313  1466  2C68               	goto	u3680
  4314  1467  03F5               	decf	??_escreveMesagem,f
  4315  1468                     u3680:
  4316  1468  0875               	movf	??_escreveMesagem,w
  4317  1469  00F7               	movwf	??_escreveMesagem+2
  4318  146A  0876               	movf	??_escreveMesagem+1,w
  4319  146B  0084               	movwf	4
  4320  146C  1783               	bsf	3,7
  4321  146D  1C77               	btfss	??_escreveMesagem+2,0
  4322  146E  1383               	bcf	3,7
  4323  146F  0800               	movf	0,w
  4324  1470  1D03               	btfss	3,2
  4325  1471  2C73               	goto	u3691
  4326  1472  2C74               	goto	u3690
  4327  1473                     u3691:
  4328  1473  2C41               	goto	l3521
  4329  1474                     u3690:
  4330  1474                     l368:
  4331  1474  0008               	return
  4332  1475                     __end_of_escreveMesagem:
  4333                           
  4334                           	psect	text15
  4335  1299                     __ptext15:	
  4336 ;; *************** function _LCD_linha1 *****************
  4337 ;; Defined at:
  4338 ;;		line 65 in file "./lcd.h"
  4339 ;; Parameters:    Size  Location     Type
  4340 ;;		None
  4341 ;; Auto vars:     Size  Location     Type
  4342 ;;		None
  4343 ;; Return value:  Size  Location     Type
  4344 ;;                  1    wreg      void 
  4345 ;; Registers used:
  4346 ;;		wreg, status,2, status,0, btemp+1, pclath, cstack
  4347 ;; Tracked objects:
  4348 ;;		On entry : 0/0
  4349 ;;		On exit  : 0/0
  4350 ;;		Unchanged: 0/0
  4351 ;; Data sizes:     COMMON   BANK0   BANK1   BANK3   BANK2
  4352 ;;      Params:         0       0       0       0       0
  4353 ;;      Locals:         0       0       0       0       0
  4354 ;;      Temps:          0       0       0       0       0
  4355 ;;      Totals:         0       0       0       0       0
  4356 ;;Total ram usage:        0 bytes
  4357 ;; Hardware stack levels used: 1
  4358 ;; Hardware stack levels required when called: 1
  4359 ;; This function calls:
  4360 ;;		_delay
  4361 ;; This function is called by:
  4362 ;;		_main
  4363 ;;		_infoZonas
  4364 ;;		_valida_senha
  4365 ;;		_telaInicial
  4366 ;;		_validaUser
  4367 ;;		_listaZonas
  4368 ;; This function uses a non-reentrant model
  4369 ;;
  4370                           
  4371                           
  4372                           ;psect for function _LCD_linha1
  4373  1299                     _LCD_linha1:
  4374  1299                     l2667:	
  4375                           ;incstack = 0
  4376                           ; Regs used in _LCD_linha1: [wreg+status,2+status,0+btemp+1+pclath+cstack]
  4377                           
  4378                           
  4379                           ;./lcd.h: 66:     PORTD = 0x02;
  4380  1299  3002               	movlw	2
  4381  129A  1283               	bcf	3,5	;RP0=0, select bank0
  4382  129B  1303               	bcf	3,6	;RP1=0, select bank0
  4383  129C  0088               	movwf	8	;volatile
  4384  129D                     l2669:
  4385                           
  4386                           ;./lcd.h: 67:     RA5 = 0;
  4387  129D  1285               	bcf	5,5	;volatile
  4388  129E                     l2671:
  4389                           
  4390                           ;./lcd.h: 68:     RA4 = 0;
  4391  129E  1205               	bcf	5,4	;volatile
  4392  129F                     l2673:
  4393                           
  4394                           ;./lcd.h: 69:     RA3=0;
  4395  129F  1185               	bcf	5,3	;volatile
  4396  12A0                     l2675:
  4397                           
  4398                           ;./lcd.h: 70:     delay();
  4399  12A0  160A  118A  22CD  160A  118A  	fcall	_delay
  4400  12A5                     l2677:
  4401                           
  4402                           ;./lcd.h: 71:  RA3 = 1;
  4403  12A5  1283               	bcf	3,5	;RP0=0, select bank0
  4404  12A6  1303               	bcf	3,6	;RP1=0, select bank0
  4405  12A7  1585               	bsf	5,3	;volatile
  4406  12A8                     l89:
  4407  12A8  0008               	return
  4408  12A9                     __end_of_LCD_linha1:
  4409                           
  4410                           	psect	text16
  4411  1289                     __ptext16:	
  4412 ;; *************** function _LCD_limpa *****************
  4413 ;; Defined at:
  4414 ;;		line 56 in file "./lcd.h"
  4415 ;; Parameters:    Size  Location     Type
  4416 ;;		None
  4417 ;; Auto vars:     Size  Location     Type
  4418 ;;		None
  4419 ;; Return value:  Size  Location     Type
  4420 ;;                  1    wreg      void 
  4421 ;; Registers used:
  4422 ;;		wreg, status,2, status,0, btemp+1, pclath, cstack
  4423 ;; Tracked objects:
  4424 ;;		On entry : 0/0
  4425 ;;		On exit  : 0/0
  4426 ;;		Unchanged: 0/0
  4427 ;; Data sizes:     COMMON   BANK0   BANK1   BANK3   BANK2
  4428 ;;      Params:         0       0       0       0       0
  4429 ;;      Locals:         0       0       0       0       0
  4430 ;;      Temps:          0       0       0       0       0
  4431 ;;      Totals:         0       0       0       0       0
  4432 ;;Total ram usage:        0 bytes
  4433 ;; Hardware stack levels used: 1
  4434 ;; Hardware stack levels required when called: 1
  4435 ;; This function calls:
  4436 ;;		_delay
  4437 ;; This function is called by:
  4438 ;;		_main
  4439 ;;		_infoZonas
  4440 ;;		_valida_senha
  4441 ;;		_rotinaValidaSenha
  4442 ;;		_alteraSenhas
  4443 ;;		_validaUser
  4444 ;;		_listaZonas
  4445 ;; This function uses a non-reentrant model
  4446 ;;
  4447                           
  4448                           
  4449                           ;psect for function _LCD_limpa
  4450  1289                     _LCD_limpa:
  4451  1289                     l2655:	
  4452                           ;incstack = 0
  4453                           ; Regs used in _LCD_limpa: [wreg+status,2+status,0+btemp+1+pclath+cstack]
  4454                           
  4455                           
  4456                           ;./lcd.h: 57:     PORTD = 0x01;
  4457  1289  3001               	movlw	1
  4458  128A  1283               	bcf	3,5	;RP0=0, select bank0
  4459  128B  1303               	bcf	3,6	;RP1=0, select bank0
  4460  128C  0088               	movwf	8	;volatile
  4461  128D                     l2657:
  4462                           
  4463                           ;./lcd.h: 58:     RA5 = 0;
  4464  128D  1285               	bcf	5,5	;volatile
  4465  128E                     l2659:
  4466                           
  4467                           ;./lcd.h: 59:     RA4 = 0;
  4468  128E  1205               	bcf	5,4	;volatile
  4469  128F                     l2661:
  4470                           
  4471                           ;./lcd.h: 60:     RA3=0;
  4472  128F  1185               	bcf	5,3	;volatile
  4473  1290                     l2663:
  4474                           
  4475                           ;./lcd.h: 61:     delay();
  4476  1290  160A  118A  22CD  160A  118A  	fcall	_delay
  4477  1295                     l2665:
  4478                           
  4479                           ;./lcd.h: 62:  RA3 = 1;
  4480  1295  1283               	bcf	3,5	;RP0=0, select bank0
  4481  1296  1303               	bcf	3,6	;RP1=0, select bank0
  4482  1297  1585               	bsf	5,3	;volatile
  4483  1298                     l86:
  4484  1298  0008               	return
  4485  1299                     __end_of_LCD_limpa:
  4486                           
  4487                           	psect	text17
  4488  015C                     __ptext17:	
  4489 ;; *************** function _teclado *****************
  4490 ;; Defined at:
  4491 ;;		line 295 in file "main.c"
  4492 ;; Parameters:    Size  Location     Type
  4493 ;;		None
  4494 ;; Auto vars:     Size  Location     Type
  4495 ;;		None
  4496 ;; Return value:  Size  Location     Type
  4497 ;;                  1    wreg      void 
  4498 ;; Registers used:
  4499 ;;		wreg, status,2, status,0, btemp+1, pclath, cstack
  4500 ;; Tracked objects:
  4501 ;;		On entry : 0/0
  4502 ;;		On exit  : 0/0
  4503 ;;		Unchanged: 0/0
  4504 ;; Data sizes:     COMMON   BANK0   BANK1   BANK3   BANK2
  4505 ;;      Params:         0       0       0       0       0
  4506 ;;      Locals:         0       0       0       0       0
  4507 ;;      Temps:          0       3       0       0       0
  4508 ;;      Totals:         0       3       0       0       0
  4509 ;;Total ram usage:        3 bytes
  4510 ;; Hardware stack levels used: 1
  4511 ;; Hardware stack levels required when called: 3
  4512 ;; This function calls:
  4513 ;;		_LCD_escreve
  4514 ;;		_liga_buzzer
  4515 ;; This function is called by:
  4516 ;;		_inputSenhaAlter
  4517 ;;		_validaUser
  4518 ;; This function uses a non-reentrant model
  4519 ;;
  4520                           
  4521                           
  4522                           ;psect for function _teclado
  4523  015C                     _teclado:
  4524  015C                     l2779:	
  4525                           ;incstack = 0
  4526                           ; Regs used in _teclado: [wreg+status,2+status,0+btemp+1+pclath+cstack]
  4527                           
  4528                           
  4529                           ;main.c: 296:     PORTE = 0x01;
  4530  015C  3001               	movlw	1
  4531  015D  1283               	bcf	3,5	;RP0=0, select bank0
  4532  015E  1303               	bcf	3,6	;RP1=0, select bank0
  4533  015F  0089               	movwf	9	;volatile
  4534                           
  4535                           ;main.c: 300:     PORTB = 0b11101111;
  4536  0160  30EF               	movlw	239
  4537  0161  0086               	movwf	6	;volatile
  4538  0162                     l2781:
  4539                           
  4540                           ;main.c: 304:     if (RB0 == 0){
  4541  0162  1806               	btfsc	6,0	;volatile
  4542  0163  2965               	goto	u2841
  4543  0164  2966               	goto	u2840
  4544  0165                     u2841:
  4545  0165  2993               	goto	l2793
  4546  0166                     u2840:
  4547  0166                     l2783:
  4548                           
  4549                           ;main.c: 305:         _delay((unsigned long)((200)*(20000000/4000.0)));
  4550  0166  3006               	movlw	6
  4551  0167  1283               	bcf	3,5	;RP0=0, select bank0
  4552  0168  1303               	bcf	3,6	;RP1=0, select bank0
  4553  0169  00BD               	movwf	??_teclado+2
  4554  016A  3013               	movlw	19
  4555  016B  00BC               	movwf	??_teclado+1
  4556  016C  30AD               	movlw	173
  4557  016D  00BB               	movwf	??_teclado
  4558  016E                     u4397:
  4559  016E  0BBB               	decfsz	??_teclado,f
  4560  016F  296E               	goto	u4397
  4561  0170  0BBC               	decfsz	??_teclado+1,f
  4562  0171  296E               	goto	u4397
  4563  0172  0BBD               	decfsz	??_teclado+2,f
  4564  0173  296E               	goto	u4397
  4565  0174                     l2785:
  4566                           
  4567                           ;main.c: 306:         liga_buzzer(0.1);
  4568  0174  303D               	movlw	61
  4569  0175  1283               	bcf	3,5	;RP0=0, select bank0
  4570  0176  1303               	bcf	3,6	;RP1=0, select bank0
  4571  0177  00B8               	movwf	liga_buzzer@tempoSegundos+3
  4572  0178  30CC               	movlw	204
  4573  0179  00B7               	movwf	liga_buzzer@tempoSegundos+2
  4574  017A  30CC               	movlw	204
  4575  017B  00B6               	movwf	liga_buzzer@tempoSegundos+1
  4576  017C  30CD               	movlw	205
  4577  017D  00B5               	movwf	liga_buzzer@tempoSegundos
  4578  017E  160A  118A  26FD  120A  118A  	fcall	_liga_buzzer
  4579  0183                     l2787:
  4580                           
  4581                           ;main.c: 307:         LCD_escreve('0');
  4582  0183  3030               	movlw	48
  4583  0184  160A  118A  22A9  120A  118A  	fcall	_LCD_escreve
  4584  0189                     l2789:
  4585                           
  4586                           ;main.c: 308:         if(userFalse){
  4587  0189  1283               	bcf	3,5	;RP0=0, select bank0
  4588  018A  1303               	bcf	3,6	;RP1=0, select bank0
  4589  018B  0852               	movf	_userFalse,w
  4590  018C  0453               	iorwf	_userFalse+1,w
  4591  018D  1903               	btfsc	3,2
  4592  018E  2990               	goto	u2851
  4593  018F  2991               	goto	u2850
  4594  0190                     u2851:
  4595  0190  2993               	goto	l2793
  4596  0191                     u2850:
  4597  0191                     l2791:
  4598                           
  4599                           ;main.c: 309:             input = 0;
  4600  0191  01D6               	clrf	_input
  4601  0192  01D7               	clrf	_input+1
  4602  0193                     l2793:
  4603                           
  4604                           ;main.c: 318:     if (RB1 == 0){
  4605  0193  1886               	btfsc	6,1	;volatile
  4606  0194  2996               	goto	u2861
  4607  0195  2997               	goto	u2860
  4608  0196                     u2861:
  4609  0196  29C6               	goto	l2805
  4610  0197                     u2860:
  4611  0197                     l2795:
  4612                           
  4613                           ;main.c: 319:         _delay((unsigned long)((200)*(20000000/4000.0)));
  4614  0197  3006               	movlw	6
  4615  0198  1283               	bcf	3,5	;RP0=0, select bank0
  4616  0199  1303               	bcf	3,6	;RP1=0, select bank0
  4617  019A  00BD               	movwf	??_teclado+2
  4618  019B  3013               	movlw	19
  4619  019C  00BC               	movwf	??_teclado+1
  4620  019D  30AD               	movlw	173
  4621  019E  00BB               	movwf	??_teclado
  4622  019F                     u4407:
  4623  019F  0BBB               	decfsz	??_teclado,f
  4624  01A0  299F               	goto	u4407
  4625  01A1  0BBC               	decfsz	??_teclado+1,f
  4626  01A2  299F               	goto	u4407
  4627  01A3  0BBD               	decfsz	??_teclado+2,f
  4628  01A4  299F               	goto	u4407
  4629  01A5                     l2797:
  4630                           
  4631                           ;main.c: 320:         liga_buzzer(0.1);
  4632  01A5  303D               	movlw	61
  4633  01A6  1283               	bcf	3,5	;RP0=0, select bank0
  4634  01A7  1303               	bcf	3,6	;RP1=0, select bank0
  4635  01A8  00B8               	movwf	liga_buzzer@tempoSegundos+3
  4636  01A9  30CC               	movlw	204
  4637  01AA  00B7               	movwf	liga_buzzer@tempoSegundos+2
  4638  01AB  30CC               	movlw	204
  4639  01AC  00B6               	movwf	liga_buzzer@tempoSegundos+1
  4640  01AD  30CD               	movlw	205
  4641  01AE  00B5               	movwf	liga_buzzer@tempoSegundos
  4642  01AF  160A  118A  26FD  120A  118A  	fcall	_liga_buzzer
  4643  01B4                     l2799:
  4644                           
  4645                           ;main.c: 321:         LCD_escreve('1');
  4646  01B4  3031               	movlw	49
  4647  01B5  160A  118A  22A9  120A  118A  	fcall	_LCD_escreve
  4648  01BA                     l2801:
  4649                           
  4650                           ;main.c: 322:         if(userFalse){
  4651  01BA  1283               	bcf	3,5	;RP0=0, select bank0
  4652  01BB  1303               	bcf	3,6	;RP1=0, select bank0
  4653  01BC  0852               	movf	_userFalse,w
  4654  01BD  0453               	iorwf	_userFalse+1,w
  4655  01BE  1903               	btfsc	3,2
  4656  01BF  29C1               	goto	u2871
  4657  01C0  29C2               	goto	u2870
  4658  01C1                     u2871:
  4659  01C1  29C6               	goto	l2805
  4660  01C2                     u2870:
  4661  01C2                     l2803:
  4662                           
  4663                           ;main.c: 323:             input = 1;
  4664  01C2  3001               	movlw	1
  4665  01C3  00D6               	movwf	_input
  4666  01C4  3000               	movlw	0
  4667  01C5  00D7               	movwf	_input+1
  4668  01C6                     l2805:
  4669                           
  4670                           ;main.c: 332:     if (RB2 == 0){
  4671  01C6  1906               	btfsc	6,2	;volatile
  4672  01C7  29C9               	goto	u2881
  4673  01C8  29CA               	goto	u2880
  4674  01C9                     u2881:
  4675  01C9  29F9               	goto	l2817
  4676  01CA                     u2880:
  4677  01CA                     l2807:
  4678                           
  4679                           ;main.c: 333:         _delay((unsigned long)((200)*(20000000/4000.0)));
  4680  01CA  3006               	movlw	6
  4681  01CB  1283               	bcf	3,5	;RP0=0, select bank0
  4682  01CC  1303               	bcf	3,6	;RP1=0, select bank0
  4683  01CD  00BD               	movwf	??_teclado+2
  4684  01CE  3013               	movlw	19
  4685  01CF  00BC               	movwf	??_teclado+1
  4686  01D0  30AD               	movlw	173
  4687  01D1  00BB               	movwf	??_teclado
  4688  01D2                     u4417:
  4689  01D2  0BBB               	decfsz	??_teclado,f
  4690  01D3  29D2               	goto	u4417
  4691  01D4  0BBC               	decfsz	??_teclado+1,f
  4692  01D5  29D2               	goto	u4417
  4693  01D6  0BBD               	decfsz	??_teclado+2,f
  4694  01D7  29D2               	goto	u4417
  4695  01D8                     l2809:
  4696                           
  4697                           ;main.c: 334:         liga_buzzer(0.1);
  4698  01D8  303D               	movlw	61
  4699  01D9  1283               	bcf	3,5	;RP0=0, select bank0
  4700  01DA  1303               	bcf	3,6	;RP1=0, select bank0
  4701  01DB  00B8               	movwf	liga_buzzer@tempoSegundos+3
  4702  01DC  30CC               	movlw	204
  4703  01DD  00B7               	movwf	liga_buzzer@tempoSegundos+2
  4704  01DE  30CC               	movlw	204
  4705  01DF  00B6               	movwf	liga_buzzer@tempoSegundos+1
  4706  01E0  30CD               	movlw	205
  4707  01E1  00B5               	movwf	liga_buzzer@tempoSegundos
  4708  01E2  160A  118A  26FD  120A  118A  	fcall	_liga_buzzer
  4709  01E7                     l2811:
  4710                           
  4711                           ;main.c: 335:         LCD_escreve('2');
  4712  01E7  3032               	movlw	50
  4713  01E8  160A  118A  22A9  120A  118A  	fcall	_LCD_escreve
  4714  01ED                     l2813:
  4715                           
  4716                           ;main.c: 336:         if(userFalse){
  4717  01ED  1283               	bcf	3,5	;RP0=0, select bank0
  4718  01EE  1303               	bcf	3,6	;RP1=0, select bank0
  4719  01EF  0852               	movf	_userFalse,w
  4720  01F0  0453               	iorwf	_userFalse+1,w
  4721  01F1  1903               	btfsc	3,2
  4722  01F2  29F4               	goto	u2891
  4723  01F3  29F5               	goto	u2890
  4724  01F4                     u2891:
  4725  01F4  29F9               	goto	l2817
  4726  01F5                     u2890:
  4727  01F5                     l2815:
  4728                           
  4729                           ;main.c: 337:             input = 2;
  4730  01F5  3002               	movlw	2
  4731  01F6  00D6               	movwf	_input
  4732  01F7  3000               	movlw	0
  4733  01F8  00D7               	movwf	_input+1
  4734  01F9                     l2817:
  4735                           
  4736                           ;main.c: 343:     if (RB3 == 0){
  4737  01F9  1986               	btfsc	6,3	;volatile
  4738  01FA  29FC               	goto	u2901
  4739  01FB  29FD               	goto	u2900
  4740  01FC                     u2901:
  4741  01FC  2A2C               	goto	l289
  4742  01FD                     u2900:
  4743  01FD                     l2819:
  4744                           
  4745                           ;main.c: 344:         _delay((unsigned long)((200)*(20000000/4000.0)));
  4746  01FD  3006               	movlw	6
  4747  01FE  1283               	bcf	3,5	;RP0=0, select bank0
  4748  01FF  1303               	bcf	3,6	;RP1=0, select bank0
  4749  0200  00BD               	movwf	??_teclado+2
  4750  0201  3013               	movlw	19
  4751  0202  00BC               	movwf	??_teclado+1
  4752  0203  30AD               	movlw	173
  4753  0204  00BB               	movwf	??_teclado
  4754  0205                     u4427:
  4755  0205  0BBB               	decfsz	??_teclado,f
  4756  0206  2A05               	goto	u4427
  4757  0207  0BBC               	decfsz	??_teclado+1,f
  4758  0208  2A05               	goto	u4427
  4759  0209  0BBD               	decfsz	??_teclado+2,f
  4760  020A  2A05               	goto	u4427
  4761  020B                     l2821:
  4762                           
  4763                           ;main.c: 345:         liga_buzzer(0.1);
  4764  020B  303D               	movlw	61
  4765  020C  1283               	bcf	3,5	;RP0=0, select bank0
  4766  020D  1303               	bcf	3,6	;RP1=0, select bank0
  4767  020E  00B8               	movwf	liga_buzzer@tempoSegundos+3
  4768  020F  30CC               	movlw	204
  4769  0210  00B7               	movwf	liga_buzzer@tempoSegundos+2
  4770  0211  30CC               	movlw	204
  4771  0212  00B6               	movwf	liga_buzzer@tempoSegundos+1
  4772  0213  30CD               	movlw	205
  4773  0214  00B5               	movwf	liga_buzzer@tempoSegundos
  4774  0215  160A  118A  26FD  120A  118A  	fcall	_liga_buzzer
  4775  021A                     l2823:
  4776                           
  4777                           ;main.c: 346:         LCD_escreve('3');
  4778  021A  3033               	movlw	51
  4779  021B  160A  118A  22A9  120A  118A  	fcall	_LCD_escreve
  4780  0220                     l2825:
  4781                           
  4782                           ;main.c: 347:         if(userFalse){
  4783  0220  1283               	bcf	3,5	;RP0=0, select bank0
  4784  0221  1303               	bcf	3,6	;RP1=0, select bank0
  4785  0222  0852               	movf	_userFalse,w
  4786  0223  0453               	iorwf	_userFalse+1,w
  4787  0224  1903               	btfsc	3,2
  4788  0225  2A27               	goto	u2911
  4789  0226  2A28               	goto	u2910
  4790  0227                     u2911:
  4791  0227  2A2C               	goto	l289
  4792  0228                     u2910:
  4793  0228                     l2827:
  4794                           
  4795                           ;main.c: 348:             input = 3;
  4796  0228  3003               	movlw	3
  4797  0229  00D6               	movwf	_input
  4798  022A  3000               	movlw	0
  4799  022B  00D7               	movwf	_input+1
  4800  022C                     l289:	
  4801                           ;main.c: 350:     }
  4802                           
  4803                           
  4804                           ;main.c: 354:     PORTB = 0b11011111;
  4805  022C  30DF               	movlw	223
  4806  022D  0086               	movwf	6	;volatile
  4807  022E                     l2829:
  4808                           
  4809                           ;main.c: 358:     if (RB0 == 0){
  4810  022E  1806               	btfsc	6,0	;volatile
  4811  022F  2A31               	goto	u2921
  4812  0230  2A32               	goto	u2920
  4813  0231                     u2921:
  4814  0231  2A61               	goto	l2841
  4815  0232                     u2920:
  4816  0232                     l2831:
  4817                           
  4818                           ;main.c: 359:         _delay((unsigned long)((200)*(20000000/4000.0)));
  4819  0232  3006               	movlw	6
  4820  0233  1283               	bcf	3,5	;RP0=0, select bank0
  4821  0234  1303               	bcf	3,6	;RP1=0, select bank0
  4822  0235  00BD               	movwf	??_teclado+2
  4823  0236  3013               	movlw	19
  4824  0237  00BC               	movwf	??_teclado+1
  4825  0238  30AD               	movlw	173
  4826  0239  00BB               	movwf	??_teclado
  4827  023A                     u4437:
  4828  023A  0BBB               	decfsz	??_teclado,f
  4829  023B  2A3A               	goto	u4437
  4830  023C  0BBC               	decfsz	??_teclado+1,f
  4831  023D  2A3A               	goto	u4437
  4832  023E  0BBD               	decfsz	??_teclado+2,f
  4833  023F  2A3A               	goto	u4437
  4834  0240                     l2833:
  4835                           
  4836                           ;main.c: 360:         liga_buzzer(0.1);
  4837  0240  303D               	movlw	61
  4838  0241  1283               	bcf	3,5	;RP0=0, select bank0
  4839  0242  1303               	bcf	3,6	;RP1=0, select bank0
  4840  0243  00B8               	movwf	liga_buzzer@tempoSegundos+3
  4841  0244  30CC               	movlw	204
  4842  0245  00B7               	movwf	liga_buzzer@tempoSegundos+2
  4843  0246  30CC               	movlw	204
  4844  0247  00B6               	movwf	liga_buzzer@tempoSegundos+1
  4845  0248  30CD               	movlw	205
  4846  0249  00B5               	movwf	liga_buzzer@tempoSegundos
  4847  024A  160A  118A  26FD  120A  118A  	fcall	_liga_buzzer
  4848  024F                     l2835:
  4849                           
  4850                           ;main.c: 361:         LCD_escreve('4');
  4851  024F  3034               	movlw	52
  4852  0250  160A  118A  22A9  120A  118A  	fcall	_LCD_escreve
  4853  0255                     l2837:
  4854                           
  4855                           ;main.c: 362:         if(userFalse){
  4856  0255  1283               	bcf	3,5	;RP0=0, select bank0
  4857  0256  1303               	bcf	3,6	;RP1=0, select bank0
  4858  0257  0852               	movf	_userFalse,w
  4859  0258  0453               	iorwf	_userFalse+1,w
  4860  0259  1903               	btfsc	3,2
  4861  025A  2A5C               	goto	u2931
  4862  025B  2A5D               	goto	u2930
  4863  025C                     u2931:
  4864  025C  2A61               	goto	l2841
  4865  025D                     u2930:
  4866  025D                     l2839:
  4867                           
  4868                           ;main.c: 363:             input = 4;
  4869  025D  3004               	movlw	4
  4870  025E  00D6               	movwf	_input
  4871  025F  3000               	movlw	0
  4872  0260  00D7               	movwf	_input+1
  4873  0261                     l2841:
  4874                           
  4875                           ;main.c: 369:     if (RB1 == 0){
  4876  0261  1886               	btfsc	6,1	;volatile
  4877  0262  2A64               	goto	u2941
  4878  0263  2A65               	goto	u2940
  4879  0264                     u2941:
  4880  0264  2A94               	goto	l2853
  4881  0265                     u2940:
  4882  0265                     l2843:
  4883                           
  4884                           ;main.c: 370:         _delay((unsigned long)((200)*(20000000/4000.0)));
  4885  0265  3006               	movlw	6
  4886  0266  1283               	bcf	3,5	;RP0=0, select bank0
  4887  0267  1303               	bcf	3,6	;RP1=0, select bank0
  4888  0268  00BD               	movwf	??_teclado+2
  4889  0269  3013               	movlw	19
  4890  026A  00BC               	movwf	??_teclado+1
  4891  026B  30AD               	movlw	173
  4892  026C  00BB               	movwf	??_teclado
  4893  026D                     u4447:
  4894  026D  0BBB               	decfsz	??_teclado,f
  4895  026E  2A6D               	goto	u4447
  4896  026F  0BBC               	decfsz	??_teclado+1,f
  4897  0270  2A6D               	goto	u4447
  4898  0271  0BBD               	decfsz	??_teclado+2,f
  4899  0272  2A6D               	goto	u4447
  4900  0273                     l2845:
  4901                           
  4902                           ;main.c: 371:         liga_buzzer(0.1);
  4903  0273  303D               	movlw	61
  4904  0274  1283               	bcf	3,5	;RP0=0, select bank0
  4905  0275  1303               	bcf	3,6	;RP1=0, select bank0
  4906  0276  00B8               	movwf	liga_buzzer@tempoSegundos+3
  4907  0277  30CC               	movlw	204
  4908  0278  00B7               	movwf	liga_buzzer@tempoSegundos+2
  4909  0279  30CC               	movlw	204
  4910  027A  00B6               	movwf	liga_buzzer@tempoSegundos+1
  4911  027B  30CD               	movlw	205
  4912  027C  00B5               	movwf	liga_buzzer@tempoSegundos
  4913  027D  160A  118A  26FD  120A  118A  	fcall	_liga_buzzer
  4914  0282                     l2847:
  4915                           
  4916                           ;main.c: 372:         LCD_escreve('5');
  4917  0282  3035               	movlw	53
  4918  0283  160A  118A  22A9  120A  118A  	fcall	_LCD_escreve
  4919  0288                     l2849:
  4920                           
  4921                           ;main.c: 373:         if(userFalse){
  4922  0288  1283               	bcf	3,5	;RP0=0, select bank0
  4923  0289  1303               	bcf	3,6	;RP1=0, select bank0
  4924  028A  0852               	movf	_userFalse,w
  4925  028B  0453               	iorwf	_userFalse+1,w
  4926  028C  1903               	btfsc	3,2
  4927  028D  2A8F               	goto	u2951
  4928  028E  2A90               	goto	u2950
  4929  028F                     u2951:
  4930  028F  2A94               	goto	l2853
  4931  0290                     u2950:
  4932  0290                     l2851:
  4933                           
  4934                           ;main.c: 374:             input = 5;
  4935  0290  3005               	movlw	5
  4936  0291  00D6               	movwf	_input
  4937  0292  3000               	movlw	0
  4938  0293  00D7               	movwf	_input+1
  4939  0294                     l2853:
  4940                           
  4941                           ;main.c: 380:     if (RB2 == 0){
  4942  0294  1906               	btfsc	6,2	;volatile
  4943  0295  2A97               	goto	u2961
  4944  0296  2A98               	goto	u2960
  4945  0297                     u2961:
  4946  0297  2AC7               	goto	l2865
  4947  0298                     u2960:
  4948  0298                     l2855:
  4949                           
  4950                           ;main.c: 381:         _delay((unsigned long)((200)*(20000000/4000.0)));
  4951  0298  3006               	movlw	6
  4952  0299  1283               	bcf	3,5	;RP0=0, select bank0
  4953  029A  1303               	bcf	3,6	;RP1=0, select bank0
  4954  029B  00BD               	movwf	??_teclado+2
  4955  029C  3013               	movlw	19
  4956  029D  00BC               	movwf	??_teclado+1
  4957  029E  30AD               	movlw	173
  4958  029F  00BB               	movwf	??_teclado
  4959  02A0                     u4457:
  4960  02A0  0BBB               	decfsz	??_teclado,f
  4961  02A1  2AA0               	goto	u4457
  4962  02A2  0BBC               	decfsz	??_teclado+1,f
  4963  02A3  2AA0               	goto	u4457
  4964  02A4  0BBD               	decfsz	??_teclado+2,f
  4965  02A5  2AA0               	goto	u4457
  4966  02A6                     l2857:
  4967                           
  4968                           ;main.c: 382:         liga_buzzer(0.1);
  4969  02A6  303D               	movlw	61
  4970  02A7  1283               	bcf	3,5	;RP0=0, select bank0
  4971  02A8  1303               	bcf	3,6	;RP1=0, select bank0
  4972  02A9  00B8               	movwf	liga_buzzer@tempoSegundos+3
  4973  02AA  30CC               	movlw	204
  4974  02AB  00B7               	movwf	liga_buzzer@tempoSegundos+2
  4975  02AC  30CC               	movlw	204
  4976  02AD  00B6               	movwf	liga_buzzer@tempoSegundos+1
  4977  02AE  30CD               	movlw	205
  4978  02AF  00B5               	movwf	liga_buzzer@tempoSegundos
  4979  02B0  160A  118A  26FD  120A  118A  	fcall	_liga_buzzer
  4980  02B5                     l2859:
  4981                           
  4982                           ;main.c: 383:         LCD_escreve('6');
  4983  02B5  3036               	movlw	54
  4984  02B6  160A  118A  22A9  120A  118A  	fcall	_LCD_escreve
  4985  02BB                     l2861:
  4986                           
  4987                           ;main.c: 384:         if(userFalse){
  4988  02BB  1283               	bcf	3,5	;RP0=0, select bank0
  4989  02BC  1303               	bcf	3,6	;RP1=0, select bank0
  4990  02BD  0852               	movf	_userFalse,w
  4991  02BE  0453               	iorwf	_userFalse+1,w
  4992  02BF  1903               	btfsc	3,2
  4993  02C0  2AC2               	goto	u2971
  4994  02C1  2AC3               	goto	u2970
  4995  02C2                     u2971:
  4996  02C2  2AC7               	goto	l2865
  4997  02C3                     u2970:
  4998  02C3                     l2863:
  4999                           
  5000                           ;main.c: 385:             input = 6;
  5001  02C3  3006               	movlw	6
  5002  02C4  00D6               	movwf	_input
  5003  02C5  3000               	movlw	0
  5004  02C6  00D7               	movwf	_input+1
  5005  02C7                     l2865:
  5006                           
  5007                           ;main.c: 391:     if (RB3 == 0){
  5008  02C7  1986               	btfsc	6,3	;volatile
  5009  02C8  2ACA               	goto	u2981
  5010  02C9  2ACB               	goto	u2980
  5011  02CA                     u2981:
  5012  02CA  2AFA               	goto	l297
  5013  02CB                     u2980:
  5014  02CB                     l2867:
  5015                           
  5016                           ;main.c: 392:         _delay((unsigned long)((200)*(20000000/4000.0)));
  5017  02CB  3006               	movlw	6
  5018  02CC  1283               	bcf	3,5	;RP0=0, select bank0
  5019  02CD  1303               	bcf	3,6	;RP1=0, select bank0
  5020  02CE  00BD               	movwf	??_teclado+2
  5021  02CF  3013               	movlw	19
  5022  02D0  00BC               	movwf	??_teclado+1
  5023  02D1  30AD               	movlw	173
  5024  02D2  00BB               	movwf	??_teclado
  5025  02D3                     u4467:
  5026  02D3  0BBB               	decfsz	??_teclado,f
  5027  02D4  2AD3               	goto	u4467
  5028  02D5  0BBC               	decfsz	??_teclado+1,f
  5029  02D6  2AD3               	goto	u4467
  5030  02D7  0BBD               	decfsz	??_teclado+2,f
  5031  02D8  2AD3               	goto	u4467
  5032  02D9                     l2869:
  5033                           
  5034                           ;main.c: 393:         liga_buzzer(0.1);
  5035  02D9  303D               	movlw	61
  5036  02DA  1283               	bcf	3,5	;RP0=0, select bank0
  5037  02DB  1303               	bcf	3,6	;RP1=0, select bank0
  5038  02DC  00B8               	movwf	liga_buzzer@tempoSegundos+3
  5039  02DD  30CC               	movlw	204
  5040  02DE  00B7               	movwf	liga_buzzer@tempoSegundos+2
  5041  02DF  30CC               	movlw	204
  5042  02E0  00B6               	movwf	liga_buzzer@tempoSegundos+1
  5043  02E1  30CD               	movlw	205
  5044  02E2  00B5               	movwf	liga_buzzer@tempoSegundos
  5045  02E3  160A  118A  26FD  120A  118A  	fcall	_liga_buzzer
  5046  02E8                     l2871:
  5047                           
  5048                           ;main.c: 394:         LCD_escreve('7');
  5049  02E8  3037               	movlw	55
  5050  02E9  160A  118A  22A9  120A  118A  	fcall	_LCD_escreve
  5051  02EE                     l2873:
  5052                           
  5053                           ;main.c: 395:         if(userFalse){
  5054  02EE  1283               	bcf	3,5	;RP0=0, select bank0
  5055  02EF  1303               	bcf	3,6	;RP1=0, select bank0
  5056  02F0  0852               	movf	_userFalse,w
  5057  02F1  0453               	iorwf	_userFalse+1,w
  5058  02F2  1903               	btfsc	3,2
  5059  02F3  2AF5               	goto	u2991
  5060  02F4  2AF6               	goto	u2990
  5061  02F5                     u2991:
  5062  02F5  2AFA               	goto	l297
  5063  02F6                     u2990:
  5064  02F6                     l2875:
  5065                           
  5066                           ;main.c: 396:             input = 7;
  5067  02F6  3007               	movlw	7
  5068  02F7  00D6               	movwf	_input
  5069  02F8  3000               	movlw	0
  5070  02F9  00D7               	movwf	_input+1
  5071  02FA                     l297:	
  5072                           ;main.c: 398:     }
  5073                           
  5074                           
  5075                           ;main.c: 402:     PORTB = 0b10111111;
  5076  02FA  30BF               	movlw	191
  5077  02FB  0086               	movwf	6	;volatile
  5078  02FC                     l2877:
  5079                           
  5080                           ;main.c: 406:     if (RB0 == 0){
  5081  02FC  1806               	btfsc	6,0	;volatile
  5082  02FD  2AFF               	goto	u3001
  5083  02FE  2B00               	goto	u3000
  5084  02FF                     u3001:
  5085  02FF  2B2F               	goto	l2889
  5086  0300                     u3000:
  5087  0300                     l2879:
  5088                           
  5089                           ;main.c: 407:         _delay((unsigned long)((200)*(20000000/4000.0)));
  5090  0300  3006               	movlw	6
  5091  0301  1283               	bcf	3,5	;RP0=0, select bank0
  5092  0302  1303               	bcf	3,6	;RP1=0, select bank0
  5093  0303  00BD               	movwf	??_teclado+2
  5094  0304  3013               	movlw	19
  5095  0305  00BC               	movwf	??_teclado+1
  5096  0306  30AD               	movlw	173
  5097  0307  00BB               	movwf	??_teclado
  5098  0308                     u4477:
  5099  0308  0BBB               	decfsz	??_teclado,f
  5100  0309  2B08               	goto	u4477
  5101  030A  0BBC               	decfsz	??_teclado+1,f
  5102  030B  2B08               	goto	u4477
  5103  030C  0BBD               	decfsz	??_teclado+2,f
  5104  030D  2B08               	goto	u4477
  5105  030E                     l2881:
  5106                           
  5107                           ;main.c: 408:         liga_buzzer(0.1);
  5108  030E  303D               	movlw	61
  5109  030F  1283               	bcf	3,5	;RP0=0, select bank0
  5110  0310  1303               	bcf	3,6	;RP1=0, select bank0
  5111  0311  00B8               	movwf	liga_buzzer@tempoSegundos+3
  5112  0312  30CC               	movlw	204
  5113  0313  00B7               	movwf	liga_buzzer@tempoSegundos+2
  5114  0314  30CC               	movlw	204
  5115  0315  00B6               	movwf	liga_buzzer@tempoSegundos+1
  5116  0316  30CD               	movlw	205
  5117  0317  00B5               	movwf	liga_buzzer@tempoSegundos
  5118  0318  160A  118A  26FD  120A  118A  	fcall	_liga_buzzer
  5119  031D                     l2883:
  5120                           
  5121                           ;main.c: 409:         LCD_escreve('8');
  5122  031D  3038               	movlw	56
  5123  031E  160A  118A  22A9  120A  118A  	fcall	_LCD_escreve
  5124  0323                     l2885:
  5125                           
  5126                           ;main.c: 410:         if(userFalse){
  5127  0323  1283               	bcf	3,5	;RP0=0, select bank0
  5128  0324  1303               	bcf	3,6	;RP1=0, select bank0
  5129  0325  0852               	movf	_userFalse,w
  5130  0326  0453               	iorwf	_userFalse+1,w
  5131  0327  1903               	btfsc	3,2
  5132  0328  2B2A               	goto	u3011
  5133  0329  2B2B               	goto	u3010
  5134  032A                     u3011:
  5135  032A  2B2F               	goto	l2889
  5136  032B                     u3010:
  5137  032B                     l2887:
  5138                           
  5139                           ;main.c: 411:             input = 8;
  5140  032B  3008               	movlw	8
  5141  032C  00D6               	movwf	_input
  5142  032D  3000               	movlw	0
  5143  032E  00D7               	movwf	_input+1
  5144  032F                     l2889:
  5145                           
  5146                           ;main.c: 417:     if (RB1 == 0){
  5147  032F  1886               	btfsc	6,1	;volatile
  5148  0330  2B32               	goto	u3021
  5149  0331  2B33               	goto	u3020
  5150  0332                     u3021:
  5151  0332  2B62               	goto	l2901
  5152  0333                     u3020:
  5153  0333                     l2891:
  5154                           
  5155                           ;main.c: 418:         _delay((unsigned long)((200)*(20000000/4000.0)));
  5156  0333  3006               	movlw	6
  5157  0334  1283               	bcf	3,5	;RP0=0, select bank0
  5158  0335  1303               	bcf	3,6	;RP1=0, select bank0
  5159  0336  00BD               	movwf	??_teclado+2
  5160  0337  3013               	movlw	19
  5161  0338  00BC               	movwf	??_teclado+1
  5162  0339  30AD               	movlw	173
  5163  033A  00BB               	movwf	??_teclado
  5164  033B                     u4487:
  5165  033B  0BBB               	decfsz	??_teclado,f
  5166  033C  2B3B               	goto	u4487
  5167  033D  0BBC               	decfsz	??_teclado+1,f
  5168  033E  2B3B               	goto	u4487
  5169  033F  0BBD               	decfsz	??_teclado+2,f
  5170  0340  2B3B               	goto	u4487
  5171  0341                     l2893:
  5172                           
  5173                           ;main.c: 419:         liga_buzzer(0.1);
  5174  0341  303D               	movlw	61
  5175  0342  1283               	bcf	3,5	;RP0=0, select bank0
  5176  0343  1303               	bcf	3,6	;RP1=0, select bank0
  5177  0344  00B8               	movwf	liga_buzzer@tempoSegundos+3
  5178  0345  30CC               	movlw	204
  5179  0346  00B7               	movwf	liga_buzzer@tempoSegundos+2
  5180  0347  30CC               	movlw	204
  5181  0348  00B6               	movwf	liga_buzzer@tempoSegundos+1
  5182  0349  30CD               	movlw	205
  5183  034A  00B5               	movwf	liga_buzzer@tempoSegundos
  5184  034B  160A  118A  26FD  120A  118A  	fcall	_liga_buzzer
  5185  0350                     l2895:
  5186                           
  5187                           ;main.c: 420:         LCD_escreve('9');
  5188  0350  3039               	movlw	57
  5189  0351  160A  118A  22A9  120A  118A  	fcall	_LCD_escreve
  5190  0356                     l2897:
  5191                           
  5192                           ;main.c: 421:         if(userFalse){
  5193  0356  1283               	bcf	3,5	;RP0=0, select bank0
  5194  0357  1303               	bcf	3,6	;RP1=0, select bank0
  5195  0358  0852               	movf	_userFalse,w
  5196  0359  0453               	iorwf	_userFalse+1,w
  5197  035A  1903               	btfsc	3,2
  5198  035B  2B5D               	goto	u3031
  5199  035C  2B5E               	goto	u3030
  5200  035D                     u3031:
  5201  035D  2B62               	goto	l2901
  5202  035E                     u3030:
  5203  035E                     l2899:
  5204                           
  5205                           ;main.c: 422:             input = 9;
  5206  035E  3009               	movlw	9
  5207  035F  00D6               	movwf	_input
  5208  0360  3000               	movlw	0
  5209  0361  00D7               	movwf	_input+1
  5210  0362                     l2901:
  5211                           
  5212                           ;main.c: 428:     if (RB2 == 0){
  5213  0362  1906               	btfsc	6,2	;volatile
  5214  0363  2B65               	goto	u3041
  5215  0364  2B66               	goto	u3040
  5216  0365                     u3041:
  5217  0365  2B89               	goto	l2909
  5218  0366                     u3040:
  5219  0366                     l2903:
  5220                           
  5221                           ;main.c: 429:         _delay((unsigned long)((200)*(20000000/4000.0)));
  5222  0366  3006               	movlw	6
  5223  0367  1283               	bcf	3,5	;RP0=0, select bank0
  5224  0368  1303               	bcf	3,6	;RP1=0, select bank0
  5225  0369  00BD               	movwf	??_teclado+2
  5226  036A  3013               	movlw	19
  5227  036B  00BC               	movwf	??_teclado+1
  5228  036C  30AD               	movlw	173
  5229  036D  00BB               	movwf	??_teclado
  5230  036E                     u4497:
  5231  036E  0BBB               	decfsz	??_teclado,f
  5232  036F  2B6E               	goto	u4497
  5233  0370  0BBC               	decfsz	??_teclado+1,f
  5234  0371  2B6E               	goto	u4497
  5235  0372  0BBD               	decfsz	??_teclado+2,f
  5236  0373  2B6E               	goto	u4497
  5237  0374                     l2905:
  5238                           
  5239                           ;main.c: 430:         liga_buzzer(0.1);
  5240  0374  303D               	movlw	61
  5241  0375  1283               	bcf	3,5	;RP0=0, select bank0
  5242  0376  1303               	bcf	3,6	;RP1=0, select bank0
  5243  0377  00B8               	movwf	liga_buzzer@tempoSegundos+3
  5244  0378  30CC               	movlw	204
  5245  0379  00B7               	movwf	liga_buzzer@tempoSegundos+2
  5246  037A  30CC               	movlw	204
  5247  037B  00B6               	movwf	liga_buzzer@tempoSegundos+1
  5248  037C  30CD               	movlw	205
  5249  037D  00B5               	movwf	liga_buzzer@tempoSegundos
  5250  037E  160A  118A  26FD  120A  118A  	fcall	_liga_buzzer
  5251  0383                     l2907:
  5252                           
  5253                           ;main.c: 431:         LCD_escreve('A');
  5254  0383  3041               	movlw	65
  5255  0384  160A  118A  22A9  120A  118A  	fcall	_LCD_escreve
  5256  0389                     l2909:
  5257                           
  5258                           ;main.c: 436:     if (RB3 == 0){
  5259  0389  1283               	bcf	3,5	;RP0=0, select bank0
  5260  038A  1303               	bcf	3,6	;RP1=0, select bank0
  5261  038B  1986               	btfsc	6,3	;volatile
  5262  038C  2B8E               	goto	u3051
  5263  038D  2B8F               	goto	u3050
  5264  038E                     u3051:
  5265  038E  2BB2               	goto	l304
  5266  038F                     u3050:
  5267  038F                     l2911:
  5268                           
  5269                           ;main.c: 437:         _delay((unsigned long)((200)*(20000000/4000.0)));
  5270  038F  3006               	movlw	6
  5271  0390  1283               	bcf	3,5	;RP0=0, select bank0
  5272  0391  1303               	bcf	3,6	;RP1=0, select bank0
  5273  0392  00BD               	movwf	??_teclado+2
  5274  0393  3013               	movlw	19
  5275  0394  00BC               	movwf	??_teclado+1
  5276  0395  30AD               	movlw	173
  5277  0396  00BB               	movwf	??_teclado
  5278  0397                     u4507:
  5279  0397  0BBB               	decfsz	??_teclado,f
  5280  0398  2B97               	goto	u4507
  5281  0399  0BBC               	decfsz	??_teclado+1,f
  5282  039A  2B97               	goto	u4507
  5283  039B  0BBD               	decfsz	??_teclado+2,f
  5284  039C  2B97               	goto	u4507
  5285  039D                     l2913:
  5286                           
  5287                           ;main.c: 438:         liga_buzzer(0.1);
  5288  039D  303D               	movlw	61
  5289  039E  1283               	bcf	3,5	;RP0=0, select bank0
  5290  039F  1303               	bcf	3,6	;RP1=0, select bank0
  5291  03A0  00B8               	movwf	liga_buzzer@tempoSegundos+3
  5292  03A1  30CC               	movlw	204
  5293  03A2  00B7               	movwf	liga_buzzer@tempoSegundos+2
  5294  03A3  30CC               	movlw	204
  5295  03A4  00B6               	movwf	liga_buzzer@tempoSegundos+1
  5296  03A5  30CD               	movlw	205
  5297  03A6  00B5               	movwf	liga_buzzer@tempoSegundos
  5298  03A7  160A  118A  26FD  120A  118A  	fcall	_liga_buzzer
  5299  03AC                     l2915:
  5300                           
  5301                           ;main.c: 439:         LCD_escreve('B');
  5302  03AC  3042               	movlw	66
  5303  03AD  160A  118A  22A9  120A  118A  	fcall	_LCD_escreve
  5304  03B2                     l304:	
  5305                           ;main.c: 440:     }
  5306                           
  5307                           
  5308                           ;main.c: 444:     PORTB = 0b01111111;
  5309  03B2  307F               	movlw	127
  5310  03B3  1283               	bcf	3,5	;RP0=0, select bank0
  5311  03B4  1303               	bcf	3,6	;RP1=0, select bank0
  5312  03B5  0086               	movwf	6	;volatile
  5313  03B6                     l2917:
  5314                           
  5315                           ;main.c: 448:     if (RB0 == 0){
  5316  03B6  1806               	btfsc	6,0	;volatile
  5317  03B7  2BB9               	goto	u3061
  5318  03B8  2BBA               	goto	u3060
  5319  03B9                     u3061:
  5320  03B9  2BDD               	goto	l2925
  5321  03BA                     u3060:
  5322  03BA                     l2919:
  5323                           
  5324                           ;main.c: 449:         _delay((unsigned long)((200)*(20000000/4000.0)));
  5325  03BA  3006               	movlw	6
  5326  03BB  1283               	bcf	3,5	;RP0=0, select bank0
  5327  03BC  1303               	bcf	3,6	;RP1=0, select bank0
  5328  03BD  00BD               	movwf	??_teclado+2
  5329  03BE  3013               	movlw	19
  5330  03BF  00BC               	movwf	??_teclado+1
  5331  03C0  30AD               	movlw	173
  5332  03C1  00BB               	movwf	??_teclado
  5333  03C2                     u4517:
  5334  03C2  0BBB               	decfsz	??_teclado,f
  5335  03C3  2BC2               	goto	u4517
  5336  03C4  0BBC               	decfsz	??_teclado+1,f
  5337  03C5  2BC2               	goto	u4517
  5338  03C6  0BBD               	decfsz	??_teclado+2,f
  5339  03C7  2BC2               	goto	u4517
  5340  03C8                     l2921:
  5341                           
  5342                           ;main.c: 450:         liga_buzzer(0.1);
  5343  03C8  303D               	movlw	61
  5344  03C9  1283               	bcf	3,5	;RP0=0, select bank0
  5345  03CA  1303               	bcf	3,6	;RP1=0, select bank0
  5346  03CB  00B8               	movwf	liga_buzzer@tempoSegundos+3
  5347  03CC  30CC               	movlw	204
  5348  03CD  00B7               	movwf	liga_buzzer@tempoSegundos+2
  5349  03CE  30CC               	movlw	204
  5350  03CF  00B6               	movwf	liga_buzzer@tempoSegundos+1
  5351  03D0  30CD               	movlw	205
  5352  03D1  00B5               	movwf	liga_buzzer@tempoSegundos
  5353  03D2  160A  118A  26FD  120A  118A  	fcall	_liga_buzzer
  5354  03D7                     l2923:
  5355                           
  5356                           ;main.c: 451:         LCD_escreve('C');
  5357  03D7  3043               	movlw	67
  5358  03D8  160A  118A  22A9  120A  118A  	fcall	_LCD_escreve
  5359  03DD                     l2925:
  5360                           
  5361                           ;main.c: 456:     if (RB1 == 0){
  5362  03DD  1283               	bcf	3,5	;RP0=0, select bank0
  5363  03DE  1303               	bcf	3,6	;RP1=0, select bank0
  5364  03DF  1886               	btfsc	6,1	;volatile
  5365  03E0  2BE2               	goto	u3071
  5366  03E1  2BE3               	goto	u3070
  5367  03E2                     u3071:
  5368  03E2  2C06               	goto	l2933
  5369  03E3                     u3070:
  5370  03E3                     l2927:
  5371                           
  5372                           ;main.c: 457:         _delay((unsigned long)((200)*(20000000/4000.0)));
  5373  03E3  3006               	movlw	6
  5374  03E4  1283               	bcf	3,5	;RP0=0, select bank0
  5375  03E5  1303               	bcf	3,6	;RP1=0, select bank0
  5376  03E6  00BD               	movwf	??_teclado+2
  5377  03E7  3013               	movlw	19
  5378  03E8  00BC               	movwf	??_teclado+1
  5379  03E9  30AD               	movlw	173
  5380  03EA  00BB               	movwf	??_teclado
  5381  03EB                     u4527:
  5382  03EB  0BBB               	decfsz	??_teclado,f
  5383  03EC  2BEB               	goto	u4527
  5384  03ED  0BBC               	decfsz	??_teclado+1,f
  5385  03EE  2BEB               	goto	u4527
  5386  03EF  0BBD               	decfsz	??_teclado+2,f
  5387  03F0  2BEB               	goto	u4527
  5388  03F1                     l2929:
  5389                           
  5390                           ;main.c: 458:         liga_buzzer(0.1);
  5391  03F1  303D               	movlw	61
  5392  03F2  1283               	bcf	3,5	;RP0=0, select bank0
  5393  03F3  1303               	bcf	3,6	;RP1=0, select bank0
  5394  03F4  00B8               	movwf	liga_buzzer@tempoSegundos+3
  5395  03F5  30CC               	movlw	204
  5396  03F6  00B7               	movwf	liga_buzzer@tempoSegundos+2
  5397  03F7  30CC               	movlw	204
  5398  03F8  00B6               	movwf	liga_buzzer@tempoSegundos+1
  5399  03F9  30CD               	movlw	205
  5400  03FA  00B5               	movwf	liga_buzzer@tempoSegundos
  5401  03FB  160A  118A  26FD  120A  118A  	fcall	_liga_buzzer
  5402  0400                     l2931:
  5403                           
  5404                           ;main.c: 459:         LCD_escreve('D');
  5405  0400  3044               	movlw	68
  5406  0401  160A  118A  22A9  120A  118A  	fcall	_LCD_escreve
  5407  0406                     l2933:
  5408                           
  5409                           ;main.c: 464:     if (RB2 == 0){
  5410  0406  1283               	bcf	3,5	;RP0=0, select bank0
  5411  0407  1303               	bcf	3,6	;RP1=0, select bank0
  5412  0408  1906               	btfsc	6,2	;volatile
  5413  0409  2C0B               	goto	u3081
  5414  040A  2C0C               	goto	u3080
  5415  040B                     u3081:
  5416  040B  2C2F               	goto	l2941
  5417  040C                     u3080:
  5418  040C                     l2935:
  5419                           
  5420                           ;main.c: 465:         _delay((unsigned long)((200)*(20000000/4000.0)));
  5421  040C  3006               	movlw	6
  5422  040D  1283               	bcf	3,5	;RP0=0, select bank0
  5423  040E  1303               	bcf	3,6	;RP1=0, select bank0
  5424  040F  00BD               	movwf	??_teclado+2
  5425  0410  3013               	movlw	19
  5426  0411  00BC               	movwf	??_teclado+1
  5427  0412  30AD               	movlw	173
  5428  0413  00BB               	movwf	??_teclado
  5429  0414                     u4537:
  5430  0414  0BBB               	decfsz	??_teclado,f
  5431  0415  2C14               	goto	u4537
  5432  0416  0BBC               	decfsz	??_teclado+1,f
  5433  0417  2C14               	goto	u4537
  5434  0418  0BBD               	decfsz	??_teclado+2,f
  5435  0419  2C14               	goto	u4537
  5436  041A                     l2937:
  5437                           
  5438                           ;main.c: 466:         liga_buzzer(0.1);
  5439  041A  303D               	movlw	61
  5440  041B  1283               	bcf	3,5	;RP0=0, select bank0
  5441  041C  1303               	bcf	3,6	;RP1=0, select bank0
  5442  041D  00B8               	movwf	liga_buzzer@tempoSegundos+3
  5443  041E  30CC               	movlw	204
  5444  041F  00B7               	movwf	liga_buzzer@tempoSegundos+2
  5445  0420  30CC               	movlw	204
  5446  0421  00B6               	movwf	liga_buzzer@tempoSegundos+1
  5447  0422  30CD               	movlw	205
  5448  0423  00B5               	movwf	liga_buzzer@tempoSegundos
  5449  0424  160A  118A  26FD  120A  118A  	fcall	_liga_buzzer
  5450  0429                     l2939:
  5451                           
  5452                           ;main.c: 467:         LCD_escreve('E');
  5453  0429  3045               	movlw	69
  5454  042A  160A  118A  22A9  120A  118A  	fcall	_LCD_escreve
  5455  042F                     l2941:
  5456                           
  5457                           ;main.c: 472:     if (RB3 == 0){
  5458  042F  1283               	bcf	3,5	;RP0=0, select bank0
  5459  0430  1303               	bcf	3,6	;RP1=0, select bank0
  5460  0431  1986               	btfsc	6,3	;volatile
  5461  0432  2C34               	goto	u3091
  5462  0433  2C35               	goto	u3090
  5463  0434                     u3091:
  5464  0434  2C58               	goto	l309
  5465  0435                     u3090:
  5466  0435                     l2943:
  5467                           
  5468                           ;main.c: 473:         _delay((unsigned long)((200)*(20000000/4000.0)));
  5469  0435  3006               	movlw	6
  5470  0436  1283               	bcf	3,5	;RP0=0, select bank0
  5471  0437  1303               	bcf	3,6	;RP1=0, select bank0
  5472  0438  00BD               	movwf	??_teclado+2
  5473  0439  3013               	movlw	19
  5474  043A  00BC               	movwf	??_teclado+1
  5475  043B  30AD               	movlw	173
  5476  043C  00BB               	movwf	??_teclado
  5477  043D                     u4547:
  5478  043D  0BBB               	decfsz	??_teclado,f
  5479  043E  2C3D               	goto	u4547
  5480  043F  0BBC               	decfsz	??_teclado+1,f
  5481  0440  2C3D               	goto	u4547
  5482  0441  0BBD               	decfsz	??_teclado+2,f
  5483  0442  2C3D               	goto	u4547
  5484  0443                     l2945:
  5485                           
  5486                           ;main.c: 474:         liga_buzzer(0.1);
  5487  0443  303D               	movlw	61
  5488  0444  1283               	bcf	3,5	;RP0=0, select bank0
  5489  0445  1303               	bcf	3,6	;RP1=0, select bank0
  5490  0446  00B8               	movwf	liga_buzzer@tempoSegundos+3
  5491  0447  30CC               	movlw	204
  5492  0448  00B7               	movwf	liga_buzzer@tempoSegundos+2
  5493  0449  30CC               	movlw	204
  5494  044A  00B6               	movwf	liga_buzzer@tempoSegundos+1
  5495  044B  30CD               	movlw	205
  5496  044C  00B5               	movwf	liga_buzzer@tempoSegundos
  5497  044D  160A  118A  26FD  120A  118A  	fcall	_liga_buzzer
  5498  0452                     l2947:
  5499                           
  5500                           ;main.c: 475:         LCD_escreve('F');
  5501  0452  3046               	movlw	70
  5502  0453  160A  118A  22A9  120A  118A  	fcall	_LCD_escreve
  5503  0458                     l309:
  5504  0458  0008               	return
  5505  0459                     __end_of_teclado:
  5506                           
  5507                           	psect	text18
  5508  16FD                     __ptext18:	
  5509 ;; *************** function _liga_buzzer *****************
  5510 ;; Defined at:
  5511 ;;		line 285 in file "main.c"
  5512 ;; Parameters:    Size  Location     Type
  5513 ;;  tempoSegundo    4   21[BANK0 ] float 
  5514 ;; Auto vars:     Size  Location     Type
  5515 ;;		None
  5516 ;; Return value:  Size  Location     Type
  5517 ;;                  1    wreg      void 
  5518 ;; Registers used:
  5519 ;;		wreg, status,2, status,0, btemp+1, pclath, cstack
  5520 ;; Tracked objects:
  5521 ;;		On entry : 0/0
  5522 ;;		On exit  : 0/0
  5523 ;;		Unchanged: 0/0
  5524 ;; Data sizes:     COMMON   BANK0   BANK1   BANK3   BANK2
  5525 ;;      Params:         0       4       0       0       0
  5526 ;;      Locals:         0       0       0       0       0
  5527 ;;      Temps:          0       2       0       0       0
  5528 ;;      Totals:         0       6       0       0       0
  5529 ;;Total ram usage:        6 bytes
  5530 ;; Hardware stack levels used: 1
  5531 ;; Hardware stack levels required when called: 2
  5532 ;; This function calls:
  5533 ;;		___flge
  5534 ;;		___flmul
  5535 ;;		___flsub
  5536 ;; This function is called by:
  5537 ;;		_main
  5538 ;;		_teclado
  5539 ;;		_listaZonas
  5540 ;; This function uses a non-reentrant model
  5541 ;;
  5542                           
  5543                           
  5544                           ;psect for function _liga_buzzer
  5545  16FD                     _liga_buzzer:
  5546  16FD                     l2699:	
  5547                           ;incstack = 0
  5548                           ; Regs used in _liga_buzzer: [wreg+status,2+status,0+btemp+1+pclath+cstack]
  5549                           
  5550                           
  5551                           ;main.c: 286:     tempoSegundos = tempoSegundos * 1000;
  5552  16FD  3044               	movlw	68
  5553  16FE  1283               	bcf	3,5	;RP0=0, select bank0
  5554  16FF  1303               	bcf	3,6	;RP1=0, select bank0
  5555  1700  00A3               	movwf	___flmul@b+3
  5556  1701  307A               	movlw	122
  5557  1702  00A2               	movwf	___flmul@b+2
  5558  1703  3000               	movlw	0
  5559  1704  00A1               	movwf	___flmul@b+1
  5560  1705  3000               	movlw	0
  5561  1706  00A0               	movwf	___flmul@b
  5562  1707  0838               	movf	liga_buzzer@tempoSegundos+3,w
  5563  1708  00A7               	movwf	___flmul@a+3
  5564  1709  0837               	movf	liga_buzzer@tempoSegundos+2,w
  5565  170A  00A6               	movwf	___flmul@a+2
  5566  170B  0836               	movf	liga_buzzer@tempoSegundos+1,w
  5567  170C  00A5               	movwf	___flmul@a+1
  5568  170D  0835               	movf	liga_buzzer@tempoSegundos,w
  5569  170E  00A4               	movwf	___flmul@a
  5570  170F  120A  118A  2459  160A  118A  	fcall	___flmul
  5571  1714  1283               	bcf	3,5	;RP0=0, select bank0
  5572  1715  1303               	bcf	3,6	;RP1=0, select bank0
  5573  1716  0823               	movf	?___flmul+3,w
  5574  1717  00B8               	movwf	liga_buzzer@tempoSegundos+3
  5575  1718  0822               	movf	?___flmul+2,w
  5576  1719  00B7               	movwf	liga_buzzer@tempoSegundos+2
  5577  171A  0821               	movf	?___flmul+1,w
  5578  171B  00B6               	movwf	liga_buzzer@tempoSegundos+1
  5579  171C  0820               	movf	?___flmul,w
  5580  171D  00B5               	movwf	liga_buzzer@tempoSegundos
  5581  171E                     l2701:
  5582                           
  5583                           ;main.c: 287:     _delay((unsigned long)((10)*(20000000/4000.0)));
  5584  171E  3041               	movlw	65
  5585  171F  1283               	bcf	3,5	;RP0=0, select bank0
  5586  1720  1303               	bcf	3,6	;RP1=0, select bank0
  5587  1721  00BA               	movwf	??_liga_buzzer+1
  5588  1722  30ED               	movlw	237
  5589  1723  00B9               	movwf	??_liga_buzzer
  5590  1724                     u4557:
  5591  1724  0BB9               	decfsz	??_liga_buzzer,f
  5592  1725  2F24               	goto	u4557
  5593  1726  0BBA               	decfsz	??_liga_buzzer+1,f
  5594  1727  2F24               	goto	u4557
  5595  1728  2F29               	nop2
  5596                           
  5597                           ;main.c: 288:     while(tempoSegundos > 0){
  5598  1729  2F59               	goto	l2709
  5599  172A                     l2703:
  5600                           
  5601                           ;main.c: 289:        PORTE = 0;
  5602  172A  1283               	bcf	3,5	;RP0=0, select bank0
  5603  172B  1303               	bcf	3,6	;RP1=0, select bank0
  5604  172C  0189               	clrf	9	;volatile
  5605  172D                     l2705:
  5606                           
  5607                           ;main.c: 290:         _delay((unsigned long)((1)*(20000000/4000.0)));
  5608  172D  3007               	movlw	7
  5609  172E  1283               	bcf	3,5	;RP0=0, select bank0
  5610  172F  1303               	bcf	3,6	;RP1=0, select bank0
  5611  1730  00BA               	movwf	??_liga_buzzer+1
  5612  1731  307C               	movlw	124
  5613  1732  00B9               	movwf	??_liga_buzzer
  5614  1733                     u4567:
  5615  1733  0BB9               	decfsz	??_liga_buzzer,f
  5616  1734  2F33               	goto	u4567
  5617  1735  0BBA               	decfsz	??_liga_buzzer+1,f
  5618  1736  2F33               	goto	u4567
  5619  1737  0000               	nop
  5620  1738                     l2707:
  5621                           
  5622                           ;main.c: 291:         tempoSegundos--;
  5623  1738  303F               	movlw	63
  5624  1739  1283               	bcf	3,5	;RP0=0, select bank0
  5625  173A  1303               	bcf	3,6	;RP1=0, select bank0
  5626  173B  00AB               	movwf	___flsub@a+3
  5627  173C  3080               	movlw	128
  5628  173D  00AA               	movwf	___flsub@a+2
  5629  173E  3000               	movlw	0
  5630  173F  00A9               	movwf	___flsub@a+1
  5631  1740  3000               	movlw	0
  5632  1741  00A8               	movwf	___flsub@a
  5633  1742  0838               	movf	liga_buzzer@tempoSegundos+3,w
  5634  1743  00AF               	movwf	___flsub@b+3
  5635  1744  0837               	movf	liga_buzzer@tempoSegundos+2,w
  5636  1745  00AE               	movwf	___flsub@b+2
  5637  1746  0836               	movf	liga_buzzer@tempoSegundos+1,w
  5638  1747  00AD               	movwf	___flsub@b+1
  5639  1748  0835               	movf	liga_buzzer@tempoSegundos,w
  5640  1749  00AC               	movwf	___flsub@b
  5641  174A  160A  118A  2338  160A  118A  	fcall	___flsub
  5642  174F  1283               	bcf	3,5	;RP0=0, select bank0
  5643  1750  1303               	bcf	3,6	;RP1=0, select bank0
  5644  1751  082B               	movf	?___flsub+3,w
  5645  1752  00B8               	movwf	liga_buzzer@tempoSegundos+3
  5646  1753  082A               	movf	?___flsub+2,w
  5647  1754  00B7               	movwf	liga_buzzer@tempoSegundos+2
  5648  1755  0829               	movf	?___flsub+1,w
  5649  1756  00B6               	movwf	liga_buzzer@tempoSegundos+1
  5650  1757  0828               	movf	?___flsub,w
  5651  1758  00B5               	movwf	liga_buzzer@tempoSegundos
  5652  1759                     l2709:
  5653                           
  5654                           ;main.c: 288:     while(tempoSegundos > 0){
  5655  1759  3000               	movlw	0
  5656  175A  00F3               	movwf	___flge@ff1+3
  5657  175B  3000               	movlw	0
  5658  175C  00F2               	movwf	___flge@ff1+2
  5659  175D  3000               	movlw	0
  5660  175E  00F1               	movwf	___flge@ff1+1
  5661  175F  3000               	movlw	0
  5662  1760  00F0               	movwf	___flge@ff1
  5663  1761  1283               	bcf	3,5	;RP0=0, select bank0
  5664  1762  1303               	bcf	3,6	;RP1=0, select bank0
  5665  1763  0838               	movf	liga_buzzer@tempoSegundos+3,w
  5666  1764  00F7               	movwf	___flge@ff2+3
  5667  1765  0837               	movf	liga_buzzer@tempoSegundos+2,w
  5668  1766  00F6               	movwf	___flge@ff2+2
  5669  1767  0836               	movf	liga_buzzer@tempoSegundos+1,w
  5670  1768  00F5               	movwf	___flge@ff2+1
  5671  1769  0835               	movf	liga_buzzer@tempoSegundos,w
  5672  176A  00F4               	movwf	___flge@ff2
  5673  176B  120A  158A  20F0  160A  118A  	fcall	___flge
  5674  1770  1C03               	btfss	3,0
  5675  1771  2F73               	goto	u2801
  5676  1772  2F74               	goto	u2800
  5677  1773                     u2801:
  5678  1773  2F2A               	goto	l2703
  5679  1774                     u2800:
  5680  1774                     l2711:
  5681                           
  5682                           ;main.c: 293:     PORTE = 0x0F;
  5683  1774  300F               	movlw	15
  5684  1775  1283               	bcf	3,5	;RP0=0, select bank0
  5685  1776  1303               	bcf	3,6	;RP1=0, select bank0
  5686  1777  0089               	movwf	9	;volatile
  5687  1778                     l280:
  5688  1778  0008               	return
  5689  1779                     __end_of_liga_buzzer:
  5690                           
  5691                           	psect	text19
  5692  1338                     __ptext19:	
  5693 ;; *************** function ___flsub *****************
  5694 ;; Defined at:
  5695 ;;		line 242 in file "C:\Program Files\Microchip\xc8\v2.32\pic\sources\c90\common\sprcadd.c"
  5696 ;; Parameters:    Size  Location     Type
  5697 ;;  a               4    8[BANK0 ] void 
  5698 ;;  b               4   12[BANK0 ] void 
  5699 ;; Auto vars:     Size  Location     Type
  5700 ;;		None
  5701 ;; Return value:  Size  Location     Type
  5702 ;;                  4    8[BANK0 ] void 
  5703 ;; Registers used:
  5704 ;;		wreg, status,2, status,0, btemp+1, pclath, cstack
  5705 ;; Tracked objects:
  5706 ;;		On entry : 0/0
  5707 ;;		On exit  : 0/0
  5708 ;;		Unchanged: 0/0
  5709 ;; Data sizes:     COMMON   BANK0   BANK1   BANK3   BANK2
  5710 ;;      Params:         0       8       0       0       0
  5711 ;;      Locals:         0       0       0       0       0
  5712 ;;      Temps:          0       0       0       0       0
  5713 ;;      Totals:         0       8       0       0       0
  5714 ;;Total ram usage:        8 bytes
  5715 ;; Hardware stack levels used: 1
  5716 ;; Hardware stack levels required when called: 1
  5717 ;; This function calls:
  5718 ;;		___fladd
  5719 ;; This function is called by:
  5720 ;;		_liga_buzzer
  5721 ;; This function uses a non-reentrant model
  5722 ;;
  5723                           
  5724                           
  5725                           ;psect for function ___flsub
  5726  1338                     ___flsub:
  5727  1338                     l2509:	
  5728                           ;incstack = 0
  5729                           ; Regs used in ___flsub: [wreg+status,2+status,0+btemp+1+pclath+cstack]
  5730                           
  5731  1338  3080               	movlw	128
  5732  1339  1283               	bcf	3,5	;RP0=0, select bank0
  5733  133A  1303               	bcf	3,6	;RP1=0, select bank0
  5734  133B  06AB               	xorwf	___flsub@a+3,f
  5735  133C                     l2511:
  5736  133C  082F               	movf	___flsub@b+3,w
  5737  133D  00F3               	movwf	___fladd@b+3
  5738  133E  082E               	movf	___flsub@b+2,w
  5739  133F  00F2               	movwf	___fladd@b+2
  5740  1340  082D               	movf	___flsub@b+1,w
  5741  1341  00F1               	movwf	___fladd@b+1
  5742  1342  082C               	movf	___flsub@b,w
  5743  1343  00F0               	movwf	___fladd@b
  5744  1344  082B               	movf	___flsub@a+3,w
  5745  1345  00F7               	movwf	___fladd@a+3
  5746  1346  082A               	movf	___flsub@a+2,w
  5747  1347  00F6               	movwf	___fladd@a+2
  5748  1348  0829               	movf	___flsub@a+1,w
  5749  1349  00F5               	movwf	___fladd@a+1
  5750  134A  0828               	movf	___flsub@a,w
  5751  134B  00F4               	movwf	___fladd@a
  5752  134C  120A  158A  2568  160A  118A  	fcall	___fladd
  5753  1351  0873               	movf	?___fladd+3,w
  5754  1352  1283               	bcf	3,5	;RP0=0, select bank0
  5755  1353  1303               	bcf	3,6	;RP1=0, select bank0
  5756  1354  00AB               	movwf	?___flsub+3
  5757  1355  0872               	movf	?___fladd+2,w
  5758  1356  00AA               	movwf	?___flsub+2
  5759  1357  0871               	movf	?___fladd+1,w
  5760  1358  00A9               	movwf	?___flsub+1
  5761  1359  0870               	movf	?___fladd,w
  5762  135A  00A8               	movwf	?___flsub
  5763  135B                     l802:
  5764  135B  0008               	return
  5765  135C                     __end_of___flsub:
  5766                           
  5767                           	psect	text20
  5768  0D68                     __ptext20:	
  5769 ;; *************** function ___fladd *****************
  5770 ;; Defined at:
  5771 ;;		line 10 in file "C:\Program Files\Microchip\xc8\v2.32\pic\sources\c90\common\sprcadd.c"
  5772 ;; Parameters:    Size  Location     Type
  5773 ;;  b               4    0[COMMON] void 
  5774 ;;  a               4    4[COMMON] void 
  5775 ;; Auto vars:     Size  Location     Type
  5776 ;;  grs             1   11[COMMON] unsigned char 
  5777 ;;  bexp            1   10[COMMON] unsigned char 
  5778 ;;  aexp            1    9[COMMON] unsigned char 
  5779 ;;  signs           1    8[COMMON] unsigned char 
  5780 ;; Return value:  Size  Location     Type
  5781 ;;                  4    0[COMMON] unsigned char 
  5782 ;; Registers used:
  5783 ;;		wreg, status,2, status,0, btemp+1
  5784 ;; Tracked objects:
  5785 ;;		On entry : 0/0
  5786 ;;		On exit  : 0/0
  5787 ;;		Unchanged: 0/0
  5788 ;; Data sizes:     COMMON   BANK0   BANK1   BANK3   BANK2
  5789 ;;      Params:         8       0       0       0       0
  5790 ;;      Locals:         4       0       0       0       0
  5791 ;;      Temps:          0       8       0       0       0
  5792 ;;      Totals:        12       8       0       0       0
  5793 ;;Total ram usage:       20 bytes
  5794 ;; Hardware stack levels used: 1
  5795 ;; This function calls:
  5796 ;;		Nothing
  5797 ;; This function is called by:
  5798 ;;		___flsub
  5799 ;; This function uses a non-reentrant model
  5800 ;;
  5801                           
  5802                           
  5803                           ;psect for function ___fladd
  5804  0D68                     ___fladd:
  5805  0D68                     l2269:	
  5806                           ;incstack = 0
  5807                           ; Regs used in ___fladd: [wreg+status,2+status,0+btemp+1]
  5808                           
  5809  0D68  0873               	movf	___fladd@b+3,w
  5810  0D69  3980               	andlw	128
  5811  0D6A  1283               	bcf	3,5	;RP0=0, select bank0
  5812  0D6B  1303               	bcf	3,6	;RP1=0, select bank0
  5813  0D6C  00A0               	movwf	??___fladd
  5814  0D6D  0820               	movf	??___fladd,w
  5815  0D6E  00F8               	movwf	___fladd@signs
  5816  0D6F                     l2271:
  5817  0D6F  0873               	movf	___fladd@b+3,w
  5818  0D70  00A0               	movwf	??___fladd
  5819  0D71  0720               	addwf	??___fladd,w
  5820  0D72  00A1               	movwf	??___fladd+1
  5821  0D73  0821               	movf	??___fladd+1,w
  5822  0D74  00FA               	movwf	___fladd@bexp
  5823  0D75                     l2273:
  5824  0D75  1FF2               	btfss	___fladd@b+2,7
  5825  0D76  2D78               	goto	u1841
  5826  0D77  2D79               	goto	u1840
  5827  0D78                     u1841:
  5828  0D78  2D7A               	goto	l2277
  5829  0D79                     u1840:
  5830  0D79                     l2275:
  5831  0D79  147A               	bsf	___fladd@bexp,0
  5832  0D7A                     l2277:
  5833  0D7A  087A               	movf	___fladd@bexp,w
  5834  0D7B  1903               	btfsc	3,2
  5835  0D7C  2D7E               	goto	u1851
  5836  0D7D  2D7F               	goto	u1850
  5837  0D7E                     u1851:
  5838  0D7E  2D8F               	goto	l2287
  5839  0D7F                     u1850:
  5840  0D7F                     l2279:
  5841  0D7F  0A7A               	incf	___fladd@bexp,w
  5842  0D80  1D03               	btfss	3,2
  5843  0D81  2D83               	goto	u1861
  5844  0D82  2D84               	goto	u1860
  5845  0D83                     u1861:
  5846  0D83  2D8C               	goto	l2283
  5847  0D84                     u1860:
  5848  0D84                     l2281:
  5849  0D84  3000               	movlw	0
  5850  0D85  00F3               	movwf	___fladd@b+3
  5851  0D86  3000               	movlw	0
  5852  0D87  00F2               	movwf	___fladd@b+2
  5853  0D88  3000               	movlw	0
  5854  0D89  00F1               	movwf	___fladd@b+1
  5855  0D8A  3000               	movlw	0
  5856  0D8B  00F0               	movwf	___fladd@b
  5857  0D8C                     l2283:
  5858  0D8C  17F2               	bsf	___fladd@b+2,7
  5859  0D8D                     l2285:
  5860  0D8D  01F3               	clrf	___fladd@b+3
  5861  0D8E  2D97               	goto	l2289
  5862  0D8F                     l2287:
  5863  0D8F  3000               	movlw	0
  5864  0D90  00F3               	movwf	___fladd@b+3
  5865  0D91  3000               	movlw	0
  5866  0D92  00F2               	movwf	___fladd@b+2
  5867  0D93  3000               	movlw	0
  5868  0D94  00F1               	movwf	___fladd@b+1
  5869  0D95  3000               	movlw	0
  5870  0D96  00F0               	movwf	___fladd@b
  5871  0D97                     l2289:
  5872  0D97  0877               	movf	___fladd@a+3,w
  5873  0D98  3980               	andlw	128
  5874  0D99  00A0               	movwf	??___fladd
  5875  0D9A  0820               	movf	??___fladd,w
  5876  0D9B  00F9               	movwf	___fladd@aexp
  5877  0D9C                     l2291:
  5878  0D9C  0879               	movf	___fladd@aexp,w
  5879  0D9D  0678               	xorwf	___fladd@signs,w
  5880  0D9E  1903               	skipnz
  5881  0D9F  2DA1               	goto	u1871
  5882  0DA0  2DA2               	goto	u1870
  5883  0DA1                     u1871:
  5884  0DA1  2DA3               	goto	l2295
  5885  0DA2                     u1870:
  5886  0DA2                     l2293:
  5887  0DA2  1778               	bsf	___fladd@signs,6
  5888  0DA3                     l2295:
  5889  0DA3  0877               	movf	___fladd@a+3,w
  5890  0DA4  00A0               	movwf	??___fladd
  5891  0DA5  0720               	addwf	??___fladd,w
  5892  0DA6  00A1               	movwf	??___fladd+1
  5893  0DA7  0821               	movf	??___fladd+1,w
  5894  0DA8  00F9               	movwf	___fladd@aexp
  5895  0DA9                     l2297:
  5896  0DA9  1FF6               	btfss	___fladd@a+2,7
  5897  0DAA  2DAC               	goto	u1881
  5898  0DAB  2DAD               	goto	u1880
  5899  0DAC                     u1881:
  5900  0DAC  2DAE               	goto	l2301
  5901  0DAD                     u1880:
  5902  0DAD                     l2299:
  5903  0DAD  1479               	bsf	___fladd@aexp,0
  5904  0DAE                     l2301:
  5905  0DAE  0879               	movf	___fladd@aexp,w
  5906  0DAF  1903               	btfsc	3,2
  5907  0DB0  2DB2               	goto	u1891
  5908  0DB1  2DB3               	goto	u1890
  5909  0DB2                     u1891:
  5910  0DB2  2DC3               	goto	l2311
  5911  0DB3                     u1890:
  5912  0DB3                     l2303:
  5913  0DB3  0A79               	incf	___fladd@aexp,w
  5914  0DB4  1D03               	btfss	3,2
  5915  0DB5  2DB7               	goto	u1901
  5916  0DB6  2DB8               	goto	u1900
  5917  0DB7                     u1901:
  5918  0DB7  2DC0               	goto	l2307
  5919  0DB8                     u1900:
  5920  0DB8                     l2305:
  5921  0DB8  3000               	movlw	0
  5922  0DB9  00F7               	movwf	___fladd@a+3
  5923  0DBA  3000               	movlw	0
  5924  0DBB  00F6               	movwf	___fladd@a+2
  5925  0DBC  3000               	movlw	0
  5926  0DBD  00F5               	movwf	___fladd@a+1
  5927  0DBE  3000               	movlw	0
  5928  0DBF  00F4               	movwf	___fladd@a
  5929  0DC0                     l2307:
  5930  0DC0  17F6               	bsf	___fladd@a+2,7
  5931  0DC1                     l2309:
  5932  0DC1  01F7               	clrf	___fladd@a+3
  5933  0DC2  2DCB               	goto	l756
  5934  0DC3                     l2311:
  5935  0DC3  3000               	movlw	0
  5936  0DC4  00F7               	movwf	___fladd@a+3
  5937  0DC5  3000               	movlw	0
  5938  0DC6  00F6               	movwf	___fladd@a+2
  5939  0DC7  3000               	movlw	0
  5940  0DC8  00F5               	movwf	___fladd@a+1
  5941  0DC9  3000               	movlw	0
  5942  0DCA  00F4               	movwf	___fladd@a
  5943  0DCB                     l756:
  5944  0DCB  087A               	movf	___fladd@bexp,w
  5945  0DCC  0279               	subwf	___fladd@aexp,w
  5946  0DCD  1803               	skipnc
  5947  0DCE  2DD0               	goto	u1911
  5948  0DCF  2DD1               	goto	u1910
  5949  0DD0                     u1911:
  5950  0DD0  2E15               	goto	l2347
  5951  0DD1                     u1910:
  5952  0DD1                     l2313:
  5953  0DD1  1F78               	btfss	___fladd@signs,6
  5954  0DD2  2DD4               	goto	u1921
  5955  0DD3  2DD5               	goto	u1920
  5956  0DD4                     u1921:
  5957  0DD4  2DD9               	goto	l2317
  5958  0DD5                     u1920:
  5959  0DD5                     l2315:
  5960  0DD5  3080               	movlw	128
  5961  0DD6  00A0               	movwf	??___fladd
  5962  0DD7  0820               	movf	??___fladd,w
  5963  0DD8  06F8               	xorwf	___fladd@signs,f
  5964  0DD9                     l2317:
  5965  0DD9  087A               	movf	___fladd@bexp,w
  5966  0DDA  00A0               	movwf	??___fladd
  5967  0DDB  0820               	movf	??___fladd,w
  5968  0DDC  00FB               	movwf	___fladd@grs
  5969  0DDD                     l2319:
  5970  0DDD  0879               	movf	___fladd@aexp,w
  5971  0DDE  00A0               	movwf	??___fladd
  5972  0DDF  0820               	movf	??___fladd,w
  5973  0DE0  00FA               	movwf	___fladd@bexp
  5974  0DE1                     l2321:
  5975  0DE1  087B               	movf	___fladd@grs,w
  5976  0DE2  00A0               	movwf	??___fladd
  5977  0DE3  0820               	movf	??___fladd,w
  5978  0DE4  00F9               	movwf	___fladd@aexp
  5979  0DE5                     l2323:
  5980  0DE5  0870               	movf	___fladd@b,w
  5981  0DE6  00A0               	movwf	??___fladd
  5982  0DE7  0820               	movf	??___fladd,w
  5983  0DE8  00FB               	movwf	___fladd@grs
  5984  0DE9                     l2325:
  5985  0DE9  0874               	movf	___fladd@a,w
  5986  0DEA  00A0               	movwf	??___fladd
  5987  0DEB  0820               	movf	??___fladd,w
  5988  0DEC  00F0               	movwf	___fladd@b
  5989  0DED                     l2327:
  5990  0DED  087B               	movf	___fladd@grs,w
  5991  0DEE  00A0               	movwf	??___fladd
  5992  0DEF  0820               	movf	??___fladd,w
  5993  0DF0  00F4               	movwf	___fladd@a
  5994  0DF1                     l2329:
  5995  0DF1  0871               	movf	___fladd@b+1,w
  5996  0DF2  00A0               	movwf	??___fladd
  5997  0DF3  0820               	movf	??___fladd,w
  5998  0DF4  00FB               	movwf	___fladd@grs
  5999  0DF5                     l2331:
  6000  0DF5  0875               	movf	___fladd@a+1,w
  6001  0DF6  00A0               	movwf	??___fladd
  6002  0DF7  0820               	movf	??___fladd,w
  6003  0DF8  00F1               	movwf	___fladd@b+1
  6004  0DF9                     l2333:
  6005  0DF9  087B               	movf	___fladd@grs,w
  6006  0DFA  00A0               	movwf	??___fladd
  6007  0DFB  0820               	movf	??___fladd,w
  6008  0DFC  00F5               	movwf	___fladd@a+1
  6009  0DFD                     l2335:
  6010  0DFD  0872               	movf	___fladd@b+2,w
  6011  0DFE  00A0               	movwf	??___fladd
  6012  0DFF  0820               	movf	??___fladd,w
  6013  0E00  00FB               	movwf	___fladd@grs
  6014  0E01                     l2337:
  6015  0E01  0876               	movf	___fladd@a+2,w
  6016  0E02  00A0               	movwf	??___fladd
  6017  0E03  0820               	movf	??___fladd,w
  6018  0E04  00F2               	movwf	___fladd@b+2
  6019  0E05                     l2339:
  6020  0E05  087B               	movf	___fladd@grs,w
  6021  0E06  00A0               	movwf	??___fladd
  6022  0E07  0820               	movf	??___fladd,w
  6023  0E08  00F6               	movwf	___fladd@a+2
  6024  0E09                     l2341:
  6025  0E09  0873               	movf	___fladd@b+3,w
  6026  0E0A  00A0               	movwf	??___fladd
  6027  0E0B  0820               	movf	??___fladd,w
  6028  0E0C  00FB               	movwf	___fladd@grs
  6029  0E0D                     l2343:
  6030  0E0D  0877               	movf	___fladd@a+3,w
  6031  0E0E  00A0               	movwf	??___fladd
  6032  0E0F  0820               	movf	??___fladd,w
  6033  0E10  00F3               	movwf	___fladd@b+3
  6034  0E11                     l2345:
  6035  0E11  087B               	movf	___fladd@grs,w
  6036  0E12  00A0               	movwf	??___fladd
  6037  0E13  0820               	movf	??___fladd,w
  6038  0E14  00F7               	movwf	___fladd@a+3
  6039  0E15                     l2347:
  6040  0E15  01FB               	clrf	___fladd@grs
  6041  0E16                     l2349:
  6042  0E16  0879               	movf	___fladd@aexp,w
  6043  0E17  00A0               	movwf	??___fladd
  6044  0E18  01A1               	clrf	??___fladd+1
  6045  0E19  0821               	movf	??___fladd+1,w
  6046  0E1A  00A3               	movwf	??___fladd+3
  6047  0E1B  087A               	movf	___fladd@bexp,w
  6048  0E1C  0220               	subwf	??___fladd,w
  6049  0E1D  00A2               	movwf	??___fladd+2
  6050  0E1E  1C03               	skipc
  6051  0E1F  03A3               	decf	??___fladd+3,f
  6052  0E20  0823               	movf	??___fladd+3,w
  6053  0E21  3A80               	xorlw	128
  6054  0E22  00FF               	movwf	btemp+1
  6055  0E23  3080               	movlw	128
  6056  0E24  027F               	subwf	btemp+1,w
  6057  0E25  1D03               	skipz
  6058  0E26  2E29               	goto	u1935
  6059  0E27  301A               	movlw	26
  6060  0E28  0222               	subwf	??___fladd+2,w
  6061  0E29                     u1935:
  6062  0E29  1C03               	skipc
  6063  0E2A  2E2C               	goto	u1931
  6064  0E2B  2E2D               	goto	u1930
  6065  0E2C                     u1931:
  6066  0E2C  2E6E               	goto	l2365
  6067  0E2D                     u1930:
  6068  0E2D                     l2351:
  6069  0E2D  0873               	movf	___fladd@b+3,w
  6070  0E2E  0472               	iorwf	___fladd@b+2,w
  6071  0E2F  0471               	iorwf	___fladd@b+1,w
  6072  0E30  0470               	iorwf	___fladd@b,w
  6073  0E31  1D03               	skipz
  6074  0E32  2E34               	goto	u1941
  6075  0E33  2E36               	goto	u1940
  6076  0E34                     u1941:
  6077  0E34  3001               	movlw	1
  6078  0E35  2E37               	goto	u1950
  6079  0E36                     u1940:
  6080  0E36  3000               	movlw	0
  6081  0E37                     u1950:
  6082  0E37  1283               	bcf	3,5	;RP0=0, select bank0
  6083  0E38  1303               	bcf	3,6	;RP1=0, select bank0
  6084  0E39  00A0               	movwf	??___fladd
  6085  0E3A  0820               	movf	??___fladd,w
  6086  0E3B  00FB               	movwf	___fladd@grs
  6087  0E3C  3000               	movlw	0
  6088  0E3D  00F3               	movwf	___fladd@b+3
  6089  0E3E  3000               	movlw	0
  6090  0E3F  00F2               	movwf	___fladd@b+2
  6091  0E40  3000               	movlw	0
  6092  0E41  00F1               	movwf	___fladd@b+1
  6093  0E42  3000               	movlw	0
  6094  0E43  00F0               	movwf	___fladd@b
  6095  0E44  0879               	movf	___fladd@aexp,w
  6096  0E45  00A0               	movwf	??___fladd
  6097  0E46  0820               	movf	??___fladd,w
  6098  0E47  00FA               	movwf	___fladd@bexp
  6099  0E48  2E74               	goto	l760
  6100  0E49                     l762:
  6101  0E49  1C7B               	btfss	___fladd@grs,0
  6102  0E4A  2E4C               	goto	u1961
  6103  0E4B  2E4D               	goto	u1960
  6104  0E4C                     u1961:
  6105  0E4C  2E58               	goto	l2355
  6106  0E4D                     u1960:
  6107  0E4D                     l2353:
  6108  0E4D  087B               	movf	___fladd@grs,w
  6109  0E4E  1283               	bcf	3,5	;RP0=0, select bank0
  6110  0E4F  1303               	bcf	3,6	;RP1=0, select bank0
  6111  0E50  00A0               	movwf	??___fladd
  6112  0E51  1003               	clrc
  6113  0E52  0C20               	rrf	??___fladd,w
  6114  0E53  3801               	iorlw	1
  6115  0E54  00A1               	movwf	??___fladd+1
  6116  0E55  0821               	movf	??___fladd+1,w
  6117  0E56  00FB               	movwf	___fladd@grs
  6118  0E57  2E5A               	goto	l2357
  6119  0E58                     l2355:
  6120  0E58  1003               	clrc
  6121  0E59  0CFB               	rrf	___fladd@grs,f
  6122  0E5A                     l2357:
  6123  0E5A  1C70               	btfss	___fladd@b,0
  6124  0E5B  2E5D               	goto	u1971
  6125  0E5C  2E5E               	goto	u1970
  6126  0E5D                     u1971:
  6127  0E5D  2E5F               	goto	l2361
  6128  0E5E                     u1970:
  6129  0E5E                     l2359:
  6130  0E5E  17FB               	bsf	___fladd@grs,7
  6131  0E5F                     l2361:
  6132  0E5F  3001               	movlw	1
  6133  0E60  1283               	bcf	3,5	;RP0=0, select bank0
  6134  0E61  1303               	bcf	3,6	;RP1=0, select bank0
  6135  0E62  00A0               	movwf	??___fladd
  6136  0E63                     u1985:
  6137  0E63  0D73               	rlf	___fladd@b+3,w
  6138  0E64  0CF3               	rrf	___fladd@b+3,f
  6139  0E65  0CF2               	rrf	___fladd@b+2,f
  6140  0E66  0CF1               	rrf	___fladd@b+1,f
  6141  0E67  0CF0               	rrf	___fladd@b,f
  6142  0E68  0BA0               	decfsz	??___fladd& (0+127),f
  6143  0E69  2E63               	goto	u1985
  6144  0E6A                     l2363:
  6145  0E6A  3001               	movlw	1
  6146  0E6B  00A0               	movwf	??___fladd
  6147  0E6C  0820               	movf	??___fladd,w
  6148  0E6D  07FA               	addwf	___fladd@bexp,f
  6149  0E6E                     l2365:
  6150  0E6E  0879               	movf	___fladd@aexp,w
  6151  0E6F  027A               	subwf	___fladd@bexp,w
  6152  0E70  1C03               	skipc
  6153  0E71  2E73               	goto	u1991
  6154  0E72  2E74               	goto	u1990
  6155  0E73                     u1991:
  6156  0E73  2E49               	goto	l762
  6157  0E74                     u1990:
  6158  0E74                     l760:
  6159  0E74  1B78               	btfsc	___fladd@signs,6
  6160  0E75  2E77               	goto	u2001
  6161  0E76  2E78               	goto	u2000
  6162  0E77                     u2001:
  6163  0E77  2EC7               	goto	l2391
  6164  0E78                     u2000:
  6165  0E78                     l2367:
  6166  0E78  087A               	movf	___fladd@bexp,w
  6167  0E79  1D03               	btfss	3,2
  6168  0E7A  2E7C               	goto	u2011
  6169  0E7B  2E7D               	goto	u2010
  6170  0E7C                     u2011:
  6171  0E7C  2E86               	goto	l2373
  6172  0E7D                     u2010:
  6173  0E7D                     l2369:
  6174  0E7D  3000               	movlw	0
  6175  0E7E  00F3               	movwf	?___fladd+3
  6176  0E7F  3000               	movlw	0
  6177  0E80  00F2               	movwf	?___fladd+2
  6178  0E81  3000               	movlw	0
  6179  0E82  00F1               	movwf	?___fladd+1
  6180  0E83  3000               	movlw	0
  6181  0E84  00F0               	movwf	?___fladd
  6182  0E85  2FFF               	goto	l769
  6183  0E86                     l2373:
  6184  0E86  0874               	movf	___fladd@a,w
  6185  0E87  07F0               	addwf	___fladd@b,f
  6186  0E88  0875               	movf	___fladd@a+1,w
  6187  0E89  1103               	clrz
  6188  0E8A  1803               	skipnc
  6189  0E8B  3E01               	addlw	1
  6190  0E8C  1903               	skipnz
  6191  0E8D  2E8F               	goto	u2021
  6192  0E8E  07F1               	addwf	___fladd@b+1,f
  6193  0E8F                     u2021:
  6194  0E8F  0876               	movf	___fladd@a+2,w
  6195  0E90  1103               	clrz
  6196  0E91  1803               	skipnc
  6197  0E92  3E01               	addlw	1
  6198  0E93  1903               	skipnz
  6199  0E94  2E96               	goto	u2022
  6200  0E95  07F2               	addwf	___fladd@b+2,f
  6201  0E96                     u2022:
  6202  0E96  0877               	movf	___fladd@a+3,w
  6203  0E97  1103               	clrz
  6204  0E98  1803               	skipnc
  6205  0E99  3E01               	addlw	1
  6206  0E9A  1903               	skipnz
  6207  0E9B  2E9D               	goto	u2023
  6208  0E9C  07F3               	addwf	___fladd@b+3,f
  6209  0E9D                     u2023:
  6210  0E9D                     l2375:
  6211  0E9D  1C73               	btfss	___fladd@b+3,0
  6212  0E9E  2EA0               	goto	u2031
  6213  0E9F  2EA1               	goto	u2030
  6214  0EA0                     u2031:
  6215  0EA0  2F7F               	goto	l2425
  6216  0EA1                     u2030:
  6217  0EA1                     l2377:
  6218  0EA1  1C7B               	btfss	___fladd@grs,0
  6219  0EA2  2EA4               	goto	u2041
  6220  0EA3  2EA5               	goto	u2040
  6221  0EA4                     u2041:
  6222  0EA4  2EB0               	goto	l2381
  6223  0EA5                     u2040:
  6224  0EA5                     l2379:
  6225  0EA5  087B               	movf	___fladd@grs,w
  6226  0EA6  1283               	bcf	3,5	;RP0=0, select bank0
  6227  0EA7  1303               	bcf	3,6	;RP1=0, select bank0
  6228  0EA8  00A0               	movwf	??___fladd
  6229  0EA9  1003               	clrc
  6230  0EAA  0C20               	rrf	??___fladd,w
  6231  0EAB  3801               	iorlw	1
  6232  0EAC  00A1               	movwf	??___fladd+1
  6233  0EAD  0821               	movf	??___fladd+1,w
  6234  0EAE  00FB               	movwf	___fladd@grs
  6235  0EAF  2EB2               	goto	l2383
  6236  0EB0                     l2381:
  6237  0EB0  1003               	clrc
  6238  0EB1  0CFB               	rrf	___fladd@grs,f
  6239  0EB2                     l2383:
  6240  0EB2  1C70               	btfss	___fladd@b,0
  6241  0EB3  2EB5               	goto	u2051
  6242  0EB4  2EB6               	goto	u2050
  6243  0EB5                     u2051:
  6244  0EB5  2EB7               	goto	l2387
  6245  0EB6                     u2050:
  6246  0EB6                     l2385:
  6247  0EB6  17FB               	bsf	___fladd@grs,7
  6248  0EB7                     l2387:
  6249  0EB7  3001               	movlw	1
  6250  0EB8  1283               	bcf	3,5	;RP0=0, select bank0
  6251  0EB9  1303               	bcf	3,6	;RP1=0, select bank0
  6252  0EBA  00A0               	movwf	??___fladd
  6253  0EBB                     u2065:
  6254  0EBB  0D73               	rlf	___fladd@b+3,w
  6255  0EBC  0CF3               	rrf	___fladd@b+3,f
  6256  0EBD  0CF2               	rrf	___fladd@b+2,f
  6257  0EBE  0CF1               	rrf	___fladd@b+1,f
  6258  0EBF  0CF0               	rrf	___fladd@b,f
  6259  0EC0  0BA0               	decfsz	??___fladd& (0+127),f
  6260  0EC1  2EBB               	goto	u2065
  6261  0EC2                     l2389:
  6262  0EC2  3001               	movlw	1
  6263  0EC3  00A0               	movwf	??___fladd
  6264  0EC4  0820               	movf	??___fladd,w
  6265  0EC5  07FA               	addwf	___fladd@bexp,f
  6266  0EC6  2F7F               	goto	l2425
  6267  0EC7                     l2391:
  6268  0EC7  0873               	movf	___fladd@b+3,w
  6269  0EC8  3A80               	xorlw	128
  6270  0EC9  00FF               	movwf	btemp+1
  6271  0ECA  0877               	movf	___fladd@a+3,w
  6272  0ECB  3A80               	xorlw	128
  6273  0ECC  027F               	subwf	btemp+1,w
  6274  0ECD  1D03               	skipz
  6275  0ECE  2ED9               	goto	u2073
  6276  0ECF  0876               	movf	___fladd@a+2,w
  6277  0ED0  0272               	subwf	___fladd@b+2,w
  6278  0ED1  1D03               	skipz
  6279  0ED2  2ED9               	goto	u2073
  6280  0ED3  0875               	movf	___fladd@a+1,w
  6281  0ED4  0271               	subwf	___fladd@b+1,w
  6282  0ED5  1D03               	skipz
  6283  0ED6  2ED9               	goto	u2073
  6284  0ED7  0874               	movf	___fladd@a,w
  6285  0ED8  0270               	subwf	___fladd@b,w
  6286  0ED9                     u2073:
  6287  0ED9  1803               	skipnc
  6288  0EDA  2EDC               	goto	u2071
  6289  0EDB  2EDD               	goto	u2070
  6290  0EDC                     u2071:
  6291  0EDC  2F37               	goto	l2401
  6292  0EDD                     u2070:
  6293  0EDD                     l2393:
  6294  0EDD  30FF               	movlw	255
  6295  0EDE  1283               	bcf	3,5	;RP0=0, select bank0
  6296  0EDF  1303               	bcf	3,6	;RP1=0, select bank0
  6297  0EE0  00A0               	movwf	??___fladd
  6298  0EE1  30FF               	movlw	255
  6299  0EE2  00A1               	movwf	??___fladd+1
  6300  0EE3  30FF               	movlw	255
  6301  0EE4  00A2               	movwf	??___fladd+2
  6302  0EE5  30FF               	movlw	255
  6303  0EE6  00A3               	movwf	??___fladd+3
  6304  0EE7  0874               	movf	___fladd@a,w
  6305  0EE8  00A4               	movwf	??___fladd+4
  6306  0EE9  0875               	movf	___fladd@a+1,w
  6307  0EEA  00A5               	movwf	??___fladd+5
  6308  0EEB  0876               	movf	___fladd@a+2,w
  6309  0EEC  00A6               	movwf	??___fladd+6
  6310  0EED  0877               	movf	___fladd@a+3,w
  6311  0EEE  00A7               	movwf	??___fladd+7
  6312  0EEF  0870               	movf	___fladd@b,w
  6313  0EF0  02A4               	subwf	??___fladd+4,f
  6314  0EF1  0871               	movf	___fladd@b+1,w
  6315  0EF2  1C03               	skipc
  6316  0EF3  0F71               	incfsz	___fladd@b+1,w
  6317  0EF4  2EF6               	goto	u2081
  6318  0EF5  2EF7               	goto	u2082
  6319  0EF6                     u2081:
  6320  0EF6  02A5               	subwf	??___fladd+5,f
  6321  0EF7                     u2082:
  6322  0EF7  0872               	movf	___fladd@b+2,w
  6323  0EF8  1C03               	skipc
  6324  0EF9  0F72               	incfsz	___fladd@b+2,w
  6325  0EFA  2EFC               	goto	u2083
  6326  0EFB  2EFD               	goto	u2084
  6327  0EFC                     u2083:
  6328  0EFC  02A6               	subwf	??___fladd+6,f
  6329  0EFD                     u2084:
  6330  0EFD  0873               	movf	___fladd@b+3,w
  6331  0EFE  1C03               	skipc
  6332  0EFF  0F73               	incfsz	___fladd@b+3,w
  6333  0F00  2F02               	goto	u2085
  6334  0F01  2F03               	goto	u2086
  6335  0F02                     u2085:
  6336  0F02  02A7               	subwf	??___fladd+7,f
  6337  0F03                     u2086:
  6338  0F03  0824               	movf	??___fladd+4,w
  6339  0F04  07A0               	addwf	??___fladd,f
  6340  0F05  0825               	movf	??___fladd+5,w
  6341  0F06  1803               	skipnc
  6342  0F07  0F25               	incfsz	??___fladd+5,w
  6343  0F08  2F0A               	goto	u2090
  6344  0F09  2F0B               	goto	u2091
  6345  0F0A                     u2090:
  6346  0F0A  07A1               	addwf	??___fladd+1,f
  6347  0F0B                     u2091:
  6348  0F0B  0826               	movf	??___fladd+6,w
  6349  0F0C  1803               	skipnc
  6350  0F0D  0F26               	incfsz	??___fladd+6,w
  6351  0F0E  2F10               	goto	u2092
  6352  0F0F  2F11               	goto	u2093
  6353  0F10                     u2092:
  6354  0F10  07A2               	addwf	??___fladd+2,f
  6355  0F11                     u2093:
  6356  0F11  0827               	movf	??___fladd+7,w
  6357  0F12  1803               	skipnc
  6358  0F13  0A27               	incf	??___fladd+7,w
  6359  0F14  07A3               	addwf	??___fladd+3,f
  6360  0F15  0823               	movf	??___fladd+3,w
  6361  0F16  00F3               	movwf	___fladd@b+3
  6362  0F17  0822               	movf	??___fladd+2,w
  6363  0F18  00F2               	movwf	___fladd@b+2
  6364  0F19  0821               	movf	??___fladd+1,w
  6365  0F1A  00F1               	movwf	___fladd@b+1
  6366  0F1B  0820               	movf	??___fladd,w
  6367  0F1C  00F0               	movwf	___fladd@b
  6368  0F1D                     l2395:
  6369  0F1D  3080               	movlw	128
  6370  0F1E  00A0               	movwf	??___fladd
  6371  0F1F  0820               	movf	??___fladd,w
  6372  0F20  06F8               	xorwf	___fladd@signs,f
  6373  0F21  09FB               	comf	___fladd@grs,f
  6374  0F22  0AFB               	incf	___fladd@grs,f
  6375  0F23                     l2397:
  6376  0F23  087B               	movf	___fladd@grs,w
  6377  0F24  1D03               	btfss	3,2
  6378  0F25  2F27               	goto	u2101
  6379  0F26  2F28               	goto	u2100
  6380  0F27                     u2101:
  6381  0F27  2F45               	goto	l777
  6382  0F28                     u2100:
  6383  0F28                     l2399:
  6384  0F28  3001               	movlw	1
  6385  0F29  07F0               	addwf	___fladd@b,f
  6386  0F2A  3000               	movlw	0
  6387  0F2B  1803               	skipnc
  6388  0F2C  3001               	movlw	1
  6389  0F2D  07F1               	addwf	___fladd@b+1,f
  6390  0F2E  3000               	movlw	0
  6391  0F2F  1803               	skipnc
  6392  0F30  3001               	movlw	1
  6393  0F31  07F2               	addwf	___fladd@b+2,f
  6394  0F32  3000               	movlw	0
  6395  0F33  1803               	skipnc
  6396  0F34  3001               	movlw	1
  6397  0F35  07F3               	addwf	___fladd@b+3,f
  6398  0F36  2F45               	goto	l777
  6399  0F37                     l2401:
  6400  0F37  0874               	movf	___fladd@a,w
  6401  0F38  02F0               	subwf	___fladd@b,f
  6402  0F39  0875               	movf	___fladd@a+1,w
  6403  0F3A  1C03               	skipc
  6404  0F3B  0F75               	incfsz	___fladd@a+1,w
  6405  0F3C  02F1               	subwf	___fladd@b+1,f
  6406  0F3D  0876               	movf	___fladd@a+2,w
  6407  0F3E  1C03               	skipc
  6408  0F3F  0F76               	incfsz	___fladd@a+2,w
  6409  0F40  02F2               	subwf	___fladd@b+2,f
  6410  0F41  0877               	movf	___fladd@a+3,w
  6411  0F42  1C03               	skipc
  6412  0F43  0F77               	incfsz	___fladd@a+3,w
  6413  0F44  02F3               	subwf	___fladd@b+3,f
  6414  0F45                     l777:
  6415  0F45  0873               	movf	___fladd@b+3,w
  6416  0F46  0472               	iorwf	___fladd@b+2,w
  6417  0F47  0471               	iorwf	___fladd@b+1,w
  6418  0F48  0470               	iorwf	___fladd@b,w
  6419  0F49  1D03               	skipz
  6420  0F4A  2F4C               	goto	u2111
  6421  0F4B  2F4D               	goto	u2110
  6422  0F4C                     u2111:
  6423  0F4C  2F7B               	goto	l2423
  6424  0F4D                     u2110:
  6425  0F4D                     l2403:
  6426  0F4D  087B               	movf	___fladd@grs,w
  6427  0F4E  1D03               	btfss	3,2
  6428  0F4F  2F51               	goto	u2121
  6429  0F50  2F52               	goto	u2120
  6430  0F51                     u2121:
  6431  0F51  2F7B               	goto	l2423
  6432  0F52                     u2120:
  6433  0F52                     l2405:
  6434  0F52  3000               	movlw	0
  6435  0F53  00F3               	movwf	?___fladd+3
  6436  0F54  3000               	movlw	0
  6437  0F55  00F2               	movwf	?___fladd+2
  6438  0F56  3000               	movlw	0
  6439  0F57  00F1               	movwf	?___fladd+1
  6440  0F58  3000               	movlw	0
  6441  0F59  00F0               	movwf	?___fladd
  6442  0F5A  2FFF               	goto	l769
  6443  0F5B                     l2409:
  6444  0F5B  3001               	movlw	1
  6445  0F5C  1283               	bcf	3,5	;RP0=0, select bank0
  6446  0F5D  1303               	bcf	3,6	;RP1=0, select bank0
  6447  0F5E  00A0               	movwf	??___fladd
  6448  0F5F                     u2135:
  6449  0F5F  1003               	clrc
  6450  0F60  0DF0               	rlf	___fladd@b,f
  6451  0F61  0DF1               	rlf	___fladd@b+1,f
  6452  0F62  0DF2               	rlf	___fladd@b+2,f
  6453  0F63  0DF3               	rlf	___fladd@b+3,f
  6454  0F64  0BA0               	decfsz	??___fladd,f
  6455  0F65  2F5F               	goto	u2135
  6456  0F66                     l2411:
  6457  0F66  1FFB               	btfss	___fladd@grs,7
  6458  0F67  2F69               	goto	u2141
  6459  0F68  2F6A               	goto	u2140
  6460  0F69                     u2141:
  6461  0F69  2F6B               	goto	l781
  6462  0F6A                     u2140:
  6463  0F6A                     l2413:
  6464  0F6A  1470               	bsf	___fladd@b,0
  6465  0F6B                     l781:
  6466  0F6B  1C7B               	btfss	___fladd@grs,0
  6467  0F6C  2F6E               	goto	u2151
  6468  0F6D  2F6F               	goto	u2150
  6469  0F6E                     u2151:
  6470  0F6E  2F72               	goto	l2417
  6471  0F6F                     u2150:
  6472  0F6F                     l2415:
  6473  0F6F  1403               	setc
  6474  0F70  0DFB               	rlf	___fladd@grs,f
  6475  0F71  2F74               	goto	l2419
  6476  0F72                     l2417:
  6477  0F72  1003               	clrc
  6478  0F73  0DFB               	rlf	___fladd@grs,f
  6479  0F74                     l2419:
  6480  0F74  087A               	movf	___fladd@bexp,w
  6481  0F75  1903               	btfsc	3,2
  6482  0F76  2F78               	goto	u2161
  6483  0F77  2F79               	goto	u2160
  6484  0F78                     u2161:
  6485  0F78  2F7B               	goto	l2423
  6486  0F79                     u2160:
  6487  0F79                     l2421:
  6488  0F79  3001               	movlw	1
  6489  0F7A  02FA               	subwf	___fladd@bexp,f
  6490  0F7B                     l2423:
  6491  0F7B  1FF2               	btfss	___fladd@b+2,7
  6492  0F7C  2F7E               	goto	u2171
  6493  0F7D  2F7F               	goto	u2170
  6494  0F7E                     u2171:
  6495  0F7E  2F5B               	goto	l2409
  6496  0F7F                     u2170:
  6497  0F7F                     l2425:
  6498  0F7F  01F9               	clrf	___fladd@aexp
  6499  0F80                     l2427:
  6500  0F80  1FFB               	btfss	___fladd@grs,7
  6501  0F81  2F83               	goto	u2181
  6502  0F82  2F84               	goto	u2180
  6503  0F83                     u2181:
  6504  0F83  2F92               	goto	l2435
  6505  0F84                     u2180:
  6506  0F84                     l2429:
  6507  0F84  087B               	movf	___fladd@grs,w
  6508  0F85  397F               	andlw	127
  6509  0F86  1903               	btfsc	3,2
  6510  0F87  2F89               	goto	u2191
  6511  0F88  2F8A               	goto	u2190
  6512  0F89                     u2191:
  6513  0F89  2F8D               	goto	l787
  6514  0F8A                     u2190:
  6515  0F8A                     l2431:
  6516  0F8A  01F9               	clrf	___fladd@aexp
  6517  0F8B  0AF9               	incf	___fladd@aexp,f
  6518  0F8C  2F92               	goto	l2435
  6519  0F8D                     l787:
  6520  0F8D  1C70               	btfss	___fladd@b,0
  6521  0F8E  2F90               	goto	u2201
  6522  0F8F  2F91               	goto	u2200
  6523  0F90                     u2201:
  6524  0F90  2F92               	goto	l2435
  6525  0F91                     u2200:
  6526  0F91  2F8A               	goto	l2431
  6527  0F92                     l2435:
  6528  0F92  0879               	movf	___fladd@aexp,w
  6529  0F93  1903               	btfsc	3,2
  6530  0F94  2F96               	goto	u2211
  6531  0F95  2F97               	goto	u2210
  6532  0F96                     u2211:
  6533  0F96  2FCD               	goto	l790
  6534  0F97                     u2210:
  6535  0F97                     l2437:
  6536  0F97  3001               	movlw	1
  6537  0F98  07F0               	addwf	___fladd@b,f
  6538  0F99  3000               	movlw	0
  6539  0F9A  1803               	skipnc
  6540  0F9B  3001               	movlw	1
  6541  0F9C  07F1               	addwf	___fladd@b+1,f
  6542  0F9D  3000               	movlw	0
  6543  0F9E  1803               	skipnc
  6544  0F9F  3001               	movlw	1
  6545  0FA0  07F2               	addwf	___fladd@b+2,f
  6546  0FA1  3000               	movlw	0
  6547  0FA2  1803               	skipnc
  6548  0FA3  3001               	movlw	1
  6549  0FA4  07F3               	addwf	___fladd@b+3,f
  6550  0FA5                     l2439:
  6551  0FA5  1C73               	btfss	___fladd@b+3,0
  6552  0FA6  2FA8               	goto	u2221
  6553  0FA7  2FA9               	goto	u2220
  6554  0FA8                     u2221:
  6555  0FA8  2FCD               	goto	l790
  6556  0FA9                     u2220:
  6557  0FA9                     l2441:
  6558  0FA9  0870               	movf	___fladd@b,w
  6559  0FAA  1283               	bcf	3,5	;RP0=0, select bank0
  6560  0FAB  1303               	bcf	3,6	;RP1=0, select bank0
  6561  0FAC  00A0               	movwf	??___fladd
  6562  0FAD  0871               	movf	___fladd@b+1,w
  6563  0FAE  00A1               	movwf	??___fladd+1
  6564  0FAF  0872               	movf	___fladd@b+2,w
  6565  0FB0  00A2               	movwf	??___fladd+2
  6566  0FB1  0873               	movf	___fladd@b+3,w
  6567  0FB2  00A3               	movwf	??___fladd+3
  6568  0FB3  3001               	movlw	1
  6569  0FB4  00A4               	movwf	??___fladd+4
  6570  0FB5                     u2235:
  6571  0FB5  0D23               	rlf	??___fladd+3,w
  6572  0FB6  0CA3               	rrf	??___fladd+3,f
  6573  0FB7  0CA2               	rrf	??___fladd+2,f
  6574  0FB8  0CA1               	rrf	??___fladd+1,f
  6575  0FB9  0CA0               	rrf	??___fladd,f
  6576  0FBA                     u2230:
  6577  0FBA  0BA4               	decfsz	??___fladd+4,f
  6578  0FBB  2FB5               	goto	u2235
  6579  0FBC  0823               	movf	??___fladd+3,w
  6580  0FBD  00F3               	movwf	___fladd@b+3
  6581  0FBE  0822               	movf	??___fladd+2,w
  6582  0FBF  00F2               	movwf	___fladd@b+2
  6583  0FC0  0821               	movf	??___fladd+1,w
  6584  0FC1  00F1               	movwf	___fladd@b+1
  6585  0FC2  0820               	movf	??___fladd,w
  6586  0FC3  00F0               	movwf	___fladd@b
  6587  0FC4  0A7A               	incf	___fladd@bexp,w
  6588  0FC5  1903               	btfsc	3,2
  6589  0FC6  2FC8               	goto	u2241
  6590  0FC7  2FC9               	goto	u2240
  6591  0FC8                     u2241:
  6592  0FC8  2FCD               	goto	l790
  6593  0FC9                     u2240:
  6594  0FC9                     l2443:
  6595  0FC9  3001               	movlw	1
  6596  0FCA  00A0               	movwf	??___fladd
  6597  0FCB  0820               	movf	??___fladd,w
  6598  0FCC  07FA               	addwf	___fladd@bexp,f
  6599  0FCD                     l790:
  6600  0FCD  0A7A               	incf	___fladd@bexp,w
  6601  0FCE  1903               	btfsc	3,2
  6602  0FCF  2FD1               	goto	u2251
  6603  0FD0  2FD2               	goto	u2250
  6604  0FD1                     u2251:
  6605  0FD1  2FD7               	goto	l2447
  6606  0FD2                     u2250:
  6607  0FD2                     l2445:
  6608  0FD2  087A               	movf	___fladd@bexp,w
  6609  0FD3  1D03               	btfss	3,2
  6610  0FD4  2FD6               	goto	u2261
  6611  0FD5  2FD7               	goto	u2260
  6612  0FD6                     u2261:
  6613  0FD6  2FE5               	goto	l2453
  6614  0FD7                     u2260:
  6615  0FD7                     l2447:
  6616  0FD7  3000               	movlw	0
  6617  0FD8  00F3               	movwf	___fladd@b+3
  6618  0FD9  3000               	movlw	0
  6619  0FDA  00F2               	movwf	___fladd@b+2
  6620  0FDB  3000               	movlw	0
  6621  0FDC  00F1               	movwf	___fladd@b+1
  6622  0FDD  3000               	movlw	0
  6623  0FDE  00F0               	movwf	___fladd@b
  6624  0FDF                     l2449:
  6625  0FDF  087A               	movf	___fladd@bexp,w
  6626  0FE0  1D03               	btfss	3,2
  6627  0FE1  2FE3               	goto	u2271
  6628  0FE2  2FE4               	goto	u2270
  6629  0FE3                     u2271:
  6630  0FE3  2FE5               	goto	l2453
  6631  0FE4                     u2270:
  6632  0FE4                     l2451:
  6633  0FE4  01F8               	clrf	___fladd@signs
  6634  0FE5                     l2453:
  6635  0FE5  1C7A               	btfss	___fladd@bexp,0
  6636  0FE6  2FE8               	goto	u2281
  6637  0FE7  2FE9               	goto	u2280
  6638  0FE8                     u2281:
  6639  0FE8  2FEB               	goto	l2457
  6640  0FE9                     u2280:
  6641  0FE9                     l2455:
  6642  0FE9  17F2               	bsf	___fladd@b+2,7
  6643  0FEA  2FF1               	goto	l798
  6644  0FEB                     l2457:
  6645  0FEB  307F               	movlw	127
  6646  0FEC  1283               	bcf	3,5	;RP0=0, select bank0
  6647  0FED  1303               	bcf	3,6	;RP1=0, select bank0
  6648  0FEE  00A0               	movwf	??___fladd
  6649  0FEF  0820               	movf	??___fladd,w
  6650  0FF0  05F2               	andwf	___fladd@b+2,f
  6651  0FF1                     l798:
  6652  0FF1  087A               	movf	___fladd@bexp,w
  6653  0FF2  1283               	bcf	3,5	;RP0=0, select bank0
  6654  0FF3  1303               	bcf	3,6	;RP1=0, select bank0
  6655  0FF4  00A0               	movwf	??___fladd
  6656  0FF5  1003               	clrc
  6657  0FF6  0C20               	rrf	??___fladd,w
  6658  0FF7  00A1               	movwf	??___fladd+1
  6659  0FF8  0821               	movf	??___fladd+1,w
  6660  0FF9  00F3               	movwf	___fladd@b+3
  6661  0FFA                     l2459:
  6662  0FFA  1FF8               	btfss	___fladd@signs,7
  6663  0FFB  2FFD               	goto	u2291
  6664  0FFC  2FFE               	goto	u2290
  6665  0FFD                     u2291:
  6666  0FFD  2FFF               	goto	l799
  6667  0FFE                     u2290:
  6668  0FFE                     l2461:
  6669  0FFE  17F3               	bsf	___fladd@b+3,7
  6670  0FFF                     l799:
  6671  0FFF                     l769:
  6672  0FFF  0008               	return
  6673  1000                     __end_of___fladd:
  6674                           
  6675                           	psect	text21
  6676  0459                     __ptext21:	
  6677 ;; *************** function ___flmul *****************
  6678 ;; Defined at:
  6679 ;;		line 8 in file "C:\Program Files\Microchip\xc8\v2.32\pic\sources\c90\common\sprcmul.c"
  6680 ;; Parameters:    Size  Location     Type
  6681 ;;  b               4    0[BANK0 ] unsigned char 
  6682 ;;  a               4    4[BANK0 ] unsigned char 
  6683 ;; Auto vars:     Size  Location     Type
  6684 ;;  prod            4   15[BANK0 ] struct .
  6685 ;;  grs             4    9[BANK0 ] unsigned long 
  6686 ;;  temp            2   19[BANK0 ] struct .
  6687 ;;  bexp            1   14[BANK0 ] unsigned char 
  6688 ;;  aexp            1   13[BANK0 ] unsigned char 
  6689 ;;  sign            1    8[BANK0 ] unsigned char 
  6690 ;; Return value:  Size  Location     Type
  6691 ;;                  4    0[BANK0 ] unsigned char 
  6692 ;; Registers used:
  6693 ;;		wreg, status,2, status,0, btemp+1, pclath, cstack
  6694 ;; Tracked objects:
  6695 ;;		On entry : 0/0
  6696 ;;		On exit  : 0/0
  6697 ;;		Unchanged: 0/0
  6698 ;; Data sizes:     COMMON   BANK0   BANK1   BANK3   BANK2
  6699 ;;      Params:         0       8       0       0       0
  6700 ;;      Locals:         0      13       0       0       0
  6701 ;;      Temps:          5       0       0       0       0
  6702 ;;      Totals:         5      21       0       0       0
  6703 ;;Total ram usage:       26 bytes
  6704 ;; Hardware stack levels used: 1
  6705 ;; Hardware stack levels required when called: 1
  6706 ;; This function calls:
  6707 ;;		__Umul8_16
  6708 ;; This function is called by:
  6709 ;;		_liga_buzzer
  6710 ;; This function uses a non-reentrant model
  6711 ;;
  6712                           
  6713                           
  6714                           ;psect for function ___flmul
  6715  0459                     ___flmul:
  6716  0459                     l2515:	
  6717                           ;incstack = 0
  6718                           ; Regs used in ___flmul: [wreg+status,2+status,0+btemp+1+pclath+cstack]
  6719                           
  6720  0459  1283               	bcf	3,5	;RP0=0, select bank0
  6721  045A  1303               	bcf	3,6	;RP1=0, select bank0
  6722  045B  0823               	movf	___flmul@b+3,w
  6723  045C  3980               	andlw	128
  6724  045D  00F9               	movwf	??___flmul
  6725  045E  0879               	movf	??___flmul,w
  6726  045F  00A8               	movwf	___flmul@sign
  6727  0460                     l2517:
  6728  0460  0823               	movf	___flmul@b+3,w
  6729  0461  00F9               	movwf	??___flmul
  6730  0462  0779               	addwf	??___flmul,w
  6731  0463  00FA               	movwf	??___flmul+1
  6732  0464  087A               	movf	??___flmul+1,w
  6733  0465  00AE               	movwf	___flmul@bexp
  6734  0466                     l2519:
  6735  0466  1FA2               	btfss	___flmul@b+2,7
  6736  0467  2C69               	goto	u2401
  6737  0468  2C6A               	goto	u2400
  6738  0469                     u2401:
  6739  0469  2C6B               	goto	l2523
  6740  046A                     u2400:
  6741  046A                     l2521:
  6742  046A  142E               	bsf	___flmul@bexp,0
  6743  046B                     l2523:
  6744  046B  082E               	movf	___flmul@bexp,w
  6745  046C  1903               	btfsc	3,2
  6746  046D  2C6F               	goto	u2411
  6747  046E  2C70               	goto	u2410
  6748  046F                     u2411:
  6749  046F  2C7F               	goto	l2531
  6750  0470                     u2410:
  6751  0470                     l2525:
  6752  0470  0A2E               	incf	___flmul@bexp,w
  6753  0471  1D03               	btfss	3,2
  6754  0472  2C74               	goto	u2421
  6755  0473  2C75               	goto	u2420
  6756  0474                     u2421:
  6757  0474  2C7D               	goto	l2529
  6758  0475                     u2420:
  6759  0475                     l2527:
  6760  0475  3000               	movlw	0
  6761  0476  00A3               	movwf	___flmul@b+3
  6762  0477  3000               	movlw	0
  6763  0478  00A2               	movwf	___flmul@b+2
  6764  0479  3000               	movlw	0
  6765  047A  00A1               	movwf	___flmul@b+1
  6766  047B  3000               	movlw	0
  6767  047C  00A0               	movwf	___flmul@b
  6768  047D                     l2529:
  6769  047D  17A2               	bsf	___flmul@b+2,7
  6770  047E  2C87               	goto	l2533
  6771  047F                     l2531:
  6772  047F  3000               	movlw	0
  6773  0480  00A3               	movwf	___flmul@b+3
  6774  0481  3000               	movlw	0
  6775  0482  00A2               	movwf	___flmul@b+2
  6776  0483  3000               	movlw	0
  6777  0484  00A1               	movwf	___flmul@b+1
  6778  0485  3000               	movlw	0
  6779  0486  00A0               	movwf	___flmul@b
  6780  0487                     l2533:
  6781  0487  0827               	movf	___flmul@a+3,w
  6782  0488  3980               	andlw	128
  6783  0489  00F9               	movwf	??___flmul
  6784  048A  0879               	movf	??___flmul,w
  6785  048B  06A8               	xorwf	___flmul@sign,f
  6786  048C                     l2535:
  6787  048C  0827               	movf	___flmul@a+3,w
  6788  048D  00F9               	movwf	??___flmul
  6789  048E  0779               	addwf	??___flmul,w
  6790  048F  00FA               	movwf	??___flmul+1
  6791  0490  087A               	movf	??___flmul+1,w
  6792  0491  00AD               	movwf	___flmul@aexp
  6793  0492                     l2537:
  6794  0492  1FA6               	btfss	___flmul@a+2,7
  6795  0493  2C95               	goto	u2431
  6796  0494  2C96               	goto	u2430
  6797  0495                     u2431:
  6798  0495  2C97               	goto	l2541
  6799  0496                     u2430:
  6800  0496                     l2539:
  6801  0496  142D               	bsf	___flmul@aexp,0
  6802  0497                     l2541:
  6803  0497  082D               	movf	___flmul@aexp,w
  6804  0498  1903               	btfsc	3,2
  6805  0499  2C9B               	goto	u2441
  6806  049A  2C9C               	goto	u2440
  6807  049B                     u2441:
  6808  049B  2CAB               	goto	l2549
  6809  049C                     u2440:
  6810  049C                     l2543:
  6811  049C  0A2D               	incf	___flmul@aexp,w
  6812  049D  1D03               	btfss	3,2
  6813  049E  2CA0               	goto	u2451
  6814  049F  2CA1               	goto	u2450
  6815  04A0                     u2451:
  6816  04A0  2CA9               	goto	l2547
  6817  04A1                     u2450:
  6818  04A1                     l2545:
  6819  04A1  3000               	movlw	0
  6820  04A2  00A7               	movwf	___flmul@a+3
  6821  04A3  3000               	movlw	0
  6822  04A4  00A6               	movwf	___flmul@a+2
  6823  04A5  3000               	movlw	0
  6824  04A6  00A5               	movwf	___flmul@a+1
  6825  04A7  3000               	movlw	0
  6826  04A8  00A4               	movwf	___flmul@a
  6827  04A9                     l2547:
  6828  04A9  17A6               	bsf	___flmul@a+2,7
  6829  04AA  2CB3               	goto	l2551
  6830  04AB                     l2549:
  6831  04AB  3000               	movlw	0
  6832  04AC  00A7               	movwf	___flmul@a+3
  6833  04AD  3000               	movlw	0
  6834  04AE  00A6               	movwf	___flmul@a+2
  6835  04AF  3000               	movlw	0
  6836  04B0  00A5               	movwf	___flmul@a+1
  6837  04B1  3000               	movlw	0
  6838  04B2  00A4               	movwf	___flmul@a
  6839  04B3                     l2551:
  6840  04B3  082D               	movf	___flmul@aexp,w
  6841  04B4  1903               	btfsc	3,2
  6842  04B5  2CB7               	goto	u2461
  6843  04B6  2CB8               	goto	u2460
  6844  04B7                     u2461:
  6845  04B7  2CBD               	goto	l2555
  6846  04B8                     u2460:
  6847  04B8                     l2553:
  6848  04B8  082E               	movf	___flmul@bexp,w
  6849  04B9  1D03               	btfss	3,2
  6850  04BA  2CBC               	goto	u2471
  6851  04BB  2CBD               	goto	u2470
  6852  04BC                     u2471:
  6853  04BC  2CC6               	goto	l2559
  6854  04BD                     u2470:
  6855  04BD                     l2555:
  6856  04BD  3000               	movlw	0
  6857  04BE  00A3               	movwf	?___flmul+3
  6858  04BF  3000               	movlw	0
  6859  04C0  00A2               	movwf	?___flmul+2
  6860  04C1  3000               	movlw	0
  6861  04C2  00A1               	movwf	?___flmul+1
  6862  04C3  3000               	movlw	0
  6863  04C4  00A0               	movwf	?___flmul
  6864  04C5  2FB9               	goto	l852
  6865  04C6                     l2559:
  6866  04C6  0820               	movf	___flmul@b,w
  6867  04C7  00F9               	movwf	??___flmul
  6868  04C8  0879               	movf	??___flmul,w
  6869  04C9  00F0               	movwf	__Umul8_16@multiplicand
  6870  04CA  0826               	movf	___flmul@a+2,w
  6871  04CB  160A  118A  235C  120A  118A  	fcall	__Umul8_16
  6872  04D0  0871               	movf	?__Umul8_16+1,w
  6873  04D1  1283               	bcf	3,5	;RP0=0, select bank0
  6874  04D2  1303               	bcf	3,6	;RP1=0, select bank0
  6875  04D3  00B4               	movwf	___flmul@temp+1
  6876  04D4  0870               	movf	?__Umul8_16,w
  6877  04D5  00B3               	movwf	___flmul@temp
  6878  04D6                     l2561:
  6879  04D6  0833               	movf	___flmul@temp,w
  6880  04D7  00F9               	movwf	??___flmul
  6881  04D8  01FA               	clrf	??___flmul+1
  6882  04D9  01FB               	clrf	??___flmul+2
  6883  04DA  01FC               	clrf	??___flmul+3
  6884  04DB  087C               	movf	??___flmul+3,w
  6885  04DC  00AC               	movwf	___flmul@grs+3
  6886  04DD  087B               	movf	??___flmul+2,w
  6887  04DE  00AB               	movwf	___flmul@grs+2
  6888  04DF  087A               	movf	??___flmul+1,w
  6889  04E0  00AA               	movwf	___flmul@grs+1
  6890  04E1  0879               	movf	??___flmul,w
  6891  04E2  00A9               	movwf	___flmul@grs
  6892  04E3                     l2563:
  6893  04E3  0834               	movf	___flmul@temp+1,w
  6894  04E4  00F9               	movwf	??___flmul
  6895  04E5  01FA               	clrf	??___flmul+1
  6896  04E6  01FB               	clrf	??___flmul+2
  6897  04E7  01FC               	clrf	??___flmul+3
  6898  04E8  087C               	movf	??___flmul+3,w
  6899  04E9  00B2               	movwf	___flmul@prod+3
  6900  04EA  087B               	movf	??___flmul+2,w
  6901  04EB  00B1               	movwf	___flmul@prod+2
  6902  04EC  087A               	movf	??___flmul+1,w
  6903  04ED  00B0               	movwf	___flmul@prod+1
  6904  04EE  0879               	movf	??___flmul,w
  6905  04EF  00AF               	movwf	___flmul@prod
  6906  04F0  0821               	movf	___flmul@b+1,w
  6907  04F1  00F9               	movwf	??___flmul
  6908  04F2  0879               	movf	??___flmul,w
  6909  04F3  00F0               	movwf	__Umul8_16@multiplicand
  6910  04F4  0825               	movf	___flmul@a+1,w
  6911  04F5  160A  118A  235C  120A  118A  	fcall	__Umul8_16
  6912  04FA  0871               	movf	?__Umul8_16+1,w
  6913  04FB  1283               	bcf	3,5	;RP0=0, select bank0
  6914  04FC  1303               	bcf	3,6	;RP1=0, select bank0
  6915  04FD  00B4               	movwf	___flmul@temp+1
  6916  04FE  0870               	movf	?__Umul8_16,w
  6917  04FF  00B3               	movwf	___flmul@temp
  6918  0500                     l2565:
  6919  0500  0833               	movf	___flmul@temp,w
  6920  0501  00F9               	movwf	??___flmul
  6921  0502  01FA               	clrf	??___flmul+1
  6922  0503  01FB               	clrf	??___flmul+2
  6923  0504  01FC               	clrf	??___flmul+3
  6924  0505  0879               	movf	??___flmul,w
  6925  0506  07A9               	addwf	___flmul@grs,f
  6926  0507  087A               	movf	??___flmul+1,w
  6927  0508  1103               	clrz
  6928  0509  1803               	skipnc
  6929  050A  3E01               	addlw	1
  6930  050B  1903               	skipnz
  6931  050C  2D0E               	goto	u2481
  6932  050D  07AA               	addwf	___flmul@grs+1,f
  6933  050E                     u2481:
  6934  050E  087B               	movf	??___flmul+2,w
  6935  050F  1103               	clrz
  6936  0510  1803               	skipnc
  6937  0511  3E01               	addlw	1
  6938  0512  1903               	skipnz
  6939  0513  2D15               	goto	u2482
  6940  0514  07AB               	addwf	___flmul@grs+2,f
  6941  0515                     u2482:
  6942  0515  087C               	movf	??___flmul+3,w
  6943  0516  1103               	clrz
  6944  0517  1803               	skipnc
  6945  0518  3E01               	addlw	1
  6946  0519  1903               	skipnz
  6947  051A  2D1C               	goto	u2483
  6948  051B  07AC               	addwf	___flmul@grs+3,f
  6949  051C                     u2483:
  6950  051C                     l2567:
  6951  051C  0834               	movf	___flmul@temp+1,w
  6952  051D  00F9               	movwf	??___flmul
  6953  051E  01FA               	clrf	??___flmul+1
  6954  051F  01FB               	clrf	??___flmul+2
  6955  0520  01FC               	clrf	??___flmul+3
  6956  0521  0879               	movf	??___flmul,w
  6957  0522  07AF               	addwf	___flmul@prod,f
  6958  0523  087A               	movf	??___flmul+1,w
  6959  0524  1103               	clrz
  6960  0525  1803               	skipnc
  6961  0526  3E01               	addlw	1
  6962  0527  1903               	skipnz
  6963  0528  2D2A               	goto	u2491
  6964  0529  07B0               	addwf	___flmul@prod+1,f
  6965  052A                     u2491:
  6966  052A  087B               	movf	??___flmul+2,w
  6967  052B  1103               	clrz
  6968  052C  1803               	skipnc
  6969  052D  3E01               	addlw	1
  6970  052E  1903               	skipnz
  6971  052F  2D31               	goto	u2492
  6972  0530  07B1               	addwf	___flmul@prod+2,f
  6973  0531                     u2492:
  6974  0531  087C               	movf	??___flmul+3,w
  6975  0532  1103               	clrz
  6976  0533  1803               	skipnc
  6977  0534  3E01               	addlw	1
  6978  0535  1903               	skipnz
  6979  0536  2D38               	goto	u2493
  6980  0537  07B2               	addwf	___flmul@prod+3,f
  6981  0538                     u2493:
  6982  0538  0822               	movf	___flmul@b+2,w
  6983  0539  00F9               	movwf	??___flmul
  6984  053A  0879               	movf	??___flmul,w
  6985  053B  00F0               	movwf	__Umul8_16@multiplicand
  6986  053C  0824               	movf	___flmul@a,w
  6987  053D  160A  118A  235C  120A  118A  	fcall	__Umul8_16
  6988  0542  0871               	movf	?__Umul8_16+1,w
  6989  0543  1283               	bcf	3,5	;RP0=0, select bank0
  6990  0544  1303               	bcf	3,6	;RP1=0, select bank0
  6991  0545  00B4               	movwf	___flmul@temp+1
  6992  0546  0870               	movf	?__Umul8_16,w
  6993  0547  00B3               	movwf	___flmul@temp
  6994  0548                     l2569:
  6995  0548  0833               	movf	___flmul@temp,w
  6996  0549  00F9               	movwf	??___flmul
  6997  054A  01FA               	clrf	??___flmul+1
  6998  054B  01FB               	clrf	??___flmul+2
  6999  054C  01FC               	clrf	??___flmul+3
  7000  054D  0879               	movf	??___flmul,w
  7001  054E  07A9               	addwf	___flmul@grs,f
  7002  054F  087A               	movf	??___flmul+1,w
  7003  0550  1103               	clrz
  7004  0551  1803               	skipnc
  7005  0552  3E01               	addlw	1
  7006  0553  1903               	skipnz
  7007  0554  2D56               	goto	u2501
  7008  0555  07AA               	addwf	___flmul@grs+1,f
  7009  0556                     u2501:
  7010  0556  087B               	movf	??___flmul+2,w
  7011  0557  1103               	clrz
  7012  0558  1803               	skipnc
  7013  0559  3E01               	addlw	1
  7014  055A  1903               	skipnz
  7015  055B  2D5D               	goto	u2502
  7016  055C  07AB               	addwf	___flmul@grs+2,f
  7017  055D                     u2502:
  7018  055D  087C               	movf	??___flmul+3,w
  7019  055E  1103               	clrz
  7020  055F  1803               	skipnc
  7021  0560  3E01               	addlw	1
  7022  0561  1903               	skipnz
  7023  0562  2D64               	goto	u2503
  7024  0563  07AC               	addwf	___flmul@grs+3,f
  7025  0564                     u2503:
  7026  0564                     l2571:
  7027  0564  0834               	movf	___flmul@temp+1,w
  7028  0565  00F9               	movwf	??___flmul
  7029  0566  01FA               	clrf	??___flmul+1
  7030  0567  01FB               	clrf	??___flmul+2
  7031  0568  01FC               	clrf	??___flmul+3
  7032  0569  0879               	movf	??___flmul,w
  7033  056A  07AF               	addwf	___flmul@prod,f
  7034  056B  087A               	movf	??___flmul+1,w
  7035  056C  1103               	clrz
  7036  056D  1803               	skipnc
  7037  056E  3E01               	addlw	1
  7038  056F  1903               	skipnz
  7039  0570  2D72               	goto	u2511
  7040  0571  07B0               	addwf	___flmul@prod+1,f
  7041  0572                     u2511:
  7042  0572  087B               	movf	??___flmul+2,w
  7043  0573  1103               	clrz
  7044  0574  1803               	skipnc
  7045  0575  3E01               	addlw	1
  7046  0576  1903               	skipnz
  7047  0577  2D79               	goto	u2512
  7048  0578  07B1               	addwf	___flmul@prod+2,f
  7049  0579                     u2512:
  7050  0579  087C               	movf	??___flmul+3,w
  7051  057A  1103               	clrz
  7052  057B  1803               	skipnc
  7053  057C  3E01               	addlw	1
  7054  057D  1903               	skipnz
  7055  057E  2D80               	goto	u2513
  7056  057F  07B2               	addwf	___flmul@prod+3,f
  7057  0580                     u2513:
  7058  0580                     l2573:
  7059  0580  3008               	movlw	8
  7060  0581  00F9               	movwf	??___flmul
  7061  0582                     u2525:
  7062  0582  1003               	clrc
  7063  0583  0DA9               	rlf	___flmul@grs,f
  7064  0584  0DAA               	rlf	___flmul@grs+1,f
  7065  0585  0DAB               	rlf	___flmul@grs+2,f
  7066  0586  0DAC               	rlf	___flmul@grs+3,f
  7067  0587  0BF9               	decfsz	??___flmul,f
  7068  0588  2D82               	goto	u2525
  7069  0589                     l2575:
  7070  0589  0821               	movf	___flmul@b+1,w
  7071  058A  00F9               	movwf	??___flmul
  7072  058B  0879               	movf	??___flmul,w
  7073  058C  00F0               	movwf	__Umul8_16@multiplicand
  7074  058D  0824               	movf	___flmul@a,w
  7075  058E  160A  118A  235C  120A  118A  	fcall	__Umul8_16
  7076  0593  0871               	movf	?__Umul8_16+1,w
  7077  0594  1283               	bcf	3,5	;RP0=0, select bank0
  7078  0595  1303               	bcf	3,6	;RP1=0, select bank0
  7079  0596  00B4               	movwf	___flmul@temp+1
  7080  0597  0870               	movf	?__Umul8_16,w
  7081  0598  00B3               	movwf	___flmul@temp
  7082  0599                     l2577:
  7083  0599  0833               	movf	___flmul@temp,w
  7084  059A  00F9               	movwf	??___flmul
  7085  059B  0834               	movf	___flmul@temp+1,w
  7086  059C  00FA               	movwf	??___flmul+1
  7087  059D  01FB               	clrf	??___flmul+2
  7088  059E  01FC               	clrf	??___flmul+3
  7089  059F  0879               	movf	??___flmul,w
  7090  05A0  07A9               	addwf	___flmul@grs,f
  7091  05A1  087A               	movf	??___flmul+1,w
  7092  05A2  1103               	clrz
  7093  05A3  1803               	skipnc
  7094  05A4  3E01               	addlw	1
  7095  05A5  1903               	skipnz
  7096  05A6  2DA8               	goto	u2531
  7097  05A7  07AA               	addwf	___flmul@grs+1,f
  7098  05A8                     u2531:
  7099  05A8  087B               	movf	??___flmul+2,w
  7100  05A9  1103               	clrz
  7101  05AA  1803               	skipnc
  7102  05AB  3E01               	addlw	1
  7103  05AC  1903               	skipnz
  7104  05AD  2DAF               	goto	u2532
  7105  05AE  07AB               	addwf	___flmul@grs+2,f
  7106  05AF                     u2532:
  7107  05AF  087C               	movf	??___flmul+3,w
  7108  05B0  1103               	clrz
  7109  05B1  1803               	skipnc
  7110  05B2  3E01               	addlw	1
  7111  05B3  1903               	skipnz
  7112  05B4  2DB6               	goto	u2533
  7113  05B5  07AC               	addwf	___flmul@grs+3,f
  7114  05B6                     u2533:
  7115  05B6                     l2579:
  7116  05B6  0820               	movf	___flmul@b,w
  7117  05B7  00F9               	movwf	??___flmul
  7118  05B8  0879               	movf	??___flmul,w
  7119  05B9  00F0               	movwf	__Umul8_16@multiplicand
  7120  05BA  0825               	movf	___flmul@a+1,w
  7121  05BB  160A  118A  235C  120A  118A  	fcall	__Umul8_16
  7122  05C0  0871               	movf	?__Umul8_16+1,w
  7123  05C1  1283               	bcf	3,5	;RP0=0, select bank0
  7124  05C2  1303               	bcf	3,6	;RP1=0, select bank0
  7125  05C3  00B4               	movwf	___flmul@temp+1
  7126  05C4  0870               	movf	?__Umul8_16,w
  7127  05C5  00B3               	movwf	___flmul@temp
  7128  05C6                     l2581:
  7129  05C6  0833               	movf	___flmul@temp,w
  7130  05C7  00F9               	movwf	??___flmul
  7131  05C8  0834               	movf	___flmul@temp+1,w
  7132  05C9  00FA               	movwf	??___flmul+1
  7133  05CA  01FB               	clrf	??___flmul+2
  7134  05CB  01FC               	clrf	??___flmul+3
  7135  05CC  0879               	movf	??___flmul,w
  7136  05CD  07A9               	addwf	___flmul@grs,f
  7137  05CE  087A               	movf	??___flmul+1,w
  7138  05CF  1103               	clrz
  7139  05D0  1803               	skipnc
  7140  05D1  3E01               	addlw	1
  7141  05D2  1903               	skipnz
  7142  05D3  2DD5               	goto	u2541
  7143  05D4  07AA               	addwf	___flmul@grs+1,f
  7144  05D5                     u2541:
  7145  05D5  087B               	movf	??___flmul+2,w
  7146  05D6  1103               	clrz
  7147  05D7  1803               	skipnc
  7148  05D8  3E01               	addlw	1
  7149  05D9  1903               	skipnz
  7150  05DA  2DDC               	goto	u2542
  7151  05DB  07AB               	addwf	___flmul@grs+2,f
  7152  05DC                     u2542:
  7153  05DC  087C               	movf	??___flmul+3,w
  7154  05DD  1103               	clrz
  7155  05DE  1803               	skipnc
  7156  05DF  3E01               	addlw	1
  7157  05E0  1903               	skipnz
  7158  05E1  2DE3               	goto	u2543
  7159  05E2  07AC               	addwf	___flmul@grs+3,f
  7160  05E3                     u2543:
  7161  05E3                     l2583:
  7162  05E3  3008               	movlw	8
  7163  05E4  00F9               	movwf	??___flmul
  7164  05E5                     u2555:
  7165  05E5  1003               	clrc
  7166  05E6  0DA9               	rlf	___flmul@grs,f
  7167  05E7  0DAA               	rlf	___flmul@grs+1,f
  7168  05E8  0DAB               	rlf	___flmul@grs+2,f
  7169  05E9  0DAC               	rlf	___flmul@grs+3,f
  7170  05EA  0BF9               	decfsz	??___flmul,f
  7171  05EB  2DE5               	goto	u2555
  7172  05EC  0820               	movf	___flmul@b,w
  7173  05ED  00F9               	movwf	??___flmul
  7174  05EE  0879               	movf	??___flmul,w
  7175  05EF  00F0               	movwf	__Umul8_16@multiplicand
  7176  05F0  0824               	movf	___flmul@a,w
  7177  05F1  160A  118A  235C  120A  118A  	fcall	__Umul8_16
  7178  05F6  0871               	movf	?__Umul8_16+1,w
  7179  05F7  1283               	bcf	3,5	;RP0=0, select bank0
  7180  05F8  1303               	bcf	3,6	;RP1=0, select bank0
  7181  05F9  00B4               	movwf	___flmul@temp+1
  7182  05FA  0870               	movf	?__Umul8_16,w
  7183  05FB  00B3               	movwf	___flmul@temp
  7184  05FC                     l2585:
  7185  05FC  0833               	movf	___flmul@temp,w
  7186  05FD  00F9               	movwf	??___flmul
  7187  05FE  0834               	movf	___flmul@temp+1,w
  7188  05FF  00FA               	movwf	??___flmul+1
  7189  0600  01FB               	clrf	??___flmul+2
  7190  0601  01FC               	clrf	??___flmul+3
  7191  0602  0879               	movf	??___flmul,w
  7192  0603  07A9               	addwf	___flmul@grs,f
  7193  0604  087A               	movf	??___flmul+1,w
  7194  0605  1103               	clrz
  7195  0606  1803               	skipnc
  7196  0607  3E01               	addlw	1
  7197  0608  1903               	skipnz
  7198  0609  2E0B               	goto	u2561
  7199  060A  07AA               	addwf	___flmul@grs+1,f
  7200  060B                     u2561:
  7201  060B  087B               	movf	??___flmul+2,w
  7202  060C  1103               	clrz
  7203  060D  1803               	skipnc
  7204  060E  3E01               	addlw	1
  7205  060F  1903               	skipnz
  7206  0610  2E12               	goto	u2562
  7207  0611  07AB               	addwf	___flmul@grs+2,f
  7208  0612                     u2562:
  7209  0612  087C               	movf	??___flmul+3,w
  7210  0613  1103               	clrz
  7211  0614  1803               	skipnc
  7212  0615  3E01               	addlw	1
  7213  0616  1903               	skipnz
  7214  0617  2E19               	goto	u2563
  7215  0618  07AC               	addwf	___flmul@grs+3,f
  7216  0619                     u2563:
  7217  0619                     l2587:
  7218  0619  0821               	movf	___flmul@b+1,w
  7219  061A  00F9               	movwf	??___flmul
  7220  061B  0879               	movf	??___flmul,w
  7221  061C  00F0               	movwf	__Umul8_16@multiplicand
  7222  061D  0826               	movf	___flmul@a+2,w
  7223  061E  160A  118A  235C  120A  118A  	fcall	__Umul8_16
  7224  0623  0871               	movf	?__Umul8_16+1,w
  7225  0624  1283               	bcf	3,5	;RP0=0, select bank0
  7226  0625  1303               	bcf	3,6	;RP1=0, select bank0
  7227  0626  00B4               	movwf	___flmul@temp+1
  7228  0627  0870               	movf	?__Umul8_16,w
  7229  0628  00B3               	movwf	___flmul@temp
  7230  0629  0833               	movf	___flmul@temp,w
  7231  062A  00F9               	movwf	??___flmul
  7232  062B  0834               	movf	___flmul@temp+1,w
  7233  062C  00FA               	movwf	??___flmul+1
  7234  062D  01FB               	clrf	??___flmul+2
  7235  062E  01FC               	clrf	??___flmul+3
  7236  062F  0879               	movf	??___flmul,w
  7237  0630  07AF               	addwf	___flmul@prod,f
  7238  0631  087A               	movf	??___flmul+1,w
  7239  0632  1103               	clrz
  7240  0633  1803               	skipnc
  7241  0634  3E01               	addlw	1
  7242  0635  1903               	skipnz
  7243  0636  2E38               	goto	u2571
  7244  0637  07B0               	addwf	___flmul@prod+1,f
  7245  0638                     u2571:
  7246  0638  087B               	movf	??___flmul+2,w
  7247  0639  1103               	clrz
  7248  063A  1803               	skipnc
  7249  063B  3E01               	addlw	1
  7250  063C  1903               	skipnz
  7251  063D  2E3F               	goto	u2572
  7252  063E  07B1               	addwf	___flmul@prod+2,f
  7253  063F                     u2572:
  7254  063F  087C               	movf	??___flmul+3,w
  7255  0640  1103               	clrz
  7256  0641  1803               	skipnc
  7257  0642  3E01               	addlw	1
  7258  0643  1903               	skipnz
  7259  0644  2E46               	goto	u2573
  7260  0645  07B2               	addwf	___flmul@prod+3,f
  7261  0646                     u2573:
  7262  0646                     l2589:
  7263  0646  0822               	movf	___flmul@b+2,w
  7264  0647  00F9               	movwf	??___flmul
  7265  0648  0879               	movf	??___flmul,w
  7266  0649  00F0               	movwf	__Umul8_16@multiplicand
  7267  064A  0825               	movf	___flmul@a+1,w
  7268  064B  160A  118A  235C  120A  118A  	fcall	__Umul8_16
  7269  0650  0871               	movf	?__Umul8_16+1,w
  7270  0651  1283               	bcf	3,5	;RP0=0, select bank0
  7271  0652  1303               	bcf	3,6	;RP1=0, select bank0
  7272  0653  00B4               	movwf	___flmul@temp+1
  7273  0654  0870               	movf	?__Umul8_16,w
  7274  0655  00B3               	movwf	___flmul@temp
  7275  0656                     l2591:
  7276  0656  0833               	movf	___flmul@temp,w
  7277  0657  00F9               	movwf	??___flmul
  7278  0658  0834               	movf	___flmul@temp+1,w
  7279  0659  00FA               	movwf	??___flmul+1
  7280  065A  01FB               	clrf	??___flmul+2
  7281  065B  01FC               	clrf	??___flmul+3
  7282  065C  0879               	movf	??___flmul,w
  7283  065D  07AF               	addwf	___flmul@prod,f
  7284  065E  087A               	movf	??___flmul+1,w
  7285  065F  1103               	clrz
  7286  0660  1803               	skipnc
  7287  0661  3E01               	addlw	1
  7288  0662  1903               	skipnz
  7289  0663  2E65               	goto	u2581
  7290  0664  07B0               	addwf	___flmul@prod+1,f
  7291  0665                     u2581:
  7292  0665  087B               	movf	??___flmul+2,w
  7293  0666  1103               	clrz
  7294  0667  1803               	skipnc
  7295  0668  3E01               	addlw	1
  7296  0669  1903               	skipnz
  7297  066A  2E6C               	goto	u2582
  7298  066B  07B1               	addwf	___flmul@prod+2,f
  7299  066C                     u2582:
  7300  066C  087C               	movf	??___flmul+3,w
  7301  066D  1103               	clrz
  7302  066E  1803               	skipnc
  7303  066F  3E01               	addlw	1
  7304  0670  1903               	skipnz
  7305  0671  2E73               	goto	u2583
  7306  0672  07B2               	addwf	___flmul@prod+3,f
  7307  0673                     u2583:
  7308  0673  0822               	movf	___flmul@b+2,w
  7309  0674  00F9               	movwf	??___flmul
  7310  0675  0879               	movf	??___flmul,w
  7311  0676  00F0               	movwf	__Umul8_16@multiplicand
  7312  0677  0826               	movf	___flmul@a+2,w
  7313  0678  160A  118A  235C  120A  118A  	fcall	__Umul8_16
  7314  067D  0871               	movf	?__Umul8_16+1,w
  7315  067E  1283               	bcf	3,5	;RP0=0, select bank0
  7316  067F  1303               	bcf	3,6	;RP1=0, select bank0
  7317  0680  00B4               	movwf	___flmul@temp+1
  7318  0681  0870               	movf	?__Umul8_16,w
  7319  0682  00B3               	movwf	___flmul@temp
  7320  0683                     l2593:
  7321  0683  0833               	movf	___flmul@temp,w
  7322  0684  00F9               	movwf	??___flmul
  7323  0685  0834               	movf	___flmul@temp+1,w
  7324  0686  00FA               	movwf	??___flmul+1
  7325  0687  01FB               	clrf	??___flmul+2
  7326  0688  01FC               	clrf	??___flmul+3
  7327  0689  3008               	movlw	8
  7328  068A                     u2595:
  7329  068A  1003               	clrc
  7330  068B  0DF9               	rlf	??___flmul,f
  7331  068C  0DFA               	rlf	??___flmul+1,f
  7332  068D  0DFB               	rlf	??___flmul+2,f
  7333  068E  0DFC               	rlf	??___flmul+3,f
  7334  068F                     u2590:
  7335  068F  3EFF               	addlw	-1
  7336  0690  1D03               	skipz
  7337  0691  2E8A               	goto	u2595
  7338  0692  0879               	movf	??___flmul,w
  7339  0693  07AF               	addwf	___flmul@prod,f
  7340  0694  087A               	movf	??___flmul+1,w
  7341  0695  1103               	clrz
  7342  0696  1803               	skipnc
  7343  0697  3E01               	addlw	1
  7344  0698  1903               	skipnz
  7345  0699  2E9B               	goto	u2601
  7346  069A  07B0               	addwf	___flmul@prod+1,f
  7347  069B                     u2601:
  7348  069B  087B               	movf	??___flmul+2,w
  7349  069C  1103               	clrz
  7350  069D  1803               	skipnc
  7351  069E  3E01               	addlw	1
  7352  069F  1903               	skipnz
  7353  06A0  2EA2               	goto	u2602
  7354  06A1  07B1               	addwf	___flmul@prod+2,f
  7355  06A2                     u2602:
  7356  06A2  087C               	movf	??___flmul+3,w
  7357  06A3  1103               	clrz
  7358  06A4  1803               	skipnc
  7359  06A5  3E01               	addlw	1
  7360  06A6  1903               	skipnz
  7361  06A7  2EA9               	goto	u2603
  7362  06A8  07B2               	addwf	___flmul@prod+3,f
  7363  06A9                     u2603:
  7364  06A9                     l2595:
  7365  06A9  0829               	movf	___flmul@grs,w
  7366  06AA  00F9               	movwf	??___flmul
  7367  06AB  082A               	movf	___flmul@grs+1,w
  7368  06AC  00FA               	movwf	??___flmul+1
  7369  06AD  082B               	movf	___flmul@grs+2,w
  7370  06AE  00FB               	movwf	??___flmul+2
  7371  06AF  082C               	movf	___flmul@grs+3,w
  7372  06B0  00FC               	movwf	??___flmul+3
  7373  06B1  3018               	movlw	24
  7374  06B2                     u2615:
  7375  06B2  1003               	clrc
  7376  06B3  0CFC               	rrf	??___flmul+3,f
  7377  06B4  0CFB               	rrf	??___flmul+2,f
  7378  06B5  0CFA               	rrf	??___flmul+1,f
  7379  06B6  0CF9               	rrf	??___flmul,f
  7380  06B7                     u2610:
  7381  06B7  3EFF               	addlw	-1
  7382  06B8  1D03               	skipz
  7383  06B9  2EB2               	goto	u2615
  7384  06BA  0879               	movf	??___flmul,w
  7385  06BB  07AF               	addwf	___flmul@prod,f
  7386  06BC  087A               	movf	??___flmul+1,w
  7387  06BD  1103               	clrz
  7388  06BE  1803               	skipnc
  7389  06BF  3E01               	addlw	1
  7390  06C0  1903               	skipnz
  7391  06C1  2EC3               	goto	u2621
  7392  06C2  07B0               	addwf	___flmul@prod+1,f
  7393  06C3                     u2621:
  7394  06C3  087B               	movf	??___flmul+2,w
  7395  06C4  1103               	clrz
  7396  06C5  1803               	skipnc
  7397  06C6  3E01               	addlw	1
  7398  06C7  1903               	skipnz
  7399  06C8  2ECA               	goto	u2622
  7400  06C9  07B1               	addwf	___flmul@prod+2,f
  7401  06CA                     u2622:
  7402  06CA  087C               	movf	??___flmul+3,w
  7403  06CB  1103               	clrz
  7404  06CC  1803               	skipnc
  7405  06CD  3E01               	addlw	1
  7406  06CE  1903               	skipnz
  7407  06CF  2ED1               	goto	u2623
  7408  06D0  07B2               	addwf	___flmul@prod+3,f
  7409  06D1                     u2623:
  7410  06D1                     l2597:
  7411  06D1  3008               	movlw	8
  7412  06D2  00F9               	movwf	??___flmul
  7413  06D3                     u2635:
  7414  06D3  1003               	clrc
  7415  06D4  0DA9               	rlf	___flmul@grs,f
  7416  06D5  0DAA               	rlf	___flmul@grs+1,f
  7417  06D6  0DAB               	rlf	___flmul@grs+2,f
  7418  06D7  0DAC               	rlf	___flmul@grs+3,f
  7419  06D8  0BF9               	decfsz	??___flmul,f
  7420  06D9  2ED3               	goto	u2635
  7421  06DA                     l2599:
  7422  06DA  082E               	movf	___flmul@bexp,w
  7423  06DB  072D               	addwf	___flmul@aexp,w
  7424  06DC  00F9               	movwf	??___flmul
  7425  06DD  01FA               	clrf	??___flmul+1
  7426  06DE  0DFA               	rlf	??___flmul+1,f
  7427  06DF  0879               	movf	??___flmul,w
  7428  06E0  3E82               	addlw	130
  7429  06E1  00B3               	movwf	___flmul@temp
  7430  06E2  087A               	movf	??___flmul+1,w
  7431  06E3  1803               	skipnc
  7432  06E4  3E01               	addlw	1
  7433  06E5  3EFF               	addlw	255
  7434  06E6  00B4               	movwf	___flmul@temp+1
  7435  06E7  2F05               	goto	l2611
  7436  06E8                     l2601:
  7437  06E8  3001               	movlw	1
  7438  06E9  00F9               	movwf	??___flmul
  7439  06EA                     u2645:
  7440  06EA  1003               	clrc
  7441  06EB  0DAF               	rlf	___flmul@prod,f
  7442  06EC  0DB0               	rlf	___flmul@prod+1,f
  7443  06ED  0DB1               	rlf	___flmul@prod+2,f
  7444  06EE  0DB2               	rlf	___flmul@prod+3,f
  7445  06EF  0BF9               	decfsz	??___flmul,f
  7446  06F0  2EEA               	goto	u2645
  7447  06F1                     l2603:
  7448  06F1  1FAC               	btfss	___flmul@grs+3,7
  7449  06F2  2EF4               	goto	u2651
  7450  06F3  2EF5               	goto	u2650
  7451  06F4                     u2651:
  7452  06F4  2EF6               	goto	l2607
  7453  06F5                     u2650:
  7454  06F5                     l2605:
  7455  06F5  142F               	bsf	___flmul@prod,0
  7456  06F6                     l2607:
  7457  06F6  3001               	movlw	1
  7458  06F7  00F9               	movwf	??___flmul
  7459  06F8                     u2665:
  7460  06F8  1003               	clrc
  7461  06F9  0DA9               	rlf	___flmul@grs,f
  7462  06FA  0DAA               	rlf	___flmul@grs+1,f
  7463  06FB  0DAB               	rlf	___flmul@grs+2,f
  7464  06FC  0DAC               	rlf	___flmul@grs+3,f
  7465  06FD  0BF9               	decfsz	??___flmul,f
  7466  06FE  2EF8               	goto	u2665
  7467  06FF                     l2609:
  7468  06FF  30FF               	movlw	255
  7469  0700  07B3               	addwf	___flmul@temp,f
  7470  0701  1803               	skipnc
  7471  0702  0AB4               	incf	___flmul@temp+1,f
  7472  0703  30FF               	movlw	255
  7473  0704  07B4               	addwf	___flmul@temp+1,f
  7474  0705                     l2611:
  7475  0705  1FB1               	btfss	___flmul@prod+2,7
  7476  0706  2F08               	goto	u2671
  7477  0707  2F09               	goto	u2670
  7478  0708                     u2671:
  7479  0708  2EE8               	goto	l2601
  7480  0709                     u2670:
  7481  0709                     l2613:
  7482  0709  01AD               	clrf	___flmul@aexp
  7483  070A                     l2615:
  7484  070A  1FAC               	btfss	___flmul@grs+3,7
  7485  070B  2F0D               	goto	u2681
  7486  070C  2F0E               	goto	u2680
  7487  070D                     u2681:
  7488  070D  2F2A               	goto	l2623
  7489  070E                     u2680:
  7490  070E                     l2617:
  7491  070E  30FF               	movlw	255
  7492  070F  0529               	andwf	___flmul@grs,w
  7493  0710  00F9               	movwf	??___flmul
  7494  0711  30FF               	movlw	255
  7495  0712  052A               	andwf	___flmul@grs+1,w
  7496  0713  00FA               	movwf	??___flmul+1
  7497  0714  30FF               	movlw	255
  7498  0715  052B               	andwf	___flmul@grs+2,w
  7499  0716  00FB               	movwf	??___flmul+2
  7500  0717  307F               	movlw	127
  7501  0718  052C               	andwf	___flmul@grs+3,w
  7502  0719  00FC               	movwf	??___flmul+3
  7503  071A  087C               	movf	??___flmul+3,w
  7504  071B  047B               	iorwf	??___flmul+2,w
  7505  071C  047A               	iorwf	??___flmul+1,w
  7506  071D  0479               	iorwf	??___flmul,w
  7507  071E  1903               	skipnz
  7508  071F  2F21               	goto	u2691
  7509  0720  2F22               	goto	u2690
  7510  0721                     u2691:
  7511  0721  2F25               	goto	l858
  7512  0722                     u2690:
  7513  0722                     l2619:
  7514  0722  01AD               	clrf	___flmul@aexp
  7515  0723  0AAD               	incf	___flmul@aexp,f
  7516  0724  2F2A               	goto	l2623
  7517  0725                     l858:
  7518  0725  1C2F               	btfss	___flmul@prod,0
  7519  0726  2F28               	goto	u2701
  7520  0727  2F29               	goto	u2700
  7521  0728                     u2701:
  7522  0728  2F2A               	goto	l2623
  7523  0729                     u2700:
  7524  0729  2F22               	goto	l2619
  7525  072A                     l2623:
  7526  072A  082D               	movf	___flmul@aexp,w
  7527  072B  1903               	btfsc	3,2
  7528  072C  2F2E               	goto	u2711
  7529  072D  2F2F               	goto	u2710
  7530  072E                     u2711:
  7531  072E  2F60               	goto	l2633
  7532  072F                     u2710:
  7533  072F                     l2625:
  7534  072F  3001               	movlw	1
  7535  0730  07AF               	addwf	___flmul@prod,f
  7536  0731  3000               	movlw	0
  7537  0732  1803               	skipnc
  7538  0733  3001               	movlw	1
  7539  0734  07B0               	addwf	___flmul@prod+1,f
  7540  0735  3000               	movlw	0
  7541  0736  1803               	skipnc
  7542  0737  3001               	movlw	1
  7543  0738  07B1               	addwf	___flmul@prod+2,f
  7544  0739  3000               	movlw	0
  7545  073A  1803               	skipnc
  7546  073B  3001               	movlw	1
  7547  073C  07B2               	addwf	___flmul@prod+3,f
  7548  073D                     l2627:
  7549  073D  1C32               	btfss	___flmul@prod+3,0
  7550  073E  2F40               	goto	u2721
  7551  073F  2F41               	goto	u2720
  7552  0740                     u2721:
  7553  0740  2F60               	goto	l2633
  7554  0741                     u2720:
  7555  0741                     l2629:
  7556  0741  082F               	movf	___flmul@prod,w
  7557  0742  00F9               	movwf	??___flmul
  7558  0743  0830               	movf	___flmul@prod+1,w
  7559  0744  00FA               	movwf	??___flmul+1
  7560  0745  0831               	movf	___flmul@prod+2,w
  7561  0746  00FB               	movwf	??___flmul+2
  7562  0747  0832               	movf	___flmul@prod+3,w
  7563  0748  00FC               	movwf	??___flmul+3
  7564  0749  3001               	movlw	1
  7565  074A  00FD               	movwf	??___flmul+4
  7566  074B                     u2735:
  7567  074B  0D7C               	rlf	??___flmul+3,w
  7568  074C  0CFC               	rrf	??___flmul+3,f
  7569  074D  0CFB               	rrf	??___flmul+2,f
  7570  074E  0CFA               	rrf	??___flmul+1,f
  7571  074F  0CF9               	rrf	??___flmul,f
  7572  0750                     u2730:
  7573  0750  0BFD               	decfsz	??___flmul+4,f
  7574  0751  2F4B               	goto	u2735
  7575  0752  087C               	movf	??___flmul+3,w
  7576  0753  00B2               	movwf	___flmul@prod+3
  7577  0754  087B               	movf	??___flmul+2,w
  7578  0755  00B1               	movwf	___flmul@prod+2
  7579  0756  087A               	movf	??___flmul+1,w
  7580  0757  00B0               	movwf	___flmul@prod+1
  7581  0758  0879               	movf	??___flmul,w
  7582  0759  00AF               	movwf	___flmul@prod
  7583  075A                     l2631:
  7584  075A  3001               	movlw	1
  7585  075B  07B3               	addwf	___flmul@temp,f
  7586  075C  1803               	skipnc
  7587  075D  0AB4               	incf	___flmul@temp+1,f
  7588  075E  3000               	movlw	0
  7589  075F  07B4               	addwf	___flmul@temp+1,f
  7590  0760                     l2633:
  7591  0760  0834               	movf	___flmul@temp+1,w
  7592  0761  3A80               	xorlw	128
  7593  0762  00FF               	movwf	btemp+1
  7594  0763  3080               	movlw	128
  7595  0764  027F               	subwf	btemp+1,w
  7596  0765  1D03               	skipz
  7597  0766  2F69               	goto	u2745
  7598  0767  30FF               	movlw	255
  7599  0768  0233               	subwf	___flmul@temp,w
  7600  0769                     u2745:
  7601  0769  1C03               	skipc
  7602  076A  2F6C               	goto	u2741
  7603  076B  2F6D               	goto	u2740
  7604  076C                     u2741:
  7605  076C  2F78               	goto	l2637
  7606  076D                     u2740:
  7607  076D                     l2635:
  7608  076D  307F               	movlw	127
  7609  076E  1283               	bcf	3,5	;RP0=0, select bank0
  7610  076F  1303               	bcf	3,6	;RP1=0, select bank0
  7611  0770  00B2               	movwf	___flmul@prod+3
  7612  0771  3080               	movlw	128
  7613  0772  00B1               	movwf	___flmul@prod+2
  7614  0773  3000               	movlw	0
  7615  0774  00B0               	movwf	___flmul@prod+1
  7616  0775  3000               	movlw	0
  7617  0776  00AF               	movwf	___flmul@prod
  7618  0777  2FAD               	goto	l864
  7619  0778                     l2637:
  7620  0778  1283               	bcf	3,5	;RP0=0, select bank0
  7621  0779  1303               	bcf	3,6	;RP1=0, select bank0
  7622  077A  0834               	movf	___flmul@temp+1,w
  7623  077B  3A80               	xorlw	128
  7624  077C  00FF               	movwf	btemp+1
  7625  077D  3080               	movlw	128
  7626  077E  027F               	subwf	btemp+1,w
  7627  077F  1D03               	skipz
  7628  0780  2F83               	goto	u2755
  7629  0781  3001               	movlw	1
  7630  0782  0233               	subwf	___flmul@temp,w
  7631  0783                     u2755:
  7632  0783  1803               	skipnc
  7633  0784  2F86               	goto	u2751
  7634  0785  2F87               	goto	u2750
  7635  0786                     u2751:
  7636  0786  2F93               	goto	l2643
  7637  0787                     u2750:
  7638  0787                     l2639:
  7639  0787  3000               	movlw	0
  7640  0788  1283               	bcf	3,5	;RP0=0, select bank0
  7641  0789  1303               	bcf	3,6	;RP1=0, select bank0
  7642  078A  00B2               	movwf	___flmul@prod+3
  7643  078B  3000               	movlw	0
  7644  078C  00B1               	movwf	___flmul@prod+2
  7645  078D  3000               	movlw	0
  7646  078E  00B0               	movwf	___flmul@prod+1
  7647  078F  3000               	movlw	0
  7648  0790  00AF               	movwf	___flmul@prod
  7649  0791                     l2641:
  7650  0791  01A8               	clrf	___flmul@sign
  7651  0792  2FAD               	goto	l864
  7652  0793                     l2643:
  7653  0793  1283               	bcf	3,5	;RP0=0, select bank0
  7654  0794  1303               	bcf	3,6	;RP1=0, select bank0
  7655  0795  0833               	movf	___flmul@temp,w
  7656  0796  00F9               	movwf	??___flmul
  7657  0797  0879               	movf	??___flmul,w
  7658  0798  00AE               	movwf	___flmul@bexp
  7659  0799  30FF               	movlw	255
  7660  079A  05AF               	andwf	___flmul@prod,f
  7661  079B  30FF               	movlw	255
  7662  079C  05B0               	andwf	___flmul@prod+1,f
  7663  079D  307F               	movlw	127
  7664  079E  05B1               	andwf	___flmul@prod+2,f
  7665  079F  3000               	movlw	0
  7666  07A0  05B2               	andwf	___flmul@prod+3,f
  7667  07A1                     l2645:
  7668  07A1  1C2E               	btfss	___flmul@bexp,0
  7669  07A2  2FA4               	goto	u2761
  7670  07A3  2FA5               	goto	u2760
  7671  07A4                     u2761:
  7672  07A4  2FA6               	goto	l2649
  7673  07A5                     u2760:
  7674  07A5                     l2647:
  7675  07A5  17B1               	bsf	___flmul@prod+2,7
  7676  07A6                     l2649:
  7677  07A6  082E               	movf	___flmul@bexp,w
  7678  07A7  00F9               	movwf	??___flmul
  7679  07A8  1003               	clrc
  7680  07A9  0C79               	rrf	??___flmul,w
  7681  07AA  00FA               	movwf	??___flmul+1
  7682  07AB  087A               	movf	??___flmul+1,w
  7683  07AC  00B2               	movwf	___flmul@prod+3
  7684  07AD                     l864:
  7685  07AD  0828               	movf	___flmul@sign,w
  7686  07AE  00F9               	movwf	??___flmul
  7687  07AF  0879               	movf	??___flmul,w
  7688  07B0  04B2               	iorwf	___flmul@prod+3,f
  7689  07B1                     l2651:
  7690  07B1  0832               	movf	___flmul@prod+3,w
  7691  07B2  00A3               	movwf	?___flmul+3
  7692  07B3  0831               	movf	___flmul@prod+2,w
  7693  07B4  00A2               	movwf	?___flmul+2
  7694  07B5  0830               	movf	___flmul@prod+1,w
  7695  07B6  00A1               	movwf	?___flmul+1
  7696  07B7  082F               	movf	___flmul@prod,w
  7697  07B8  00A0               	movwf	?___flmul
  7698  07B9                     l852:
  7699  07B9  0008               	return
  7700  07BA                     __end_of___flmul:
  7701                           
  7702                           	psect	text22
  7703  135C                     __ptext22:	
  7704 ;; *************** function __Umul8_16 *****************
  7705 ;; Defined at:
  7706 ;;		line 4 in file "C:\Program Files\Microchip\xc8\v2.32\pic\sources\c90\common\Umul8_16.c"
  7707 ;; Parameters:    Size  Location     Type
  7708 ;;  multiplier      1    wreg     unsigned char 
  7709 ;;  multiplicand    1    0[COMMON] unsigned char 
  7710 ;; Auto vars:     Size  Location     Type
  7711 ;;  multiplier      1    8[COMMON] unsigned char 
  7712 ;;  word_mpld       2    6[COMMON] unsigned int 
  7713 ;;  product         2    4[COMMON] unsigned int 
  7714 ;; Return value:  Size  Location     Type
  7715 ;;                  2    0[COMMON] unsigned int 
  7716 ;; Registers used:
  7717 ;;		wreg, status,2, status,0
  7718 ;; Tracked objects:
  7719 ;;		On entry : 0/0
  7720 ;;		On exit  : 0/0
  7721 ;;		Unchanged: 0/0
  7722 ;; Data sizes:     COMMON   BANK0   BANK1   BANK3   BANK2
  7723 ;;      Params:         2       0       0       0       0
  7724 ;;      Locals:         5       0       0       0       0
  7725 ;;      Temps:          2       0       0       0       0
  7726 ;;      Totals:         9       0       0       0       0
  7727 ;;Total ram usage:        9 bytes
  7728 ;; Hardware stack levels used: 1
  7729 ;; This function calls:
  7730 ;;		Nothing
  7731 ;; This function is called by:
  7732 ;;		___flmul
  7733 ;; This function uses a non-reentrant model
  7734 ;;
  7735                           
  7736                           
  7737                           ;psect for function __Umul8_16
  7738  135C                     __Umul8_16:
  7739                           
  7740                           ;incstack = 0
  7741                           ; Regs used in __Umul8_16: [wreg+status,2+status,0]
  7742                           ;__Umul8_16@multiplier stored from wreg
  7743  135C  00F8               	movwf	__Umul8_16@multiplier
  7744  135D                     l2463:
  7745  135D  01F4               	clrf	__Umul8_16@product
  7746  135E  01F5               	clrf	__Umul8_16@product+1
  7747  135F                     l2465:
  7748  135F  0870               	movf	__Umul8_16@multiplicand,w
  7749  1360  00F2               	movwf	??__Umul8_16
  7750  1361  01F3               	clrf	??__Umul8_16+1
  7751  1362  0872               	movf	??__Umul8_16,w
  7752  1363  00F6               	movwf	__Umul8_16@word_mpld
  7753  1364  0873               	movf	??__Umul8_16+1,w
  7754  1365  00F7               	movwf	__Umul8_16@word_mpld+1
  7755  1366                     l2467:
  7756  1366  1C78               	btfss	__Umul8_16@multiplier,0
  7757  1367  2B69               	goto	u2301
  7758  1368  2B6A               	goto	u2300
  7759  1369                     u2301:
  7760  1369  2B70               	goto	l871
  7761  136A                     u2300:
  7762  136A                     l2469:
  7763  136A  0876               	movf	__Umul8_16@word_mpld,w
  7764  136B  07F4               	addwf	__Umul8_16@product,f
  7765  136C  1803               	skipnc
  7766  136D  0AF5               	incf	__Umul8_16@product+1,f
  7767  136E  0877               	movf	__Umul8_16@word_mpld+1,w
  7768  136F  07F5               	addwf	__Umul8_16@product+1,f
  7769  1370                     l871:
  7770  1370  3001               	movlw	1
  7771  1371                     u2315:
  7772  1371  1003               	clrc
  7773  1372  0DF6               	rlf	__Umul8_16@word_mpld,f
  7774  1373  0DF7               	rlf	__Umul8_16@word_mpld+1,f
  7775  1374  3EFF               	addlw	-1
  7776  1375  1D03               	skipz
  7777  1376  2B71               	goto	u2315
  7778  1377  1003               	clrc
  7779  1378  0CF8               	rrf	__Umul8_16@multiplier,f
  7780  1379                     l2471:
  7781  1379  0878               	movf	__Umul8_16@multiplier,w
  7782  137A  1D03               	btfss	3,2
  7783  137B  2B7D               	goto	u2321
  7784  137C  2B7E               	goto	u2320
  7785  137D                     u2321:
  7786  137D  2B66               	goto	l2467
  7787  137E                     u2320:
  7788  137E                     l2473:
  7789  137E  0875               	movf	__Umul8_16@product+1,w
  7790  137F  00F1               	movwf	?__Umul8_16+1
  7791  1380  0874               	movf	__Umul8_16@product,w
  7792  1381  00F0               	movwf	?__Umul8_16
  7793  1382                     l873:
  7794  1382  0008               	return
  7795  1383                     __end_of__Umul8_16:
  7796                           
  7797                           	psect	text23
  7798  08F0                     __ptext23:	
  7799 ;; *************** function ___flge *****************
  7800 ;; Defined at:
  7801 ;;		line 4 in file "C:\Program Files\Microchip\xc8\v2.32\pic\sources\c90\common\flge.c"
  7802 ;; Parameters:    Size  Location     Type
  7803 ;;  ff1             4    0[COMMON] unsigned int 
  7804 ;;  ff2             4    4[COMMON] unsigned int 
  7805 ;; Auto vars:     Size  Location     Type
  7806 ;;		None
  7807 ;; Return value:  Size  Location     Type
  7808 ;;		None               void
  7809 ;; Registers used:
  7810 ;;		wreg, status,2, status,0
  7811 ;; Tracked objects:
  7812 ;;		On entry : 0/0
  7813 ;;		On exit  : 0/0
  7814 ;;		Unchanged: 0/0
  7815 ;; Data sizes:     COMMON   BANK0   BANK1   BANK3   BANK2
  7816 ;;      Params:         8       0       0       0       0
  7817 ;;      Locals:         0       0       0       0       0
  7818 ;;      Temps:          4       0       0       0       0
  7819 ;;      Totals:        12       0       0       0       0
  7820 ;;Total ram usage:       12 bytes
  7821 ;; Hardware stack levels used: 1
  7822 ;; This function calls:
  7823 ;;		Nothing
  7824 ;; This function is called by:
  7825 ;;		_liga_buzzer
  7826 ;; This function uses a non-reentrant model
  7827 ;;
  7828                           
  7829                           
  7830                           ;psect for function ___flge
  7831  08F0                     ___flge:
  7832  08F0                     l2489:	
  7833                           ;incstack = 0
  7834                           ; Regs used in ___flge: [wreg+status,2+status,0]
  7835                           
  7836  08F0  3000               	movlw	0
  7837  08F1  0570               	andwf	___flge@ff1,w
  7838  08F2  00F8               	movwf	??___flge
  7839  08F3  3000               	movlw	0
  7840  08F4  0571               	andwf	___flge@ff1+1,w
  7841  08F5  00F9               	movwf	??___flge+1
  7842  08F6  3080               	movlw	128
  7843  08F7  0572               	andwf	___flge@ff1+2,w
  7844  08F8  00FA               	movwf	??___flge+2
  7845  08F9  307F               	movlw	127
  7846  08FA  0573               	andwf	___flge@ff1+3,w
  7847  08FB  00FB               	movwf	??___flge+3
  7848  08FC  087B               	movf	??___flge+3,w
  7849  08FD  047A               	iorwf	??___flge+2,w
  7850  08FE  0479               	iorwf	??___flge+1,w
  7851  08FF  0478               	iorwf	??___flge,w
  7852  0900  1D03               	skipz
  7853  0901  2903               	goto	u2331
  7854  0902  2904               	goto	u2330
  7855  0903                     u2331:
  7856  0903  290C               	goto	l637
  7857  0904                     u2330:
  7858  0904                     l2491:
  7859  0904  3000               	movlw	0
  7860  0905  00F3               	movwf	___flge@ff1+3
  7861  0906  3000               	movlw	0
  7862  0907  00F2               	movwf	___flge@ff1+2
  7863  0908  3000               	movlw	0
  7864  0909  00F1               	movwf	___flge@ff1+1
  7865  090A  3000               	movlw	0
  7866  090B  00F0               	movwf	___flge@ff1
  7867  090C                     l637:
  7868  090C  3000               	movlw	0
  7869  090D  0574               	andwf	___flge@ff2,w
  7870  090E  00F8               	movwf	??___flge
  7871  090F  3000               	movlw	0
  7872  0910  0575               	andwf	___flge@ff2+1,w
  7873  0911  00F9               	movwf	??___flge+1
  7874  0912  3080               	movlw	128
  7875  0913  0576               	andwf	___flge@ff2+2,w
  7876  0914  00FA               	movwf	??___flge+2
  7877  0915  307F               	movlw	127
  7878  0916  0577               	andwf	___flge@ff2+3,w
  7879  0917  00FB               	movwf	??___flge+3
  7880  0918  087B               	movf	??___flge+3,w
  7881  0919  047A               	iorwf	??___flge+2,w
  7882  091A  0479               	iorwf	??___flge+1,w
  7883  091B  0478               	iorwf	??___flge,w
  7884  091C  1D03               	skipz
  7885  091D  291F               	goto	u2341
  7886  091E  2920               	goto	u2340
  7887  091F                     u2341:
  7888  091F  2928               	goto	l2495
  7889  0920                     u2340:
  7890  0920                     l2493:
  7891  0920  3000               	movlw	0
  7892  0921  00F7               	movwf	___flge@ff2+3
  7893  0922  3000               	movlw	0
  7894  0923  00F6               	movwf	___flge@ff2+2
  7895  0924  3000               	movlw	0
  7896  0925  00F5               	movwf	___flge@ff2+1
  7897  0926  3000               	movlw	0
  7898  0927  00F4               	movwf	___flge@ff2
  7899  0928                     l2495:
  7900  0928  1FF3               	btfss	___flge@ff1+3,7
  7901  0929  292B               	goto	u2351
  7902  092A  292C               	goto	u2350
  7903  092B                     u2351:
  7904  092B  2950               	goto	l2499
  7905  092C                     u2350:
  7906  092C                     l2497:
  7907  092C  3000               	movlw	0
  7908  092D  00F8               	movwf	??___flge
  7909  092E  3000               	movlw	0
  7910  092F  00F9               	movwf	??___flge+1
  7911  0930  3000               	movlw	0
  7912  0931  00FA               	movwf	??___flge+2
  7913  0932  3080               	movlw	128
  7914  0933  00FB               	movwf	??___flge+3
  7915  0934  0870               	movf	___flge@ff1,w
  7916  0935  02F8               	subwf	??___flge,f
  7917  0936  0871               	movf	___flge@ff1+1,w
  7918  0937  1C03               	skipc
  7919  0938  0F71               	incfsz	___flge@ff1+1,w
  7920  0939  293B               	goto	u2361
  7921  093A  293C               	goto	u2362
  7922  093B                     u2361:
  7923  093B  02F9               	subwf	??___flge+1,f
  7924  093C                     u2362:
  7925  093C  0872               	movf	___flge@ff1+2,w
  7926  093D  1C03               	skipc
  7927  093E  0F72               	incfsz	___flge@ff1+2,w
  7928  093F  2941               	goto	u2363
  7929  0940  2942               	goto	u2364
  7930  0941                     u2363:
  7931  0941  02FA               	subwf	??___flge+2,f
  7932  0942                     u2364:
  7933  0942  0873               	movf	___flge@ff1+3,w
  7934  0943  1C03               	skipc
  7935  0944  0F73               	incfsz	___flge@ff1+3,w
  7936  0945  2947               	goto	u2365
  7937  0946  2948               	goto	u2366
  7938  0947                     u2365:
  7939  0947  02FB               	subwf	??___flge+3,f
  7940  0948                     u2366:
  7941  0948  087B               	movf	??___flge+3,w
  7942  0949  00F3               	movwf	___flge@ff1+3
  7943  094A  087A               	movf	??___flge+2,w
  7944  094B  00F2               	movwf	___flge@ff1+2
  7945  094C  0879               	movf	??___flge+1,w
  7946  094D  00F1               	movwf	___flge@ff1+1
  7947  094E  0878               	movf	??___flge,w
  7948  094F  00F0               	movwf	___flge@ff1
  7949  0950                     l2499:
  7950  0950  1FF7               	btfss	___flge@ff2+3,7
  7951  0951  2953               	goto	u2371
  7952  0952  2954               	goto	u2370
  7953  0953                     u2371:
  7954  0953  2978               	goto	l640
  7955  0954                     u2370:
  7956  0954                     l2501:
  7957  0954  3000               	movlw	0
  7958  0955  00F8               	movwf	??___flge
  7959  0956  3000               	movlw	0
  7960  0957  00F9               	movwf	??___flge+1
  7961  0958  3000               	movlw	0
  7962  0959  00FA               	movwf	??___flge+2
  7963  095A  3080               	movlw	128
  7964  095B  00FB               	movwf	??___flge+3
  7965  095C  0874               	movf	___flge@ff2,w
  7966  095D  02F8               	subwf	??___flge,f
  7967  095E  0875               	movf	___flge@ff2+1,w
  7968  095F  1C03               	skipc
  7969  0960  0F75               	incfsz	___flge@ff2+1,w
  7970  0961  2963               	goto	u2381
  7971  0962  2964               	goto	u2382
  7972  0963                     u2381:
  7973  0963  02F9               	subwf	??___flge+1,f
  7974  0964                     u2382:
  7975  0964  0876               	movf	___flge@ff2+2,w
  7976  0965  1C03               	skipc
  7977  0966  0F76               	incfsz	___flge@ff2+2,w
  7978  0967  2969               	goto	u2383
  7979  0968  296A               	goto	u2384
  7980  0969                     u2383:
  7981  0969  02FA               	subwf	??___flge+2,f
  7982  096A                     u2384:
  7983  096A  0877               	movf	___flge@ff2+3,w
  7984  096B  1C03               	skipc
  7985  096C  0F77               	incfsz	___flge@ff2+3,w
  7986  096D  296F               	goto	u2385
  7987  096E  2970               	goto	u2386
  7988  096F                     u2385:
  7989  096F  02FB               	subwf	??___flge+3,f
  7990  0970                     u2386:
  7991  0970  087B               	movf	??___flge+3,w
  7992  0971  00F7               	movwf	___flge@ff2+3
  7993  0972  087A               	movf	??___flge+2,w
  7994  0973  00F6               	movwf	___flge@ff2+2
  7995  0974  0879               	movf	??___flge+1,w
  7996  0975  00F5               	movwf	___flge@ff2+1
  7997  0976  0878               	movf	??___flge,w
  7998  0977  00F4               	movwf	___flge@ff2
  7999  0978                     l640:
  8000  0978  3080               	movlw	128
  8001  0979  06F3               	xorwf	___flge@ff1+3,f
  8002  097A  3080               	movlw	128
  8003  097B  06F7               	xorwf	___flge@ff2+3,f
  8004  097C  0877               	movf	___flge@ff2+3,w
  8005  097D  0273               	subwf	___flge@ff1+3,w
  8006  097E  1D03               	skipz
  8007  097F  298A               	goto	u2395
  8008  0980  0876               	movf	___flge@ff2+2,w
  8009  0981  0272               	subwf	___flge@ff1+2,w
  8010  0982  1D03               	skipz
  8011  0983  298A               	goto	u2395
  8012  0984  0875               	movf	___flge@ff2+1,w
  8013  0985  0271               	subwf	___flge@ff1+1,w
  8014  0986  1D03               	skipz
  8015  0987  298A               	goto	u2395
  8016  0988  0874               	movf	___flge@ff2,w
  8017  0989  0270               	subwf	___flge@ff1,w
  8018  098A                     u2395:
  8019  098A  1803               	skipnc
  8020  098B  298D               	goto	u2391
  8021  098C  298E               	goto	u2390
  8022  098D                     u2391:
  8023  098D  2990               	goto	l2505
  8024  098E                     u2390:
  8025  098E                     l2503:
  8026  098E  1003               	clrc
  8027  098F  2991               	goto	l641
  8028  0990                     l2505:
  8029  0990  1403               	setc
  8030  0991                     l641:
  8031  0991  0008               	return
  8032  0992                     __end_of___flge:
  8033                           
  8034                           	psect	text24
  8035  168D                     __ptext24:	
  8036 ;; *************** function _confereTeclado *****************
  8037 ;; Defined at:
  8038 ;;		line 185 in file "main.c"
  8039 ;; Parameters:    Size  Location     Type
  8040 ;;  numero          2    0[COMMON] unsigned int 
  8041 ;; Auto vars:     Size  Location     Type
  8042 ;;		None
  8043 ;; Return value:  Size  Location     Type
  8044 ;;                  1    wreg      unsigned char 
  8045 ;; Registers used:
  8046 ;;		wreg, fsr0l, fsr0h, status,2, status,0
  8047 ;; Tracked objects:
  8048 ;;		On entry : 0/0
  8049 ;;		On exit  : 0/0
  8050 ;;		Unchanged: 0/0
  8051 ;; Data sizes:     COMMON   BANK0   BANK1   BANK3   BANK2
  8052 ;;      Params:         2       0       0       0       0
  8053 ;;      Locals:         0       0       0       0       0
  8054 ;;      Temps:          0       0       0       0       0
  8055 ;;      Totals:         2       0       0       0       0
  8056 ;;Total ram usage:        2 bytes
  8057 ;; Hardware stack levels used: 1
  8058 ;; This function calls:
  8059 ;;		Nothing
  8060 ;; This function is called by:
  8061 ;;		_inputSenhaAlter
  8062 ;;		_validaUser
  8063 ;; This function uses a non-reentrant model
  8064 ;;
  8065                           
  8066                           
  8067                           ;psect for function _confereTeclado
  8068  168D                     _confereTeclado:
  8069  168D                     l2713:	
  8070                           ;incstack = 0
  8071                           ; Regs used in _confereTeclado: [wreg-fsr0h+status,2+status,0]
  8072                           
  8073                           
  8074                           ;main.c: 186:    switch (numero){
  8075  168D  2ED4               	goto	l2737
  8076  168E                     l2715:
  8077                           
  8078                           ;main.c: 188:             aux = '1';
  8079  168E  3031               	movlw	49
  8080  168F  1283               	bcf	3,5	;RP0=0, select bank0
  8081  1690  1303               	bcf	3,6	;RP1=0, select bank0
  8082  1691  00EA               	movwf	_aux
  8083  1692  3000               	movlw	0
  8084  1693  00EB               	movwf	_aux+1
  8085                           
  8086                           ;main.c: 189:         break;
  8087  1694  2EF9               	goto	l2739
  8088  1695                     l2717:
  8089                           
  8090                           ;main.c: 191:             aux = '2';
  8091  1695  3032               	movlw	50
  8092  1696  1283               	bcf	3,5	;RP0=0, select bank0
  8093  1697  1303               	bcf	3,6	;RP1=0, select bank0
  8094  1698  00EA               	movwf	_aux
  8095  1699  3000               	movlw	0
  8096  169A  00EB               	movwf	_aux+1
  8097                           
  8098                           ;main.c: 192:         break;
  8099  169B  2EF9               	goto	l2739
  8100  169C                     l2719:
  8101                           
  8102                           ;main.c: 194:             aux = '3';
  8103  169C  3033               	movlw	51
  8104  169D  1283               	bcf	3,5	;RP0=0, select bank0
  8105  169E  1303               	bcf	3,6	;RP1=0, select bank0
  8106  169F  00EA               	movwf	_aux
  8107  16A0  3000               	movlw	0
  8108  16A1  00EB               	movwf	_aux+1
  8109                           
  8110                           ;main.c: 195:         break;
  8111  16A2  2EF9               	goto	l2739
  8112  16A3                     l2721:
  8113                           
  8114                           ;main.c: 197:             aux = '4';
  8115  16A3  3034               	movlw	52
  8116  16A4  1283               	bcf	3,5	;RP0=0, select bank0
  8117  16A5  1303               	bcf	3,6	;RP1=0, select bank0
  8118  16A6  00EA               	movwf	_aux
  8119  16A7  3000               	movlw	0
  8120  16A8  00EB               	movwf	_aux+1
  8121                           
  8122                           ;main.c: 198:         break;
  8123  16A9  2EF9               	goto	l2739
  8124  16AA                     l2723:
  8125                           
  8126                           ;main.c: 200:             aux = '5';
  8127  16AA  3035               	movlw	53
  8128  16AB  1283               	bcf	3,5	;RP0=0, select bank0
  8129  16AC  1303               	bcf	3,6	;RP1=0, select bank0
  8130  16AD  00EA               	movwf	_aux
  8131  16AE  3000               	movlw	0
  8132  16AF  00EB               	movwf	_aux+1
  8133                           
  8134                           ;main.c: 201:         break;
  8135  16B0  2EF9               	goto	l2739
  8136  16B1                     l2725:
  8137                           
  8138                           ;main.c: 203:             aux = '6';
  8139  16B1  3036               	movlw	54
  8140  16B2  1283               	bcf	3,5	;RP0=0, select bank0
  8141  16B3  1303               	bcf	3,6	;RP1=0, select bank0
  8142  16B4  00EA               	movwf	_aux
  8143  16B5  3000               	movlw	0
  8144  16B6  00EB               	movwf	_aux+1
  8145                           
  8146                           ;main.c: 204:         break;
  8147  16B7  2EF9               	goto	l2739
  8148  16B8                     l2727:
  8149                           
  8150                           ;main.c: 206:             aux = '7';
  8151  16B8  3037               	movlw	55
  8152  16B9  1283               	bcf	3,5	;RP0=0, select bank0
  8153  16BA  1303               	bcf	3,6	;RP1=0, select bank0
  8154  16BB  00EA               	movwf	_aux
  8155  16BC  3000               	movlw	0
  8156  16BD  00EB               	movwf	_aux+1
  8157                           
  8158                           ;main.c: 207:         break;
  8159  16BE  2EF9               	goto	l2739
  8160  16BF                     l2729:
  8161                           
  8162                           ;main.c: 209:             aux = '8';
  8163  16BF  3038               	movlw	56
  8164  16C0  1283               	bcf	3,5	;RP0=0, select bank0
  8165  16C1  1303               	bcf	3,6	;RP1=0, select bank0
  8166  16C2  00EA               	movwf	_aux
  8167  16C3  3000               	movlw	0
  8168  16C4  00EB               	movwf	_aux+1
  8169                           
  8170                           ;main.c: 210:         break;
  8171  16C5  2EF9               	goto	l2739
  8172  16C6                     l2731:
  8173                           
  8174                           ;main.c: 212:             aux = '9';
  8175  16C6  3039               	movlw	57
  8176  16C7  1283               	bcf	3,5	;RP0=0, select bank0
  8177  16C8  1303               	bcf	3,6	;RP1=0, select bank0
  8178  16C9  00EA               	movwf	_aux
  8179  16CA  3000               	movlw	0
  8180  16CB  00EB               	movwf	_aux+1
  8181                           
  8182                           ;main.c: 213:         break;
  8183  16CC  2EF9               	goto	l2739
  8184  16CD                     l2733:
  8185                           
  8186                           ;main.c: 215:             aux = '0';
  8187  16CD  3030               	movlw	48
  8188  16CE  1283               	bcf	3,5	;RP0=0, select bank0
  8189  16CF  1303               	bcf	3,6	;RP1=0, select bank0
  8190  16D0  00EA               	movwf	_aux
  8191  16D1  3000               	movlw	0
  8192  16D2  00EB               	movwf	_aux+1
  8193                           
  8194                           ;main.c: 216:         break;
  8195  16D3  2EF9               	goto	l2739
  8196  16D4                     l2737:
  8197                           
  8198                           ; Switch on 2 bytes has been partitioned into a top level switch of size 1, and 1 sub-sw
      +                          itches
  8199                           ; Switch size 1, requested type "simple"
  8200                           ; Number of cases is 1, Range of values is 0 to 0
  8201                           ; switch strategies available:
  8202                           ; Name         Instructions Cycles
  8203                           ; simple_byte            4     3 (average)
  8204                           ; direct_byte           11     8 (fixed)
  8205                           ; jumptable            260     6 (fixed)
  8206                           ;	Chosen strategy is simple_byte
  8207  16D4  0871               	movf	confereTeclado@numero+1,w
  8208  16D5  3A00               	xorlw	0	; case 0
  8209  16D6  1903               	skipnz
  8210  16D7  2ED9               	goto	l3997
  8211  16D8  2EF9               	goto	l2739
  8212  16D9                     l3997:
  8213                           
  8214                           ; Switch size 1, requested type "simple"
  8215                           ; Number of cases is 10, Range of values is 0 to 9
  8216                           ; switch strategies available:
  8217                           ; Name         Instructions Cycles
  8218                           ; simple_byte           31    16 (average)
  8219                           ; direct_byte           38     8 (fixed)
  8220                           ; jumptable            260     6 (fixed)
  8221                           ;	Chosen strategy is simple_byte
  8222  16D9  0870               	movf	confereTeclado@numero,w
  8223  16DA  3A00               	xorlw	0	; case 0
  8224  16DB  1903               	skipnz
  8225  16DC  2ECD               	goto	l2733
  8226  16DD  3A01               	xorlw	1	; case 1
  8227  16DE  1903               	skipnz
  8228  16DF  2E8E               	goto	l2715
  8229  16E0  3A03               	xorlw	3	; case 2
  8230  16E1  1903               	skipnz
  8231  16E2  2E95               	goto	l2717
  8232  16E3  3A01               	xorlw	1	; case 3
  8233  16E4  1903               	skipnz
  8234  16E5  2E9C               	goto	l2719
  8235  16E6  3A07               	xorlw	7	; case 4
  8236  16E7  1903               	skipnz
  8237  16E8  2EA3               	goto	l2721
  8238  16E9  3A01               	xorlw	1	; case 5
  8239  16EA  1903               	skipnz
  8240  16EB  2EAA               	goto	l2723
  8241  16EC  3A03               	xorlw	3	; case 6
  8242  16ED  1903               	skipnz
  8243  16EE  2EB1               	goto	l2725
  8244  16EF  3A01               	xorlw	1	; case 7
  8245  16F0  1903               	skipnz
  8246  16F1  2EB8               	goto	l2727
  8247  16F2  3A0F               	xorlw	15	; case 8
  8248  16F3  1903               	skipnz
  8249  16F4  2EBF               	goto	l2729
  8250  16F5  3A01               	xorlw	1	; case 9
  8251  16F6  1903               	skipnz
  8252  16F7  2EC6               	goto	l2731
  8253  16F8  2EF9               	goto	l2739
  8254  16F9                     l2739:
  8255                           
  8256                           ;main.c: 218:    return aux;
  8257  16F9  1283               	bcf	3,5	;RP0=0, select bank0
  8258  16FA  1303               	bcf	3,6	;RP1=0, select bank0
  8259  16FB  086A               	movf	_aux,w
  8260  16FC                     l244:
  8261  16FC  0008               	return
  8262  16FD                     __end_of_confereTeclado:
  8263                           
  8264                           	psect	text25
  8265  1475                     __ptext25:	
  8266 ;; *************** function _Linha2 *****************
  8267 ;; Defined at:
  8268 ;;		line 486 in file "main.c"
  8269 ;; Parameters:    Size  Location     Type
  8270 ;;		None
  8271 ;; Auto vars:     Size  Location     Type
  8272 ;;  i               2    7[COMMON] int 
  8273 ;; Return value:  Size  Location     Type
  8274 ;;                  1    wreg      void 
  8275 ;; Registers used:
  8276 ;;		wreg, fsr0l, fsr0h, status,2, status,0, btemp+1, pclath, cstack
  8277 ;; Tracked objects:
  8278 ;;		On entry : 0/0
  8279 ;;		On exit  : 0/0
  8280 ;;		Unchanged: 0/0
  8281 ;; Data sizes:     COMMON   BANK0   BANK1   BANK3   BANK2
  8282 ;;      Params:         0       0       0       0       0
  8283 ;;      Locals:         2       0       0       0       0
  8284 ;;      Temps:          2       0       0       0       0
  8285 ;;      Totals:         4       0       0       0       0
  8286 ;;Total ram usage:        4 bytes
  8287 ;; Hardware stack levels used: 1
  8288 ;; Hardware stack levels required when called: 3
  8289 ;; This function calls:
  8290 ;;		_LCD_escreve
  8291 ;;		_LCD_linha2
  8292 ;;		_espacoLivre
  8293 ;;		_strlen
  8294 ;; This function is called by:
  8295 ;;		_alteraSenhas
  8296 ;;		_validaUser
  8297 ;; This function uses a non-reentrant model
  8298 ;;
  8299                           
  8300                           
  8301                           ;psect for function _Linha2
  8302  1475                     _Linha2:
  8303  1475                     l3615:	
  8304                           ;incstack = 0
  8305                           ; Regs used in _Linha2: [wreg-fsr0h+status,2+status,0+btemp+1+pclath+cstack]
  8306                           
  8307                           
  8308                           ;main.c: 487:     LCD_linha2();
  8309  1475  160A  118A  2279  160A  118A  	fcall	_LCD_linha2
  8310                           
  8311                           ;main.c: 488:     espacoLivre();
  8312  147A  160A  118A  2317  160A  118A  	fcall	_espacoLivre
  8313  147F                     l3617:
  8314                           
  8315                           ;main.c: 489:     for (int i = 0; i <= strlen(msgMascara)-1; i++){
  8316  147F  01F7               	clrf	Linha2@i
  8317  1480  01F8               	clrf	Linha2@i+1
  8318  1481  2C92               	goto	l3623
  8319  1482                     l3619:
  8320                           
  8321                           ;main.c: 490:         LCD_escreve(msgMascara[i]);
  8322  1482  0877               	movf	Linha2@i,w
  8323  1483  3EDA               	addlw	(low (_msgMascara| 0))& (0+255)
  8324  1484  0084               	movwf	4
  8325  1485  1383               	bcf	3,7	;select IRP bank1
  8326  1486  0800               	movf	0,w
  8327  1487  160A  118A  22A9  160A  118A  	fcall	_LCD_escreve
  8328  148C                     l3621:
  8329                           
  8330                           ;main.c: 491:     }
  8331  148C  3001               	movlw	1
  8332  148D  07F7               	addwf	Linha2@i,f
  8333  148E  1803               	skipnc
  8334  148F  0AF8               	incf	Linha2@i+1,f
  8335  1490  3000               	movlw	0
  8336  1491  07F8               	addwf	Linha2@i+1,f
  8337  1492                     l3623:
  8338  1492  30DA               	movlw	(low (_msgMascara| 0))& (0+255)
  8339  1493  00F0               	movwf	strlen@s
  8340  1494  3000               	movlw	0
  8341  1495  00F1               	movwf	strlen@s+1
  8342  1496  160A  118A  22F9  160A  118A  	fcall	_strlen
  8343  149B  0870               	movf	?_strlen,w
  8344  149C  3EFF               	addlw	255
  8345  149D  00F5               	movwf	??_Linha2
  8346  149E  0871               	movf	?_strlen+1,w
  8347  149F  1803               	skipnc
  8348  14A0  3E01               	addlw	1
  8349  14A1  3EFF               	addlw	255
  8350  14A2  00F6               	movwf	??_Linha2+1
  8351  14A3  0878               	movf	Linha2@i+1,w
  8352  14A4  0276               	subwf	??_Linha2+1,w
  8353  14A5  1D03               	skipz
  8354  14A6  2CA9               	goto	u3775
  8355  14A7  0877               	movf	Linha2@i,w
  8356  14A8  0275               	subwf	??_Linha2,w
  8357  14A9                     u3775:
  8358  14A9  1803               	skipnc
  8359  14AA  2CAC               	goto	u3771
  8360  14AB  2CAD               	goto	u3770
  8361  14AC                     u3771:
  8362  14AC  2C82               	goto	l3619
  8363  14AD                     u3770:
  8364  14AD                     l3625:
  8365                           
  8366                           ;main.c: 492:     espacoLivre();
  8367  14AD  160A  118A  2317  160A  118A  	fcall	_espacoLivre
  8368  14B2                     l321:
  8369  14B2  0008               	return
  8370  14B3                     __end_of_Linha2:
  8371                           
  8372                           	psect	text26
  8373  12F9                     __ptext26:	
  8374 ;; *************** function _strlen *****************
  8375 ;; Defined at:
  8376 ;;		line 4 in file "C:\Program Files\Microchip\xc8\v2.32\pic\sources\c90\common\strlen.c"
  8377 ;; Parameters:    Size  Location     Type
  8378 ;;  s               2    0[COMMON] PTR const unsigned char 
  8379 ;;		 -> msgMascara(5), msgDigiteSenha(15), 
  8380 ;; Auto vars:     Size  Location     Type
  8381 ;;  cp              2    2[COMMON] PTR const unsigned char 
  8382 ;;		 -> msgMascara(5), msgDigiteSenha(15), 
  8383 ;; Return value:  Size  Location     Type
  8384 ;;                  2    0[COMMON] unsigned int 
  8385 ;; Registers used:
  8386 ;;		wreg, fsr0l, fsr0h, status,2, status,0
  8387 ;; Tracked objects:
  8388 ;;		On entry : 0/0
  8389 ;;		On exit  : 0/0
  8390 ;;		Unchanged: 0/0
  8391 ;; Data sizes:     COMMON   BANK0   BANK1   BANK3   BANK2
  8392 ;;      Params:         2       0       0       0       0
  8393 ;;      Locals:         2       0       0       0       0
  8394 ;;      Temps:          0       0       0       0       0
  8395 ;;      Totals:         4       0       0       0       0
  8396 ;;Total ram usage:        4 bytes
  8397 ;; Hardware stack levels used: 1
  8398 ;; This function calls:
  8399 ;;		Nothing
  8400 ;; This function is called by:
  8401 ;;		_telaInicial
  8402 ;;		_Linha2
  8403 ;; This function uses a non-reentrant model
  8404 ;;
  8405                           
  8406                           
  8407                           ;psect for function _strlen
  8408  12F9                     _strlen:
  8409  12F9                     l3581:	
  8410                           ;incstack = 0
  8411                           ; Regs used in _strlen: [wreg-fsr0h+status,2+status,0]
  8412                           
  8413  12F9  0870               	movf	strlen@s,w
  8414  12FA  00F2               	movwf	strlen@cp
  8415  12FB  0871               	movf	strlen@s+1,w
  8416  12FC  00F3               	movwf	strlen@cp+1
  8417  12FD  2B04               	goto	l3585
  8418  12FE                     l3583:
  8419  12FE  3001               	movlw	1
  8420  12FF  07F2               	addwf	strlen@cp,f
  8421  1300  1803               	skipnc
  8422  1301  0AF3               	incf	strlen@cp+1,f
  8423  1302  3000               	movlw	0
  8424  1303  07F3               	addwf	strlen@cp+1,f
  8425  1304                     l3585:
  8426  1304  0872               	movf	strlen@cp,w
  8427  1305  0084               	movwf	4
  8428  1306  1783               	bsf	3,7
  8429  1307  1C73               	btfss	strlen@cp+1,0
  8430  1308  1383               	bcf	3,7
  8431  1309  0800               	movf	0,w
  8432  130A  1D03               	btfss	3,2
  8433  130B  2B0D               	goto	u3751
  8434  130C  2B0E               	goto	u3750
  8435  130D                     u3751:
  8436  130D  2AFE               	goto	l3583
  8437  130E                     u3750:
  8438  130E                     l3587:
  8439  130E  0870               	movf	strlen@s,w
  8440  130F  0272               	subwf	strlen@cp,w
  8441  1310  00F0               	movwf	?_strlen
  8442  1311  0871               	movf	strlen@s+1,w
  8443  1312  1C03               	skipc
  8444  1313  0A71               	incf	strlen@s+1,w
  8445  1314  0273               	subwf	strlen@cp+1,w
  8446  1315  00F1               	movwf	?_strlen+1
  8447  1316                     l925:
  8448  1316  0008               	return
  8449  1317                     __end_of_strlen:
  8450                           
  8451                           	psect	text27
  8452  1317                     __ptext27:	
  8453 ;; *************** function _espacoLivre *****************
  8454 ;; Defined at:
  8455 ;;		line 494 in file "main.c"
  8456 ;; Parameters:    Size  Location     Type
  8457 ;;		None
  8458 ;; Auto vars:     Size  Location     Type
  8459 ;;  i               2    3[COMMON] int 
  8460 ;; Return value:  Size  Location     Type
  8461 ;;                  1    wreg      void 
  8462 ;; Registers used:
  8463 ;;		wreg, status,2, status,0, btemp+1, pclath, cstack
  8464 ;; Tracked objects:
  8465 ;;		On entry : 0/0
  8466 ;;		On exit  : 0/0
  8467 ;;		Unchanged: 0/0
  8468 ;; Data sizes:     COMMON   BANK0   BANK1   BANK3   BANK2
  8469 ;;      Params:         0       0       0       0       0
  8470 ;;      Locals:         2       0       0       0       0
  8471 ;;      Temps:          0       0       0       0       0
  8472 ;;      Totals:         2       0       0       0       0
  8473 ;;Total ram usage:        2 bytes
  8474 ;; Hardware stack levels used: 1
  8475 ;; Hardware stack levels required when called: 2
  8476 ;; This function calls:
  8477 ;;		_LCD_escreve
  8478 ;;		_LCD_linha2
  8479 ;; This function is called by:
  8480 ;;		_Linha2
  8481 ;; This function uses a non-reentrant model
  8482 ;;
  8483                           
  8484                           
  8485                           ;psect for function _espacoLivre
  8486  1317                     _espacoLivre:
  8487  1317                     l2995:	
  8488                           ;incstack = 0
  8489                           ; Regs used in _espacoLivre: [wreg+status,2+status,0+btemp+1+pclath+cstack]
  8490                           
  8491                           
  8492                           ;main.c: 495:     LCD_linha2();
  8493  1317  160A  118A  2279  160A  118A  	fcall	_LCD_linha2
  8494  131C                     l2997:
  8495                           
  8496                           ;main.c: 496:     for (int i = 0; i < 6; i++){
  8497  131C  01F3               	clrf	espacoLivre@i
  8498  131D  01F4               	clrf	espacoLivre@i+1
  8499  131E                     l3003:
  8500                           
  8501                           ;main.c: 497:         LCD_escreve(' ');
  8502  131E  3020               	movlw	32
  8503  131F  160A  118A  22A9  160A  118A  	fcall	_LCD_escreve
  8504  1324                     l3005:
  8505                           
  8506                           ;main.c: 498:     }
  8507  1324  3001               	movlw	1
  8508  1325  07F3               	addwf	espacoLivre@i,f
  8509  1326  1803               	skipnc
  8510  1327  0AF4               	incf	espacoLivre@i+1,f
  8511  1328  3000               	movlw	0
  8512  1329  07F4               	addwf	espacoLivre@i+1,f
  8513  132A                     l3007:
  8514  132A  0874               	movf	espacoLivre@i+1,w
  8515  132B  3A80               	xorlw	128
  8516  132C  00FF               	movwf	btemp+1
  8517  132D  3080               	movlw	128
  8518  132E  027F               	subwf	btemp+1,w
  8519  132F  1D03               	skipz
  8520  1330  2B33               	goto	u3135
  8521  1331  3006               	movlw	6
  8522  1332  0273               	subwf	espacoLivre@i,w
  8523  1333                     u3135:
  8524  1333  1C03               	skipc
  8525  1334  2B36               	goto	u3131
  8526  1335  2B37               	goto	u3130
  8527  1336                     u3131:
  8528  1336  2B1E               	goto	l3003
  8529  1337                     u3130:
  8530  1337                     l326:
  8531  1337  0008               	return
  8532  1338                     __end_of_espacoLivre:
  8533                           
  8534                           	psect	text28
  8535  1279                     __ptext28:	
  8536 ;; *************** function _LCD_linha2 *****************
  8537 ;; Defined at:
  8538 ;;		line 73 in file "./lcd.h"
  8539 ;; Parameters:    Size  Location     Type
  8540 ;;		None
  8541 ;; Auto vars:     Size  Location     Type
  8542 ;;		None
  8543 ;; Return value:  Size  Location     Type
  8544 ;;                  1    wreg      void 
  8545 ;; Registers used:
  8546 ;;		wreg, status,2, status,0, btemp+1, pclath, cstack
  8547 ;; Tracked objects:
  8548 ;;		On entry : 0/0
  8549 ;;		On exit  : 0/0
  8550 ;;		Unchanged: 0/0
  8551 ;; Data sizes:     COMMON   BANK0   BANK1   BANK3   BANK2
  8552 ;;      Params:         0       0       0       0       0
  8553 ;;      Locals:         0       0       0       0       0
  8554 ;;      Temps:          0       0       0       0       0
  8555 ;;      Totals:         0       0       0       0       0
  8556 ;;Total ram usage:        0 bytes
  8557 ;; Hardware stack levels used: 1
  8558 ;; Hardware stack levels required when called: 1
  8559 ;; This function calls:
  8560 ;;		_delay
  8561 ;; This function is called by:
  8562 ;;		_infoZonas
  8563 ;;		_valida_senha
  8564 ;;		_rotinaValidaSenha
  8565 ;;		_Linha2
  8566 ;;		_espacoLivre
  8567 ;;		_listaZonas
  8568 ;; This function uses a non-reentrant model
  8569 ;;
  8570                           
  8571                           
  8572                           ;psect for function _LCD_linha2
  8573  1279                     _LCD_linha2:
  8574  1279                     l2679:	
  8575                           ;incstack = 0
  8576                           ; Regs used in _LCD_linha2: [wreg+status,2+status,0+btemp+1+pclath+cstack]
  8577                           
  8578                           
  8579                           ;./lcd.h: 74:     PORTD = 0xC0;
  8580  1279  30C0               	movlw	192
  8581  127A  1283               	bcf	3,5	;RP0=0, select bank0
  8582  127B  1303               	bcf	3,6	;RP1=0, select bank0
  8583  127C  0088               	movwf	8	;volatile
  8584  127D                     l2681:
  8585                           
  8586                           ;./lcd.h: 75:     RA5 = 0;
  8587  127D  1285               	bcf	5,5	;volatile
  8588  127E                     l2683:
  8589                           
  8590                           ;./lcd.h: 76:     RA4 = 0;
  8591  127E  1205               	bcf	5,4	;volatile
  8592  127F                     l2685:
  8593                           
  8594                           ;./lcd.h: 77:     RA3=0;
  8595  127F  1185               	bcf	5,3	;volatile
  8596  1280                     l2687:
  8597                           
  8598                           ;./lcd.h: 78:     delay();
  8599  1280  160A  118A  22CD  160A  118A  	fcall	_delay
  8600  1285                     l2689:
  8601                           
  8602                           ;./lcd.h: 79:  RA3 = 1;
  8603  1285  1283               	bcf	3,5	;RP0=0, select bank0
  8604  1286  1303               	bcf	3,6	;RP1=0, select bank0
  8605  1287  1585               	bsf	5,3	;volatile
  8606  1288                     l92:
  8607  1288  0008               	return
  8608  1289                     __end_of_LCD_linha2:
  8609                           
  8610                           	psect	text29
  8611  12A9                     __ptext29:	
  8612 ;; *************** function _LCD_escreve *****************
  8613 ;; Defined at:
  8614 ;;		line 46 in file "./lcd.h"
  8615 ;; Parameters:    Size  Location     Type
  8616 ;;  x               1    wreg     unsigned char 
  8617 ;; Auto vars:     Size  Location     Type
  8618 ;;  x               1    2[COMMON] unsigned char 
  8619 ;; Return value:  Size  Location     Type
  8620 ;;                  1    wreg      void 
  8621 ;; Registers used:
  8622 ;;		wreg, status,2, status,0, btemp+1, pclath, cstack
  8623 ;; Tracked objects:
  8624 ;;		On entry : 0/0
  8625 ;;		On exit  : 0/0
  8626 ;;		Unchanged: 0/0
  8627 ;; Data sizes:     COMMON   BANK0   BANK1   BANK3   BANK2
  8628 ;;      Params:         0       0       0       0       0
  8629 ;;      Locals:         1       0       0       0       0
  8630 ;;      Temps:          0       0       0       0       0
  8631 ;;      Totals:         1       0       0       0       0
  8632 ;;Total ram usage:        1 bytes
  8633 ;; Hardware stack levels used: 1
  8634 ;; Hardware stack levels required when called: 1
  8635 ;; This function calls:
  8636 ;;		_delay
  8637 ;; This function is called by:
  8638 ;;		_valida_senha
  8639 ;;		_teclado
  8640 ;;		_telaInicial
  8641 ;;		_Linha2
  8642 ;;		_espacoLivre
  8643 ;;		_listaZonas
  8644 ;;		_escreveMesagem
  8645 ;;		_LCD_escreveFrase
  8646 ;; This function uses a non-reentrant model
  8647 ;;
  8648                           
  8649                           
  8650                           ;psect for function _LCD_escreve
  8651  12A9                     _LCD_escreve:
  8652                           
  8653                           ;incstack = 0
  8654                           ; Regs used in _LCD_escreve: [wreg+status,2+status,0+btemp+1+pclath+cstack]
  8655                           ;LCD_escreve@x stored from wreg
  8656  12A9  00F2               	movwf	LCD_escreve@x
  8657  12AA                     l2477:
  8658                           
  8659                           ;./lcd.h: 46: void LCD_escreve(char x);./lcd.h: 47: {;./lcd.h: 48:  PORTD = x;
  8660  12AA  0872               	movf	LCD_escreve@x,w
  8661  12AB  1283               	bcf	3,5	;RP0=0, select bank0
  8662  12AC  1303               	bcf	3,6	;RP1=0, select bank0
  8663  12AD  0088               	movwf	8	;volatile
  8664  12AE                     l2479:
  8665                           
  8666                           ;./lcd.h: 49:  RA5 = 1;
  8667  12AE  1685               	bsf	5,5	;volatile
  8668  12AF                     l2481:
  8669                           
  8670                           ;./lcd.h: 50:  RA4 = 0;
  8671  12AF  1205               	bcf	5,4	;volatile
  8672  12B0                     l2483:
  8673                           
  8674                           ;./lcd.h: 51:  RA3 = 0;
  8675  12B0  1185               	bcf	5,3	;volatile
  8676  12B1                     l2485:
  8677                           
  8678                           ;./lcd.h: 52:  delay();
  8679  12B1  160A  118A  22CD  160A  118A  	fcall	_delay
  8680  12B6                     l2487:
  8681                           
  8682                           ;./lcd.h: 53:  RA3 = 1;
  8683  12B6  1283               	bcf	3,5	;RP0=0, select bank0
  8684  12B7  1303               	bcf	3,6	;RP1=0, select bank0
  8685  12B8  1585               	bsf	5,3	;volatile
  8686  12B9                     l83:
  8687  12B9  0008               	return
  8688  12BA                     __end_of_LCD_escreve:
  8689                           
  8690                           	psect	text30
  8691  140B                     __ptext30:	
  8692 ;; *************** function _LCD_init *****************
  8693 ;; Defined at:
  8694 ;;		line 31 in file "./lcd.h"
  8695 ;; Parameters:    Size  Location     Type
  8696 ;;		None
  8697 ;; Auto vars:     Size  Location     Type
  8698 ;;		None
  8699 ;; Return value:  Size  Location     Type
  8700 ;;                  1    wreg      void 
  8701 ;; Registers used:
  8702 ;;		wreg, status,2, status,0, btemp+1, pclath, cstack
  8703 ;; Tracked objects:
  8704 ;;		On entry : 0/0
  8705 ;;		On exit  : 0/0
  8706 ;;		Unchanged: 0/0
  8707 ;; Data sizes:     COMMON   BANK0   BANK1   BANK3   BANK2
  8708 ;;      Params:         0       0       0       0       0
  8709 ;;      Locals:         0       0       0       0       0
  8710 ;;      Temps:          0       0       0       0       0
  8711 ;;      Totals:         0       0       0       0       0
  8712 ;;Total ram usage:        0 bytes
  8713 ;; Hardware stack levels used: 1
  8714 ;; Hardware stack levels required when called: 2
  8715 ;; This function calls:
  8716 ;;		_LCD_enable
  8717 ;;		_init
  8718 ;; This function is called by:
  8719 ;;		_main
  8720 ;;		_alteraSenhas
  8721 ;;		_validaUser
  8722 ;;		_listaZonas
  8723 ;; This function uses a non-reentrant model
  8724 ;;
  8725                           
  8726                           
  8727                           ;psect for function _LCD_init
  8728  140B                     _LCD_init:
  8729  140B                     l3009:	
  8730                           ;incstack = 0
  8731                           ; Regs used in _LCD_init: [wreg+status,2+status,0+btemp+1+pclath+cstack]
  8732                           
  8733                           
  8734                           ;./lcd.h: 33:     init();
  8735  140B  160A  118A  2252  160A  118A  	fcall	_init
  8736  1410                     l3011:
  8737                           
  8738                           ;./lcd.h: 34:  PORTD = 0X1;
  8739  1410  3001               	movlw	1
  8740  1411  1283               	bcf	3,5	;RP0=0, select bank0
  8741  1412  1303               	bcf	3,6	;RP1=0, select bank0
  8742  1413  0088               	movwf	8	;volatile
  8743  1414                     l3013:
  8744                           
  8745                           ;./lcd.h: 35:  LCD_enable();
  8746  1414  160A  118A  226B  160A  118A  	fcall	_LCD_enable
  8747  1419                     l3015:
  8748                           
  8749                           ;./lcd.h: 36:  PORTD = 0X38;
  8750  1419  3038               	movlw	56
  8751  141A  1283               	bcf	3,5	;RP0=0, select bank0
  8752  141B  1303               	bcf	3,6	;RP1=0, select bank0
  8753  141C  0088               	movwf	8	;volatile
  8754  141D                     l3017:
  8755                           
  8756                           ;./lcd.h: 37:  LCD_enable();
  8757  141D  160A  118A  226B  160A  118A  	fcall	_LCD_enable
  8758  1422                     l3019:
  8759                           
  8760                           ;./lcd.h: 38:  PORTD = 0X0e;
  8761  1422  300E               	movlw	14
  8762  1423  1283               	bcf	3,5	;RP0=0, select bank0
  8763  1424  1303               	bcf	3,6	;RP1=0, select bank0
  8764  1425  0088               	movwf	8	;volatile
  8765  1426                     l3021:
  8766                           
  8767                           ;./lcd.h: 39:  LCD_enable();
  8768  1426  160A  118A  226B  160A  118A  	fcall	_LCD_enable
  8769  142B                     l3023:
  8770                           
  8771                           ;./lcd.h: 40:  PORTD = 0X06;
  8772  142B  3006               	movlw	6
  8773  142C  1283               	bcf	3,5	;RP0=0, select bank0
  8774  142D  1303               	bcf	3,6	;RP1=0, select bank0
  8775  142E  0088               	movwf	8	;volatile
  8776  142F                     l3025:
  8777                           
  8778                           ;./lcd.h: 41:  LCD_enable();
  8779  142F  160A  118A  226B  160A  118A  	fcall	_LCD_enable
  8780  1434                     l3027:
  8781                           
  8782                           ;./lcd.h: 42:  PORTD = 0X80;
  8783  1434  3080               	movlw	128
  8784  1435  1283               	bcf	3,5	;RP0=0, select bank0
  8785  1436  1303               	bcf	3,6	;RP1=0, select bank0
  8786  1437  0088               	movwf	8	;volatile
  8787  1438                     l3029:
  8788                           
  8789                           ;./lcd.h: 43:  LCD_enable();
  8790  1438  160A  118A  226B  160A  118A  	fcall	_LCD_enable
  8791  143D                     l80:
  8792  143D  0008               	return
  8793  143E                     __end_of_LCD_init:
  8794                           
  8795                           	psect	text31
  8796  1252                     __ptext31:	
  8797 ;; *************** function _init *****************
  8798 ;; Defined at:
  8799 ;;		line 23 in file "./lcd.h"
  8800 ;; Parameters:    Size  Location     Type
  8801 ;;		None
  8802 ;; Auto vars:     Size  Location     Type
  8803 ;;		None
  8804 ;; Return value:  Size  Location     Type
  8805 ;;                  1    wreg      void 
  8806 ;; Registers used:
  8807 ;;		wreg, status,2
  8808 ;; Tracked objects:
  8809 ;;		On entry : 0/0
  8810 ;;		On exit  : 0/0
  8811 ;;		Unchanged: 0/0
  8812 ;; Data sizes:     COMMON   BANK0   BANK1   BANK3   BANK2
  8813 ;;      Params:         0       0       0       0       0
  8814 ;;      Locals:         0       0       0       0       0
  8815 ;;      Temps:          0       0       0       0       0
  8816 ;;      Totals:         0       0       0       0       0
  8817 ;;Total ram usage:        0 bytes
  8818 ;; Hardware stack levels used: 1
  8819 ;; This function calls:
  8820 ;;		Nothing
  8821 ;; This function is called by:
  8822 ;;		_LCD_init
  8823 ;; This function uses a non-reentrant model
  8824 ;;
  8825                           
  8826                           
  8827                           ;psect for function _init
  8828  1252                     _init:
  8829  1252                     l2949:	
  8830                           ;incstack = 0
  8831                           ; Regs used in _init: [wreg+status,2]
  8832                           
  8833                           
  8834                           ;./lcd.h: 25:  ADCON1 = 0X07;
  8835  1252  3007               	movlw	7
  8836  1253  1683               	bsf	3,5	;RP0=1, select bank1
  8837  1254  1303               	bcf	3,6	;RP1=0, select bank1
  8838  1255  009F               	movwf	31	;volatile
  8839  1256                     l2951:
  8840                           
  8841                           ;./lcd.h: 26:      RA1=1;
  8842  1256  1283               	bcf	3,5	;RP0=0, select bank0
  8843  1257  1303               	bcf	3,6	;RP1=0, select bank0
  8844  1258  1485               	bsf	5,1	;volatile
  8845  1259                     l2953:
  8846                           
  8847                           ;./lcd.h: 27:  TRISA = 0X00;
  8848  1259  1683               	bsf	3,5	;RP0=1, select bank1
  8849  125A  1303               	bcf	3,6	;RP1=0, select bank1
  8850  125B  0185               	clrf	5	;volatile
  8851  125C                     l2955:
  8852                           
  8853                           ;./lcd.h: 28:  TRISD = 0X00;
  8854  125C  0188               	clrf	8	;volatile
  8855  125D                     l77:
  8856  125D  0008               	return
  8857  125E                     __end_of_init:
  8858                           
  8859                           	psect	text32
  8860  126B                     __ptext32:	
  8861 ;; *************** function _LCD_enable *****************
  8862 ;; Defined at:
  8863 ;;		line 85 in file "./lcd.h"
  8864 ;; Parameters:    Size  Location     Type
  8865 ;;		None
  8866 ;; Auto vars:     Size  Location     Type
  8867 ;;		None
  8868 ;; Return value:  Size  Location     Type
  8869 ;;                  1    wreg      void 
  8870 ;; Registers used:
  8871 ;;		wreg, status,2, status,0, btemp+1, pclath, cstack
  8872 ;; Tracked objects:
  8873 ;;		On entry : 0/0
  8874 ;;		On exit  : 0/0
  8875 ;;		Unchanged: 0/0
  8876 ;; Data sizes:     COMMON   BANK0   BANK1   BANK3   BANK2
  8877 ;;      Params:         0       0       0       0       0
  8878 ;;      Locals:         0       0       0       0       0
  8879 ;;      Temps:          0       0       0       0       0
  8880 ;;      Totals:         0       0       0       0       0
  8881 ;;Total ram usage:        0 bytes
  8882 ;; Hardware stack levels used: 1
  8883 ;; Hardware stack levels required when called: 1
  8884 ;; This function calls:
  8885 ;;		_delay
  8886 ;; This function is called by:
  8887 ;;		_LCD_init
  8888 ;; This function uses a non-reentrant model
  8889 ;;
  8890                           
  8891                           
  8892                           ;psect for function _LCD_enable
  8893  126B                     _LCD_enable:
  8894  126B                     l2957:	
  8895                           ;incstack = 0
  8896                           ; Regs used in _LCD_enable: [wreg+status,2+status,0+btemp+1+pclath+cstack]
  8897                           
  8898                           
  8899                           ;./lcd.h: 87:  RA5 = 0;
  8900  126B  1283               	bcf	3,5	;RP0=0, select bank0
  8901  126C  1303               	bcf	3,6	;RP1=0, select bank0
  8902  126D  1285               	bcf	5,5	;volatile
  8903                           
  8904                           ;./lcd.h: 88:  RA4 = 0;
  8905  126E  1205               	bcf	5,4	;volatile
  8906                           
  8907                           ;./lcd.h: 89:  RA3 = 0;
  8908  126F  1185               	bcf	5,3	;volatile
  8909  1270                     l2959:
  8910                           
  8911                           ;./lcd.h: 90:  delay();
  8912  1270  160A  118A  22CD  160A  118A  	fcall	_delay
  8913  1275                     l2961:
  8914                           
  8915                           ;./lcd.h: 91:  RA3 = 1;
  8916  1275  1283               	bcf	3,5	;RP0=0, select bank0
  8917  1276  1303               	bcf	3,6	;RP1=0, select bank0
  8918  1277  1585               	bsf	5,3	;volatile
  8919  1278                     l95:
  8920  1278  0008               	return
  8921  1279                     __end_of_LCD_enable:
  8922                           
  8923                           	psect	text33
  8924  12CD                     __ptext33:	
  8925 ;; *************** function _delay *****************
  8926 ;; Defined at:
  8927 ;;		line 94 in file "./lcd.h"
  8928 ;; Parameters:    Size  Location     Type
  8929 ;;		None
  8930 ;; Auto vars:     Size  Location     Type
  8931 ;;  i               2    0[COMMON] int 
  8932 ;; Return value:  Size  Location     Type
  8933 ;;                  1    wreg      void 
  8934 ;; Registers used:
  8935 ;;		wreg, status,2, btemp+1
  8936 ;; Tracked objects:
  8937 ;;		On entry : 0/0
  8938 ;;		On exit  : 0/0
  8939 ;;		Unchanged: 0/0
  8940 ;; Data sizes:     COMMON   BANK0   BANK1   BANK3   BANK2
  8941 ;;      Params:         0       0       0       0       0
  8942 ;;      Locals:         2       0       0       0       0
  8943 ;;      Temps:          0       0       0       0       0
  8944 ;;      Totals:         2       0       0       0       0
  8945 ;;Total ram usage:        2 bytes
  8946 ;; Hardware stack levels used: 1
  8947 ;; This function calls:
  8948 ;;		Nothing
  8949 ;; This function is called by:
  8950 ;;		_LCD_escreve
  8951 ;;		_LCD_limpa
  8952 ;;		_LCD_linha1
  8953 ;;		_LCD_linha2
  8954 ;;		_LCD_enable
  8955 ;; This function uses a non-reentrant model
  8956 ;;
  8957                           
  8958                           
  8959                           ;psect for function _delay
  8960  12CD                     _delay:
  8961  12CD                     l2259:	
  8962                           ;incstack = 0
  8963                           ; Regs used in _delay: [wreg+status,2+btemp+1]
  8964                           
  8965                           
  8966                           ;./lcd.h: 96:  int i;;./lcd.h: 97:  for (i = 0;i < 5000;i++);
  8967  12CD  01F0               	clrf	delay@i
  8968  12CE  01F1               	clrf	delay@i+1
  8969  12CF                     l2265:
  8970  12CF  3001               	movlw	1
  8971  12D0  07F0               	addwf	delay@i,f
  8972  12D1  1803               	skipnc
  8973  12D2  0AF1               	incf	delay@i+1,f
  8974  12D3  3000               	movlw	0
  8975  12D4  07F1               	addwf	delay@i+1,f
  8976  12D5                     l2267:
  8977  12D5  0871               	movf	delay@i+1,w
  8978  12D6  3A80               	xorlw	128
  8979  12D7  00FF               	movwf	btemp+1
  8980  12D8  3093               	movlw	147
  8981  12D9  027F               	subwf	btemp+1,w
  8982  12DA  1D03               	skipz
  8983  12DB  2ADE               	goto	u1835
  8984  12DC  3088               	movlw	136
  8985  12DD  0270               	subwf	delay@i,w
  8986  12DE                     u1835:
  8987  12DE  1C03               	skipc
  8988  12DF  2AE1               	goto	u1831
  8989  12E0  2AE2               	goto	u1830
  8990  12E1                     u1831:
  8991  12E1  2ACF               	goto	l2265
  8992  12E2                     u1830:
  8993  12E2                     l100:
  8994  12E2  0008               	return
  8995  12E3                     __end_of_delay:
  8996  007E                     btemp	set	126	;btemp
  8997  007E                     wtemp0	set	126

Data Sizes:
    Strings     0
    Constant    0
    Data        269
    BSS         12
    Persistent  0
    Stack       0

Auto Spaces:
    Space          Size  Autos    Used
    COMMON           14     14      14
    BANK0            80     46      80
    BANK1            80      0      73
    BANK3            96      0      96
    BANK2            96      0      78

Pointer List with Targets:

    strlen@s	PTR const unsigned char  size(2) Largest target is 15
		 -> msgMascara(BANK1[5]), msgDigiteSenha(BANK2[15]), 

    strlen@cp	PTR const unsigned char  size(2) Largest target is 15
		 -> msgMascara(BANK1[5]), msgDigiteSenha(BANK2[15]), 

    strcmp@s2	PTR const unsigned char  size(1) Largest target is 5
		 -> senhaUserConfere(BANK0[5]), 

    strcmp@s1	PTR const unsigned char  size(1) Largest target is 5
		 -> senhaCoa(BANK1[5]), senhaUser(BANK0[5]), 

    escreveMesagem@texto	PTR unsigned char  size(2) Largest target is 17
		 -> msgReativar(BANK1[9]), msgDesativarZona(BANK3[15]), msgSenhaDisparo(BANK3[14]), msgSenhaCoacao(BANK3[13]), 
		 -> msgSenhaUsuario(BANK3[14]), msgSenhaConfig(BANK3[13]), msgSenhaCorreta(BANK3[14]), msgSenhaErrada(BANK3[13]), 
		 -> senhaCoa(BANK1[5]), senhaUser(BANK0[5]), senhaConfig(BANK1[5]), msgDigiteNovaSenha(BANK2[14]), 
		 -> msgSenhaCancelada(BANK2[16]), msgSenhaAtualizada(BANK2[17]), msgAceitoOuNego(BANK1[9]), msgValidaSenha(BANK2[16]), 
		 -> msgZonaDisparadas(BANK1[15]), msgConfigDispara(BANK1[15]), msgChamaAjuda(BANK1[10]), 

    rotinaValidaSenha@senhaOp	PTR unsigned char  size(1) Largest target is 5
		 -> senhaCoa(BANK1[5]), senhaUser(BANK0[5]), senhaConfig(BANK1[5]), 

    inputSenhaAlter@senhaDestino	PTR unsigned char  size(1) Largest target is 5
		 -> senhaCoa(BANK1[5]), senhaUser(BANK0[5]), senhaConfig(BANK1[5]), 

    valida_senha@texto	PTR unsigned char  size(1) Largest target is 5
		 -> senhaCoa(BANK1[5]), senhaUser(BANK0[5]), senhaConfig(BANK1[5]), 

    aux	PTR unsigned char  size(2) Largest target is 512
		 -> RAM(DATA[512]), RAM(DATA[512]), RAM(DATA[512]), RAM(DATA[512]), 
		 -> RAM(DATA[512]), RAM(DATA[512]), RAM(DATA[512]), RAM(DATA[512]), 
		 -> RAM(DATA[512]), RAM(DATA[512]), RAM(DATA[512]), RAM(DATA[512]), 
		 -> RAM(DATA[512]), NULL(NULL[0]), 

    setaZona@pos	PTR unsigned char  size(2) Largest target is 512
		 -> RAM(DATA[512]), 

    setaZona@msgConfigDispara	PTR unsigned char  size(1) Largest target is 15
		 -> msgConfigDispara(BANK1[15]), 

    setaZona@msgZonaDisparadas	PTR unsigned char  size(1) Largest target is 15
		 -> msgZonaDisparadas(BANK1[15]), 


Critical Paths under _main in COMMON

    _telaInicial->_strlen
    _configZonas->_infoZonas
    _infoZonas->_escreveMesagem
    _valida_senha->_escreveMesagem
    _escreveMesagem->_LCD_escreve
    _LCD_linha1->_delay
    _LCD_limpa->_delay
    _liga_buzzer->___flmul
    ___flsub->___fladd
    ___flmul->__Umul8_16
    _Linha2->_espacoLivre
    _espacoLivre->_LCD_escreve
    _LCD_linha2->_delay
    _LCD_escreve->_delay
    _LCD_enable->_delay

Critical Paths under _main in BANK0

    _main->_alteraSenhas
    _validaUser->_teclado
    _listaZonas->_liga_buzzer
    _alteraSenhas->_rotinaValidaSenha
    _rotinaValidaSenha->_inputSenhaAlter
    _inputSenhaAlter->_teclado
    _teclado->_liga_buzzer
    _liga_buzzer->___flmul
    ___flsub->___fladd

Critical Paths under _main in BANK1

    None.

Critical Paths under _main in BANK3

    None.

Critical Paths under _main in BANK2

    None.

Call Graph Tables:

 ---------------------------------------------------------------------------------
 (Depth) Function   	        Calls       Base Space   Used Autos Params    Refs
 ---------------------------------------------------------------------------------
 (0) _main                                                 3     3      0   45343
                                             43 BANK0      3     3      0
                           _LCD_init
                          _LCD_limpa
                         _LCD_linha1
                       _alteraSenhas
                        _configZonas
                     _escreveMesagem
                          _infoZonas
                          _inicioADC
                         _leituraADC
                        _liga_buzzer
                         _listaZonas
                         _validaUser
 ---------------------------------------------------------------------------------
 (1) _validaUser                                           6     6      0   11599
                                             30 BANK0      5     5      0
                           _LCD_init
                          _LCD_limpa
                         _LCD_linha1
                             _Linha2
                     _confereTeclado
                     _escreveMesagem
                           _setaZona
                             _strcmp
                            _teclado
                        _telaInicial
 ---------------------------------------------------------------------------------
 (2) _telaInicial                                          4     4      0     392
                                              4 COMMON     4     4      0
                        _LCD_escreve
                         _LCD_linha1
                             _strlen
 ---------------------------------------------------------------------------------
 (2) _strcmp                                               7     5      2     527
                                              0 COMMON     7     5      2
 ---------------------------------------------------------------------------------
 (1) _listaZonas                                           5     3      2    8626
                                             27 BANK0      5     3      2
                        _LCD_escreve
                           _LCD_init
                          _LCD_limpa
                         _LCD_linha1
                         _LCD_linha2
                     _escreveMesagem
                        _liga_buzzer
 ---------------------------------------------------------------------------------
 (1) _leituraADC                                           7     5      2      45
                                              0 COMMON     7     5      2
 ---------------------------------------------------------------------------------
 (1) _inicioADC                                            0     0      0       0
 ---------------------------------------------------------------------------------
 (1) _configZonas                                          4     4      0    2955
                                              0 BANK0      3     3      0
                          _infoZonas
                           _setaZona
 ---------------------------------------------------------------------------------
 (2) _setaZona                                            11     8      3    1480
                                              0 COMMON    11     8      3
 ---------------------------------------------------------------------------------
 (1) _infoZonas                                            3     3      0    1336
                                             10 COMMON     3     3      0
                          _LCD_limpa
                         _LCD_linha1
                         _LCD_linha2
                     _escreveMesagem
 ---------------------------------------------------------------------------------
 (1) _alteraSenhas                                         4     2      2   12546
                                             39 BANK0      4     2      2
                           _LCD_init
                          _LCD_limpa
                             _Linha2
                     _escreveMesagem
                  _rotinaValidaSenha
 ---------------------------------------------------------------------------------
 (2) _rotinaValidaSenha                                    4     4      0   10341
                                             35 BANK0      4     4      0
                          _LCD_limpa
                         _LCD_linha2
                     _escreveMesagem
                    _inputSenhaAlter
 ---------------------------------------------------------------------------------
 (3) _inputSenhaAlter                                      5     5      0    8881
                                             30 BANK0      5     5      0
                     _confereTeclado
                            _teclado
                       _valida_senha
 ---------------------------------------------------------------------------------
 (4) _valida_senha                                         8     6      2    1542
                                             10 COMMON     2     0      2
                                              0 BANK0      6     6      0
                        _LCD_escreve
                          _LCD_limpa
                         _LCD_linha1
                         _LCD_linha2
                     _escreveMesagem
 ---------------------------------------------------------------------------------
 (2) _escreveMesagem                                       7     5      2    1198
                                              3 COMMON     7     5      2
                        _LCD_escreve
 ---------------------------------------------------------------------------------
 (3) _LCD_linha1                                           0     0      0      46
                              _delay
 ---------------------------------------------------------------------------------
 (2) _LCD_limpa                                            0     0      0      46
                              _delay
 ---------------------------------------------------------------------------------
 (2) _teclado                                              3     3      0    6968
                                             27 BANK0      3     3      0
                        _LCD_escreve
                        _liga_buzzer
 ---------------------------------------------------------------------------------
 (3) _liga_buzzer                                          6     2      4    6900
                                             21 BANK0      6     2      4
                             ___flge
                            ___flmul
                            ___flsub
 ---------------------------------------------------------------------------------
 (4) ___flsub                                              8     0      8    2333
                                              8 BANK0      8     0      8
                            ___fladd
 ---------------------------------------------------------------------------------
 (5) ___fladd                                             20    12      8    2136
                                              0 COMMON    12     4      8
                                              0 BANK0      8     8      0
 ---------------------------------------------------------------------------------
 (4) ___flmul                                             26    18      8    2417
                                              9 COMMON     5     5      0
                                              0 BANK0     21    13      8
                          __Umul8_16
 ---------------------------------------------------------------------------------
 (5) __Umul8_16                                            9     7      2     799
                                              0 COMMON     9     7      2
 ---------------------------------------------------------------------------------
 (4) ___flge                                              12     4      8     334
                                              0 COMMON    12     4      8
 ---------------------------------------------------------------------------------
 (2) _confereTeclado                                       2     0      2     174
                                              0 COMMON     2     0      2
 ---------------------------------------------------------------------------------
 (2) _Linha2                                               4     4      0     552
                                              5 COMMON     4     4      0
                        _LCD_escreve
                         _LCD_linha2
                        _espacoLivre
                             _strlen
 ---------------------------------------------------------------------------------
 (3) _strlen                                               4     2      2     210
                                              0 COMMON     4     2      2
 ---------------------------------------------------------------------------------
 (3) _espacoLivre                                          2     2      0     160
                                              3 COMMON     2     2      0
                        _LCD_escreve
                         _LCD_linha2
 ---------------------------------------------------------------------------------
 (4) _LCD_linha2                                           0     0      0      46
                              _delay
 ---------------------------------------------------------------------------------
 (3) _LCD_escreve                                          1     1      0      68
                                              2 COMMON     1     1      0
                              _delay
 ---------------------------------------------------------------------------------
 (2) _LCD_init                                             0     0      0      46
                         _LCD_enable
                               _init
 ---------------------------------------------------------------------------------
 (3) _init                                                 0     0      0       0
 ---------------------------------------------------------------------------------
 (3) _LCD_enable                                           0     0      0      46
                              _delay
 ---------------------------------------------------------------------------------
 (4) _delay                                                2     2      0      46
                                              0 COMMON     2     2      0
 ---------------------------------------------------------------------------------
 Estimated maximum stack depth 5
 ---------------------------------------------------------------------------------

 Call Graph Graphs:

 _main (ROOT)
   _LCD_init
     _LCD_enable
       _delay
     _init
   _LCD_limpa
     _delay
   _LCD_linha1
     _delay
   _alteraSenhas
     _LCD_init
     _LCD_limpa
     _Linha2
       _LCD_escreve
         _delay
       _LCD_linha2
         _delay
       _espacoLivre
         _LCD_escreve
         _LCD_linha2
       _strlen
     _escreveMesagem
       _LCD_escreve
     _rotinaValidaSenha
       _LCD_limpa
       _LCD_linha2
       _escreveMesagem
       _inputSenhaAlter
         _confereTeclado
         _teclado
           _LCD_escreve
           _liga_buzzer
             ___flge
             ___flmul
               __Umul8_16
             ___flsub
               ___fladd
         _valida_senha
           _LCD_escreve
           _LCD_limpa
           _LCD_linha1
           _LCD_linha2
           _escreveMesagem
   _configZonas
     _infoZonas
       _LCD_limpa
       _LCD_linha1
       _LCD_linha2
       _escreveMesagem
     _setaZona
   _escreveMesagem
   _infoZonas
   _inicioADC
   _leituraADC
   _liga_buzzer
   _listaZonas
     _LCD_escreve
     _LCD_init
     _LCD_limpa
     _LCD_linha1
     _LCD_linha2
     _escreveMesagem
     _liga_buzzer
   _validaUser
     _LCD_init
     _LCD_limpa
     _LCD_linha1
     _Linha2
     _confereTeclado
     _escreveMesagem
     _setaZona
     _strcmp
     _teclado
     _telaInicial
       _LCD_escreve
       _LCD_linha1
       _strlen

 Address spaces:
Name               Size   Autos  Total    Cost      Usage
BANK3               60      0      60       9      100.0%
BITBANK3            60      0       0       8        0.0%
SFR3                 0      0       0       4        0.0%
BITSFR3              0      0       0       4        0.0%
BANK2               60      0      4E      11       81.2%
BITBANK2            60      0       0      10        0.0%
SFR2                 0      0       0       5        0.0%
BITSFR2              0      0       0       5        0.0%
BANK1               50      0      49       7       91.2%
BITBANK1            50      0       0       6        0.0%
SFR1                 0      0       0       2        0.0%
BITSFR1              0      0       0       2        0.0%
BANK0               50     2E      50       5      100.0%
BITBANK0            50      0       0       4        0.0%
SFR0                 0      0       0       1        0.0%
BITSFR0              0      0       0       1        0.0%
COMMON               E      E       E       1      100.0%
BITCOMMON            E      0       0       0        0.0%
CODE                 0      0       0       0        0.0%
DATA                 0      0     155      12        0.0%
ABS                  0      0     155       3        0.0%
NULL                 0      0       0       0        0.0%
STACK                0      0       0       2        0.0%
EEDATA             100      0       0       0        0.0%


Microchip Technology PIC Macro Assembler V2.32 build 20210201212658 
Symbol Table                                                                                   Mon Oct 04 04:50:08 2021

         _msgDigiteNovaSenha 0150                            pc 0002           ?_rotinaValidaSenha 0070  
                         l80 143D                           l83 12B9                           l92 1288  
                         l77 125D                           l86 1298                           l95 1278  
                         l89 12A8                           fsr 0004          __Umul8_16@word_mpld 0076  
            escreveMesagem@i 0078                  ?_LCD_enable 0070                          l100 12E2  
                        l210 0A44                          l304 03B2                          l216 0A4F  
                        l321 14B2                          l219 13DB                          l315 14F2  
                        l244 16FC                          l309 0458                          l253 17FF  
                        l261 162C                          l326 1337                          l342 015B  
                        l280 1778                          l249 17D4                          l266 153A  
                        l274 15D0                          l362 0D67                          l371 126A  
                        l374 13FC                          l640 0978                          l368 1474  
                        l641 0991                          l297 02FA                          l289 022C  
                        l377 140A                          l802 135B                          l637 090C  
                        l760 0E74                          l762 0E49                          l852 07B9  
                        l756 0DCB                          l925 1316                          l781 0F6B  
                        l790 0FCD                          l871 1370                          l919 13AC  
                        l864 07AD                          l873 1382                          l777 0F45  
                        l769 0FFF                          l858 0725                          l787 0F8D  
                        l798 0FF1                          l799 0FFF                          _RA1 0029  
                        _RB0 0030                          _RA3 002B                          _RB1 0031  
                        _RA4 002C                          _RB2 0032                          _RA5 002D  
                        _RB3 0033                  ?_LCD_linha1 0070                  ?_LCD_linha2 0070  
        ??_rotinaValidaSenha 0043                          _aux 006A                          fsr0 0004  
                        indf 0000                 ___flmul@aexp 002D                 ___flmul@bexp 002E  
               ___flmul@sign 0028                 ___flmul@temp 0033                 ___flmul@prod 002F  
    __size_of_escreveMesagem 0037                         l3011 1410                         l3003 131E  
                       l3021 1426                         l3013 1414                         l3005 1324  
                       l2301 0DAE                         l3023 142B                         l3015 1419  
                       l3007 132A                         l2303 0DB3                         l2311 0DC3  
                       l3025 142F                         l3017 141D                         l3009 140B  
                       l2401 0F37                         l2321 0DE1                         l2313 0DD1  
                       l2305 0DB8                         l3041 099B                         l3121 138D  
                       l3027 1434                         l3019 1422                         l2411 0F66  
                       l2403 0F4D                         l2331 0DF5                         l2323 0DE5  
                       l2315 0DD5                         l2307 0DC0                         l3051 09CD  
                       l3043 099E                         l3123 13A0                         l3115 1384  
                       l3029 1438                         l2501 0954                         l2421 0F79  
                       l2413 0F6A                         l2405 0F52                         l2341 0E09  
                       l2333 0DF9                         l2325 0DE9                         l2317 0DD9  
                       l2309 0DC1                         l3061 09F3                         l3045 09A9  
                       l3053 09D3                         l3221 1400                         l3125 13A7  
                       l3117 1385                         l2503 098E                         l2431 0F8A  
                       l2415 0F6F                         l2423 0F7B                         l2351 0E2D  
                       l2343 0E0D                         l2335 0DFD                         l2327 0DED  
                       l2319 0DDD                         l2271 0D6F                         l2511 133C  
                       l3071 0A35                         l3063 0A05                         l3047 09BB  
                       l3055 09D9                         l3039 0993                         l3215 13DD  
                       l3119 1389                         l2265 12CF                         l2505 0990  
                       l2601 06E8                         l2521 046A                         l2441 0FA9  
                       l2417 0F72                         l2409 0F5B                         l2425 0F7F  
                       l2361 0E5F                         l2353 0E4D                         l2345 0E11  
                       l2337 0E01                         l2329 0DF1                         l2281 0D84  
                       l2273 0D75                         l3073 0A3E                         l3065 0A0F  
                       l3049 09C4                         l3057 09E5                         l3129 125E  
                       l3217 13F0                         l2267 12D5                         l2259 12CD  
                       l2603 06F1                         l2611 0705                         l2531 047F  
                       l2523 046B                         l2515 0459                         l2451 0FE4  
                       l2443 0FC9                         l2435 0F92                         l2427 0F80  
                       l2419 0F74                         l2363 0E6A                         l2355 0E58  
                       l2339 0E05                         l2347 0E15                         l2291 0D9C  
                       l2283 0D8C                         l2275 0D79                         l3067 0A1A  
                       l3059 09E8                         l3219 13F9                         l2613 0709  
                       l2605 06F5                         l2541 0497                         l2533 0487  
                       l2525 0470                         l2517 0460                         l2461 0FFE  
                       l2453 0FE5                         l2445 0FD2                         l2437 0F97  
                       l2429 0F84                         l2381 0EB0                         l2373 0E86  
                       l2357 0E5A                         l2365 0E6E                         l2349 0E16  
                       l2293 0DA2                         l2285 0D8D                         l2277 0D7A  
                       l2269 0D68                         l2509 1338                         l2701 171E  
                       l3069 0A2C                         l2471 1379                         l2463 135D  
                       l2631 075A                         l2623 072A                         l2615 070A  
                       l2607 06F6                         l2551 04B3                         l2543 049C  
                       l2535 048C                         l2527 0475                         l2519 0466  
                       l2455 0FE9                         l2447 0FD7                         l2439 0FA5  
                       l2383 0EB2                         l2375 0E9D                         l2367 0E78  
                       l2391 0EC7                         l2359 0E5E                         l2295 0DA3  
                       l2279 0D7F                         l2287 0D8F                         l2711 1774  
                       l2703 172A                         l2481 12AF                         l2721 16A3  
                       l2713 168D                         l2473 137E                         l2465 135F  
                       l2641 0791                         l2625 072F                         l2633 0760  
                       l2617 070E                         l2609 06FF                         l2561 04D6  
                       l2553 04B8                         l2545 04A1                         l2537 0492  
                       l2529 047D                         l2457 0FEB                         l2449 0FDF  
                       l2393 0EDD                         l2385 0EB6                         l2377 0EA1  
                       l2369 0E7D                         l2297 0DA9                         l2289 0D97  
                       l2705 172D                         l2801 01BA                         l3521 1441  
                       l3601 14FC                         l2483 12B0                         l2731 16C6  
                       l2723 16AA                         l2715 168E                         l2491 0904  
                       l2467 1366                         l2651 07B1                         l2643 0793  
                       l2635 076D                         l2627 073D                         l2619 0722  
                       l2571 0564                         l2563 04E3                         l2555 04BD  
                       l2547 04A9                         l2539 0496                         l2459 0FFA  
                       l2395 0F1D                         l2387 0EB7                         l2379 0EA5  
                       l2299 0DAD                         l2707 1738                         l2811 01E7  
                       l2803 01C2                         l3523 1458                         l3531 178A  
                       l3611 1523                         l3603 1501                         l2485 12B1  
                       l2477 12AA                         l3621 148C                         l2733 16CD  
                       l2725 16B1                         l2717 1695                         l2493 0920  
                       l2469 136A                         l2645 07A1                         l2637 0778  
                       l2629 0741                         l2581 05C6                         l2573 0580  
                       l2565 0500                         l2549 04AB                         l2397 0F23  
                       l2389 0EC2                         l2709 1759                         l2901 0362  
                       l2821 020B                         l2813 01ED                         l2805 01C6  
                       l2661 128F                         l3525 145E                         l3541 17B7  
                       l3533 1793                         l3613 152C                         l3605 1509  
                       l3701 0105                         l2487 12B6                         l2479 12AE  
                       l3623 1492                         l3615 1475                         l2727 16B8  
                       l2719 169C                         l2495 0928                         l2647 07A5  
                       l2639 0787                         l2591 0656                         l2583 05E3  
                       l2575 0589                         l2567 051C                         l2559 04C6  
                       l2399 0F28                         l2911 038F                         l2903 0366  
                       l2831 0232                         l2823 021A                         l2815 01F5  
                       l2807 01CA                         l2663 1290                         l2655 1289  
                       l2671 129E                         l3519 143E                         l3551 17DC  
                       l3543 17C5                         l3535 17A3                         l3527 177C  
                       l3607 1512                         l3631 14C1                         l3711 0117  
                       l3703 0109                         l2681 127D                         l3625 14AD  
                       l3617 147F                         l2729 16BF                         l2737 16D4  
                       l2497 092C                         l2489 08F0                         l2649 07A6  
                       l2593 0683                         l2585 05FC                         l2577 0599  
                       l2569 0548                         l2921 03C8                         l2913 039D  
                       l2905 0374                         l2833 0240                         l2841 0261  
                       l2825 0220                         l2809 01D8                         l2817 01F9  
                       l2665 1295                         l2657 128D                         l2673 129F  
                       l3545 17CB                         l3553 17E2                         l3537 17A9  
                       l3529 1780                         l3609 1517                         l3801 0CD1  
                       l3633 14CB                         l3713 0120                         l3705 0109  
                       l3721 0153                         l3641 0010                         l2683 127E  
                       l3619 1482                         l2739 16F9                         l2499 0950  
                       l2595 06A9                         l2587 0619                         l2579 05B6  
                       l2931 0400                         l2923 03D7                         l2915 03AC  
                       l2907 0383                         l2851 0290                         l2843 0265  
                       l2835 024F                         l2827 0228                         l2819 01FD  
                       l2659 128E                         l2675 12A0                         l2667 1299  
                       l3555 17EB                         l3547 17CD                         l3539 17B2  
                       l3571 15EB                         l3803 0CDF                         l3811 0D09  
                       l3731 0B63                         l3723 0B2A                         l3635 14D1  
                       l3627 14B3                         l3715 012E                         l3707 010D  
                       l3643 001A                         l2685 127F                         l3581 12F9  
                       l2597 06D1                         l2589 0646                         l2941 042F  
                       l2933 0406                         l2925 03DD                         l2917 03B6  
                       l2909 0389                         l2861 02BB                         l2845 0273  
                       l2853 0294                         l2837 0255                         l2829 022E  
                       l2781 0162                         l2677 12A5                         l2669 129D  
                       l3549 17D8                         l3573 15F5                         l3565 15D6  
                       l3821 0D35                         l3813 0D12                         l3805 0CE5  
                       l3741 0B96                         l3733 0B69                         l3725 0B37  
                       l3637 14EC                         l3629 14BE                         l3709 0112  
                       l3717 013E                         l3661 004B                         l3645 0029  
                       l3901 0A94                         l2951 1256                         l2687 1280  
                       l2679 1279                         l3583 12FE                         l2599 06DA  
                       l2943 0435                         l2935 040C                         l2927 03E3  
                       l2919 03BA                         l2871 02E8                         l2863 02C3  
                       l2855 0298                         l2847 0282                         l2839 025D  
                       l2791 0191                         l2783 0166                         l3575 160B  
                       l3567 15DD                         l3559 15D4                         l3831 1584  
                       l3591 13AD                         l3823 0D3E                         l3815 0D21  
                       l3807 0CF3                         l3751 0BC2                         l3743 0BA5  
                       l3735 0B77                         l3727 0B4C                         l3719 0146  
                       l3671 008C                         l3663 005D                         l3655 0036  
                       l3647 002E                         l3639 000B                         l3911 0AB3  
                       l3903 0A99                         l2961 1275                         l2953 1259  
                       l2689 1285                         l3585 1304                         l2945 0443  
                       l2937 041A                         l2929 03F1                         l2881 030E  
                       l2873 02EE                         l2857 02A6                         l2865 02C7  
                       l2849 0288                         l2785 0174                         l2793 0193  
                       l3577 1611                         l3569 15E2                         l3841 15AE  
                       l3833 158E                         l3593 13B7                         l3825 0D44  
                       l3817 0D2A                         l3809 0D02                         l3761 0BF5  
                       l3753 0BC8                         l3745 0BAE                         l3737 0B86  
                       l3729 0B55                         l3673 008E                         l3665 0064  
                       l3681 00AF                         l3657 003D                         l3649 0034  
                       l3921 0AEC                         l3905 0A9D                         l3913 0AC0  
                       l2955 125C                         l3587 130E                         l2699 16FD  
                       l2947 0452                         l2939 0429                         l2891 0333  
                       l2883 031D                         l2875 02F6                         l2867 02CB  
                       l2859 02B5                         l2795 0197                         l2787 0183  
                       l2779 015C                         l3579 161E                         l3843 15B5  
                       l3835 1598                         l3595 13C0                         l3851 0857  
                       l3827 0D52                         l3819 0D2F                         l3771 0C35  
                       l3763 0C0A                         l3755 0BD6                         l3747 0BB3  
                       l3739 0B8D                         l3691 00D2                         l3683 00C1  
                       l3675 0093                         l3667 0074                         l3659 0042  
                       l3931 0AFF                         l3915 0AC9                         l3907 0AA1  
                       l2957 126B                         l2949 1252                         l2893 0341  
                       l2885 0323                         l2877 02FC                         l2869 02D9  
                       l2797 01A5                         l2789 0189                         l3845 15BC  
                       l3837 15A1                         l3597 13CE                         l3861 0874  
                       l3853 085C                         l3829 0D61                         l3781 0C6C  
                       l3773 0C44                         l3765 0C13                         l3757 0BE5  
                       l3749 0BB9                         l3693 00D7                         l3685 00C5  
                       l3677 0098                         l3669 0086                         l3925 0AF5  
                       l3917 0AD5                         l3909 0AAF                         l2959 1270  
                       l2895 0350                         l2887 032B                         l2879 0300  
                       l2799 01B4                         l3599 14F6                         l3847 15C3  
                       l3839 15A6                         l3871 08AE                         l3863 087E  
                       l3855 0860                         l3791 0C94                         l3783 0C71  
                       l3767 0C21                         l3775 0C4B                         l3759 0BEC  
                       l3695 00E0                         l3687 00C9                         l3679 00A1  
                       l3935 0B05                         l3919 0ADE                         l2897 0356  
                       l2889 032F                         l3849 15CA                         l3881 08DE  
                       l3873 08B4                         l3865 088E                         l3857 0860  
                       l3793 0CA3                         l3785 0C77                         l3777 0C54  
                       l3769 0C27                         l3689 00CD                         l3697 00EF  
                       l3937 0B1E                         l2995 1317                         l2899 035E  
                       l3875 08BE                         l3867 0894                         l3859 086E  
                       l3787 0C80                         l3779 0C63                         l3795 0CAA  
                       l3699 0101                         l3891 0A60                         l3883 0A50  
                       l2997 131C                         l3877 08CE                         l3869 089E  
                       l3797 0CB3                         l3789 0C86                         l3893 0A65  
                       l3885 0A54                         l3879 08D4                         l3799 0CC8  
                       l3895 0A6E                         l3887 0A56                         l3897 0A7D  
                       l3889 0A5A                         l3995 0B0A                         l3899 0A86  
                       l3997 16D9                         u2000 0E78                         u2001 0E77  
                       u2010 0E7D                         u2011 0E7C                         u2100 0F28  
                       u2101 0F27                         u2021 0E8F                         u2110 0F4D  
                       u2030 0EA1                         u2022 0E96                         u2111 0F4C  
                       u2031 0EA0                         u2023 0E9D                         u2200 0F91  
                       u2120 0F52                         u2040 0EA5                         u3000 0300  
                       u2201 0F90                         u2121 0F51                         u2041 0EA4  
                       u3001 02FF                         u2210 0F97                         u2050 0EB6  
                       u3010 032B                         u2211 0F96                         u2051 0EB5  
                       u3011 032A                         u2300 136A                         u2220 0FA9  
                       u2140 0F6A                         u3020 0333                         u2301 1369  
                       u2221 0FA8                         u2141 0F69                         u3021 0332  
                       u2230 0FBA                         u2150 0F6F                         u2070 0EDD  
                       u3030 035E                         u2151 0F6E                         u2135 0F5F  
                       u2071 0EDC                         u3031 035D                         u2320 137E  
                       u2400 046A                         u2240 0FC9                         u2160 0F79  
                       u3040 0366                         u4000 15BC                         u3200 0A1A  
                       u2321 137D                         u2401 0469                         u2241 0FC8  
                       u2161 0F78                         u2081 0EF6                         u2073 0ED9  
                       u2065 0EBB                         u3041 0365                         u4001 15BB  
                       u3201 0A19                         u3130 1337                         u2330 0904  
                       u2410 0470                         u2250 0FD2                         u2170 0F7F  
                       u2090 0F0A                         u2082 0EF7                         u3050 038F  
                       u4010 15CA                         u3210 0A2C                         u3131 1336  
                       u2331 0903                         u2315 1371                         u2411 046F  
                       u2251 0FD1                         u2235 0FB5                         u2171 0F7E  
                       u2091 0F0B                         u2083 0EFC                         u3051 038E  
                       u4011 15C9                         u3211 0A2B                         u2340 0920  
                       u2420 0475                         u2260 0FD7                         u2180 0F84  
                       u2092 0F10                         u2084 0EFD                         u3060 03BA  
                       u3220 0A4F                         u3140 099B                         u4020 0874  
                       u4100 0B26                         u2341 091F                         u2501 0556  
                       u2421 0474                         u2261 0FD6                         u2181 0F83  
                       u2093 0F11                         u2085 0F02                         u3061 03B9  
                       u3221 0A4E                         u3141 099A                         u4021 0873  
                       u4101 0B25                         u2350 092C                         u2502 055D  
                       u2430 0496                         u2270 0FE4                         u2190 0F8A  
                       u2086 0F03                         u3070 03E3                         u3150 09A9  
                       u4030 0894                         u3135 1333                         u2351 092B  
                       u2511 0572                         u2503 0564                         u2431 0495  
                       u2271 0FE3                         u2191 0F89                         u3071 03E2  
                       u3215 0A28                         u3151 09A8                         u4031 0893  
                       u2512 0579                         u2440 049C                         u2280 0FE9  
                       u3080 040C                         u3160 09BB                         u4040 08B4  
                       u2361 093B                         u2601 069B                         u2513 0580  
                       u2441 049B                         u2281 0FE8                         u3081 040B  
                       u3161 09BA                         u4041 08B3                         u2370 0954  
                       u2362 093C                         u2610 06B7                         u2602 06A2  
                       u2450 04A1                         u2290 0FFE                         u3090 0435  
                       u3170 09E4                         u4050 08D4                         u2371 0953  
                       u2363 0941                         u2603 06A9                         u2531 05A8  
                       u2451 04A0                         u2291 0FFD                         u3091 0434  
                       u3171 09E3                         u4051 08D3                         u2364 0942  
                       u2700 0729                         u2532 05AF                         u2460 04B8  
                       u1900 0DB8                         u3180 09F3                         u3260 13A0  
                       u4060 0A6D                         u2381 0963                         u2365 0947  
                       u2701 0728                         u2621 06C3                         u2541 05D5  
                       u2533 05B6                         u2525 0582                         u2461 04B7  
                       u1901 0DB7                         u3181 09F2                         u3165 09B7  
                       u3261 139F                         u4117 0A8E                         u4061 0A6C  
                       u1830 12E2                         u2390 098E                         u2382 0964  
                       u2366 0948                         u2710 072F                         u2622 06CA  
                       u2542 05DC                         u2470 04BD                         u1910 0DD1  
                       u3190 0A05                         u3270 13A7                         u4070 0AA1  
                       u1831 12E1                         u2391 098D                         u2383 0969  
                       u2711 072E                         u2623 06D1                         u2615 06B2  
                       u2543 05E3                         u2471 04BC                         u1911 0DD0  
                       u3191 0A04                         u4207 0BD0                         u3271 13A6  
                       u4127 0AA9                         u4071 0AA0                         u2384 096A  
                       u2720 0741                         u1920 0DD5                         u1840 0D79  
                       u2800 1774                         u4080 0AC8                         u2385 096F  
                       u2721 0740                         u2561 060B                         u2481 050E  
                       u1921 0DD4                         u1841 0D78                         u2801 1773  
                       u4217 0C2F                         u4137 0AE6                         u4081 0AC7  
                       u2386 0970                         u2730 0750                         u2650 06F5  
                       u2562 0612                         u2482 0515                         u1930 0E2D  
                       u1850 0D7F                         u3370 1400                         u4090 0AF4  
                       u1835 12DE                         u2395 098A                         u2651 06F4  
                       u2635 06D3                         u2571 0638                         u2563 0619  
                       u2555 05E5                         u2491 052A                         u2483 051C  
                       u1931 0E2C                         u1851 0D7E                         u3195 0A01  
                       u4307 08DA                         u3371 13FF                         u4227 0C8E  
                       u4147 0016                         u4091 0AF3                         u2740 076D  
                       u2572 063F                         u2492 0531                         u1940 0E36  
                       u1860 0D84                         u2900 01FD                         u3700 17CB  
                       u2741 076C                         u2645 06EA                         u2581 0665  
                       u2573 0646                         u2493 0538                         u1941 0E34  
                       u1861 0D83                         u2901 01FC                         u3701 17CA  
                       u4317 09C8                         u3365 13E6                         u4237 0CED  
                       u4157 0025                         u2750 0787                         u2670 0709  
                       u2590 068F                         u2582 066C                         u1950 0E37  
                       u1870 0DA2                         u2910 0228                         u3710 17D8  
                       u2751 0786                         u2735 074B                         u2671 0708  
                       u2583 0673                         u1935 0E29                         u1871 0DA1  
                       u2911 0227                         u4407 019F                         u3711 17D7  
                       u4327 0A39                         u4247 0D4C                         u4167 00A9  
                       u2760 07A5                         u2680 070E                         u1960 0E4D  
                       u1880 0DAD                         u2920 0232                         u2840 0166  
                       u3720 17EB                         u3800 0064                         u2761 07A4  
                       u2745 0769                         u2681 070D                         u2665 06F8  
                       u1961 0E4C                         u1881 0DAC                         u2921 0231  
                       u4417 01D2                         u2841 0165                         u3721 17EA  
                       u4337 13D4                         u4257 13F4                         u4177 00E8  
                       u3801 0063                         u2690 0722                         u1970 0E5E  
                       u1890 0DB3                         u2930 025D                         u2850 0191  
                       u3730 15EB                         u3810 0074                         u2755 0783  
                       u2691 0721                         u2595 068A                         u1971 0E5D  
                       u1891 0DB2                         u4507 0397                         u2931 025C  
                       u4427 0205                         u2851 0190                         u3731 15EA  
                       u4347 1594                         u4267 0868                         u4187 0128  
                       u3811 0073                         u2940 0265                         u2860 0197  
                       u3740 161E                         u3900 0BC8                         u3820 0086  
                       u4517 03C2                         u2941 0264                         u4437 023A  
                       u2861 0196                         u3741 161D                         u4357 1534  
                       u4277 087A                         u3901 0BC7                         u4197 0B71  
                       u3821 0085                         u3750 130E                         u1990 0E74  
                       u2950 0290                         u2870 01C2                         u3670 144B  
                       u3910 0BF5                         u3830 00C1                         u3751 130D  
                       u1991 0E73                         u4527 03EB                         u2951 028F  
                       u4447 026D                         u2871 01C1                         u4367 15F1  
                       u4287 089A                         u3911 0BF4                         u3831 00C0  
                       u2960 0298                         u2880 01CA                         u3680 1468  
                       u3760 1509                         u3920 0C27                         u3840 0101  
                       u1985 0E63                         u4537 0414                         u4457 02A0  
                       u2961 0297                         u2881 01C9                         u4377 17BF  
                       u3745 161A                         u3761 1508                         u4297 08BA  
                       u3921 0C26                         u3841 0100                         u3770 14AD  
                       u2970 02C3                         u2890 01F5                         u3690 1474  
                       u3930 0C54                         u3850 0153                         u3771 14AC  
                       u4547 043D                         u4467 02D3                         u2971 02C2  
                       u2891 01F4                         u3691 1473                         u4387 17F3  
                       u3931 0C53                         u3851 0152                         u2980 02CB  
                       u3940 0C86                         u3780 14EC                         u3860 015B  
                       u4557 1724                         u4477 0308                         u2981 02CA  
                       u4397 016E                         u3941 0C85                         u3781 14EB  
                       u3861 015A                         u2990 02F6                         u3950 0CB3  
                       u3870 0B37                         u3790 004B                         u3775 14A9  
                       u4567 1733                         u4487 033B                         u2991 02F5  
                       u3951 0CB2                         u3871 0B36                         u3855 014F  
                       u3791 004A                         u3960 0CE5                         u3880 0B69  
                       u4497 036E                         u3961 0CE4                         u3881 0B68  
                       u3785 14E8                         u3970 0D12                         u3890 0B96  
                       u3971 0D11                         u3891 0B95                         u3980 0D44  
                       u3981 0D43                         u3990 15AE                         u3991 15AD  
               ?_LCD_escreve 0070                         _main 0A50                         _init 1252  
                       _menu 0050                 ?_liga_buzzer 0035                         btemp 007E  
               ?_espacoLivre 0070             _senhaUserConfere 005A    __end_of_rotinaValidaSenha 153B  
                       start 0000           __size_of_LCD_limpa 0010             __end_of_LCD_init 143E  
            __end_of___fladd 1000                        ?_main 0070                        ?_init 0070  
            __end_of___flmul 07BA              __end_of___flsub 135C                        _PORTB 0006  
                      _PORTD 0008                        _PORTE 0009                        _TRISA 0085  
                      _TRISB 0086                        _TRISD 0088                        _TRISE 0089  
                      _delay 12CD                        _input 0056              __end_of_teclado 0459  
                      pclath 000A                        status 0003                        wtemp0 007E  
           ?_inputSenhaAlter 0070          __size_of_LCD_enable 000E          __size_of_LCD_linha1 0010  
        __size_of_LCD_linha2 0010              __initialization 07BA                 __end_of_main 0B2A  
               __end_of_init 125E                 ?_telaInicial 0070                       ??_main 004B  
                     ??_init 0070         __end_of_alteraSenhas 15D1              _msgAceitoOuNego 00C8  
          __end_of_LCD_limpa 1299                       ?_delay 0070                       _ADCON0 001F  
                     _ADCON1 009F                       _ADRESH 001E                       _ADRESL 009E  
 __size_of_rotinaValidaSenha 0048                       _Linha2 1475                       ___flge 08F0  
                  ??___fladd 0020         __size_of_configZonas 0099                    ??___flmul 0079  
                  ??___flsub 007C            _msgSenhaCancelada 0131                       _painel 0054  
                     delay@i 0070              leituraADC@canal 0076                       _strcmp 1383  
                     _strlen 12F9             __end_of_setaZona 0A50             ??_confereTeclado 0072  
         __size_of__Umul8_16 0027                    ??_teclado 003B               _escreveMesagem 143E  
                 ___flge@ff1 0070                   ___flge@ff2 0074      __end_of__initialization 07FC  
                  ?_LCD_init 0070         __size_of_LCD_escreve 0011                 LCD_escreve@x 0072  
       __size_of_liga_buzzer 007C         __size_of_espacoLivre 0021               __pcstackCOMMON 0070  
               __pidataBANK0 12E3                 __pidataBANK1 153B                 __pidataBANK2 0809  
               __pidataBANK3 162D                __end_of_delay 12E3                 ??_LCD_enable 0072  
               ??_LCD_linha1 0072                 ??_LCD_linha2 0072       __end_of_escreveMesagem 1475  
               espacoLivre@i 0073    setaZona@msgZonaDisparadas 007A                      ??_delay 0070  
   rotinaValidaSenha@senhaOp 0046                _msgChamaAjuda 00BE                   __pbssBANK0 0064  
         __size_of_inicioADC 000D           __size_of_infoZonas 002F          escreveMesagem@texto 0073  
                 ??_LCD_init 0072                      ?_Linha2 0070           __end_of_LCD_enable 1279  
          __end_of__Umul8_16 1383           __end_of_LCD_linha1 12A9           __end_of_LCD_linha2 1289  
                 __pmaintext 0A50                      ?___flge 0070        __size_of_alteraSenhas 004D  
       confereTeclado@numero 0070                      ?_strcmp 0070                      ?_strlen 0070  
            ?_escreveMesagem 0073         __size_of_telaInicial 0040                      Linha2@i 0077  
              ?_valida_senha 007A     liga_buzzer@tempoSegundos 0035                 _alteraSenhas 1584  
            __size_of_Linha2 003E                    ?_setaZona 0070              __size_of___flge 00A2  
         valida_senha@aceito 0024                      ___fladd 0D68                      ___flmul 0459  
                    ___flsub 1338                   _leituraADC 13DC                  setaZona@pos 0071  
                validaUser@n 0041            __end_of_inicioADC 126B                      __ptext1 000B  
                    __ptext2 14B3                      __ptext3 1383                      __ptext4 0B2A  
                    __ptext5 13DC                      __ptext6 125E                      __ptext7 0857  
                    __ptext8 0992                      __ptext9 13AD            __end_of_infoZonas 13DC  
            __size_of_strcmp 002A              __size_of_strlen 001E                   _msgMascara 00DA  
                    _teclado 015C                   _listaZonas 0B2A         alteraSenhas@opConfig 0047  
       end_of_initialization 07FC               ??_valida_senha 0020                    _LCD_limpa 1289  
                 _validaUser 000B                   ??_setaZona 0073     __size_of_inputSenhaAlter 005C  
                    strcmp@r 0075                      strlen@s 0070                  ___fladd@grs 007B  
         _msgSenhaAtualizada 0110                   ?_LCD_limpa 0070                  ___flmul@grs 0029  
              ??_configZonas 0020            __size_of_LCD_init 0033               __end_of_Linha2 14B3  
                 _zonaConfig 0058                  ?_leituraADC 0070               __end_of___flge 0992  
             __end_of_strcmp 13AD               __end_of_strlen 1317          start_initialization 07BA  
                ?_listaZonas 003B               _valorSensorAux 0064                ??_LCD_escreve 0072  
              _senhaCoaAtivo 006E                ??_liga_buzzer 0039                ??_espacoLivre 0073  
                ?_validaUser 0070                     ??_Linha2 0075                     ??___flge 0078  
                 init_fetch0 12BA                    __Umul8_16 135C                  __pdataBANK0 004E  
                __pdataBANK1 00A0                  __pdataBANK2 0110                  __pdataBANK3 0190  
           ??_escreveMesagem 0075          __end_of_configZonas 08F0         __end_of_valida_senha 1800  
                   ??_strcmp 0072                     ??_strlen 0072                    ___fladd@a 0074  
                  ___fladd@b 0070            ??_inputSenhaAlter 003E                    ___flmul@a 0024  
                  ___flmul@b 0020                    ___flsub@a 0028                    ___flsub@b 002C  
              setaZona@i_184 0078                    ___latbits 0002                __pcstackBANK0 0020  
                ??_LCD_limpa 0072          __size_of_leituraADC 002F             inputSenhaAlter@i 0041  
    __size_of_confereTeclado 0070          __end_of_LCD_escreve 12BA          __end_of_liga_buzzer 1779  
                   ?___fladd 0070          __end_of_espacoLivre 1338          __size_of_listaZonas 023E  
                   ?___flmul 0020                     ?___flsub 0028            __size_of_setaZona 00BE  
          _msgZonaDisparadas 00A0                   ?__Umul8_16 0070                 telaInicial@i 0076  
              ??_telaInicial 0074               _msgDigiteSenha 0141                    _auxSensor 004E  
inputSenhaAlter@senhaDestino 0040                    _inicioADC 125E                     ?_teclado 0070  
        __size_of_validaUser 0151                    _infoZonas 13AD               __size_of_delay 0016  
          valida_senha@texto 0023                     _LCD_init 140B                    _senhaUser 005F  
                _configZonas 0857                     _GO_nDONE 00FA                    _userFalse 0052  
                 ?_inicioADC 0070                   ?_infoZonas 0070          __end_of_telaInicial 14F3  
                _LCD_escreve 12A9                  _liga_buzzer 16FD                  _espacoLivre 1317  
           _msgDesativarZona 0190        __size_of_valida_senha 0087                 ??_leituraADC 0072  
                ??__Umul8_16 0072             __size_of___fladd 0298              _msgSenhaDisparo 019F  
           __size_of___flmul 0361             __size_of___flsub 0024              _msgSenhaCorreta 01BB  
            _msgSenhaUsuario 01AD                 ??_listaZonas 003D             __size_of_teclado 02FD  
                   __ptext10 1584                     __ptext11 14F3                     __ptext20 0D68  
                   __ptext12 15D1                     __ptext21 0459                     __ptext13 1779  
                   __ptext30 140B                     __ptext22 135C                     __ptext14 143E  
                   __ptext31 1252                     __ptext23 08F0                     __ptext15 1299  
                   __ptext32 126B                     __ptext24 168D                     __ptext16 1289  
                   __ptext33 12CD                     __ptext25 1475                     __ptext17 015C  
                   __ptext26 12F9                     __ptext18 16FD                     __ptext27 1317  
                   __ptext19 1338                     __ptext28 1279                     __ptext29 12A9  
                   _opConfig 0068           __end_of_leituraADC 140B                 _valida_senha 1779  
             _confereTeclado 168D                    setaZona@i 0076                __size_of_main 00DA  
              __size_of_init 000C                 ??_validaUser 003E                  _msgReativar 00D1  
                   _senhaCoa 00E4                     _setaZona 0992              _inputSenhaAlter 15D1  
         __end_of_listaZonas 0D68                  _telaInicial 14B3                   _LCD_enable 126B  
          leituraADC@leitura 0074                   _LCD_linha1 1299                   _LCD_linha2 1279  
                ??_inicioADC 0070                  _senhaConfig 00DF                  ??_infoZonas 007A  
                   init_ram0 12BE           __end_of_validaUser 015C               _msgSenhaCoacao 01C9  
             _msgSenhaConfig 01D6               _msgSenhaErrada 01E3       __end_of_confereTeclado 16FD  
                _validaSenha 006C             _msgConfigDispara 00AF               _msgValidaSenha 0121  
              ?_alteraSenhas 0047     setaZona@msgConfigDispara 0070                  _valorSensor 0066  
     __Umul8_16@multiplicand 0070        listaZonas@valorSensor 003B                     strcmp@s1 0076  
                   strcmp@s2 0070                     strlen@cp 0072                ___fladd@signs 0078  
            ?_confereTeclado 0070                 ___fladd@aexp 0079                 ___fladd@bexp 007A  
       __Umul8_16@multiplier 0078      __end_of_inputSenhaAlter 162D               ??_alteraSenhas 0049  
               ?_configZonas 0070            __Umul8_16@product 0074            _rotinaValidaSenha 14F3  
